///////////////////////////////////////////////////////////////////////////////
//
// IAR C/C++ Compiler V10.40.1.7397 for 8051              01/May/2021  14:39:25
// Copyright 2004-2021 IAR Systems AB.
//
//    Core               =  plain
//    Code model         =  banked
//    Data model         =  large
//    Calling convention =  xdata reentrant
//    Constant location  =  data_rom
//    Dptr setup         =  1,16
//                          
//    Source file        =  
//        E:\Texas Instruments\Z-Stack 3.0.2\Components\stack\af\AF.c
//    Command line       =  
//        -f C:\Users\asus\AppData\Local\Temp\EWA0AF.tmp ("E:\Texas
//        Instruments\Z-Stack 3.0.2\Components\stack\af\AF.c" -D
//        BDB_FINDING_BINDING_CAPABILITY_ENABLED=0 -D HAL_UART_DMA_RX_MAX=128
//        -D MAXMEMHEAP=2765 -D TC_LINKKEY_JOIN -D NWK_MAX_DEVICE_LIST=10 -D
//        ZDSECMGR_TC_DEVICE_MAX=30 -D DISABLE_GREENPOWER_BASIC_PROXY -D
//        POWER_SAVING -D FEATURE_SYSTEM_STATS -D MT_GP_CB_FUNC -lC "E:\Texas
//        Instruments\Z-Stack
//        3.0.2\Projects\zstack\ZNP\CC253x\CC2530-Debug\List" -lA "E:\Texas
//        Instruments\Z-Stack
//        3.0.2\Projects\zstack\ZNP\CC253x\CC2530-Debug\List" --diag_suppress
//        Pe001,Pa010 -o "E:\Texas Instruments\Z-Stack
//        3.0.2\Projects\zstack\ZNP\CC253x\CC2530-Debug\Obj" -e --debug
//        --core=plain --dptr=16,1 --data_model=large --code_model=banked
//        --calling_convention=xdata_reentrant --place_constants=data_rom
//        --nr_virtual_regs 16 -f "E:\Texas Instruments\Z-Stack
//        3.0.2\Projects\zstack\ZNP\CC253x\..\Source\znp.cfg"
//        (-DMAC_CFG_APP_PENDING_QUEUE=TRUE
//        "-DZSTACK_DEVICE_BUILD=(DEVICE_BUILD_COORDINATOR |
//        DEVICE_BUILD_ROUTER | DEVICE_BUILD_ENDDEVICE)" -DNWK_AUTO_POLL
//        -DZNP_RUN_WDOG=FALSE -DZNP_UART_BAUD=HAL_UART_BR_115200 -DZIGBEEPRO
//        -DZIGBEE_FRAGMENTATION -DINTER_PAN -DOSAL_CLOCK -DOSAL_SAPI=FALSE
//        -DSAPI_CB_FUNC=FALSE -DHOLD_AUTO_START -DNV_RESTORE -DNV_INIT
//        -DNUM_DISC_ATTEMPTS=0 -DMT_UTIL_FUNC -DMT_SYS_FUNC -DMT_AF_FUNC
//        -DMT_SAPI_FUNC -DMT_SAPI_CB_FUNC -DMT_ZDO_CB_FUNC -DMT_ZDO_FUNC
//        -DMT_ZDO_MGMT -DMT_ZDO_EXTENSIONS -DMT_GP_CB_FUNC -DMT_APP_FUNC
//        -DMT_APP_CNF_FUNC) -f "E:\Texas Instruments\Z-Stack
//        3.0.2\Projects\zstack\ZNP\CC253x\..\..\Tools\CC2530DB\f8wConfig.cfg"
//        (-DZIGBEEPRO -DSECURE=1 -DZG_SECURE_DYNAMIC=0 -DREFLECTOR
//        -DDEFAULT_CHANLIST=0x00000800 -DZDAPP_CONFIG_PAN_ID=0xFFFF
//        -DNWK_START_DELAY=100 -DEXTENDED_JOINING_RANDOM_MASK=0x007F
//        -DBEACON_REQUEST_DELAY=100 -DBEACON_REQ_DELAY_MASK=0x00FF
//        -DLINK_STATUS_JITTER_MASK=0x007F -DROUTE_EXPIRY_TIME=30
//        -DAPSC_ACK_WAIT_DURATION_POLLED=3000 -DNWK_INDIRECT_MSG_TIMEOUT=7
//        -DMAX_RREQ_ENTRIES=8 -DAPSC_MAX_FRAME_RETRIES=3
//        -DNWK_MAX_DATA_RETRIES=2 -DMAX_POLL_FAILURE_RETRIES=2 -DMAX_BCAST=9
//        -DAPS_MAX_GROUPS=16 -DMAX_RTG_ENTRIES=40 -DNWK_MAX_BINDING_ENTRIES=4
//        -DMAX_BINDING_CLUSTER_IDS=4 -DDEFAULT_KEY={0}
//        -DMAC_MAX_FRAME_SIZE=116 -DZDNWKMGR_MIN_TRANSMISSIONS=20
//        "-DCONST=const __code" -DGENERIC=__generic -DRFD_RCVC_ALWAYS_ON=FALSE
//        -DPOLL_RATE=1000 -DQUEUED_POLL_RATE=100 -DRESPONSE_POLL_RATE=100
//        -DREJOIN_POLL_RATE=440 -DREJOIN_BACKOFF=900000 -DREJOIN_SCAN=900000
//        -DENABLE_LED4_DISABLE_S1) -f "E:\Texas Instruments\Z-Stack
//        3.0.2\Projects\zstack\ZNP\CC253x\..\..\Tools\CC2530DB\f8wZCL.cfg" -I
//        "E:\Texas Instruments\Z-Stack 3.0.2\Projects\zstack\ZNP\CC253x\" -I
//        "E:\Texas Instruments\Z-Stack
//        3.0.2\Projects\zstack\ZNP\CC253x\Source\" -I "E:\Texas
//        Instruments\Z-Stack 3.0.2\Projects\zstack\ZNP\CC253x\..\Source\" -I
//        "E:\Texas Instruments\Z-Stack
//        3.0.2\Projects\zstack\ZNP\CC253x\..\..\SE\Source\" -I "E:\Texas
//        Instruments\Z-Stack
//        3.0.2\Projects\zstack\ZNP\CC253x\..\..\ZMain\TI2530ZNP\" -I "E:\Texas
//        Instruments\Z-Stack
//        3.0.2\Projects\zstack\ZNP\CC253x\..\..\..\..\Components\hal\include\"
//        -I "E:\Texas Instruments\Z-Stack
//        3.0.2\Projects\zstack\ZNP\CC253x\..\..\..\..\Components\hal\target\CC2530ZNP\"
//        -I "E:\Texas Instruments\Z-Stack
//        3.0.2\Projects\zstack\ZNP\CC253x\..\..\..\..\Components\mac\include\"
//        -I "E:\Texas Instruments\Z-Stack
//        3.0.2\Projects\zstack\ZNP\CC253x\..\..\..\..\Components\mac\high_level\"
//        -I "E:\Texas Instruments\Z-Stack
//        3.0.2\Projects\zstack\ZNP\CC253x\..\..\..\..\Components\mac\low_level\srf04\"
//        -I "E:\Texas Instruments\Z-Stack
//        3.0.2\Projects\zstack\ZNP\CC253x\..\..\..\..\Components\mac\low_level\srf04\single_chip\"
//        -I "E:\Texas Instruments\Z-Stack
//        3.0.2\Projects\zstack\ZNP\CC253x\..\..\..\..\Components\mt\" -I
//        "E:\Texas Instruments\Z-Stack
//        3.0.2\Projects\zstack\ZNP\CC253x\..\..\..\..\Components\osal\include\"
//        -I "E:\Texas Instruments\Z-Stack
//        3.0.2\Projects\zstack\ZNP\CC253x\..\..\..\..\Components\services\ecc\binary163\"
//        -I "E:\Texas Instruments\Z-Stack
//        3.0.2\Projects\zstack\ZNP\CC253x\..\..\..\..\Components\services\ecc\binary283\"
//        -I "E:\Texas Instruments\Z-Stack
//        3.0.2\Projects\zstack\ZNP\CC253x\..\..\..\..\Components\services\saddr\"
//        -I "E:\Texas Instruments\Z-Stack
//        3.0.2\Projects\zstack\ZNP\CC253x\..\..\..\..\Components\services\sdata\"
//        -I "E:\Texas Instruments\Z-Stack
//        3.0.2\Projects\zstack\ZNP\CC253x\..\..\..\..\Components\stack\af\" -I
//        "E:\Texas Instruments\Z-Stack
//        3.0.2\Projects\zstack\ZNP\CC253x\..\..\..\..\Components\stack\gp\" -I
//        "E:\Texas Instruments\Z-Stack
//        3.0.2\Projects\zstack\ZNP\CC253x\..\..\..\..\Components\stack\bdb\"
//        -I "E:\Texas Instruments\Z-Stack
//        3.0.2\Projects\zstack\ZNP\CC253x\..\..\..\..\Components\stack\nwk\"
//        -I "E:\Texas Instruments\Z-Stack
//        3.0.2\Projects\zstack\ZNP\CC253x\..\..\..\..\Components\stack\sapi\"
//        -I "E:\Texas Instruments\Z-Stack
//        3.0.2\Projects\zstack\ZNP\CC253x\..\..\..\..\Components\stack\sec\"
//        -I "E:\Texas Instruments\Z-Stack
//        3.0.2\Projects\zstack\ZNP\CC253x\..\..\..\..\Components\stack\sys\"
//        -I "E:\Texas Instruments\Z-Stack
//        3.0.2\Projects\zstack\ZNP\CC253x\..\..\..\..\Components\stack\zcl\"
//        -I "E:\Texas Instruments\Z-Stack
//        3.0.2\Projects\zstack\ZNP\CC253x\..\..\..\..\Components\stack\zdo\"
//        -I "E:\Texas Instruments\Z-Stack
//        3.0.2\Projects\zstack\ZNP\CC253x\..\..\..\..\Components\zmac\" -I
//        "E:\Texas Instruments\Z-Stack
//        3.0.2\Projects\zstack\ZNP\CC253x\..\..\..\..\Components\zmac\f8w\"
//        -Ohz --require_prototypes --no_code_motion)
//    Locale             =  English_USA.1252
//    List file          =  
//        E:\Texas Instruments\Z-Stack
//        3.0.2\Projects\zstack\ZNP\CC253x\CC2530-Debug\List\AF.s51
//
///////////////////////////////////////////////////////////////////////////////

        NAME AF

        RTMODEL "__SystemLibrary", "CLib"
        RTMODEL "__calling_convention", "xdata_reentrant"
        RTMODEL "__code_model", "banked"
        RTMODEL "__core", "plain"
        RTMODEL "__data_model", "large"
        RTMODEL "__dptr_size", "16"
        RTMODEL "__extended_stack", "disabled"
        RTMODEL "__location_for_constants", "data"
        RTMODEL "__number_of_dptrs", "1"
        RTMODEL "__register_banks", "*"
        RTMODEL "__rt_version", "1"

        RSEG DOVERLAY:DATA:NOROOT(0)
        RSEG IOVERLAY:IDATA:NOROOT(0)
        RSEG ISTACK:IDATA:NOROOT(0)
        RSEG PSTACK:XDATA:NOROOT(0)
        RSEG XSTACK:XDATA:NOROOT(0)

        EXTERN ?V0
        EXTERN ?V1
        EXTERN ?V2
        EXTERN ?V3
        EXTERN ?V4
        EXTERN ?V5
        EXTERN ?V6
        EXTERN ?V7
        EXTERN ?V8
        EXTERN ?V9
        EXTERN ?V10
        EXTERN ?V11
        EXTERN ?V12
        EXTERN ?V13
        EXTERN ?V14
        EXTERN ?V15
        EXTERN ?ALLOC_XSTACK8
        EXTERN ?BANKED_ENTER_XDATA
        EXTERN ?BANKED_LEAVE_XDATA
        EXTERN ?BDISPATCH
        EXTERN ?BRET
        EXTERN ?CALL_IND
        EXTERN ?DEALLOC_XSTACK8
        EXTERN ?L_MOV_X
        EXTERN ?PUSH_XSTACK8_X_TWO
        EXTERN ?PUSH_XSTACK_I_FOUR
        EXTERN ?PUSH_XSTACK_I_ONE
        EXTERN ?PUSH_XSTACK_I_THREE
        EXTERN ?PUSH_XSTACK_I_TWO
        EXTERN ?XLOAD_R0123
        EXTERN ?XSP
        EXTERN ?XSTACK_DISP0_8
        EXTERN ?XSTACK_DISP101_8
        EXTERN ?XSTORE_R0123
        EXTERN __INIT_XDATA_I
        EXTERN __INIT_XDATA_Z

        PUBLIC `??AF_DataRequest::?relay`
        FUNCTION `??AF_DataRequest::?relay`,0203H
        PUBLIC `??AF_DataRequestSrcRtg::?relay`
        FUNCTION `??AF_DataRequestSrcRtg::?relay`,0203H
        PUBLIC `??afAPSF_ConfigGet::?relay`
        FUNCTION `??afAPSF_ConfigGet::?relay`,0203H
        PUBLIC `??afAPSF_ConfigSet::?relay`
        FUNCTION `??afAPSF_ConfigSet::?relay`,0203H
        FUNCTION `??afBuildMSGIncoming::?relay`,0203H
        PUBLIC `??afCopyAddress::?relay`
        FUNCTION `??afCopyAddress::?relay`,0203H
        PUBLIC `??afDataConfirm::?relay`
        FUNCTION `??afDataConfirm::?relay`,0203H
        PUBLIC `??afDataReqMTU::?relay`
        FUNCTION `??afDataReqMTU::?relay`,0203H
        PUBLIC `??afDelete::?relay`
        FUNCTION `??afDelete::?relay`,0203H
        PUBLIC `??afEndPoints::?relay`
        FUNCTION `??afEndPoints::?relay`,0203H
        PUBLIC `??afFindEndPointDesc::?relay`
        FUNCTION `??afFindEndPointDesc::?relay`,0203H
        FUNCTION `??afFindEndPointDescList::?relay`,0203H
        PUBLIC `??afFindSimpleDesc::?relay`
        FUNCTION `??afFindSimpleDesc::?relay`,0203H
        PUBLIC `??afGetMatch::?relay`
        FUNCTION `??afGetMatch::?relay`,0203H
        PUBLIC `??afIncomingData::?relay`
        FUNCTION `??afIncomingData::?relay`,0203H
        PUBLIC `??afNumEndPoints::?relay`
        FUNCTION `??afNumEndPoints::?relay`,0203H
        PUBLIC `??afReflectError::?relay`
        FUNCTION `??afReflectError::?relay`,0203H
        PUBLIC `??afRegister::?relay`
        FUNCTION `??afRegister::?relay`,0203H
        PUBLIC `??afRegisterExtended::?relay`
        FUNCTION `??afRegisterExtended::?relay`,0203H
        PUBLIC `??afSetApplCB::?relay`
        FUNCTION `??afSetApplCB::?relay`,0203H
        PUBLIC `??afSetMatch::?relay`
        FUNCTION `??afSetMatch::?relay`,0203H
        PUBLIC AF_DataRequest
        FUNCTION AF_DataRequest,0a1203H
        ARGFRAME XSTACK, 21, STACK
        ARGFRAME IOVERLAY, 0, STATIC
        ARGFRAME DOVERLAY, 0, STATIC
        LOCFRAME ISTACK, 1, STACK
        LOCFRAME XSTACK, 51, STACK
        PUBLIC AF_DataRequestDiscoverRoute
        PUBLIC AF_DataRequestSrcRtg
        FUNCTION AF_DataRequestSrcRtg,0a1203H
        ARGFRAME XSTACK, 12, STACK
        LOCFRAME XSTACK, 21, STACK
        PUBLIC afAPSF_ConfigGet
        FUNCTION afAPSF_ConfigGet,0a1203H
        ARGFRAME XSTACK, 0, STACK
        LOCFRAME XSTACK, 15, STACK
        PUBLIC afAPSF_ConfigSet
        FUNCTION afAPSF_ConfigSet,0a1203H
        ARGFRAME XSTACK, 0, STACK
        LOCFRAME XSTACK, 15, STACK
        FUNCTION afBuildMSGIncoming,0a1203H
        ARGFRAME XSTACK, 40, STACK
        ARGFRAME IOVERLAY, 0, STATIC
        ARGFRAME DOVERLAY, 0, STATIC
        LOCFRAME ISTACK, 1, STACK
        LOCFRAME XSTACK, 22, STACK
        PUBLIC afCopyAddress
        FUNCTION afCopyAddress,021203H
        ARGFRAME XSTACK, 19, STACK
        ARGFRAME IOVERLAY, 0, STATIC
        ARGFRAME DOVERLAY, 0, STATIC
        LOCFRAME ISTACK, 1, STACK
        LOCFRAME XSTACK, 9, STACK
        PUBLIC afDataConfirm
        FUNCTION afDataConfirm,0a1203H
        ARGFRAME XSTACK, 51, STACK
        ARGFRAME IOVERLAY, 0, STATIC
        ARGFRAME DOVERLAY, 0, STATIC
        LOCFRAME ISTACK, 1, STACK
        LOCFRAME XSTACK, 14, STACK
        PUBLIC afDataReqMTU
        FUNCTION afDataReqMTU,021203H
        ARGFRAME XSTACK, 51, STACK
        ARGFRAME IOVERLAY, 0, STATIC
        ARGFRAME DOVERLAY, 0, STATIC
        LOCFRAME XSTACK, 9, STACK
        PUBLIC afDelete
        FUNCTION afDelete,021203H
        ARGFRAME XSTACK, 0, STACK
        LOCFRAME XSTACK, 9, STACK
        PUBLIC afEndPoints
        FUNCTION afEndPoints,0203H
        ARGFRAME XSTACK, 0, STACK
        LOCFRAME ISTACK, 3, STACK
        PUBLIC afFindEndPointDesc
        FUNCTION afFindEndPointDesc,0a1203H
        ARGFRAME XSTACK, 28, STACK
        ARGFRAME IOVERLAY, 0, STATIC
        ARGFRAME DOVERLAY, 0, STATIC
        LOCFRAME XSTACK, 10, STACK
        FUNCTION afFindEndPointDescList,0203H
        ARGFRAME XSTACK, 51, STACK
        ARGFRAME IOVERLAY, 0, STATIC
        ARGFRAME DOVERLAY, 0, STATIC
        LOCFRAME ISTACK, 2, STACK
        PUBLIC afFindSimpleDesc
        FUNCTION afFindSimpleDesc,0a1203H
        ARGFRAME XSTACK, 0, STACK
        LOCFRAME XSTACK, 12, STACK
        PUBLIC afGetMatch
        FUNCTION afGetMatch,0a1203H
        ARGFRAME XSTACK, 0, STACK
        LOCFRAME XSTACK, 10, STACK
        PUBLIC afIncomingData
        FUNCTION afIncomingData,0a1203H
        ARGFRAME XSTACK, 10, STACK
        LOCFRAME ISTACK, 1, STACK
        LOCFRAME XSTACK, 40, STACK
        PUBLIC afNumEndPoints
        FUNCTION afNumEndPoints,0203H
        ARGFRAME XSTACK, 0, STACK
        LOCFRAME ISTACK, 2, STACK
        PUBLIC afReflectError
        FUNCTION afReflectError,0a1203H
        ARGFRAME XSTACK, 2, STACK
        LOCFRAME ISTACK, 1, STACK
        LOCFRAME XSTACK, 16, STACK
        PUBLIC afRegister
        FUNCTION afRegister,0a1203H
        ARGFRAME XSTACK, 0, STACK
        LOCFRAME XSTACK, 12, STACK
        PUBLIC afRegisterExtended
        FUNCTION afRegisterExtended,0a1203H
        ARGFRAME XSTACK, 12, STACK
        ARGFRAME IOVERLAY, 0, STATIC
        ARGFRAME DOVERLAY, 0, STATIC
        LOCFRAME XSTACK, 12, STACK
        PUBLIC afSetApplCB
        FUNCTION afSetApplCB,0a1203H
        ARGFRAME XSTACK, 0, STACK
        LOCFRAME XSTACK, 12, STACK
        PUBLIC afSetMatch
        FUNCTION afSetMatch,0a1203H
        ARGFRAME XSTACK, 0, STACK
        LOCFRAME XSTACK, 10, STACK
        PUBLIC epList
        
          CFI Names cfiNames0
          CFI StackFrame CFA_SP SP IDATA
          CFI StackFrame CFA_PSP16 PSP16 XDATA
          CFI StackFrame CFA_XSP16 XSP16 XDATA
          CFI StaticOverlayFrame CFA_IOVERLAY IOVERLAY
          CFI StaticOverlayFrame CFA_DOVERLAY DOVERLAY
          CFI Resource `PSW.CY`:1, `B.BR0`:1, `B.BR1`:1, `B.BR2`:1, `B.BR3`:1
          CFI Resource `B.BR4`:1, `B.BR5`:1, `B.BR6`:1, `B.BR7`:1, `VB.BR8`:1
          CFI Resource `VB.BR9`:1, `VB.BR10`:1, `VB.BR11`:1, `VB.BR12`:1
          CFI Resource `VB.BR13`:1, `VB.BR14`:1, `VB.BR15`:1, VB:8, B:8, A:8
          CFI Resource PSW:8, DPL0:8, DPH0:8, R0:8, R1:8, R2:8, R3:8, R4:8, R5:8
          CFI Resource R6:8, R7:8, V0:8, V1:8, V2:8, V3:8, V4:8, V5:8, V6:8, V7:8
          CFI Resource V8:8, V9:8, V10:8, V11:8, V12:8, V13:8, V14:8, V15:8, SP:8
          CFI Resource PSPH:8, PSPL:8, PSP16:16, XSPH:8, XSPL:8, XSP16:16
          CFI VirtualResource ?RET:24
          CFI Resource ?BRET_EXT:8
          CFI VirtualResource ?RET_HIGH:8, ?RET_LOW:8
          CFI ResourceParts PSP16 PSPH, PSPL
          CFI ResourceParts XSP16 XSPH, XSPL
          CFI ResourceParts ?RET ?BRET_EXT, ?RET_HIGH, ?RET_LOW
          CFI EndNames cfiNames0
        
          CFI Common cfiCommon0 Using cfiNames0
          CFI CodeAlign 1
          CFI DataAlign -1
          CFI ReturnAddress ?RET CODE
          CFI CFA_DOVERLAY Used
          CFI CFA_IOVERLAY Used
          CFI CFA_SP SP+-3
          CFI CFA_PSP16 PSP16+0
          CFI CFA_XSP16 XSP16+0
          CFI `PSW.CY` SameValue
          CFI `B.BR0` SameValue
          CFI `B.BR1` SameValue
          CFI `B.BR2` SameValue
          CFI `B.BR3` SameValue
          CFI `B.BR4` SameValue
          CFI `B.BR5` SameValue
          CFI `B.BR6` SameValue
          CFI `B.BR7` SameValue
          CFI `VB.BR8` SameValue
          CFI `VB.BR9` SameValue
          CFI `VB.BR10` SameValue
          CFI `VB.BR11` SameValue
          CFI `VB.BR12` SameValue
          CFI `VB.BR13` SameValue
          CFI `VB.BR14` SameValue
          CFI `VB.BR15` SameValue
          CFI VB SameValue
          CFI B Undefined
          CFI A Undefined
          CFI PSW SameValue
          CFI DPL0 SameValue
          CFI DPH0 SameValue
          CFI R0 Undefined
          CFI R1 Undefined
          CFI R2 Undefined
          CFI R3 Undefined
          CFI R4 Undefined
          CFI R5 Undefined
          CFI R6 SameValue
          CFI R7 SameValue
          CFI V0 SameValue
          CFI V1 SameValue
          CFI V2 SameValue
          CFI V3 SameValue
          CFI V4 SameValue
          CFI V5 SameValue
          CFI V6 SameValue
          CFI V7 SameValue
          CFI V8 SameValue
          CFI V9 SameValue
          CFI V10 SameValue
          CFI V11 SameValue
          CFI V12 SameValue
          CFI V13 SameValue
          CFI V14 SameValue
          CFI V15 SameValue
          CFI PSPH Undefined
          CFI PSPL Undefined
          CFI XSPH Undefined
          CFI XSPL Undefined
          CFI ?RET Concat
          CFI ?BRET_EXT Frame(CFA_SP, 3)
          CFI ?RET_HIGH Frame(CFA_SP, 2)
          CFI ?RET_LOW Frame(CFA_SP, 1)
          CFI EndCommon cfiCommon0
        
        
          CFI Common cfiCommon1 Using cfiNames0
          CFI CodeAlign 1
          CFI DataAlign -1
          CFI ReturnAddress ?RET CODE
          CFI CFA_DOVERLAY Used
          CFI CFA_IOVERLAY Used
          CFI CFA_SP SP+-2
          CFI CFA_PSP16 PSP16+0
          CFI CFA_XSP16 XSP16+0
          CFI `PSW.CY` SameValue
          CFI `B.BR0` SameValue
          CFI `B.BR1` SameValue
          CFI `B.BR2` SameValue
          CFI `B.BR3` SameValue
          CFI `B.BR4` SameValue
          CFI `B.BR5` SameValue
          CFI `B.BR6` SameValue
          CFI `B.BR7` SameValue
          CFI `VB.BR8` SameValue
          CFI `VB.BR9` SameValue
          CFI `VB.BR10` SameValue
          CFI `VB.BR11` SameValue
          CFI `VB.BR12` SameValue
          CFI `VB.BR13` SameValue
          CFI `VB.BR14` SameValue
          CFI `VB.BR15` SameValue
          CFI VB SameValue
          CFI B SameValue
          CFI A SameValue
          CFI PSW SameValue
          CFI DPL0 SameValue
          CFI DPH0 SameValue
          CFI R0 SameValue
          CFI R1 SameValue
          CFI R2 SameValue
          CFI R3 SameValue
          CFI R4 SameValue
          CFI R5 SameValue
          CFI R6 SameValue
          CFI R7 SameValue
          CFI V0 SameValue
          CFI V1 SameValue
          CFI V2 SameValue
          CFI V3 SameValue
          CFI V4 SameValue
          CFI V5 SameValue
          CFI V6 SameValue
          CFI V7 SameValue
          CFI V8 SameValue
          CFI V9 SameValue
          CFI V10 SameValue
          CFI V11 SameValue
          CFI V12 SameValue
          CFI V13 SameValue
          CFI V14 SameValue
          CFI V15 SameValue
          CFI PSPH Undefined
          CFI PSPL Undefined
          CFI XSPH Undefined
          CFI XSPL Undefined
          CFI ?RET Concat
          CFI ?BRET_EXT SameValue
          CFI ?RET_HIGH Frame(CFA_SP, 2)
          CFI ?RET_LOW Frame(CFA_SP, 1)
          CFI EndCommon cfiCommon1
        
APSDE_DataReq       SYMBOL "APSDE_DataReq"
`??APSDE_DataReq::?relay` SYMBOL "?relay", APSDE_DataReq
APSDE_DataReqMTU    SYMBOL "APSDE_DataReqMTU"
`??APSDE_DataReqMTU::?relay` SYMBOL "?relay", APSDE_DataReqMTU
INTERP_DataReq      SYMBOL "INTERP_DataReq"
`??INTERP_DataReq::?relay` SYMBOL "?relay", INTERP_DataReq
INTERP_DataReqMTU   SYMBOL "INTERP_DataReqMTU"
`??INTERP_DataReqMTU::?relay` SYMBOL "?relay", INTERP_DataReqMTU
NLME_GetShortAddr   SYMBOL "NLME_GetShortAddr"
`??NLME_GetShortAddr::?relay` SYMBOL "?relay", NLME_GetShortAddr
NLME_IsAddressBroadcast SYMBOL "NLME_IsAddressBroadcast"
`??NLME_IsAddressBroadcast::?relay` SYMBOL "?relay", NLME_IsAddressBroadcast
RTG_AddSrcRtgEntry_Guaranteed SYMBOL "RTG_AddSrcRtgEntry_Guaranteed"
`??RTG_AddSrcRtgEntry_Guaranteed::?relay` SYMBOL "?relay", RTG_AddSrcRtgEntry_Guaranteed
RTG_CheckRtStatus   SYMBOL "RTG_CheckRtStatus"
`??RTG_CheckRtStatus::?relay` SYMBOL "?relay", RTG_CheckRtStatus
StubAPS_InterPan    SYMBOL "StubAPS_InterPan"
`??StubAPS_InterPan::?relay` SYMBOL "?relay", StubAPS_InterPan
aps_FindGroupForEndpoint SYMBOL "aps_FindGroupForEndpoint"
`??aps_FindGroupForEndpoint::?relay` SYMBOL "?relay", aps_FindGroupForEndpoint
osal_mem_alloc      SYMBOL "osal_mem_alloc"
`??osal_mem_alloc::?relay` SYMBOL "?relay", osal_mem_alloc
osal_mem_free       SYMBOL "osal_mem_free"
`??osal_mem_free::?relay` SYMBOL "?relay", osal_mem_free
osal_memcpy         SYMBOL "osal_memcpy"
`??osal_memcpy::?relay` SYMBOL "?relay", osal_memcpy
osal_msg_allocate   SYMBOL "osal_msg_allocate"
`??osal_msg_allocate::?relay` SYMBOL "?relay", osal_msg_allocate
osal_msg_send       SYMBOL "osal_msg_send"
`??osal_msg_send::?relay` SYMBOL "?relay", osal_msg_send
sAddrExtCpy         SYMBOL "sAddrExtCpy"
`??sAddrExtCpy::?relay` SYMBOL "?relay", sAddrExtCpy
AF_DataRequest      SYMBOL "AF_DataRequest"
`??AF_DataRequest::?relay` SYMBOL "?relay", AF_DataRequest
AF_DataRequestSrcRtg SYMBOL "AF_DataRequestSrcRtg"
`??AF_DataRequestSrcRtg::?relay` SYMBOL "?relay", AF_DataRequestSrcRtg
afAPSF_ConfigGet    SYMBOL "afAPSF_ConfigGet"
`??afAPSF_ConfigGet::?relay` SYMBOL "?relay", afAPSF_ConfigGet
afAPSF_ConfigSet    SYMBOL "afAPSF_ConfigSet"
`??afAPSF_ConfigSet::?relay` SYMBOL "?relay", afAPSF_ConfigSet
afCopyAddress       SYMBOL "afCopyAddress"
`??afCopyAddress::?relay` SYMBOL "?relay", afCopyAddress
afDataConfirm       SYMBOL "afDataConfirm"
`??afDataConfirm::?relay` SYMBOL "?relay", afDataConfirm
afDataReqMTU        SYMBOL "afDataReqMTU"
`??afDataReqMTU::?relay` SYMBOL "?relay", afDataReqMTU
afDelete            SYMBOL "afDelete"
`??afDelete::?relay` SYMBOL "?relay", afDelete
afEndPoints         SYMBOL "afEndPoints"
`??afEndPoints::?relay` SYMBOL "?relay", afEndPoints
afFindEndPointDesc  SYMBOL "afFindEndPointDesc"
`??afFindEndPointDesc::?relay` SYMBOL "?relay", afFindEndPointDesc
afFindSimpleDesc    SYMBOL "afFindSimpleDesc"
`??afFindSimpleDesc::?relay` SYMBOL "?relay", afFindSimpleDesc
afGetMatch          SYMBOL "afGetMatch"
`??afGetMatch::?relay` SYMBOL "?relay", afGetMatch
afIncomingData      SYMBOL "afIncomingData"
`??afIncomingData::?relay` SYMBOL "?relay", afIncomingData
afNumEndPoints      SYMBOL "afNumEndPoints"
`??afNumEndPoints::?relay` SYMBOL "?relay", afNumEndPoints
afReflectError      SYMBOL "afReflectError"
`??afReflectError::?relay` SYMBOL "?relay", afReflectError
afRegister          SYMBOL "afRegister"
`??afRegister::?relay` SYMBOL "?relay", afRegister
afRegisterExtended  SYMBOL "afRegisterExtended"
`??afRegisterExtended::?relay` SYMBOL "?relay", afRegisterExtended
afSetApplCB         SYMBOL "afSetApplCB"
`??afSetApplCB::?relay` SYMBOL "?relay", afSetApplCB
afSetMatch          SYMBOL "afSetMatch"
`??afSetMatch::?relay` SYMBOL "?relay", afSetMatch

        EXTERN `??APSDE_DataReq::?relay`
        FUNCTION `??APSDE_DataReq::?relay`,00H
        EXTERN `??APSDE_DataReqMTU::?relay`
        FUNCTION `??APSDE_DataReqMTU::?relay`,00H
        EXTERN `??INTERP_DataReq::?relay`
        FUNCTION `??INTERP_DataReq::?relay`,00H
        EXTERN `??INTERP_DataReqMTU::?relay`
        FUNCTION `??INTERP_DataReqMTU::?relay`,00H
        EXTERN `??NLME_GetShortAddr::?relay`
        FUNCTION `??NLME_GetShortAddr::?relay`,00H
        EXTERN `??NLME_IsAddressBroadcast::?relay`
        FUNCTION `??NLME_IsAddressBroadcast::?relay`,00H
        EXTERN `??RTG_AddSrcRtgEntry_Guaranteed::?relay`
        FUNCTION `??RTG_AddSrcRtgEntry_Guaranteed::?relay`,00H
        EXTERN `??RTG_CheckRtStatus::?relay`
        FUNCTION `??RTG_CheckRtStatus::?relay`,00H
        EXTERN `??StubAPS_InterPan::?relay`
        FUNCTION `??StubAPS_InterPan::?relay`,00H
        EXTERN `??aps_FindGroupForEndpoint::?relay`
        FUNCTION `??aps_FindGroupForEndpoint::?relay`,00H
        EXTERN `??osal_mem_alloc::?relay`
        FUNCTION `??osal_mem_alloc::?relay`,00H
        EXTERN `??osal_mem_free::?relay`
        FUNCTION `??osal_mem_free::?relay`,00H
        EXTERN `??osal_memcpy::?relay`
        FUNCTION `??osal_memcpy::?relay`,00H
        EXTERN `??osal_msg_allocate::?relay`
        FUNCTION `??osal_msg_allocate::?relay`,00H
        EXTERN `??osal_msg_send::?relay`
        FUNCTION `??osal_msg_send::?relay`,00H
        EXTERN `??sAddrExtCpy::?relay`
        FUNCTION `??sAddrExtCpy::?relay`,00H
        EXTERN APSDE_DataReq
        FUNCTION APSDE_DataReq,0202H
        ARGFRAME ISTACK, 0, STACK
        ARGFRAME PSTACK, 0, STACK
        ARGFRAME XSTACK, 51, STACK
        ARGFRAME IOVERLAY, 0, STATIC
        ARGFRAME DOVERLAY, 0, STATIC
        EXTERN APSDE_DataReqMTU
        FUNCTION APSDE_DataReqMTU,0202H
        ARGFRAME ISTACK, 0, STACK
        ARGFRAME PSTACK, 0, STACK
        ARGFRAME XSTACK, 9, STACK
        ARGFRAME IOVERLAY, 0, STATIC
        ARGFRAME DOVERLAY, 0, STATIC
        EXTERN INTERP_DataReq
        FUNCTION INTERP_DataReq,0202H
        ARGFRAME ISTACK, 0, STACK
        ARGFRAME PSTACK, 0, STACK
        ARGFRAME XSTACK, 51, STACK
        ARGFRAME IOVERLAY, 0, STATIC
        ARGFRAME DOVERLAY, 0, STATIC
        EXTERN INTERP_DataReqMTU
        FUNCTION INTERP_DataReqMTU,0202H
        ARGFRAME ISTACK, 0, STACK
        ARGFRAME PSTACK, 0, STACK
        ARGFRAME XSTACK, 51, STACK
        ARGFRAME IOVERLAY, 0, STATIC
        ARGFRAME DOVERLAY, 0, STATIC
        EXTERN NLME_GetShortAddr
        FUNCTION NLME_GetShortAddr,0202H
        ARGFRAME ISTACK, 0, STACK
        ARGFRAME PSTACK, 0, STACK
        ARGFRAME XSTACK, 51, STACK
        ARGFRAME IOVERLAY, 0, STATIC
        ARGFRAME DOVERLAY, 0, STATIC
        EXTERN NLME_IsAddressBroadcast
        FUNCTION NLME_IsAddressBroadcast,0202H
        ARGFRAME ISTACK, 0, STACK
        ARGFRAME PSTACK, 0, STACK
        ARGFRAME XSTACK, 51, STACK
        ARGFRAME IOVERLAY, 0, STATIC
        ARGFRAME DOVERLAY, 0, STATIC
        EXTERN RTG_AddSrcRtgEntry_Guaranteed
        FUNCTION RTG_AddSrcRtgEntry_Guaranteed,0202H
        ARGFRAME ISTACK, 0, STACK
        ARGFRAME PSTACK, 0, STACK
        ARGFRAME XSTACK, 12, STACK
        ARGFRAME IOVERLAY, 0, STATIC
        ARGFRAME DOVERLAY, 0, STATIC
        EXTERN RTG_CheckRtStatus
        FUNCTION RTG_CheckRtStatus,0202H
        ARGFRAME ISTACK, 0, STACK
        ARGFRAME PSTACK, 0, STACK
        ARGFRAME XSTACK, 51, STACK
        ARGFRAME IOVERLAY, 0, STATIC
        ARGFRAME DOVERLAY, 0, STATIC
        EXTERN StubAPS_InterPan
        FUNCTION StubAPS_InterPan,0202H
        ARGFRAME ISTACK, 0, STACK
        ARGFRAME PSTACK, 0, STACK
        ARGFRAME XSTACK, 51, STACK
        ARGFRAME IOVERLAY, 0, STATIC
        ARGFRAME DOVERLAY, 0, STATIC
        EXTERN aps_FindGroupForEndpoint
        FUNCTION aps_FindGroupForEndpoint,0202H
        ARGFRAME ISTACK, 0, STACK
        ARGFRAME PSTACK, 0, STACK
        ARGFRAME XSTACK, 28, STACK
        ARGFRAME IOVERLAY, 0, STATIC
        ARGFRAME DOVERLAY, 0, STATIC
        EXTERN apsfSendFragmented
        EXTERN osal_mem_alloc
        FUNCTION osal_mem_alloc,0202H
        ARGFRAME ISTACK, 0, STACK
        ARGFRAME PSTACK, 0, STACK
        ARGFRAME XSTACK, 12, STACK
        ARGFRAME IOVERLAY, 0, STATIC
        ARGFRAME DOVERLAY, 0, STATIC
        EXTERN osal_mem_free
        FUNCTION osal_mem_free,0202H
        ARGFRAME ISTACK, 0, STACK
        ARGFRAME PSTACK, 0, STACK
        ARGFRAME XSTACK, 51, STACK
        ARGFRAME IOVERLAY, 0, STATIC
        ARGFRAME DOVERLAY, 0, STATIC
        EXTERN osal_memcpy
        FUNCTION osal_memcpy,0202H
        ARGFRAME ISTACK, 0, STACK
        ARGFRAME PSTACK, 0, STACK
        ARGFRAME XSTACK, 22, STACK
        ARGFRAME IOVERLAY, 0, STATIC
        ARGFRAME DOVERLAY, 0, STATIC
        EXTERN osal_msg_allocate
        FUNCTION osal_msg_allocate,0202H
        ARGFRAME ISTACK, 0, STACK
        ARGFRAME PSTACK, 0, STACK
        ARGFRAME XSTACK, 19, STACK
        ARGFRAME IOVERLAY, 0, STATIC
        ARGFRAME DOVERLAY, 0, STATIC
        EXTERN osal_msg_send
        FUNCTION osal_msg_send,0202H
        ARGFRAME ISTACK, 0, STACK
        ARGFRAME PSTACK, 0, STACK
        ARGFRAME XSTACK, 19, STACK
        ARGFRAME IOVERLAY, 0, STATIC
        ARGFRAME DOVERLAY, 0, STATIC
        EXTERN sAddrExtCpy
        FUNCTION sAddrExtCpy,0202H
        ARGFRAME ISTACK, 0, STACK
        ARGFRAME PSTACK, 0, STACK
        ARGFRAME XSTACK, 51, STACK
        ARGFRAME IOVERLAY, 0, STATIC
        ARGFRAME DOVERLAY, 0, STATIC

// E:\Texas Instruments\Z-Stack 3.0.2\Components\stack\af\AF.c
//    1 /**************************************************************************************************
//    2   Filename:       AF.c
//    3   Revised:        $Date: 2014-11-04 10:53:36 -0800 (Tue, 04 Nov 2014) $
//    4   Revision:       $Revision: 40974 $
//    5 
//    6   Description:    Application Framework - Device Description helper functions
//    7 
//    8 
//    9   Copyright 2004-2014 Texas Instruments Incorporated. All rights reserved.
//   10 
//   11   IMPORTANT: Your use of this Software is limited to those specific rights
//   12   granted under the terms of a software license agreement between the user
//   13   who downloaded the software, his/her employer (which must be your employer)
//   14   and Texas Instruments Incorporated (the "License").  You may not use this
//   15   Software unless you agree to abide by the terms of the License. The License
//   16   limits your use, and you acknowledge, that the Software may not be modified,
//   17   copied or distributed unless embedded on a Texas Instruments microcontroller
//   18   or used solely and exclusively in conjunction with a Texas Instruments radio
//   19   frequency transceiver, which is integrated into your product.  Other than for
//   20   the foregoing purpose, you may not use, reproduce, copy, prepare derivative
//   21   works of, modify, distribute, perform, display or sell this Software and/or
//   22   its documentation for any purpose.
//   23 
//   24   YOU FURTHER ACKNOWLEDGE AND AGREE THAT THE SOFTWARE AND DOCUMENTATION ARE
//   25   PROVIDED "AS IS" WITHOUT WARRANTY OF ANY KIND, EITHER EXPRESS OR IMPLIED,
//   26   INCLUDING WITHOUT LIMITATION, ANY WARRANTY OF MERCHANTABILITY, TITLE,
//   27   NON-INFRINGEMENT AND FITNESS FOR A PARTICULAR PURPOSE. IN NO EVENT SHALL
//   28   TEXAS INSTRUMENTS OR ITS LICENSORS BE LIABLE OR OBLIGATED UNDER CONTRACT,
//   29   NEGLIGENCE, STRICT LIABILITY, CONTRIBUTION, BREACH OF WARRANTY, OR OTHER
//   30   LEGAL EQUITABLE THEORY ANY DIRECT OR INDIRECT DAMAGES OR EXPENSES
//   31   INCLUDING BUT NOT LIMITED TO ANY INCIDENTAL, SPECIAL, INDIRECT, PUNITIVE
//   32   OR CONSEQUENTIAL DAMAGES, LOST PROFITS OR LOST DATA, COST OF PROCUREMENT
//   33   OF SUBSTITUTE GOODS, TECHNOLOGY, SERVICES, OR ANY CLAIMS BY THIRD PARTIES
//   34   (INCLUDING BUT NOT LIMITED TO ANY DEFENSE THEREOF), OR OTHER SIMILAR COSTS.
//   35 
//   36   Should you have any questions regarding your right to use this Software,
//   37   contact Texas Instruments Incorporated at www.TI.com.
//   38 **************************************************************************************************/
//   39 
//   40 /*********************************************************************
//   41  * INCLUDES
//   42  */
//   43 
//   44 #include "OSAL.h"
//   45 #include "AF.h"
//   46 #include "nwk_globals.h"
//   47 #include "nwk_util.h"
//   48 #include "aps_groups.h"
//   49 #include "ZDProfile.h"
//   50 #include "aps_frag.h"
//   51 #include "rtg.h"
//   52 
//   53 #if defined ( MT_AF_CB_FUNC )
//   54   #include "MT_AF.h"
//   55 #endif
//   56 
//   57 #if defined ( INTER_PAN )
//   58   #include "stub_aps.h"
//   59 #endif
//   60 
//   61 #include "bdb.h" 
//   62 #if (BDB_TOUCHLINK_CAPABILITY_ENABLED==1)
//   63   #include "bdb_tlCommissioning.h"
//   64 #endif
//   65 
//   66 /*********************************************************************
//   67  * MACROS
//   68  */
//   69 
//   70 /*********************************************************************
//   71  * @fn      afSend
//   72  *
//   73  * @brief   Helper macro for V1 API to invoke V2 API.
//   74  *
//   75  * input parameters
//   76  *
//   77  * @param  *dstAddr - Full ZB destination address: Nwk Addr + End Point.
//   78  * @param   srcEP - Origination (i.e. respond to or ack to) End Point.
//   79  * @param   cID - A valid cluster ID as specified by the Profile.
//   80  * @param   len - Number of bytes of data pointed to by next param.
//   81  * @param  *buf - A pointer to the data bytes to send.
//   82  * @param   options - Valid bit mask of AF Tx Options as defined in AF.h.
//   83  * @param  *transID - A pointer to a byte which can be modified and which will
//   84  *                    be used as the transaction sequence number of the msg.
//   85  *
//   86  * output parameters
//   87  *
//   88  * @param  *transID - Incremented by one if the return value is success.
//   89  *
//   90  * @return  afStatus_t - See previous definition of afStatus_... types.
//   91  */
//   92 #define afSend( dstAddr, srcEP, cID, len, buf, transID, options, radius ) \ 
//   93         AF_DataRequest( (dstAddr), afFindEndPointDesc( (srcEP) ), \ 
//   94                           (cID), (len), (buf), (transID), (options), (radius) )
//   95 
//   96 /*********************************************************************
//   97  * GLOBAL VARIABLES
//   98  */
//   99 

        RSEG XDATA_Z:XDATA:NOROOT(0)
        DATA16
//  100 epList_t *epList;
epList:
        DS 2
        REQUIRE __INIT_XDATA_Z
//  101 
//  102 /*********************************************************************
//  103  * LOCAL FUNCTIONS
//  104  */
//  105 
//  106 static void afBuildMSGIncoming( aps_FrameFormat_t *aff, endPointDesc_t *epDesc,
//  107                 zAddrType_t *SrcAddress, uint16 SrcPanId, NLDE_Signal_t *sig,
//  108                 uint8 nwkSeqNum, uint8 SecurityUse, uint32 timestamp, uint8 radius );
//  109 
//  110 static epList_t *afFindEndPointDescList( uint8 EndPoint );
//  111 
//  112 static pDescCB afGetDescCB( endPointDesc_t *epDesc );
//  113 
//  114 /*********************************************************************
//  115  * PUBLIC FUNCTIONS
//  116  */
//  117 
//  118 /*********************************************************************
//  119  * @fn      afInit
//  120  *
//  121  * @brief   Initialization function for the AF.
//  122  *
//  123  * @param   none
//  124  *
//  125  * @return  none
//  126 void afInit( void )
//  127 {
//  128 }
//  129  */
//  130 
//  131 /*********************************************************************
//  132  * @fn      afRegisterExtended
//  133  *
//  134  * @brief   Register an Application's EndPoint description.
//  135  *
//  136  * @param   epDesc - pointer to the Application's endpoint descriptor.
//  137  * @param   descFn - pointer to descriptor callback function
//  138  * @param   applFn - pointer to the Application callback function
//  139  *
//  140  * NOTE:  The memory that epDesc is pointing to must exist after this call.
//  141  *
//  142  * @return  Pointer to epList_t on success, NULL otherwise.
//  143  */

        RSEG BANKED_CODE:HUGECODE:NOROOT(0)
//  144 epList_t *afRegisterExtended( endPointDesc_t *epDesc, pDescCB descFn, pApplCB applFn )
afRegisterExtended:
          CFI Block cfiBlock0 Using cfiCommon0
          CFI Function afRegisterExtended
        CODE
//  145 {
        FUNCALL afRegisterExtended, osal_mem_alloc
        LOCFRAME ISTACK, 0, STACK
        LOCFRAME PSTACK, 0, STACK
        LOCFRAME XSTACK, 12, STACK
        LOCFRAME IOVERLAY, 0, STATIC
        LOCFRAME DOVERLAY, 0, STATIC
        ARGFRAME ISTACK, 0, STACK
        ARGFRAME PSTACK, 0, STACK
        ARGFRAME XSTACK, 12, STACK
        ARGFRAME IOVERLAY, 0, STATIC
        ARGFRAME DOVERLAY, 0, STATIC
        REQUIRE ?V0
        REQUIRE ?V1
        REQUIRE ?V2
        REQUIRE ?V3
        MOV       A,#-0xc
        LCALL     ?BANKED_ENTER_XDATA
          CFI DPH0 load(1, XDATA, add(CFA_XSP16, literal(-1)))
          CFI DPL0 load(1, XDATA, add(CFA_XSP16, literal(-2)))
          CFI ?BRET_EXT load(1, XDATA, add(CFA_XSP16, literal(-3)))
          CFI ?RET_HIGH load(1, XDATA, add(CFA_XSP16, literal(-4)))
          CFI ?RET_LOW load(1, XDATA, add(CFA_XSP16, literal(-5)))
          CFI R7 load(1, XDATA, add(CFA_XSP16, literal(-6)))
          CFI V3 load(1, XDATA, add(CFA_XSP16, literal(-7)))
          CFI V2 load(1, XDATA, add(CFA_XSP16, literal(-8)))
          CFI V1 load(1, XDATA, add(CFA_XSP16, literal(-9)))
          CFI V0 load(1, XDATA, add(CFA_XSP16, literal(-10)))
          CFI VB load(1, XDATA, add(CFA_XSP16, literal(-11)))
          CFI R6 load(1, XDATA, add(CFA_XSP16, literal(-12)))
          CFI CFA_SP SP+0
          CFI CFA_XSP16 add(XSP16, 12)
        ; Saved register size: 12
        ; Auto size: 0
        MOV       A,R2
        MOV       R6,A
        MOV       A,R3
        MOV       R7,A
        MOV       ?V0,R4
        MOV       ?V1,R5
//  146   epList_t *ep = osal_mem_alloc(sizeof(epList_t));
        ; Setup parameters for call to function osal_mem_alloc
        MOV       R2,#0xb
        MOV       R3,#0x0
        LCALL     `??osal_mem_alloc::?relay`; Banked call to: osal_mem_alloc
//  147 
//  148   if (ep != NULL)
        MOV       A,R2
        ORL       A,R3
        JZ        ??CrossCallReturnLabel_70
//  149   {
//  150     ep->nextDesc = epList;
        MOV       DPTR,#epList
        LCALL     ?Subroutine6 & 0xFFFF
//  151     epList = ep;
??CrossCallReturnLabel_3:
        MOV       DPTR,#epList
        MOV       A,R2
        MOVX      @DPTR,A
        INC       DPTR
        MOV       A,R3
        LCALL     ?Subroutine26 & 0xFFFF
//  152     ep->epDesc = epDesc;
??CrossCallReturnLabel_41:
        MOV       A,R6
        MOVX      @DPTR,A
        INC       DPTR
        MOV       A,R7
        LCALL     ?Subroutine25 & 0xFFFF
//  153     ep->pfnDescCB = descFn;
??CrossCallReturnLabel_39:
        MOV       A,?V0
        MOVX      @DPTR,A
        INC       DPTR
        MOV       A,?V1
        LCALL     ?Subroutine24 & 0xFFFF
//  154     ep->apsfCfg.frameDelay = APSF_DEFAULT_INTERFRAME_DELAY;
??CrossCallReturnLabel_37:
        INC       DPTR
        MOV       A,#0x32
        LCALL     ?Subroutine20 & 0xFFFF
//  155     ep->apsfCfg.windowSize = APSF_DEFAULT_WINDOW_SIZE;
??CrossCallReturnLabel_30:
        MOV       A,#0x1
        LCALL     ?Subroutine20 & 0xFFFF
//  156     ep->flags = eEP_AllowMatch;  // Default to allow Match Descriptor.
??CrossCallReturnLabel_31:
        INC       DPTR
        MOVX      @DPTR,A
//  157     ep->pfnApplCB = applFn;
        MOV       A,#0xc
        LCALL     ?XSTACK_DISP0_8
        LCALL     ?Subroutine8 & 0xFFFF
//  158     
//  159   #if (BDB_FINDING_BINDING_CAPABILITY_ENABLED==1) 
//  160     //Make sure we add at least one application endpoint
//  161     if ((epDesc->endPoint != 0)  || (epDesc->endPoint < BDB_ZIGBEE_RESERVED_ENDPOINTS_START))
//  162     {
//  163       bdb_HeadEpDescriptorList = epList;
//  164       ep->epDesc->epType = bdb_zclFindingBindingEpType(ep->epDesc);
//  165     }
//  166 
//  167   #endif
//  168 #if defined ( BDB_TL_INITIATOR ) || defined ( BDB_TL_TARGET )
//  169     // find the first empty entry in the device info table
//  170     for ( uint8 i = 0; i < 5; i++ )
//  171     {
//  172       if ( touchLinkSubDevicesTbl[i] == NULL )
//  173       {
//  174         touchLinkSubDevicesTbl[i] = osal_mem_alloc(sizeof(bdbTLDeviceInfo_t));
//  175         if ( touchLinkSubDevicesTbl[i] != NULL )
//  176         {
//  177           touchLinkSubDevicesTbl[i]->deviceID = epDesc->simpleDesc->AppDeviceId;
//  178           touchLinkSubDevicesTbl[i]->endpoint = epDesc->simpleDesc->EndPoint;
//  179           touchLinkSubDevicesTbl[i]->profileID = epDesc->simpleDesc->AppProfId;
//  180           touchLinkSubDevicesTbl[i]->version = epDesc->simpleDesc->AppDevVer;
//  181           break;
//  182         }
//  183       }
//  184     }
//  185 #endif  // BDB_TL_INITIATOR || BDB_TL_TARGET
//  186   }
??CrossCallReturnLabel_7:
        INC       DPTR
        INC       DPTR
        INC       DPTR
        INC       DPTR
        INC       DPTR
        LCALL     ??Subroutine39_0 & 0xFFFF
//  187  
//  188   return ep;
??CrossCallReturnLabel_70:
        LJMP      ?Subroutine0 & 0xFFFF
//  189 }
          CFI EndBlock cfiBlock0

        RSEG BANKED_CODE:HUGECODE:NOROOT(0)
?Subroutine20:
          CFI Block cfiCond1 Using cfiCommon0
          CFI Function afRegisterExtended
          CFI Conditional ??CrossCallReturnLabel_30
          CFI R6 load(1, XDATA, add(CFA_XSP16, literal(-12)))
          CFI VB load(1, XDATA, add(CFA_XSP16, literal(-11)))
          CFI V0 load(1, XDATA, add(CFA_XSP16, literal(-10)))
          CFI V1 load(1, XDATA, add(CFA_XSP16, literal(-9)))
          CFI V2 load(1, XDATA, add(CFA_XSP16, literal(-8)))
          CFI V3 load(1, XDATA, add(CFA_XSP16, literal(-7)))
          CFI R7 load(1, XDATA, add(CFA_XSP16, literal(-6)))
          CFI ?RET_LOW load(1, XDATA, add(CFA_XSP16, literal(-5)))
          CFI ?RET_HIGH load(1, XDATA, add(CFA_XSP16, literal(-4)))
          CFI ?BRET_EXT load(1, XDATA, add(CFA_XSP16, literal(-3)))
          CFI DPL0 load(1, XDATA, add(CFA_XSP16, literal(-2)))
          CFI DPH0 load(1, XDATA, add(CFA_XSP16, literal(-1)))
          CFI CFA_SP SP+-2
          CFI CFA_XSP16 add(XSP16, 12)
          CFI Block cfiCond2 Using cfiCommon0
          CFI (cfiCond2) Function afRegisterExtended
          CFI (cfiCond2) Conditional ??CrossCallReturnLabel_31
          CFI (cfiCond2) R6 load(1, XDATA, add(CFA_XSP16, literal(-12)))
          CFI (cfiCond2) VB load(1, XDATA, add(CFA_XSP16, literal(-11)))
          CFI (cfiCond2) V0 load(1, XDATA, add(CFA_XSP16, literal(-10)))
          CFI (cfiCond2) V1 load(1, XDATA, add(CFA_XSP16, literal(-9)))
          CFI (cfiCond2) V2 load(1, XDATA, add(CFA_XSP16, literal(-8)))
          CFI (cfiCond2) V3 load(1, XDATA, add(CFA_XSP16, literal(-7)))
          CFI (cfiCond2) R7 load(1, XDATA, add(CFA_XSP16, literal(-6)))
          CFI (cfiCond2) ?RET_LOW load(1, XDATA, add(CFA_XSP16, literal(-5)))
          CFI (cfiCond2) ?RET_HIGH load(1, XDATA, add(CFA_XSP16, literal(-4)))
          CFI (cfiCond2) ?BRET_EXT load(1, XDATA, add(CFA_XSP16, literal(-3)))
          CFI (cfiCond2) DPL0 load(1, XDATA, add(CFA_XSP16, literal(-2)))
          CFI (cfiCond2) DPH0 load(1, XDATA, add(CFA_XSP16, literal(-1)))
          CFI (cfiCond2) CFA_SP SP+-2
          CFI (cfiCond2) CFA_XSP16 add(XSP16, 12)
          CFI Block cfiPicker3 Using cfiCommon1
          CFI (cfiPicker3) NoFunction
          CFI (cfiPicker3) Picker
        LCALL     ?Subroutine33 & 0xFFFF
??CrossCallReturnLabel_59:
        INC       DPTR
        INC       DPTR
        RET
          CFI EndBlock cfiCond1
          CFI EndBlock cfiCond2
          CFI EndBlock cfiPicker3
//  190 
//  191 /*********************************************************************
//  192  * @fn      afRegister
//  193  *
//  194  * @brief   Register an Application's EndPoint description.
//  195  *
//  196  * @param   epDesc - pointer to the Application's endpoint descriptor.
//  197  *
//  198  * NOTE:  The memory that epDesc is pointing to must exist after this call.
//  199  *
//  200  * @return  afStatus_SUCCESS - Registered
//  201  *          afStatus_MEM_FAIL - not enough memory to add descriptor
//  202  *          afStatus_INVALID_PARAMETER - duplicate endpoint
//  203  */

        RSEG BANKED_CODE:HUGECODE:NOROOT(0)
//  204 afStatus_t afRegister( endPointDesc_t *epDesc )
afRegister:
          CFI Block cfiBlock4 Using cfiCommon0
          CFI Function afRegister
        CODE
//  205 {
        FUNCALL afRegister, afFindEndPointDescList
        LOCFRAME ISTACK, 0, STACK
        LOCFRAME PSTACK, 0, STACK
        LOCFRAME XSTACK, 10, STACK
        LOCFRAME IOVERLAY, 0, STATIC
        LOCFRAME DOVERLAY, 0, STATIC
        ARGFRAME ISTACK, 0, STACK
        ARGFRAME PSTACK, 0, STACK
        ARGFRAME XSTACK, 10, STACK
        ARGFRAME IOVERLAY, 0, STATIC
        ARGFRAME DOVERLAY, 0, STATIC
        FUNCALL afRegister, afRegisterExtended
        LOCFRAME ISTACK, 0, STACK
        LOCFRAME PSTACK, 0, STACK
        LOCFRAME XSTACK, 12, STACK
        LOCFRAME IOVERLAY, 0, STATIC
        LOCFRAME DOVERLAY, 0, STATIC
        ARGFRAME ISTACK, 0, STACK
        ARGFRAME PSTACK, 0, STACK
        ARGFRAME XSTACK, 12, STACK
        ARGFRAME IOVERLAY, 0, STATIC
        ARGFRAME DOVERLAY, 0, STATIC
        REQUIRE ?V0
        REQUIRE ?V1
        MOV       A,#-0xa
        LCALL     ?BANKED_ENTER_XDATA
          CFI DPH0 load(1, XDATA, add(CFA_XSP16, literal(-1)))
          CFI DPL0 load(1, XDATA, add(CFA_XSP16, literal(-2)))
          CFI ?BRET_EXT load(1, XDATA, add(CFA_XSP16, literal(-3)))
          CFI ?RET_HIGH load(1, XDATA, add(CFA_XSP16, literal(-4)))
          CFI ?RET_LOW load(1, XDATA, add(CFA_XSP16, literal(-5)))
          CFI R7 load(1, XDATA, add(CFA_XSP16, literal(-6)))
          CFI V1 load(1, XDATA, add(CFA_XSP16, literal(-7)))
          CFI V0 load(1, XDATA, add(CFA_XSP16, literal(-8)))
          CFI VB load(1, XDATA, add(CFA_XSP16, literal(-9)))
          CFI R6 load(1, XDATA, add(CFA_XSP16, literal(-10)))
          CFI CFA_SP SP+0
          CFI CFA_XSP16 add(XSP16, 10)
        ; Saved register size: 10
        ; Auto size: 0
        MOV       A,R2
        MOV       R6,A
        MOV       A,R3
        MOV       R7,A
//  206   if (afFindEndPointDescList(epDesc->endPoint))  // Look for duplicate endpoint.
        ; Setup parameters for call to function afFindEndPointDescList
        MOV       DPL,R2
        MOV       DPH,A
        LCALL     ?Subroutine36 & 0xFFFF
??CrossCallReturnLabel_65:
        MOV       A,R2
        ORL       A,R3
        JZ        ??afRegister_0
//  207   {
//  208     return afStatus_INVALID_PARAMETER;
        MOV       R1,#0x2
        SJMP      ??afRegister_1
//  209   }
//  210 
//  211   return ((NULL == afRegisterExtended(epDesc, NULL, NULL)) ? afStatus_MEM_FAIL : afStatus_SUCCESS);
??afRegister_0:
        ; Setup parameters for call to function afRegisterExtended
        CLR       A
        MOV       ?V0,A
        MOV       ?V1,A
        MOV       R0,#?V0
        LCALL     ?PUSH_XSTACK_I_TWO
          CFI CFA_XSP16 add(XSP16, 12)
        MOV       R4,#0x0
        MOV       R5,#0x0
        MOV       A,R6
        MOV       R2,A
        MOV       A,R7
        MOV       R3,A
        LCALL     `??afRegisterExtended::?relay`; Banked call to: afRegisterExtended
        MOV       A,#0x2
        LCALL     ?DEALLOC_XSTACK8
          CFI CFA_XSP16 add(XSP16, 10)
        MOV       A,R2
        ORL       A,R3
        JNZ       ??afRegister_2
        MOV       R1,#0x10
        SJMP      ??afRegister_1
??afRegister_2:
        MOV       R1,#0x0
??afRegister_1:
        LJMP      ?Subroutine1 & 0xFFFF
//  212 }
          CFI EndBlock cfiBlock4
//  213 
//  214 /*********************************************************************
//  215  * @fn      afDelete
//  216  *
//  217  * @brief   Delete an Application's EndPoint descriptor and frees the memory
//  218  *
//  219  * @param   EndPoint - Application Endpoint to delete
//  220  *
//  221  * @return  afStatus_SUCCESS - endpoint deleted
//  222  *          afStatus_INVALID_PARAMETER - endpoint not found
//  223  *          afStatus_FAILED - endpoint list empty
//  224  */

        RSEG BANKED_CODE:HUGECODE:NOROOT(0)
//  225 afStatus_t afDelete( uint8 EndPoint )
afDelete:
          CFI Block cfiBlock5 Using cfiCommon0
          CFI Function afDelete
        CODE
//  226 {
        FUNCALL afDelete, osal_mem_free
        LOCFRAME ISTACK, 0, STACK
        LOCFRAME PSTACK, 0, STACK
        LOCFRAME XSTACK, 9, STACK
        LOCFRAME IOVERLAY, 0, STATIC
        LOCFRAME DOVERLAY, 0, STATIC
        ARGFRAME ISTACK, 0, STACK
        ARGFRAME PSTACK, 0, STACK
        ARGFRAME XSTACK, 9, STACK
        ARGFRAME IOVERLAY, 0, STATIC
        ARGFRAME DOVERLAY, 0, STATIC
        FUNCALL afDelete, osal_mem_free
        LOCFRAME ISTACK, 0, STACK
        LOCFRAME PSTACK, 0, STACK
        LOCFRAME XSTACK, 9, STACK
        LOCFRAME IOVERLAY, 0, STATIC
        LOCFRAME DOVERLAY, 0, STATIC
        ARGFRAME ISTACK, 0, STACK
        ARGFRAME PSTACK, 0, STACK
        ARGFRAME XSTACK, 9, STACK
        ARGFRAME IOVERLAY, 0, STATIC
        ARGFRAME DOVERLAY, 0, STATIC
        MOV       A,#-0x9
        LCALL     ?BANKED_ENTER_XDATA
          CFI DPH0 load(1, XDATA, add(CFA_XSP16, literal(-1)))
          CFI DPL0 load(1, XDATA, add(CFA_XSP16, literal(-2)))
          CFI ?BRET_EXT load(1, XDATA, add(CFA_XSP16, literal(-3)))
          CFI ?RET_HIGH load(1, XDATA, add(CFA_XSP16, literal(-4)))
          CFI ?RET_LOW load(1, XDATA, add(CFA_XSP16, literal(-5)))
          CFI R7 load(1, XDATA, add(CFA_XSP16, literal(-6)))
          CFI V0 load(1, XDATA, add(CFA_XSP16, literal(-7)))
          CFI VB load(1, XDATA, add(CFA_XSP16, literal(-8)))
          CFI R6 load(1, XDATA, add(CFA_XSP16, literal(-9)))
          CFI CFA_SP SP+0
          CFI CFA_XSP16 add(XSP16, 9)
        ; Saved register size: 9
        ; Auto size: 0
        MOV       A,R1
        MOV       R6,A
//  227   epList_t *epCurrent;
//  228   epList_t *epPrevious;
//  229 
//  230   if ( epList != NULL )
        MOV       DPTR,#epList
        LCALL     ??Subroutine44_0 & 0xFFFF
??CrossCallReturnLabel_92:
        JZ        ??afDelete_0
//  231   {
//  232     epPrevious = epCurrent = epList;
        MOV       DPTR,#epList
        LCALL     ??Subroutine46_0 & 0xFFFF
//  233 
//  234     // first element of the list matches
//  235     if ( epCurrent->epDesc->endPoint == EndPoint )
??CrossCallReturnLabel_100:
        MOV       DPL,R0
        MOV       DPH,A
        LCALL     ?Subroutine13 & 0xFFFF
??CrossCallReturnLabel_17:
        MOV       DPL,R0
        MOV       DPH,R1
        JNZ       ??afDelete_1
//  236     {
//  237       epList = epCurrent->nextDesc;
        LCALL     ??Subroutine41_0 & 0xFFFF
//  238       osal_mem_free( epCurrent );
//  239 
//  240       return ( afStatus_SUCCESS );
//  241     }
??CrossCallReturnLabel_79:
        MOV       DPTR,#epList
        MOV       A,R0
        MOVX      @DPTR,A
        INC       DPTR
        MOV       A,R1
        SJMP      ??afDelete_2
//  242     else
//  243     {
//  244       // search the list
//  245       for ( epCurrent = epPrevious->nextDesc;
//  246             epCurrent != NULL;
//  247             epCurrent = epCurrent->nextDesc )
//  248       {
//  249         if ( epCurrent->epDesc->endPoint == EndPoint )
//  250         {
//  251           epPrevious->nextDesc = epCurrent->nextDesc;
//  252           osal_mem_free( epCurrent );
//  253 
//  254           // delete the entry and free the memory
//  255           return ( afStatus_SUCCESS );
//  256         }
//  257         epPrevious = epCurrent;
??afDelete_3:
        MOV       A,R2
        MOV       R0,A
        MOV       A,R3
        MOV       R1,A
        MOV       DPL,R2
        MOV       DPH,R3
??afDelete_1:
        LCALL     ?Subroutine9 & 0xFFFF
??CrossCallReturnLabel_9:
        JZ        ??afDelete_4
        MOV       DPL,R2
        MOV       DPH,R3
        LCALL     ?Subroutine13 & 0xFFFF
??CrossCallReturnLabel_18:
        JNZ       ??afDelete_3
        MOV       DPL,R2
        MOV       DPH,R3
        LCALL     ?Subroutine12 & 0xFFFF
??CrossCallReturnLabel_12:
        MOV       DPL,R0
        MOV       DPH,R1
        MOV       A,R4
        MOVX      @DPTR,A
        INC       DPTR
        MOV       A,R5
??afDelete_2:
        MOVX      @DPTR,A
        ; Setup parameters for call to function osal_mem_free
        LCALL     `??osal_mem_free::?relay`; Banked call to: osal_mem_free
        MOV       R1,#0x0
        SJMP      ??afDelete_5
//  258       }
//  259     }
//  260 
//  261     // no endpoint found
//  262     return ( afStatus_INVALID_PARAMETER );
??afDelete_4:
        MOV       R1,#0x2
        SJMP      ??afDelete_5
//  263   }
//  264   else
//  265   {
//  266     // epList is empty
//  267     return ( afStatus_FAILED );
??afDelete_0:
        MOV       R1,#0x1
//  268   }
??afDelete_5:
          CFI EndBlock cfiBlock5
        REQUIRE ?Subroutine2
        ; // Fall through to label ?Subroutine2
//  269 }

        RSEG BANKED_CODE:HUGECODE:NOROOT(0)
?Subroutine2:
          CFI Block cfiBlock6 Using cfiCommon0
          CFI NoFunction
          CFI CFA_SP SP+0
          CFI CFA_XSP16 add(XSP16, 9)
          CFI VB load(1, XDATA, add(CFA_XSP16, literal(-8)))
          CFI DPL0 load(1, XDATA, add(CFA_XSP16, literal(-2)))
          CFI DPH0 load(1, XDATA, add(CFA_XSP16, literal(-1)))
          CFI R6 load(1, XDATA, add(CFA_XSP16, literal(-9)))
          CFI R7 load(1, XDATA, add(CFA_XSP16, literal(-6)))
          CFI V0 load(1, XDATA, add(CFA_XSP16, literal(-7)))
          CFI ?BRET_EXT load(1, XDATA, add(CFA_XSP16, literal(-3)))
          CFI ?RET_HIGH load(1, XDATA, add(CFA_XSP16, literal(-4)))
          CFI ?RET_LOW load(1, XDATA, add(CFA_XSP16, literal(-5)))
        MOV       R7,#0x1
        LJMP      ?BANKED_LEAVE_XDATA
          CFI EndBlock cfiBlock6

        RSEG BANKED_CODE:HUGECODE:NOROOT(0)
?Subroutine13:
          CFI Block cfiCond7 Using cfiCommon0
          CFI Function afDelete
          CFI Conditional ??CrossCallReturnLabel_17
          CFI R6 load(1, XDATA, add(CFA_XSP16, literal(-9)))
          CFI VB load(1, XDATA, add(CFA_XSP16, literal(-8)))
          CFI V0 load(1, XDATA, add(CFA_XSP16, literal(-7)))
          CFI R7 load(1, XDATA, add(CFA_XSP16, literal(-6)))
          CFI ?RET_LOW load(1, XDATA, add(CFA_XSP16, literal(-5)))
          CFI ?RET_HIGH load(1, XDATA, add(CFA_XSP16, literal(-4)))
          CFI ?BRET_EXT load(1, XDATA, add(CFA_XSP16, literal(-3)))
          CFI DPL0 load(1, XDATA, add(CFA_XSP16, literal(-2)))
          CFI DPH0 load(1, XDATA, add(CFA_XSP16, literal(-1)))
          CFI CFA_SP SP+-2
          CFI CFA_XSP16 add(XSP16, 9)
          CFI Block cfiCond8 Using cfiCommon0
          CFI (cfiCond8) Function afDelete
          CFI (cfiCond8) Conditional ??CrossCallReturnLabel_18
          CFI (cfiCond8) R6 load(1, XDATA, add(CFA_XSP16, literal(-9)))
          CFI (cfiCond8) VB load(1, XDATA, add(CFA_XSP16, literal(-8)))
          CFI (cfiCond8) V0 load(1, XDATA, add(CFA_XSP16, literal(-7)))
          CFI (cfiCond8) R7 load(1, XDATA, add(CFA_XSP16, literal(-6)))
          CFI (cfiCond8) ?RET_LOW load(1, XDATA, add(CFA_XSP16, literal(-5)))
          CFI (cfiCond8) ?RET_HIGH load(1, XDATA, add(CFA_XSP16, literal(-4)))
          CFI (cfiCond8) ?BRET_EXT load(1, XDATA, add(CFA_XSP16, literal(-3)))
          CFI (cfiCond8) DPL0 load(1, XDATA, add(CFA_XSP16, literal(-2)))
          CFI (cfiCond8) DPH0 load(1, XDATA, add(CFA_XSP16, literal(-1)))
          CFI (cfiCond8) CFA_SP SP+-2
          CFI (cfiCond8) CFA_XSP16 add(XSP16, 9)
          CFI Block cfiPicker9 Using cfiCommon1
          CFI (cfiPicker9) NoFunction
          CFI (cfiPicker9) Picker
        INC       DPTR
        INC       DPTR
        MOVX      A,@DPTR
        MOV       R4,A
        INC       DPTR
        MOVX      A,@DPTR
        MOV       DPH,A
        MOV       DPL,R4
        MOVX      A,@DPTR
        XRL       A,R6
        RET
          CFI EndBlock cfiCond7
          CFI EndBlock cfiCond8
          CFI EndBlock cfiPicker9
//  270 
//  271 /*********************************************************************
//  272  * @fn          afDataConfirm
//  273  *
//  274  * @brief       This function will generate the Data Confirm back to
//  275  *              the application.
//  276  *
//  277  * @param       endPoint - confirm end point
//  278  * @param       transID - transaction ID from APSDE_DATA_REQUEST
//  279  * @param       status - status of APSDE_DATA_REQUEST
//  280  *
//  281  * @return      none
//  282  */

        RSEG BANKED_CODE:HUGECODE:NOROOT(0)
//  283 void afDataConfirm( uint8 endPoint, uint8 transID, ZStatus_t status )
afDataConfirm:
          CFI Block cfiBlock10 Using cfiCommon0
          CFI Function afDataConfirm
        CODE
//  284 {
        FUNCALL afDataConfirm, afFindEndPointDesc
        LOCFRAME ISTACK, 0, STACK
        LOCFRAME PSTACK, 0, STACK
        LOCFRAME XSTACK, 14, STACK
        LOCFRAME IOVERLAY, 0, STATIC
        LOCFRAME DOVERLAY, 0, STATIC
        ARGFRAME ISTACK, 0, STACK
        ARGFRAME PSTACK, 0, STACK
        ARGFRAME XSTACK, 14, STACK
        ARGFRAME IOVERLAY, 0, STATIC
        ARGFRAME DOVERLAY, 0, STATIC
        FUNCALL afDataConfirm, osal_msg_allocate
        LOCFRAME ISTACK, 0, STACK
        LOCFRAME PSTACK, 0, STACK
        LOCFRAME XSTACK, 14, STACK
        LOCFRAME IOVERLAY, 0, STATIC
        LOCFRAME DOVERLAY, 0, STATIC
        ARGFRAME ISTACK, 0, STACK
        ARGFRAME PSTACK, 0, STACK
        ARGFRAME XSTACK, 14, STACK
        ARGFRAME IOVERLAY, 0, STATIC
        ARGFRAME DOVERLAY, 0, STATIC
        FUNCALL afDataConfirm, osal_msg_send
        LOCFRAME ISTACK, 0, STACK
        LOCFRAME PSTACK, 0, STACK
        LOCFRAME XSTACK, 14, STACK
        LOCFRAME IOVERLAY, 0, STATIC
        LOCFRAME DOVERLAY, 0, STATIC
        ARGFRAME ISTACK, 0, STACK
        ARGFRAME PSTACK, 0, STACK
        ARGFRAME XSTACK, 14, STACK
        ARGFRAME IOVERLAY, 0, STATIC
        ARGFRAME DOVERLAY, 0, STATIC
        REQUIRE ?V0
        REQUIRE ?V1
        REQUIRE ?V2
        REQUIRE ?V4
        REQUIRE ?V5
        MOV       A,#-0xe
        LCALL     ?BANKED_ENTER_XDATA
          CFI DPH0 load(1, XDATA, add(CFA_XSP16, literal(-1)))
          CFI DPL0 load(1, XDATA, add(CFA_XSP16, literal(-2)))
          CFI ?BRET_EXT load(1, XDATA, add(CFA_XSP16, literal(-3)))
          CFI ?RET_HIGH load(1, XDATA, add(CFA_XSP16, literal(-4)))
          CFI ?RET_LOW load(1, XDATA, add(CFA_XSP16, literal(-5)))
          CFI R7 load(1, XDATA, add(CFA_XSP16, literal(-6)))
          CFI V5 load(1, XDATA, add(CFA_XSP16, literal(-7)))
          CFI V4 load(1, XDATA, add(CFA_XSP16, literal(-8)))
          CFI V3 load(1, XDATA, add(CFA_XSP16, literal(-9)))
          CFI V2 load(1, XDATA, add(CFA_XSP16, literal(-10)))
          CFI V1 load(1, XDATA, add(CFA_XSP16, literal(-11)))
          CFI V0 load(1, XDATA, add(CFA_XSP16, literal(-12)))
          CFI VB load(1, XDATA, add(CFA_XSP16, literal(-13)))
          CFI R6 load(1, XDATA, add(CFA_XSP16, literal(-14)))
          CFI CFA_SP SP+0
          CFI CFA_XSP16 add(XSP16, 14)
        ; Saved register size: 14
        ; Auto size: 0
        MOV       ?V0,R1
        MOV       ?V1,R2
        MOV       ?V2,R3
//  285   endPointDesc_t *epDesc;
//  286   afDataConfirm_t *msgPtr;
//  287 
//  288   // Find the endpoint description
//  289   epDesc = afFindEndPointDesc( endPoint );
        ; Setup parameters for call to function afFindEndPointDesc
        LCALL     `??afFindEndPointDesc::?relay`; Banked call to: afFindEndPointDesc
        MOV       ?V4,R2
        MOV       ?V5,R3
        MOV       R6,?V4
        MOV       R7,?V5
//  290   if ( epDesc == NULL )
        MOV       A,R2
        ORL       A,R7
        JZ        ??CrossCallReturnLabel_0
//  291     return;
//  292 
//  293   // Determine the incoming command type
//  294   msgPtr = (afDataConfirm_t *)osal_msg_allocate( sizeof(afDataConfirm_t) );
        ; Setup parameters for call to function osal_msg_allocate
        MOV       R2,#0x4
        MOV       R3,#0x0
        LCALL     `??osal_msg_allocate::?relay`; Banked call to: osal_msg_allocate
//  295   if ( msgPtr )
        MOV       A,R2
        ORL       A,R3
        JZ        ??CrossCallReturnLabel_0
//  296   {
//  297     // Build the Data Confirm message
//  298     msgPtr->hdr.event = AF_DATA_CONFIRM_CMD;
        MOV       DPL,R2
        MOV       DPH,R3
        MOV       A,#-0x3
        MOVX      @DPTR,A
//  299     msgPtr->hdr.status = status;
        INC       DPTR
        MOV       A,?V2
        LCALL     ?Subroutine26 & 0xFFFF
//  300     msgPtr->endpoint = endPoint;
??CrossCallReturnLabel_42:
        MOV       A,?V0
        LCALL     ?Subroutine26 & 0xFFFF
//  301     msgPtr->transID = transID;
??CrossCallReturnLabel_43:
        INC       DPTR
        MOV       A,?V1
        MOVX      @DPTR,A
//  302 
//  303 #if defined ( MT_AF_CB_FUNC )
//  304     /* If MT has subscribed for this callback, don't send as a message. */
//  305     if ( AFCB_CHECK(CB_ID_AF_DATA_CNF,*(epDesc->task_id)) )
//  306     {
//  307       /* Send callback if it's subscribed */
//  308       MT_AfDataConfirm ((void *)msgPtr);
//  309       /* Release the memory. */
//  310       osal_msg_deallocate( (void *)msgPtr );
//  311     }
//  312     else
//  313 #endif
//  314     {
//  315       /* send message through task message */
//  316       osal_msg_send( *(epDesc->task_id), (uint8 *)msgPtr );
        ; Setup parameters for call to function osal_msg_send
        MOV       DPL,R6
        MOV       DPH,R7
        LCALL     ?Subroutine5 & 0xFFFF
//  317     }
//  318   }
//  319 }
??CrossCallReturnLabel_0:
        MOV       R7,#0x6
        LJMP      ?BANKED_LEAVE_XDATA
          CFI EndBlock cfiBlock10

        RSEG BANKED_CODE:HUGECODE:NOROOT(0)
?Subroutine26:
          CFI Block cfiCond11 Using cfiCommon0
          CFI Function afRegisterExtended
          CFI Conditional ??CrossCallReturnLabel_41
          CFI R6 load(1, XDATA, add(CFA_XSP16, literal(-12)))
          CFI VB load(1, XDATA, add(CFA_XSP16, literal(-11)))
          CFI V0 load(1, XDATA, add(CFA_XSP16, literal(-10)))
          CFI V1 load(1, XDATA, add(CFA_XSP16, literal(-9)))
          CFI V2 load(1, XDATA, add(CFA_XSP16, literal(-8)))
          CFI V3 load(1, XDATA, add(CFA_XSP16, literal(-7)))
          CFI R7 load(1, XDATA, add(CFA_XSP16, literal(-6)))
          CFI ?RET_LOW load(1, XDATA, add(CFA_XSP16, literal(-5)))
          CFI ?RET_HIGH load(1, XDATA, add(CFA_XSP16, literal(-4)))
          CFI ?BRET_EXT load(1, XDATA, add(CFA_XSP16, literal(-3)))
          CFI DPL0 load(1, XDATA, add(CFA_XSP16, literal(-2)))
          CFI DPH0 load(1, XDATA, add(CFA_XSP16, literal(-1)))
          CFI CFA_SP SP+-2
          CFI CFA_XSP16 add(XSP16, 12)
          CFI Block cfiCond12 Using cfiCommon0
          CFI (cfiCond12) Function afDataConfirm
          CFI (cfiCond12) Conditional ??CrossCallReturnLabel_42
          CFI (cfiCond12) R6 load(1, XDATA, add(CFA_XSP16, literal(-14)))
          CFI (cfiCond12) VB load(1, XDATA, add(CFA_XSP16, literal(-13)))
          CFI (cfiCond12) V0 load(1, XDATA, add(CFA_XSP16, literal(-12)))
          CFI (cfiCond12) V1 load(1, XDATA, add(CFA_XSP16, literal(-11)))
          CFI (cfiCond12) V2 load(1, XDATA, add(CFA_XSP16, literal(-10)))
          CFI (cfiCond12) V3 load(1, XDATA, add(CFA_XSP16, literal(-9)))
          CFI (cfiCond12) V4 load(1, XDATA, add(CFA_XSP16, literal(-8)))
          CFI (cfiCond12) V5 load(1, XDATA, add(CFA_XSP16, literal(-7)))
          CFI (cfiCond12) R7 load(1, XDATA, add(CFA_XSP16, literal(-6)))
          CFI (cfiCond12) ?RET_LOW load(1, XDATA, add(CFA_XSP16, literal(-5)))
          CFI (cfiCond12) ?RET_HIGH load(1, XDATA, add(CFA_XSP16, literal(-4)))
          CFI (cfiCond12) ?BRET_EXT load(1, XDATA, add(CFA_XSP16, literal(-3)))
          CFI (cfiCond12) DPL0 load(1, XDATA, add(CFA_XSP16, literal(-2)))
          CFI (cfiCond12) DPH0 load(1, XDATA, add(CFA_XSP16, literal(-1)))
          CFI (cfiCond12) CFA_SP SP+-2
          CFI (cfiCond12) CFA_XSP16 add(XSP16, 14)
          CFI Block cfiCond13 Using cfiCommon0
          CFI (cfiCond13) Function afDataConfirm
          CFI (cfiCond13) Conditional ??CrossCallReturnLabel_43
          CFI (cfiCond13) R6 load(1, XDATA, add(CFA_XSP16, literal(-14)))
          CFI (cfiCond13) VB load(1, XDATA, add(CFA_XSP16, literal(-13)))
          CFI (cfiCond13) V0 load(1, XDATA, add(CFA_XSP16, literal(-12)))
          CFI (cfiCond13) V1 load(1, XDATA, add(CFA_XSP16, literal(-11)))
          CFI (cfiCond13) V2 load(1, XDATA, add(CFA_XSP16, literal(-10)))
          CFI (cfiCond13) V3 load(1, XDATA, add(CFA_XSP16, literal(-9)))
          CFI (cfiCond13) V4 load(1, XDATA, add(CFA_XSP16, literal(-8)))
          CFI (cfiCond13) V5 load(1, XDATA, add(CFA_XSP16, literal(-7)))
          CFI (cfiCond13) R7 load(1, XDATA, add(CFA_XSP16, literal(-6)))
          CFI (cfiCond13) ?RET_LOW load(1, XDATA, add(CFA_XSP16, literal(-5)))
          CFI (cfiCond13) ?RET_HIGH load(1, XDATA, add(CFA_XSP16, literal(-4)))
          CFI (cfiCond13) ?BRET_EXT load(1, XDATA, add(CFA_XSP16, literal(-3)))
          CFI (cfiCond13) DPL0 load(1, XDATA, add(CFA_XSP16, literal(-2)))
          CFI (cfiCond13) DPH0 load(1, XDATA, add(CFA_XSP16, literal(-1)))
          CFI (cfiCond13) CFA_SP SP+-2
          CFI (cfiCond13) CFA_XSP16 add(XSP16, 14)
          CFI Block cfiCond14 Using cfiCommon0
          CFI (cfiCond14) Function afReflectError
          CFI (cfiCond14) Conditional ??CrossCallReturnLabel_44
          CFI (cfiCond14) R6 load(1, XDATA, add(CFA_XSP16, literal(-16)))
          CFI (cfiCond14) VB load(1, XDATA, add(CFA_XSP16, literal(-15)))
          CFI (cfiCond14) V0 load(1, XDATA, add(CFA_XSP16, literal(-14)))
          CFI (cfiCond14) V1 load(1, XDATA, add(CFA_XSP16, literal(-13)))
          CFI (cfiCond14) V2 load(1, XDATA, add(CFA_XSP16, literal(-12)))
          CFI (cfiCond14) V3 load(1, XDATA, add(CFA_XSP16, literal(-11)))
          CFI (cfiCond14) V4 load(1, XDATA, add(CFA_XSP16, literal(-10)))
          CFI (cfiCond14) V5 load(1, XDATA, add(CFA_XSP16, literal(-9)))
          CFI (cfiCond14) V6 load(1, XDATA, add(CFA_XSP16, literal(-8)))
          CFI (cfiCond14) V7 load(1, XDATA, add(CFA_XSP16, literal(-7)))
          CFI (cfiCond14) R7 load(1, XDATA, add(CFA_XSP16, literal(-6)))
          CFI (cfiCond14) ?RET_LOW load(1, XDATA, add(CFA_XSP16, literal(-5)))
          CFI (cfiCond14) ?RET_HIGH load(1, XDATA, add(CFA_XSP16, literal(-4)))
          CFI (cfiCond14) ?BRET_EXT load(1, XDATA, add(CFA_XSP16, literal(-3)))
          CFI (cfiCond14) DPL0 load(1, XDATA, add(CFA_XSP16, literal(-2)))
          CFI (cfiCond14) DPH0 load(1, XDATA, add(CFA_XSP16, literal(-1)))
          CFI (cfiCond14) CFA_SP SP+-2
          CFI (cfiCond14) CFA_XSP16 add(XSP16, 16)
          CFI Block cfiPicker15 Using cfiCommon1
          CFI (cfiPicker15) NoFunction
          CFI (cfiPicker15) Picker
        MOVX      @DPTR,A
        MOV       DPL,R2
        MOV       DPH,R3
        INC       DPTR
        INC       DPTR
        RET
          CFI EndBlock cfiCond11
          CFI EndBlock cfiCond12
          CFI EndBlock cfiCond13
          CFI EndBlock cfiCond14
          CFI EndBlock cfiPicker15
//  320 
//  321 /*********************************************************************
//  322  * @fn          afReflectError
//  323  *
//  324  * @brief       This function will generate the Reflect Error message to
//  325  *              the application.
//  326  *
//  327  * @param       srcEP - Source Endpoint
//  328  * @param       dstAddrMode - mode of dstAdd - 0 - normal short addr, 1 - group Address
//  329  * @param       dstAddr - intended destination
//  330  * @param       dstEP - Destination Endpoint
//  331  * @param       transID - transaction ID from APSDE_DATA_REQUEST
//  332  * @param       status - status of APSDE_DATA_REQUEST
//  333  *
//  334  * @return      none
//  335  */

        RSEG BANKED_CODE:HUGECODE:NOROOT(0)
//  336 void afReflectError( uint8 srcEP, uint8 dstAddrMode, uint16 dstAddr, uint8 dstEP,
afReflectError:
          CFI Block cfiBlock16 Using cfiCommon0
          CFI Function afReflectError
        CODE
//  337                      uint8 transID, ZStatus_t status )
//  338 {
        FUNCALL afReflectError, afFindEndPointDesc
        LOCFRAME ISTACK, 0, STACK
        LOCFRAME PSTACK, 0, STACK
        LOCFRAME XSTACK, 16, STACK
        LOCFRAME IOVERLAY, 0, STATIC
        LOCFRAME DOVERLAY, 0, STATIC
        ARGFRAME ISTACK, 0, STACK
        ARGFRAME PSTACK, 0, STACK
        ARGFRAME XSTACK, 16, STACK
        ARGFRAME IOVERLAY, 0, STATIC
        ARGFRAME DOVERLAY, 0, STATIC
        FUNCALL afReflectError, osal_msg_allocate
        LOCFRAME ISTACK, 0, STACK
        LOCFRAME PSTACK, 0, STACK
        LOCFRAME XSTACK, 16, STACK
        LOCFRAME IOVERLAY, 0, STATIC
        LOCFRAME DOVERLAY, 0, STATIC
        ARGFRAME ISTACK, 0, STACK
        ARGFRAME PSTACK, 0, STACK
        ARGFRAME XSTACK, 16, STACK
        ARGFRAME IOVERLAY, 0, STATIC
        ARGFRAME DOVERLAY, 0, STATIC
        FUNCALL afReflectError, osal_msg_send
        LOCFRAME ISTACK, 0, STACK
        LOCFRAME PSTACK, 0, STACK
        LOCFRAME XSTACK, 16, STACK
        LOCFRAME IOVERLAY, 0, STATIC
        LOCFRAME DOVERLAY, 0, STATIC
        ARGFRAME ISTACK, 0, STACK
        ARGFRAME PSTACK, 0, STACK
        ARGFRAME XSTACK, 16, STACK
        ARGFRAME IOVERLAY, 0, STATIC
        ARGFRAME DOVERLAY, 0, STATIC
        REQUIRE ?V0
        REQUIRE ?V1
        REQUIRE ?V2
        REQUIRE ?V3
        REQUIRE ?V4
        REQUIRE ?V6
        REQUIRE ?V7
        MOV       A,#-0x10
        LCALL     ?BANKED_ENTER_XDATA
          CFI DPH0 load(1, XDATA, add(CFA_XSP16, literal(-1)))
          CFI DPL0 load(1, XDATA, add(CFA_XSP16, literal(-2)))
          CFI ?BRET_EXT load(1, XDATA, add(CFA_XSP16, literal(-3)))
          CFI ?RET_HIGH load(1, XDATA, add(CFA_XSP16, literal(-4)))
          CFI ?RET_LOW load(1, XDATA, add(CFA_XSP16, literal(-5)))
          CFI R7 load(1, XDATA, add(CFA_XSP16, literal(-6)))
          CFI V7 load(1, XDATA, add(CFA_XSP16, literal(-7)))
          CFI V6 load(1, XDATA, add(CFA_XSP16, literal(-8)))
          CFI V5 load(1, XDATA, add(CFA_XSP16, literal(-9)))
          CFI V4 load(1, XDATA, add(CFA_XSP16, literal(-10)))
          CFI V3 load(1, XDATA, add(CFA_XSP16, literal(-11)))
          CFI V2 load(1, XDATA, add(CFA_XSP16, literal(-12)))
          CFI V1 load(1, XDATA, add(CFA_XSP16, literal(-13)))
          CFI V0 load(1, XDATA, add(CFA_XSP16, literal(-14)))
          CFI VB load(1, XDATA, add(CFA_XSP16, literal(-15)))
          CFI R6 load(1, XDATA, add(CFA_XSP16, literal(-16)))
          CFI CFA_SP SP+0
          CFI CFA_XSP16 add(XSP16, 16)
        ; Saved register size: 16
        ; Auto size: 0
        MOV       ?V3,R2
        MOV       A,R4
        MOV       R6,A
        MOV       A,R5
        MOV       R7,A
        MOV       ?V4,R3
//  339   endPointDesc_t *epDesc;
//  340   afReflectError_t *msgPtr;
//  341 
//  342   // Find the endpoint description
//  343   epDesc = afFindEndPointDesc( srcEP );
        ; Setup parameters for call to function afFindEndPointDesc
        LCALL     `??afFindEndPointDesc::?relay`; Banked call to: afFindEndPointDesc
        MOV       ?V0,R2
        MOV       ?V1,R3
//  344   if ( epDesc == NULL )
        MOV       A,R2
        ORL       A,R3
        JZ        ??CrossCallReturnLabel_1
//  345     return;
//  346 
//  347   // Determine the incoming command type
//  348   msgPtr = (afReflectError_t *)osal_msg_allocate( sizeof(afReflectError_t) );
        ; Setup parameters for call to function osal_msg_allocate
        MOV       R2,#0x7
        MOV       R3,#0x0
        LCALL     `??osal_msg_allocate::?relay`; Banked call to: osal_msg_allocate
//  349   if ( msgPtr )
        MOV       A,R2
        ORL       A,R3
        JZ        ??CrossCallReturnLabel_1
//  350   {
//  351     // Build the Data Confirm message
//  352     msgPtr->hdr.event = AF_REFLECT_ERROR_CMD;
        MOV       DPL,R2
        MOV       DPH,R3
        MOV       A,#-0x2
        MOVX      @DPTR,A
//  353     msgPtr->hdr.status = status;
        MOV       A,#0x11
        LCALL     ?XSTACK_DISP0_8
        MOVX      A,@DPTR
        MOV       DPL,R2
        MOV       DPH,R3
        INC       DPTR
        LCALL     ?Subroutine26 & 0xFFFF
//  354     msgPtr->endpoint = dstEP;
??CrossCallReturnLabel_44:
        MOV       A,?V4
        MOVX      @DPTR,A
//  355     msgPtr->transID = transID;
        MOV       A,#0x10
        LCALL     ?XSTACK_DISP0_8
        LCALL     ?Subroutine17 & 0xFFFF
//  356     msgPtr->dstAddrMode = dstAddrMode;
//  357     msgPtr->dstAddr = dstAddr;
//  358 
//  359 #if defined ( MT_AF_CB_FUNC )
//  360     /* If MT has subscribed for this callback, don't send as a message. */
//  361     if ( AFCB_CHECK( CB_ID_AF_REFLECT_ERROR, *(epDesc->task_id) ) )
//  362     {
//  363       /* Send callback if it's subscribed */
//  364       MT_AfReflectError( (void *)msgPtr );
//  365       /* Release the memory. */
//  366       osal_msg_deallocate( (void *)msgPtr );
//  367     }
//  368     else
//  369 #endif
//  370     {
//  371       /* send message through task message */
//  372       osal_msg_send( *(epDesc->task_id), (uint8 *)msgPtr );
//  373     }
//  374   }
??CrossCallReturnLabel_24:
        LCALL     ?Subroutine25 & 0xFFFF
??CrossCallReturnLabel_40:
        MOV       A,?V3
        LCALL     ?Subroutine24 & 0xFFFF
??CrossCallReturnLabel_38:
        MOV       A,R6
        MOVX      @DPTR,A
        INC       DPTR
        MOV       A,R7
        LCALL     ?Subroutine23 & 0xFFFF
??CrossCallReturnLabel_34:
        LCALL     ?Subroutine5 & 0xFFFF
//  375 }
??CrossCallReturnLabel_1:
        MOV       R7,#0x8
        LJMP      ?BANKED_LEAVE_XDATA
          CFI EndBlock cfiBlock16

        RSEG BANKED_CODE:HUGECODE:NOROOT(0)
?Subroutine25:
          CFI Block cfiCond17 Using cfiCommon0
          CFI Function afRegisterExtended
          CFI Conditional ??CrossCallReturnLabel_39
          CFI R6 load(1, XDATA, add(CFA_XSP16, literal(-12)))
          CFI VB load(1, XDATA, add(CFA_XSP16, literal(-11)))
          CFI V0 load(1, XDATA, add(CFA_XSP16, literal(-10)))
          CFI V1 load(1, XDATA, add(CFA_XSP16, literal(-9)))
          CFI V2 load(1, XDATA, add(CFA_XSP16, literal(-8)))
          CFI V3 load(1, XDATA, add(CFA_XSP16, literal(-7)))
          CFI R7 load(1, XDATA, add(CFA_XSP16, literal(-6)))
          CFI ?RET_LOW load(1, XDATA, add(CFA_XSP16, literal(-5)))
          CFI ?RET_HIGH load(1, XDATA, add(CFA_XSP16, literal(-4)))
          CFI ?BRET_EXT load(1, XDATA, add(CFA_XSP16, literal(-3)))
          CFI DPL0 load(1, XDATA, add(CFA_XSP16, literal(-2)))
          CFI DPH0 load(1, XDATA, add(CFA_XSP16, literal(-1)))
          CFI CFA_SP SP+-2
          CFI CFA_XSP16 add(XSP16, 12)
          CFI Block cfiCond18 Using cfiCommon0
          CFI (cfiCond18) Function afReflectError
          CFI (cfiCond18) Conditional ??CrossCallReturnLabel_40
          CFI (cfiCond18) R6 load(1, XDATA, add(CFA_XSP16, literal(-16)))
          CFI (cfiCond18) VB load(1, XDATA, add(CFA_XSP16, literal(-15)))
          CFI (cfiCond18) V0 load(1, XDATA, add(CFA_XSP16, literal(-14)))
          CFI (cfiCond18) V1 load(1, XDATA, add(CFA_XSP16, literal(-13)))
          CFI (cfiCond18) V2 load(1, XDATA, add(CFA_XSP16, literal(-12)))
          CFI (cfiCond18) V3 load(1, XDATA, add(CFA_XSP16, literal(-11)))
          CFI (cfiCond18) V4 load(1, XDATA, add(CFA_XSP16, literal(-10)))
          CFI (cfiCond18) V5 load(1, XDATA, add(CFA_XSP16, literal(-9)))
          CFI (cfiCond18) V6 load(1, XDATA, add(CFA_XSP16, literal(-8)))
          CFI (cfiCond18) V7 load(1, XDATA, add(CFA_XSP16, literal(-7)))
          CFI (cfiCond18) R7 load(1, XDATA, add(CFA_XSP16, literal(-6)))
          CFI (cfiCond18) ?RET_LOW load(1, XDATA, add(CFA_XSP16, literal(-5)))
          CFI (cfiCond18) ?RET_HIGH load(1, XDATA, add(CFA_XSP16, literal(-4)))
          CFI (cfiCond18) ?BRET_EXT load(1, XDATA, add(CFA_XSP16, literal(-3)))
          CFI (cfiCond18) DPL0 load(1, XDATA, add(CFA_XSP16, literal(-2)))
          CFI (cfiCond18) DPH0 load(1, XDATA, add(CFA_XSP16, literal(-1)))
          CFI (cfiCond18) CFA_SP SP+-2
          CFI (cfiCond18) CFA_XSP16 add(XSP16, 16)
          CFI Block cfiPicker19 Using cfiCommon1
          CFI (cfiPicker19) NoFunction
          CFI (cfiPicker19) Picker
        LCALL     ?Subroutine38 & 0xFFFF
??CrossCallReturnLabel_68:
        RET
          CFI EndBlock cfiCond17
          CFI EndBlock cfiCond18
          CFI EndBlock cfiPicker19

        RSEG BANKED_CODE:HUGECODE:NOROOT(0)
?Subroutine38:
          CFI Block cfiCond20 Using cfiCommon0
          CFI Function afRegisterExtended
          CFI Conditional ??CrossCallReturnLabel_68, ??CrossCallReturnLabel_39
          CFI R6 load(1, XDATA, add(CFA_XSP16, literal(-12)))
          CFI VB load(1, XDATA, add(CFA_XSP16, literal(-11)))
          CFI V0 load(1, XDATA, add(CFA_XSP16, literal(-10)))
          CFI V1 load(1, XDATA, add(CFA_XSP16, literal(-9)))
          CFI V2 load(1, XDATA, add(CFA_XSP16, literal(-8)))
          CFI V3 load(1, XDATA, add(CFA_XSP16, literal(-7)))
          CFI R7 load(1, XDATA, add(CFA_XSP16, literal(-6)))
          CFI ?RET_LOW load(1, XDATA, add(CFA_XSP16, literal(-5)))
          CFI ?RET_HIGH load(1, XDATA, add(CFA_XSP16, literal(-4)))
          CFI ?BRET_EXT load(1, XDATA, add(CFA_XSP16, literal(-3)))
          CFI DPL0 load(1, XDATA, add(CFA_XSP16, literal(-2)))
          CFI DPH0 load(1, XDATA, add(CFA_XSP16, literal(-1)))
          CFI CFA_SP SP+-4
          CFI CFA_XSP16 add(XSP16, 12)
          CFI Block cfiCond21 Using cfiCommon0
          CFI (cfiCond21) Function afReflectError
          CFI (cfiCond21) Conditional ??CrossCallReturnLabel_68, ??CrossCallReturnLabel_40
          CFI (cfiCond21) R6 load(1, XDATA, add(CFA_XSP16, literal(-16)))
          CFI (cfiCond21) VB load(1, XDATA, add(CFA_XSP16, literal(-15)))
          CFI (cfiCond21) V0 load(1, XDATA, add(CFA_XSP16, literal(-14)))
          CFI (cfiCond21) V1 load(1, XDATA, add(CFA_XSP16, literal(-13)))
          CFI (cfiCond21) V2 load(1, XDATA, add(CFA_XSP16, literal(-12)))
          CFI (cfiCond21) V3 load(1, XDATA, add(CFA_XSP16, literal(-11)))
          CFI (cfiCond21) V4 load(1, XDATA, add(CFA_XSP16, literal(-10)))
          CFI (cfiCond21) V5 load(1, XDATA, add(CFA_XSP16, literal(-9)))
          CFI (cfiCond21) V6 load(1, XDATA, add(CFA_XSP16, literal(-8)))
          CFI (cfiCond21) V7 load(1, XDATA, add(CFA_XSP16, literal(-7)))
          CFI (cfiCond21) R7 load(1, XDATA, add(CFA_XSP16, literal(-6)))
          CFI (cfiCond21) ?RET_LOW load(1, XDATA, add(CFA_XSP16, literal(-5)))
          CFI (cfiCond21) ?RET_HIGH load(1, XDATA, add(CFA_XSP16, literal(-4)))
          CFI (cfiCond21) ?BRET_EXT load(1, XDATA, add(CFA_XSP16, literal(-3)))
          CFI (cfiCond21) DPL0 load(1, XDATA, add(CFA_XSP16, literal(-2)))
          CFI (cfiCond21) DPH0 load(1, XDATA, add(CFA_XSP16, literal(-1)))
          CFI (cfiCond21) CFA_SP SP+-4
          CFI (cfiCond21) CFA_XSP16 add(XSP16, 16)
          CFI Block cfiCond22 Using cfiCommon0
          CFI (cfiCond22) Function afRegisterExtended
          CFI (cfiCond22) Conditional ??CrossCallReturnLabel_69, ??CrossCallReturnLabel_59, ??CrossCallReturnLabel_30
          CFI (cfiCond22) R6 load(1, XDATA, add(CFA_XSP16, literal(-12)))
          CFI (cfiCond22) VB load(1, XDATA, add(CFA_XSP16, literal(-11)))
          CFI (cfiCond22) V0 load(1, XDATA, add(CFA_XSP16, literal(-10)))
          CFI (cfiCond22) V1 load(1, XDATA, add(CFA_XSP16, literal(-9)))
          CFI (cfiCond22) V2 load(1, XDATA, add(CFA_XSP16, literal(-8)))
          CFI (cfiCond22) V3 load(1, XDATA, add(CFA_XSP16, literal(-7)))
          CFI (cfiCond22) R7 load(1, XDATA, add(CFA_XSP16, literal(-6)))
          CFI (cfiCond22) ?RET_LOW load(1, XDATA, add(CFA_XSP16, literal(-5)))
          CFI (cfiCond22) ?RET_HIGH load(1, XDATA, add(CFA_XSP16, literal(-4)))
          CFI (cfiCond22) ?BRET_EXT load(1, XDATA, add(CFA_XSP16, literal(-3)))
          CFI (cfiCond22) DPL0 load(1, XDATA, add(CFA_XSP16, literal(-2)))
          CFI (cfiCond22) DPH0 load(1, XDATA, add(CFA_XSP16, literal(-1)))
          CFI (cfiCond22) CFA_SP SP+-6
          CFI (cfiCond22) CFA_XSP16 add(XSP16, 12)
          CFI Block cfiCond23 Using cfiCommon0
          CFI (cfiCond23) Function afRegisterExtended
          CFI (cfiCond23) Conditional ??CrossCallReturnLabel_69, ??CrossCallReturnLabel_59, ??CrossCallReturnLabel_31
          CFI (cfiCond23) R6 load(1, XDATA, add(CFA_XSP16, literal(-12)))
          CFI (cfiCond23) VB load(1, XDATA, add(CFA_XSP16, literal(-11)))
          CFI (cfiCond23) V0 load(1, XDATA, add(CFA_XSP16, literal(-10)))
          CFI (cfiCond23) V1 load(1, XDATA, add(CFA_XSP16, literal(-9)))
          CFI (cfiCond23) V2 load(1, XDATA, add(CFA_XSP16, literal(-8)))
          CFI (cfiCond23) V3 load(1, XDATA, add(CFA_XSP16, literal(-7)))
          CFI (cfiCond23) R7 load(1, XDATA, add(CFA_XSP16, literal(-6)))
          CFI (cfiCond23) ?RET_LOW load(1, XDATA, add(CFA_XSP16, literal(-5)))
          CFI (cfiCond23) ?RET_HIGH load(1, XDATA, add(CFA_XSP16, literal(-4)))
          CFI (cfiCond23) ?BRET_EXT load(1, XDATA, add(CFA_XSP16, literal(-3)))
          CFI (cfiCond23) DPL0 load(1, XDATA, add(CFA_XSP16, literal(-2)))
          CFI (cfiCond23) DPH0 load(1, XDATA, add(CFA_XSP16, literal(-1)))
          CFI (cfiCond23) CFA_SP SP+-6
          CFI (cfiCond23) CFA_XSP16 add(XSP16, 12)
          CFI Block cfiCond24 Using cfiCommon0
          CFI (cfiCond24) Function afRegisterExtended
          CFI (cfiCond24) Conditional ??CrossCallReturnLabel_69, ??CrossCallReturnLabel_60, ??CrossCallReturnLabel_37
          CFI (cfiCond24) R6 load(1, XDATA, add(CFA_XSP16, literal(-12)))
          CFI (cfiCond24) VB load(1, XDATA, add(CFA_XSP16, literal(-11)))
          CFI (cfiCond24) V0 load(1, XDATA, add(CFA_XSP16, literal(-10)))
          CFI (cfiCond24) V1 load(1, XDATA, add(CFA_XSP16, literal(-9)))
          CFI (cfiCond24) V2 load(1, XDATA, add(CFA_XSP16, literal(-8)))
          CFI (cfiCond24) V3 load(1, XDATA, add(CFA_XSP16, literal(-7)))
          CFI (cfiCond24) R7 load(1, XDATA, add(CFA_XSP16, literal(-6)))
          CFI (cfiCond24) ?RET_LOW load(1, XDATA, add(CFA_XSP16, literal(-5)))
          CFI (cfiCond24) ?RET_HIGH load(1, XDATA, add(CFA_XSP16, literal(-4)))
          CFI (cfiCond24) ?BRET_EXT load(1, XDATA, add(CFA_XSP16, literal(-3)))
          CFI (cfiCond24) DPL0 load(1, XDATA, add(CFA_XSP16, literal(-2)))
          CFI (cfiCond24) DPH0 load(1, XDATA, add(CFA_XSP16, literal(-1)))
          CFI (cfiCond24) CFA_SP SP+-6
          CFI (cfiCond24) CFA_XSP16 add(XSP16, 12)
          CFI Block cfiCond25 Using cfiCommon0
          CFI (cfiCond25) Function afReflectError
          CFI (cfiCond25) Conditional ??CrossCallReturnLabel_69, ??CrossCallReturnLabel_60, ??CrossCallReturnLabel_38
          CFI (cfiCond25) R6 load(1, XDATA, add(CFA_XSP16, literal(-16)))
          CFI (cfiCond25) VB load(1, XDATA, add(CFA_XSP16, literal(-15)))
          CFI (cfiCond25) V0 load(1, XDATA, add(CFA_XSP16, literal(-14)))
          CFI (cfiCond25) V1 load(1, XDATA, add(CFA_XSP16, literal(-13)))
          CFI (cfiCond25) V2 load(1, XDATA, add(CFA_XSP16, literal(-12)))
          CFI (cfiCond25) V3 load(1, XDATA, add(CFA_XSP16, literal(-11)))
          CFI (cfiCond25) V4 load(1, XDATA, add(CFA_XSP16, literal(-10)))
          CFI (cfiCond25) V5 load(1, XDATA, add(CFA_XSP16, literal(-9)))
          CFI (cfiCond25) V6 load(1, XDATA, add(CFA_XSP16, literal(-8)))
          CFI (cfiCond25) V7 load(1, XDATA, add(CFA_XSP16, literal(-7)))
          CFI (cfiCond25) R7 load(1, XDATA, add(CFA_XSP16, literal(-6)))
          CFI (cfiCond25) ?RET_LOW load(1, XDATA, add(CFA_XSP16, literal(-5)))
          CFI (cfiCond25) ?RET_HIGH load(1, XDATA, add(CFA_XSP16, literal(-4)))
          CFI (cfiCond25) ?BRET_EXT load(1, XDATA, add(CFA_XSP16, literal(-3)))
          CFI (cfiCond25) DPL0 load(1, XDATA, add(CFA_XSP16, literal(-2)))
          CFI (cfiCond25) DPH0 load(1, XDATA, add(CFA_XSP16, literal(-1)))
          CFI (cfiCond25) CFA_SP SP+-6
          CFI (cfiCond25) CFA_XSP16 add(XSP16, 16)
          CFI Block cfiPicker26 Using cfiCommon1
          CFI (cfiPicker26) NoFunction
          CFI (cfiPicker26) Picker
        MOVX      @DPTR,A
        MOV       DPL,R2
        MOV       DPH,R3
        INC       DPTR
        INC       DPTR
        INC       DPTR
        INC       DPTR
        RET
          CFI EndBlock cfiCond20
          CFI EndBlock cfiCond21
          CFI EndBlock cfiCond22
          CFI EndBlock cfiCond23
          CFI EndBlock cfiCond24
          CFI EndBlock cfiCond25
          CFI EndBlock cfiPicker26

        RSEG BANKED_CODE:HUGECODE:NOROOT(0)
?Subroutine24:
          CFI Block cfiCond27 Using cfiCommon0
          CFI Function afRegisterExtended
          CFI Conditional ??CrossCallReturnLabel_37
          CFI R6 load(1, XDATA, add(CFA_XSP16, literal(-12)))
          CFI VB load(1, XDATA, add(CFA_XSP16, literal(-11)))
          CFI V0 load(1, XDATA, add(CFA_XSP16, literal(-10)))
          CFI V1 load(1, XDATA, add(CFA_XSP16, literal(-9)))
          CFI V2 load(1, XDATA, add(CFA_XSP16, literal(-8)))
          CFI V3 load(1, XDATA, add(CFA_XSP16, literal(-7)))
          CFI R7 load(1, XDATA, add(CFA_XSP16, literal(-6)))
          CFI ?RET_LOW load(1, XDATA, add(CFA_XSP16, literal(-5)))
          CFI ?RET_HIGH load(1, XDATA, add(CFA_XSP16, literal(-4)))
          CFI ?BRET_EXT load(1, XDATA, add(CFA_XSP16, literal(-3)))
          CFI DPL0 load(1, XDATA, add(CFA_XSP16, literal(-2)))
          CFI DPH0 load(1, XDATA, add(CFA_XSP16, literal(-1)))
          CFI CFA_SP SP+-2
          CFI CFA_XSP16 add(XSP16, 12)
          CFI Block cfiCond28 Using cfiCommon0
          CFI (cfiCond28) Function afReflectError
          CFI (cfiCond28) Conditional ??CrossCallReturnLabel_38
          CFI (cfiCond28) R6 load(1, XDATA, add(CFA_XSP16, literal(-16)))
          CFI (cfiCond28) VB load(1, XDATA, add(CFA_XSP16, literal(-15)))
          CFI (cfiCond28) V0 load(1, XDATA, add(CFA_XSP16, literal(-14)))
          CFI (cfiCond28) V1 load(1, XDATA, add(CFA_XSP16, literal(-13)))
          CFI (cfiCond28) V2 load(1, XDATA, add(CFA_XSP16, literal(-12)))
          CFI (cfiCond28) V3 load(1, XDATA, add(CFA_XSP16, literal(-11)))
          CFI (cfiCond28) V4 load(1, XDATA, add(CFA_XSP16, literal(-10)))
          CFI (cfiCond28) V5 load(1, XDATA, add(CFA_XSP16, literal(-9)))
          CFI (cfiCond28) V6 load(1, XDATA, add(CFA_XSP16, literal(-8)))
          CFI (cfiCond28) V7 load(1, XDATA, add(CFA_XSP16, literal(-7)))
          CFI (cfiCond28) R7 load(1, XDATA, add(CFA_XSP16, literal(-6)))
          CFI (cfiCond28) ?RET_LOW load(1, XDATA, add(CFA_XSP16, literal(-5)))
          CFI (cfiCond28) ?RET_HIGH load(1, XDATA, add(CFA_XSP16, literal(-4)))
          CFI (cfiCond28) ?BRET_EXT load(1, XDATA, add(CFA_XSP16, literal(-3)))
          CFI (cfiCond28) DPL0 load(1, XDATA, add(CFA_XSP16, literal(-2)))
          CFI (cfiCond28) DPH0 load(1, XDATA, add(CFA_XSP16, literal(-1)))
          CFI (cfiCond28) CFA_SP SP+-2
          CFI (cfiCond28) CFA_XSP16 add(XSP16, 16)
          CFI Block cfiPicker29 Using cfiCommon1
          CFI (cfiPicker29) NoFunction
          CFI (cfiPicker29) Picker
        LCALL     ?Subroutine33 & 0xFFFF
??CrossCallReturnLabel_60:
        RET
          CFI EndBlock cfiCond27
          CFI EndBlock cfiCond28
          CFI EndBlock cfiPicker29

        RSEG BANKED_CODE:HUGECODE:NOROOT(0)
?Subroutine33:
          CFI Block cfiCond30 Using cfiCommon0
          CFI Function afRegisterExtended
          CFI Conditional ??CrossCallReturnLabel_59, ??CrossCallReturnLabel_30
          CFI R6 load(1, XDATA, add(CFA_XSP16, literal(-12)))
          CFI VB load(1, XDATA, add(CFA_XSP16, literal(-11)))
          CFI V0 load(1, XDATA, add(CFA_XSP16, literal(-10)))
          CFI V1 load(1, XDATA, add(CFA_XSP16, literal(-9)))
          CFI V2 load(1, XDATA, add(CFA_XSP16, literal(-8)))
          CFI V3 load(1, XDATA, add(CFA_XSP16, literal(-7)))
          CFI R7 load(1, XDATA, add(CFA_XSP16, literal(-6)))
          CFI ?RET_LOW load(1, XDATA, add(CFA_XSP16, literal(-5)))
          CFI ?RET_HIGH load(1, XDATA, add(CFA_XSP16, literal(-4)))
          CFI ?BRET_EXT load(1, XDATA, add(CFA_XSP16, literal(-3)))
          CFI DPL0 load(1, XDATA, add(CFA_XSP16, literal(-2)))
          CFI DPH0 load(1, XDATA, add(CFA_XSP16, literal(-1)))
          CFI CFA_SP SP+-4
          CFI CFA_XSP16 add(XSP16, 12)
          CFI Block cfiCond31 Using cfiCommon0
          CFI (cfiCond31) Function afRegisterExtended
          CFI (cfiCond31) Conditional ??CrossCallReturnLabel_59, ??CrossCallReturnLabel_31
          CFI (cfiCond31) R6 load(1, XDATA, add(CFA_XSP16, literal(-12)))
          CFI (cfiCond31) VB load(1, XDATA, add(CFA_XSP16, literal(-11)))
          CFI (cfiCond31) V0 load(1, XDATA, add(CFA_XSP16, literal(-10)))
          CFI (cfiCond31) V1 load(1, XDATA, add(CFA_XSP16, literal(-9)))
          CFI (cfiCond31) V2 load(1, XDATA, add(CFA_XSP16, literal(-8)))
          CFI (cfiCond31) V3 load(1, XDATA, add(CFA_XSP16, literal(-7)))
          CFI (cfiCond31) R7 load(1, XDATA, add(CFA_XSP16, literal(-6)))
          CFI (cfiCond31) ?RET_LOW load(1, XDATA, add(CFA_XSP16, literal(-5)))
          CFI (cfiCond31) ?RET_HIGH load(1, XDATA, add(CFA_XSP16, literal(-4)))
          CFI (cfiCond31) ?BRET_EXT load(1, XDATA, add(CFA_XSP16, literal(-3)))
          CFI (cfiCond31) DPL0 load(1, XDATA, add(CFA_XSP16, literal(-2)))
          CFI (cfiCond31) DPH0 load(1, XDATA, add(CFA_XSP16, literal(-1)))
          CFI (cfiCond31) CFA_SP SP+-4
          CFI (cfiCond31) CFA_XSP16 add(XSP16, 12)
          CFI Block cfiCond32 Using cfiCommon0
          CFI (cfiCond32) Function afRegisterExtended
          CFI (cfiCond32) Conditional ??CrossCallReturnLabel_60, ??CrossCallReturnLabel_37
          CFI (cfiCond32) R6 load(1, XDATA, add(CFA_XSP16, literal(-12)))
          CFI (cfiCond32) VB load(1, XDATA, add(CFA_XSP16, literal(-11)))
          CFI (cfiCond32) V0 load(1, XDATA, add(CFA_XSP16, literal(-10)))
          CFI (cfiCond32) V1 load(1, XDATA, add(CFA_XSP16, literal(-9)))
          CFI (cfiCond32) V2 load(1, XDATA, add(CFA_XSP16, literal(-8)))
          CFI (cfiCond32) V3 load(1, XDATA, add(CFA_XSP16, literal(-7)))
          CFI (cfiCond32) R7 load(1, XDATA, add(CFA_XSP16, literal(-6)))
          CFI (cfiCond32) ?RET_LOW load(1, XDATA, add(CFA_XSP16, literal(-5)))
          CFI (cfiCond32) ?RET_HIGH load(1, XDATA, add(CFA_XSP16, literal(-4)))
          CFI (cfiCond32) ?BRET_EXT load(1, XDATA, add(CFA_XSP16, literal(-3)))
          CFI (cfiCond32) DPL0 load(1, XDATA, add(CFA_XSP16, literal(-2)))
          CFI (cfiCond32) DPH0 load(1, XDATA, add(CFA_XSP16, literal(-1)))
          CFI (cfiCond32) CFA_SP SP+-4
          CFI (cfiCond32) CFA_XSP16 add(XSP16, 12)
          CFI Block cfiCond33 Using cfiCommon0
          CFI (cfiCond33) Function afReflectError
          CFI (cfiCond33) Conditional ??CrossCallReturnLabel_60, ??CrossCallReturnLabel_38
          CFI (cfiCond33) R6 load(1, XDATA, add(CFA_XSP16, literal(-16)))
          CFI (cfiCond33) VB load(1, XDATA, add(CFA_XSP16, literal(-15)))
          CFI (cfiCond33) V0 load(1, XDATA, add(CFA_XSP16, literal(-14)))
          CFI (cfiCond33) V1 load(1, XDATA, add(CFA_XSP16, literal(-13)))
          CFI (cfiCond33) V2 load(1, XDATA, add(CFA_XSP16, literal(-12)))
          CFI (cfiCond33) V3 load(1, XDATA, add(CFA_XSP16, literal(-11)))
          CFI (cfiCond33) V4 load(1, XDATA, add(CFA_XSP16, literal(-10)))
          CFI (cfiCond33) V5 load(1, XDATA, add(CFA_XSP16, literal(-9)))
          CFI (cfiCond33) V6 load(1, XDATA, add(CFA_XSP16, literal(-8)))
          CFI (cfiCond33) V7 load(1, XDATA, add(CFA_XSP16, literal(-7)))
          CFI (cfiCond33) R7 load(1, XDATA, add(CFA_XSP16, literal(-6)))
          CFI (cfiCond33) ?RET_LOW load(1, XDATA, add(CFA_XSP16, literal(-5)))
          CFI (cfiCond33) ?RET_HIGH load(1, XDATA, add(CFA_XSP16, literal(-4)))
          CFI (cfiCond33) ?BRET_EXT load(1, XDATA, add(CFA_XSP16, literal(-3)))
          CFI (cfiCond33) DPL0 load(1, XDATA, add(CFA_XSP16, literal(-2)))
          CFI (cfiCond33) DPH0 load(1, XDATA, add(CFA_XSP16, literal(-1)))
          CFI (cfiCond33) CFA_SP SP+-4
          CFI (cfiCond33) CFA_XSP16 add(XSP16, 16)
          CFI Block cfiPicker34 Using cfiCommon1
          CFI (cfiPicker34) NoFunction
          CFI (cfiPicker34) Picker
        LCALL     ?Subroutine38 & 0xFFFF
??CrossCallReturnLabel_69:
        INC       DPTR
        RET
          CFI EndBlock cfiCond30
          CFI EndBlock cfiCond31
          CFI EndBlock cfiCond32
          CFI EndBlock cfiCond33
          CFI EndBlock cfiPicker34

        RSEG BANKED_CODE:HUGECODE:NOROOT(0)
?Subroutine5:
          CFI Block cfiCond35 Using cfiCommon0
          CFI Function afDataConfirm
          CFI Conditional ??CrossCallReturnLabel_0
          CFI R6 load(1, XDATA, add(CFA_XSP16, literal(-14)))
          CFI VB load(1, XDATA, add(CFA_XSP16, literal(-13)))
          CFI V0 load(1, XDATA, add(CFA_XSP16, literal(-12)))
          CFI V1 load(1, XDATA, add(CFA_XSP16, literal(-11)))
          CFI V2 load(1, XDATA, add(CFA_XSP16, literal(-10)))
          CFI V3 load(1, XDATA, add(CFA_XSP16, literal(-9)))
          CFI V4 load(1, XDATA, add(CFA_XSP16, literal(-8)))
          CFI V5 load(1, XDATA, add(CFA_XSP16, literal(-7)))
          CFI R7 load(1, XDATA, add(CFA_XSP16, literal(-6)))
          CFI ?RET_LOW load(1, XDATA, add(CFA_XSP16, literal(-5)))
          CFI ?RET_HIGH load(1, XDATA, add(CFA_XSP16, literal(-4)))
          CFI ?BRET_EXT load(1, XDATA, add(CFA_XSP16, literal(-3)))
          CFI DPL0 load(1, XDATA, add(CFA_XSP16, literal(-2)))
          CFI DPH0 load(1, XDATA, add(CFA_XSP16, literal(-1)))
          CFI CFA_SP SP+-2
          CFI CFA_XSP16 add(XSP16, 14)
          CFI Block cfiCond36 Using cfiCommon0
          CFI (cfiCond36) Function afReflectError
          CFI (cfiCond36) Conditional ??CrossCallReturnLabel_1
          CFI (cfiCond36) R6 load(1, XDATA, add(CFA_XSP16, literal(-16)))
          CFI (cfiCond36) VB load(1, XDATA, add(CFA_XSP16, literal(-15)))
          CFI (cfiCond36) V0 load(1, XDATA, add(CFA_XSP16, literal(-14)))
          CFI (cfiCond36) V1 load(1, XDATA, add(CFA_XSP16, literal(-13)))
          CFI (cfiCond36) V2 load(1, XDATA, add(CFA_XSP16, literal(-12)))
          CFI (cfiCond36) V3 load(1, XDATA, add(CFA_XSP16, literal(-11)))
          CFI (cfiCond36) V4 load(1, XDATA, add(CFA_XSP16, literal(-10)))
          CFI (cfiCond36) V5 load(1, XDATA, add(CFA_XSP16, literal(-9)))
          CFI (cfiCond36) V6 load(1, XDATA, add(CFA_XSP16, literal(-8)))
          CFI (cfiCond36) V7 load(1, XDATA, add(CFA_XSP16, literal(-7)))
          CFI (cfiCond36) R7 load(1, XDATA, add(CFA_XSP16, literal(-6)))
          CFI (cfiCond36) ?RET_LOW load(1, XDATA, add(CFA_XSP16, literal(-5)))
          CFI (cfiCond36) ?RET_HIGH load(1, XDATA, add(CFA_XSP16, literal(-4)))
          CFI (cfiCond36) ?BRET_EXT load(1, XDATA, add(CFA_XSP16, literal(-3)))
          CFI (cfiCond36) DPL0 load(1, XDATA, add(CFA_XSP16, literal(-2)))
          CFI (cfiCond36) DPH0 load(1, XDATA, add(CFA_XSP16, literal(-1)))
          CFI (cfiCond36) CFA_SP SP+-2
          CFI (cfiCond36) CFA_XSP16 add(XSP16, 16)
          CFI Block cfiCond37 Using cfiCommon0
          CFI (cfiCond37) Function afBuildMSGIncoming
          CFI (cfiCond37) Conditional ??CrossCallReturnLabel_2
          CFI (cfiCond37) R6 load(1, XDATA, add(CFA_XSP16, literal(-19)))
          CFI (cfiCond37) VB load(1, XDATA, add(CFA_XSP16, literal(-18)))
          CFI (cfiCond37) V0 load(1, XDATA, add(CFA_XSP16, literal(-17)))
          CFI (cfiCond37) V1 load(1, XDATA, add(CFA_XSP16, literal(-16)))
          CFI (cfiCond37) V2 load(1, XDATA, add(CFA_XSP16, literal(-15)))
          CFI (cfiCond37) V3 load(1, XDATA, add(CFA_XSP16, literal(-14)))
          CFI (cfiCond37) V4 load(1, XDATA, add(CFA_XSP16, literal(-13)))
          CFI (cfiCond37) V5 load(1, XDATA, add(CFA_XSP16, literal(-12)))
          CFI (cfiCond37) V6 load(1, XDATA, add(CFA_XSP16, literal(-11)))
          CFI (cfiCond37) V7 load(1, XDATA, add(CFA_XSP16, literal(-10)))
          CFI (cfiCond37) V8 load(1, XDATA, add(CFA_XSP16, literal(-9)))
          CFI (cfiCond37) V9 load(1, XDATA, add(CFA_XSP16, literal(-8)))
          CFI (cfiCond37) V10 load(1, XDATA, add(CFA_XSP16, literal(-7)))
          CFI (cfiCond37) R7 load(1, XDATA, add(CFA_XSP16, literal(-6)))
          CFI (cfiCond37) ?RET_LOW load(1, XDATA, add(CFA_XSP16, literal(-5)))
          CFI (cfiCond37) ?RET_HIGH load(1, XDATA, add(CFA_XSP16, literal(-4)))
          CFI (cfiCond37) ?BRET_EXT load(1, XDATA, add(CFA_XSP16, literal(-3)))
          CFI (cfiCond37) DPL0 load(1, XDATA, add(CFA_XSP16, literal(-2)))
          CFI (cfiCond37) DPH0 load(1, XDATA, add(CFA_XSP16, literal(-1)))
          CFI (cfiCond37) CFA_SP SP+-2
          CFI (cfiCond37) CFA_XSP16 add(XSP16, 19)
          CFI Block cfiPicker38 Using cfiCommon1
          CFI (cfiPicker38) NoFunction
          CFI (cfiPicker38) Picker
        LCALL     ?Subroutine37 & 0xFFFF
??CrossCallReturnLabel_120:
        MOV       DPH,A
        MOV       DPL,R0
        MOVX      A,@DPTR
        MOV       R1,A
        LCALL     `??osal_msg_send::?relay`; Banked call to: osal_msg_send
        RET
          CFI EndBlock cfiCond35
          CFI EndBlock cfiCond36
          CFI EndBlock cfiCond37
          CFI EndBlock cfiPicker38
//  376 
//  377 /*********************************************************************
//  378  * @fn          afIncomingData
//  379  *
//  380  * @brief       Transfer a data PDU (ASDU) from the APS sub-layer to the AF.
//  381  *
//  382  * @param       aff  - pointer to APS frame format
//  383  * @param       SrcAddress  - Source address
//  384  * @param       SrcPanId  - Source PAN ID
//  385  * @param       sig - incoming message's link quality
//  386  * @param       nwkSeqNum - incoming network sequence number (from nwk header frame)
//  387  * @param       SecurityUse - Security enable/disable
//  388  * @param       timestamp - the MAC Timer2 timestamp at Rx.
//  389  * @param       radius - incoming messages received radius
//  390  *
//  391  * @return      none
//  392  */

        RSEG BANKED_CODE:HUGECODE:NOROOT(0)
//  393 void afIncomingData( aps_FrameFormat_t *aff, zAddrType_t *SrcAddress, uint16 SrcPanId,
afIncomingData:
          CFI Block cfiBlock39 Using cfiCommon0
          CFI Function afIncomingData
        CODE
//  394                      NLDE_Signal_t *sig, uint8 nwkSeqNum, uint8 SecurityUse,
//  395                      uint32 timestamp, uint8 radius )
//  396 {
        FUNCALL afIncomingData, aps_FindGroupForEndpoint
        LOCFRAME ISTACK, 0, STACK
        LOCFRAME PSTACK, 0, STACK
        LOCFRAME XSTACK, 28, STACK
        LOCFRAME IOVERLAY, 0, STATIC
        LOCFRAME DOVERLAY, 0, STATIC
        ARGFRAME ISTACK, 0, STACK
        ARGFRAME PSTACK, 0, STACK
        ARGFRAME XSTACK, 28, STACK
        ARGFRAME IOVERLAY, 0, STATIC
        ARGFRAME DOVERLAY, 0, STATIC
        FUNCALL afIncomingData, afFindEndPointDesc
        LOCFRAME ISTACK, 0, STACK
        LOCFRAME PSTACK, 0, STACK
        LOCFRAME XSTACK, 28, STACK
        LOCFRAME IOVERLAY, 0, STATIC
        LOCFRAME DOVERLAY, 0, STATIC
        ARGFRAME ISTACK, 0, STACK
        ARGFRAME PSTACK, 0, STACK
        ARGFRAME XSTACK, 28, STACK
        ARGFRAME IOVERLAY, 0, STATIC
        ARGFRAME DOVERLAY, 0, STATIC
        FUNCALL afIncomingData, afFindEndPointDesc
        LOCFRAME ISTACK, 0, STACK
        LOCFRAME PSTACK, 0, STACK
        LOCFRAME XSTACK, 28, STACK
        LOCFRAME IOVERLAY, 0, STATIC
        LOCFRAME DOVERLAY, 0, STATIC
        ARGFRAME ISTACK, 0, STACK
        ARGFRAME PSTACK, 0, STACK
        ARGFRAME XSTACK, 28, STACK
        ARGFRAME IOVERLAY, 0, STATIC
        ARGFRAME DOVERLAY, 0, STATIC
        FUNCALL afIncomingData, afFindEndPointDescList
        LOCFRAME ISTACK, 0, STACK
        LOCFRAME PSTACK, 0, STACK
        LOCFRAME XSTACK, 28, STACK
        LOCFRAME IOVERLAY, 0, STATIC
        LOCFRAME DOVERLAY, 0, STATIC
        ARGFRAME ISTACK, 0, STACK
        ARGFRAME PSTACK, 0, STACK
        ARGFRAME XSTACK, 28, STACK
        ARGFRAME IOVERLAY, 0, STATIC
        ARGFRAME DOVERLAY, 0, STATIC
        FUNCALL afIncomingData, afFindEndPointDescList
        LOCFRAME ISTACK, 0, STACK
        LOCFRAME PSTACK, 0, STACK
        LOCFRAME XSTACK, 28, STACK
        LOCFRAME IOVERLAY, 0, STATIC
        LOCFRAME DOVERLAY, 0, STATIC
        ARGFRAME ISTACK, 0, STACK
        ARGFRAME PSTACK, 0, STACK
        ARGFRAME XSTACK, 28, STACK
        ARGFRAME IOVERLAY, 0, STATIC
        ARGFRAME DOVERLAY, 0, STATIC
        FUNCALL afIncomingData, osal_mem_free
        LOCFRAME ISTACK, 0, STACK
        LOCFRAME PSTACK, 0, STACK
        LOCFRAME XSTACK, 28, STACK
        LOCFRAME IOVERLAY, 0, STATIC
        LOCFRAME DOVERLAY, 0, STATIC
        ARGFRAME ISTACK, 0, STACK
        ARGFRAME PSTACK, 0, STACK
        ARGFRAME XSTACK, 28, STACK
        ARGFRAME IOVERLAY, 0, STATIC
        ARGFRAME DOVERLAY, 0, STATIC
        FUNCALL afIncomingData, afBuildMSGIncoming
        LOCFRAME ISTACK, 0, STACK
        LOCFRAME PSTACK, 0, STACK
        LOCFRAME XSTACK, 40, STACK
        LOCFRAME IOVERLAY, 0, STATIC
        LOCFRAME DOVERLAY, 0, STATIC
        ARGFRAME ISTACK, 0, STACK
        ARGFRAME PSTACK, 0, STACK
        ARGFRAME XSTACK, 40, STACK
        ARGFRAME IOVERLAY, 0, STATIC
        ARGFRAME DOVERLAY, 0, STATIC
        FUNCALL afIncomingData, aps_FindGroupForEndpoint
        LOCFRAME ISTACK, 0, STACK
        LOCFRAME PSTACK, 0, STACK
        LOCFRAME XSTACK, 28, STACK
        LOCFRAME IOVERLAY, 0, STATIC
        LOCFRAME DOVERLAY, 0, STATIC
        ARGFRAME ISTACK, 0, STACK
        ARGFRAME PSTACK, 0, STACK
        ARGFRAME XSTACK, 28, STACK
        ARGFRAME IOVERLAY, 0, STATIC
        ARGFRAME DOVERLAY, 0, STATIC
        FUNCALL afIncomingData, afFindEndPointDesc
        LOCFRAME ISTACK, 0, STACK
        LOCFRAME PSTACK, 0, STACK
        LOCFRAME XSTACK, 28, STACK
        LOCFRAME IOVERLAY, 0, STATIC
        LOCFRAME DOVERLAY, 0, STATIC
        ARGFRAME ISTACK, 0, STACK
        ARGFRAME PSTACK, 0, STACK
        ARGFRAME XSTACK, 28, STACK
        ARGFRAME IOVERLAY, 0, STATIC
        ARGFRAME DOVERLAY, 0, STATIC
        REQUIRE ?V0
        REQUIRE ?V1
        REQUIRE ?V2
        REQUIRE ?V3
        REQUIRE ?V4
        REQUIRE ?V5
        REQUIRE ?V6
        REQUIRE ?V7
        REQUIRE ?V8
        REQUIRE ?V9
        REQUIRE ?V10
        REQUIRE ?V11
        REQUIRE ?V12
        REQUIRE ?V13
        REQUIRE ?V14
        REQUIRE ?V15
        MOV       A,#-0x18
        LCALL     ?BANKED_ENTER_XDATA
          CFI DPH0 load(1, XDATA, add(CFA_XSP16, literal(-1)))
          CFI DPL0 load(1, XDATA, add(CFA_XSP16, literal(-2)))
          CFI ?BRET_EXT load(1, XDATA, add(CFA_XSP16, literal(-3)))
          CFI ?RET_HIGH load(1, XDATA, add(CFA_XSP16, literal(-4)))
          CFI ?RET_LOW load(1, XDATA, add(CFA_XSP16, literal(-5)))
          CFI R7 load(1, XDATA, add(CFA_XSP16, literal(-6)))
          CFI V15 load(1, XDATA, add(CFA_XSP16, literal(-7)))
          CFI V14 load(1, XDATA, add(CFA_XSP16, literal(-8)))
          CFI V13 load(1, XDATA, add(CFA_XSP16, literal(-9)))
          CFI V12 load(1, XDATA, add(CFA_XSP16, literal(-10)))
          CFI V11 load(1, XDATA, add(CFA_XSP16, literal(-11)))
          CFI V10 load(1, XDATA, add(CFA_XSP16, literal(-12)))
          CFI V9 load(1, XDATA, add(CFA_XSP16, literal(-13)))
          CFI V8 load(1, XDATA, add(CFA_XSP16, literal(-14)))
          CFI V7 load(1, XDATA, add(CFA_XSP16, literal(-15)))
          CFI V6 load(1, XDATA, add(CFA_XSP16, literal(-16)))
          CFI V5 load(1, XDATA, add(CFA_XSP16, literal(-17)))
          CFI V4 load(1, XDATA, add(CFA_XSP16, literal(-18)))
          CFI V3 load(1, XDATA, add(CFA_XSP16, literal(-19)))
          CFI V2 load(1, XDATA, add(CFA_XSP16, literal(-20)))
          CFI V1 load(1, XDATA, add(CFA_XSP16, literal(-21)))
          CFI V0 load(1, XDATA, add(CFA_XSP16, literal(-22)))
          CFI VB load(1, XDATA, add(CFA_XSP16, literal(-23)))
          CFI R6 load(1, XDATA, add(CFA_XSP16, literal(-24)))
          CFI CFA_SP SP+0
          CFI CFA_XSP16 add(XSP16, 24)
        ; Saved register size: 24
        ; Auto size: 4
        MOV       A,#-0x4
        LCALL     ?ALLOC_XSTACK8
          CFI CFA_XSP16 add(XSP16, 28)
        MOV       A,#0x2
        LCALL     ?XSTACK_DISP0_8
        MOV       A,R4
        MOVX      @DPTR,A
        INC       DPTR
        MOV       A,R5
        MOVX      @DPTR,A
        MOV       A,#0x1
        LCALL     ?XSTACK_DISP0_8
        MOV       A,R1
        MOVX      @DPTR,A
        MOV       ?V2,R2
        MOV       ?V3,R3
//  397   endPointDesc_t *epDesc = NULL;
//  398   epList_t *pList = epList;
        MOV       DPTR,#epList
        MOVX      A,@DPTR
        MOV       ?V0,A
        INC       DPTR
        MOVX      A,@DPTR
        MOV       ?V1,A
//  399 #if !defined ( APS_NO_GROUPS )
//  400   uint8 grpEp = APS_GROUPS_EP_NOT_FOUND;
        MOV       ?V8,#-0x2
//  401 #endif
//  402 
//  403   if ( ((aff->FrmCtrl & APS_DELIVERYMODE_MASK) == APS_FC_DM_GROUP) )
        MOV       DPL,R2
        MOV       DPH,R3
        MOVX      A,@DPTR
        ANL       A,#0xc
        XRL       A,#0xc
        JNZ       ??afIncomingData_0
//  404   {
//  405 #if !defined ( APS_NO_GROUPS )
//  406     // Find the first endpoint for this group
//  407     grpEp = aps_FindGroupForEndpoint( aff->GroupID, APS_GROUPS_FIND_FIRST );
        ; Setup parameters for call to function aps_FindGroupForEndpoint
        MOV       R1,#-0x2
        LCALL     ?Subroutine7 & 0xFFFF
//  408     if ( grpEp == APS_GROUPS_EP_NOT_FOUND )
??CrossCallReturnLabel_5:
        JNZ       $+5
        LJMP      ??afIncomingData_1 & 0xFFFF
//  409       return;   // No endpoint found
//  410 
//  411     epDesc = afFindEndPointDesc( grpEp );
        ; Setup parameters for call to function afFindEndPointDesc
        LCALL     ?Subroutine29 & 0xFFFF
//  412     if ( epDesc == NULL )
??CrossCallReturnLabel_51:
        JNZ       ??afIncomingData_2
//  413       return;   // Endpoint descriptor not found
        LJMP      ??afIncomingData_1 & 0xFFFF
//  414 
//  415     pList = afFindEndPointDescList( epDesc->endPoint );
//  416 #else
//  417     return; // Not supported
//  418 #endif
//  419   }
//  420   else if ( aff->DstEndPoint == AF_BROADCAST_ENDPOINT )
??afIncomingData_0:
        INC       DPTR
        INC       DPTR
        MOVX      A,@DPTR
        CPL       A
        JNZ       ??afIncomingData_3
//  421   {
//  422     // Set the list
//  423     if ( pList != NULL )
        MOV       A,?V0
        ORL       A,?V1
        JNZ       $+5
        LJMP      ??afIncomingData_1 & 0xFFFF
//  424     {
//  425       epDesc = pList->epDesc;
        MOV       DPL,?V0
        MOV       DPH,?V1
        INC       DPTR
        INC       DPTR
        MOVX      A,@DPTR
        MOV       R6,A
        INC       DPTR
        MOVX      A,@DPTR
        MOV       R7,A
??afIncomingData_4:
        MOV       A,#0x1c
        LCALL     ?XSTACK_DISP0_8
        MOVX      A,@DPTR
        MOV       ?V14,A
        INC       DPTR
        MOVX      A,@DPTR
        MOV       ?V15,A
        MOV       A,#0x21
        LCALL     ?XSTACK_DISP0_8
        MOV       R0,#?V4
        LCALL     ?L_MOV_X
        SJMP      ??afIncomingData_5
//  426     }
//  427   }
//  428   else if ( (epDesc = afFindEndPointDesc( aff->DstEndPoint )) )
??afIncomingData_3:
        ; Setup parameters for call to function afFindEndPointDesc
        MOV       DPL,R2
        MOV       DPH,R3
        INC       DPTR
        INC       DPTR
        MOVX      A,@DPTR
        MOV       R1,A
        LCALL     `??afFindEndPointDesc::?relay`; Banked call to: afFindEndPointDesc
        MOV       ?V5,R3
        MOV       R1,?V5
        MOV       A,R2
        MOV       R6,A
        MOV       A,R3
        MOV       R7,A
        MOV       A,R2
        ORL       A,R1
        JZ        ??afIncomingData_4
//  429   {
//  430     pList = afFindEndPointDescList( epDesc->endPoint );
??afIncomingData_2:
        ; Setup parameters for call to function afFindEndPointDescList
        MOV       DPL,R6
        MOV       DPH,R7
        LCALL     ?Subroutine14 & 0xFFFF
//  431   }
??CrossCallReturnLabel_19:
        SJMP      ??afIncomingData_4
//  432 
//  433   while ( epDesc )
//  434   {
//  435     uint16 epProfileID = 0xFFFE;  // Invalid Profile ID
//  436 
//  437     if ( pList->pfnDescCB )
//  438     {
//  439       uint16 *pID = (uint16 *)(pList->pfnDescCB(
//  440                                  AF_DESCRIPTOR_PROFILE_ID, epDesc->endPoint ));
//  441       if ( pID )
//  442       {
//  443         epProfileID = *pID;
//  444         osal_mem_free( pID );
//  445       }
//  446     }
//  447     else if ( epDesc->simpleDesc )
//  448     {
//  449       epProfileID = epDesc->simpleDesc->AppProfId;
//  450     }
//  451 
//  452     // First part of verification is to make sure that:
//  453     // the local Endpoint ProfileID matches the received ProfileID OR
//  454     // the message is specifically send to ZDO (this excludes the broadcast endpoint) OR
//  455     // if the Wildcard ProfileID is received the message should not be sent to ZDO endpoint
//  456     if ( (aff->ProfileID == epProfileID) ||
//  457          ((epDesc->endPoint == ZDO_EP) && (aff->ProfileID == ZDO_PROFILE_ID)) ||
//  458          ((epDesc->endPoint != ZDO_EP) && ( aff->ProfileID == ZDO_WILDCARD_PROFILE_ID )) )
//  459     {
//  460       // Save original endpoint
//  461       uint8 endpoint = aff->DstEndPoint;
//  462 
//  463       // overwrite with descriptor's endpoint
//  464       aff->DstEndPoint = epDesc->endPoint;
//  465 
//  466       afBuildMSGIncoming( aff, epDesc, SrcAddress, SrcPanId, sig,
//  467                          nwkSeqNum, SecurityUse, timestamp, radius );
//  468 
//  469       // Restore with original endpoint
//  470       aff->DstEndPoint = endpoint;
//  471     }
//  472 
//  473     if ( ((aff->FrmCtrl & APS_DELIVERYMODE_MASK) == APS_FC_DM_GROUP) )
//  474     {
//  475 #if !defined ( APS_NO_GROUPS )
//  476       // Find the next endpoint for this group
//  477       grpEp = aps_FindGroupForEndpoint( aff->GroupID, grpEp );
//  478       if ( grpEp == APS_GROUPS_EP_NOT_FOUND )
//  479         return;   // No endpoint found
//  480 
//  481       epDesc = afFindEndPointDesc( grpEp );
//  482       if ( epDesc == NULL )
//  483         return;   // Endpoint descriptor not found
//  484 
//  485       pList = afFindEndPointDescList( epDesc->endPoint );
//  486 #else
//  487       return;
//  488 #endif
//  489     }
//  490     else if ( aff->DstEndPoint == AF_BROADCAST_ENDPOINT )
//  491     {
//  492       pList = pList->nextDesc;
//  493       if ( pList )
//  494         epDesc = pList->epDesc;
??afIncomingData_6:
        MOV       DPL,?V0
        MOV       DPH,?V1
        INC       DPTR
        INC       DPTR
        MOVX      A,@DPTR
        MOV       R6,A
        INC       DPTR
        MOVX      A,@DPTR
        MOV       R7,A
??afIncomingData_5:
        MOV       A,R6
        ORL       A,R7
        JNZ       $+5
        LJMP      ??afIncomingData_1 & 0xFFFF
        SJMP      ??CrossCallReturnLabel_20
??afIncomingData_7:
        ; Setup parameters for call to function afFindEndPointDescList
        MOV       DPL,R2
        MOV       DPH,R3
        LCALL     ?Subroutine14 & 0xFFFF
??CrossCallReturnLabel_20:
        MOV       ?V10,#-0x2
        MOV       ?V11,#-0x1
        LCALL     ?Subroutine4 & 0xFFFF
??CrossCallReturnLabel_98:
        MOV       DPL,R6
        MOV       DPH,R7
        JZ        ??afIncomingData_8
        ; Setup parameters for indirect call
        MOVX      A,@DPTR
        MOV       R2,A
        MOV       R1,#0x2
        LCALL     ?Subroutine11 & 0xFFFF
??CrossCallReturnLabel_115:
        LCALL     ?CALL_IND
        MOV       A,R2
        ORL       A,R3
        JZ        ??afIncomingData_9
        MOV       DPL,R2
        MOV       DPH,R3
        MOVX      A,@DPTR
        MOV       ?V10,A
        INC       DPTR
        MOVX      A,@DPTR
        MOV       ?V11,A
        ; Setup parameters for call to function osal_mem_free
        LCALL     `??osal_mem_free::?relay`; Banked call to: osal_mem_free
        SJMP      ??afIncomingData_9
??afIncomingData_8:
        LCALL     ??Subroutine43_0 & 0xFFFF
??CrossCallReturnLabel_96:
        JZ        ??afIncomingData_9
        MOV       DPL,R6
        MOV       DPH,R7
        LCALL     ??Subroutine47_0 & 0xFFFF
??CrossCallReturnLabel_113:
        INC       DPTR
        MOVX      A,@DPTR
        MOV       ?V10,A
        INC       DPTR
        MOVX      A,@DPTR
        MOV       ?V11,A
??afIncomingData_9:
        MOV       DPL,?V2
        MOV       DPH,?V3
        INC       DPTR
        INC       DPTR
        INC       DPTR
        INC       DPTR
        INC       DPTR
        INC       DPTR
        INC       DPTR
        INC       DPTR
        MOVX      A,@DPTR
        XRL       A,?V10
        JNZ       ??afIncomingData_10
        INC       DPTR
        MOVX      A,@DPTR
        XRL       A,?V11
??afIncomingData_10:
        JZ        ??afIncomingData_11
        MOV       DPL,R6
        MOV       DPH,R7
        MOVX      A,@DPTR
        MOV       DPL,?V2
        MOV       DPH,?V3
        INC       DPTR
        INC       DPTR
        INC       DPTR
        INC       DPTR
        INC       DPTR
        INC       DPTR
        INC       DPTR
        INC       DPTR
        JNZ       ??afIncomingData_12
        LCALL     ??Subroutine44_0 & 0xFFFF
??CrossCallReturnLabel_93:
        JNZ       ??CrossCallReturnLabel_27
        SJMP      ??afIncomingData_11
??afIncomingData_12:
        MOVX      A,@DPTR
        CPL       A
        JNZ       ??afIncomingData_13
        INC       DPTR
        MOVX      A,@DPTR
        CPL       A
??afIncomingData_13:
        JNZ       ??CrossCallReturnLabel_27
??afIncomingData_11:
        MOV       A,?V2
        ADD       A,#0x2
        MOV       ?V10,A
        CLR       A
        ADDC      A,?V3
        MOV       ?V11,A
        MOV       DPL,?V10
        MOV       DPH,A
        MOVX      A,@DPTR
        MOV       DPL,?XSP + 0
        MOV       DPH,?XSP + 1
        MOVX      @DPTR,A
        MOV       DPL,R6
        MOV       DPH,R7
        LCALL     ?Subroutine18 & 0xFFFF
??CrossCallReturnLabel_26:
        ; Setup parameters for call to function afBuildMSGIncoming
        MOV       A,#0x25
        LCALL     ?XSTACK_DISP0_8
        MOVX      A,@DPTR
        MOV       ?V9,A
        MOV       R0,#?V9
        LCALL     ?PUSH_XSTACK_I_ONE
          CFI CFA_XSP16 add(XSP16, 29)
        MOV       R0,#?V4
        LCALL     ?PUSH_XSTACK_I_FOUR
          CFI CFA_XSP16 add(XSP16, 33)
        MOV       A,#0x25
        LCALL     ?XSTACK_DISP0_8
        MOVX      A,@DPTR
        MOV       ?V9,A
        MOV       R0,#?V9
        LCALL     ?PUSH_XSTACK_I_ONE
          CFI CFA_XSP16 add(XSP16, 34)
        MOV       A,#0x24
        LCALL     ?XSTACK_DISP0_8
        LCALL     ?PUSH_XSTACK8_X_TWO
          CFI CFA_XSP16 add(XSP16, 36)
        MOV       R0,#?V14
        LCALL     ?PUSH_XSTACK_I_TWO
          CFI CFA_XSP16 add(XSP16, 38)
        MOV       A,#0xc
        LCALL     ?XSTACK_DISP0_8
        LCALL     ?PUSH_XSTACK8_X_TWO
          CFI CFA_XSP16 add(XSP16, 40)
        MOV       A,#0xd
        LCALL     ?XSTACK_DISP0_8
        MOVX      A,@DPTR
        MOV       R1,A
        MOV       A,R6
        MOV       R4,A
        MOV       A,R7
        MOV       R5,A
        MOV       R2,?V2
        MOV       R3,?V3
        LCALL     `??afBuildMSGIncoming::?relay`; Banked call to: afBuildMSGIncoming
        MOV       A,#0xc
        LCALL     ?DEALLOC_XSTACK8
          CFI CFA_XSP16 add(XSP16, 28)
        MOV       DPL,?XSP + 0
        MOV       DPH,?XSP + 1
        LCALL     ?Subroutine18 & 0xFFFF
??CrossCallReturnLabel_27:
        MOV       DPL,?V2
        MOV       DPH,?V3
        MOVX      A,@DPTR
        ANL       A,#0xc
        XRL       A,#0xc
        JNZ       ??afIncomingData_14
        ; Setup parameters for call to function aps_FindGroupForEndpoint
        MOV       R1,?V8
        LCALL     ?Subroutine7 & 0xFFFF
??CrossCallReturnLabel_6:
        JZ        ??afIncomingData_1
        ; Setup parameters for call to function afFindEndPointDesc
        LCALL     ?Subroutine29 & 0xFFFF
??CrossCallReturnLabel_52:
        JZ        $+5
        LJMP      ??afIncomingData_7 & 0xFFFF
        SJMP      ??afIncomingData_1
??afIncomingData_14:
        INC       DPTR
        INC       DPTR
        MOVX      A,@DPTR
        CPL       A
        JNZ       ??afIncomingData_1
        MOV       DPL,?V0
        MOV       DPH,?V1
        MOVX      A,@DPTR
        MOV       ?V0,A
        INC       DPTR
        MOVX      A,@DPTR
        MOV       ?V1,A
        MOV       A,?V0
        ORL       A,?V1
        JZ        $+5
        LJMP      ??afIncomingData_6 & 0xFFFF
//  495       else
//  496         epDesc = NULL;
//  497     }
//  498     else
//  499       epDesc = NULL;
//  500   }
//  501 }
??afIncomingData_1:
        MOV       A,#0x4
        LCALL     ?DEALLOC_XSTACK8
          CFI CFA_XSP16 add(XSP16, 24)
        MOV       R7,#0x10
        LJMP      ?BANKED_LEAVE_XDATA
          CFI EndBlock cfiBlock39

        RSEG BANKED_CODE:HUGECODE:NOROOT(0)
?Subroutine29:
          CFI Block cfiCond40 Using cfiCommon0
          CFI Function afIncomingData
          CFI Conditional ??CrossCallReturnLabel_51
          CFI R6 load(1, XDATA, add(CFA_XSP16, literal(-24)))
          CFI VB load(1, XDATA, add(CFA_XSP16, literal(-23)))
          CFI V0 load(1, XDATA, add(CFA_XSP16, literal(-22)))
          CFI V1 load(1, XDATA, add(CFA_XSP16, literal(-21)))
          CFI V2 load(1, XDATA, add(CFA_XSP16, literal(-20)))
          CFI V3 load(1, XDATA, add(CFA_XSP16, literal(-19)))
          CFI V4 load(1, XDATA, add(CFA_XSP16, literal(-18)))
          CFI V5 load(1, XDATA, add(CFA_XSP16, literal(-17)))
          CFI V6 load(1, XDATA, add(CFA_XSP16, literal(-16)))
          CFI V7 load(1, XDATA, add(CFA_XSP16, literal(-15)))
          CFI V8 load(1, XDATA, add(CFA_XSP16, literal(-14)))
          CFI V9 load(1, XDATA, add(CFA_XSP16, literal(-13)))
          CFI V10 load(1, XDATA, add(CFA_XSP16, literal(-12)))
          CFI V11 load(1, XDATA, add(CFA_XSP16, literal(-11)))
          CFI V12 load(1, XDATA, add(CFA_XSP16, literal(-10)))
          CFI V13 load(1, XDATA, add(CFA_XSP16, literal(-9)))
          CFI V14 load(1, XDATA, add(CFA_XSP16, literal(-8)))
          CFI V15 load(1, XDATA, add(CFA_XSP16, literal(-7)))
          CFI R7 load(1, XDATA, add(CFA_XSP16, literal(-6)))
          CFI ?RET_LOW load(1, XDATA, add(CFA_XSP16, literal(-5)))
          CFI ?RET_HIGH load(1, XDATA, add(CFA_XSP16, literal(-4)))
          CFI ?BRET_EXT load(1, XDATA, add(CFA_XSP16, literal(-3)))
          CFI DPL0 load(1, XDATA, add(CFA_XSP16, literal(-2)))
          CFI DPH0 load(1, XDATA, add(CFA_XSP16, literal(-1)))
          CFI CFA_SP SP+-2
          CFI CFA_XSP16 add(XSP16, 28)
          CFI Block cfiCond41 Using cfiCommon0
          CFI (cfiCond41) Function afIncomingData
          CFI (cfiCond41) Conditional ??CrossCallReturnLabel_52
          CFI (cfiCond41) R6 load(1, XDATA, add(CFA_XSP16, literal(-24)))
          CFI (cfiCond41) VB load(1, XDATA, add(CFA_XSP16, literal(-23)))
          CFI (cfiCond41) V0 load(1, XDATA, add(CFA_XSP16, literal(-22)))
          CFI (cfiCond41) V1 load(1, XDATA, add(CFA_XSP16, literal(-21)))
          CFI (cfiCond41) V2 load(1, XDATA, add(CFA_XSP16, literal(-20)))
          CFI (cfiCond41) V3 load(1, XDATA, add(CFA_XSP16, literal(-19)))
          CFI (cfiCond41) V4 load(1, XDATA, add(CFA_XSP16, literal(-18)))
          CFI (cfiCond41) V5 load(1, XDATA, add(CFA_XSP16, literal(-17)))
          CFI (cfiCond41) V6 load(1, XDATA, add(CFA_XSP16, literal(-16)))
          CFI (cfiCond41) V7 load(1, XDATA, add(CFA_XSP16, literal(-15)))
          CFI (cfiCond41) V8 load(1, XDATA, add(CFA_XSP16, literal(-14)))
          CFI (cfiCond41) V9 load(1, XDATA, add(CFA_XSP16, literal(-13)))
          CFI (cfiCond41) V10 load(1, XDATA, add(CFA_XSP16, literal(-12)))
          CFI (cfiCond41) V11 load(1, XDATA, add(CFA_XSP16, literal(-11)))
          CFI (cfiCond41) V12 load(1, XDATA, add(CFA_XSP16, literal(-10)))
          CFI (cfiCond41) V13 load(1, XDATA, add(CFA_XSP16, literal(-9)))
          CFI (cfiCond41) V14 load(1, XDATA, add(CFA_XSP16, literal(-8)))
          CFI (cfiCond41) V15 load(1, XDATA, add(CFA_XSP16, literal(-7)))
          CFI (cfiCond41) R7 load(1, XDATA, add(CFA_XSP16, literal(-6)))
          CFI (cfiCond41) ?RET_LOW load(1, XDATA, add(CFA_XSP16, literal(-5)))
          CFI (cfiCond41) ?RET_HIGH load(1, XDATA, add(CFA_XSP16, literal(-4)))
          CFI (cfiCond41) ?BRET_EXT load(1, XDATA, add(CFA_XSP16, literal(-3)))
          CFI (cfiCond41) DPL0 load(1, XDATA, add(CFA_XSP16, literal(-2)))
          CFI (cfiCond41) DPH0 load(1, XDATA, add(CFA_XSP16, literal(-1)))
          CFI (cfiCond41) CFA_SP SP+-2
          CFI (cfiCond41) CFA_XSP16 add(XSP16, 28)
          CFI Block cfiPicker42 Using cfiCommon1
          CFI (cfiPicker42) NoFunction
          CFI (cfiPicker42) Picker
        LCALL     `??afFindEndPointDesc::?relay`; Banked call to: afFindEndPointDesc
        MOV       ?V0,R2
        MOV       ?V1,R3
        MOV       R6,?V0
        MOV       R7,?V1
        MOV       A,R2
        ORL       A,R7
        RET
          CFI EndBlock cfiCond40
          CFI EndBlock cfiCond41
          CFI EndBlock cfiPicker42

        RSEG BANKED_CODE:HUGECODE:NOROOT(0)
?Subroutine18:
          CFI Block cfiCond43 Using cfiCommon0
          CFI Function afIncomingData
          CFI Conditional ??CrossCallReturnLabel_26
          CFI R6 load(1, XDATA, add(CFA_XSP16, literal(-24)))
          CFI VB load(1, XDATA, add(CFA_XSP16, literal(-23)))
          CFI V0 load(1, XDATA, add(CFA_XSP16, literal(-22)))
          CFI V1 load(1, XDATA, add(CFA_XSP16, literal(-21)))
          CFI V2 load(1, XDATA, add(CFA_XSP16, literal(-20)))
          CFI V3 load(1, XDATA, add(CFA_XSP16, literal(-19)))
          CFI V4 load(1, XDATA, add(CFA_XSP16, literal(-18)))
          CFI V5 load(1, XDATA, add(CFA_XSP16, literal(-17)))
          CFI V6 load(1, XDATA, add(CFA_XSP16, literal(-16)))
          CFI V7 load(1, XDATA, add(CFA_XSP16, literal(-15)))
          CFI V8 load(1, XDATA, add(CFA_XSP16, literal(-14)))
          CFI V9 load(1, XDATA, add(CFA_XSP16, literal(-13)))
          CFI V10 load(1, XDATA, add(CFA_XSP16, literal(-12)))
          CFI V11 load(1, XDATA, add(CFA_XSP16, literal(-11)))
          CFI V12 load(1, XDATA, add(CFA_XSP16, literal(-10)))
          CFI V13 load(1, XDATA, add(CFA_XSP16, literal(-9)))
          CFI V14 load(1, XDATA, add(CFA_XSP16, literal(-8)))
          CFI V15 load(1, XDATA, add(CFA_XSP16, literal(-7)))
          CFI R7 load(1, XDATA, add(CFA_XSP16, literal(-6)))
          CFI ?RET_LOW load(1, XDATA, add(CFA_XSP16, literal(-5)))
          CFI ?RET_HIGH load(1, XDATA, add(CFA_XSP16, literal(-4)))
          CFI ?BRET_EXT load(1, XDATA, add(CFA_XSP16, literal(-3)))
          CFI DPL0 load(1, XDATA, add(CFA_XSP16, literal(-2)))
          CFI DPH0 load(1, XDATA, add(CFA_XSP16, literal(-1)))
          CFI CFA_SP SP+-2
          CFI CFA_XSP16 add(XSP16, 28)
          CFI Block cfiCond44 Using cfiCommon0
          CFI (cfiCond44) Function afIncomingData
          CFI (cfiCond44) Conditional ??CrossCallReturnLabel_27
          CFI (cfiCond44) R6 load(1, XDATA, add(CFA_XSP16, literal(-24)))
          CFI (cfiCond44) VB load(1, XDATA, add(CFA_XSP16, literal(-23)))
          CFI (cfiCond44) V0 load(1, XDATA, add(CFA_XSP16, literal(-22)))
          CFI (cfiCond44) V1 load(1, XDATA, add(CFA_XSP16, literal(-21)))
          CFI (cfiCond44) V2 load(1, XDATA, add(CFA_XSP16, literal(-20)))
          CFI (cfiCond44) V3 load(1, XDATA, add(CFA_XSP16, literal(-19)))
          CFI (cfiCond44) V4 load(1, XDATA, add(CFA_XSP16, literal(-18)))
          CFI (cfiCond44) V5 load(1, XDATA, add(CFA_XSP16, literal(-17)))
          CFI (cfiCond44) V6 load(1, XDATA, add(CFA_XSP16, literal(-16)))
          CFI (cfiCond44) V7 load(1, XDATA, add(CFA_XSP16, literal(-15)))
          CFI (cfiCond44) V8 load(1, XDATA, add(CFA_XSP16, literal(-14)))
          CFI (cfiCond44) V9 load(1, XDATA, add(CFA_XSP16, literal(-13)))
          CFI (cfiCond44) V10 load(1, XDATA, add(CFA_XSP16, literal(-12)))
          CFI (cfiCond44) V11 load(1, XDATA, add(CFA_XSP16, literal(-11)))
          CFI (cfiCond44) V12 load(1, XDATA, add(CFA_XSP16, literal(-10)))
          CFI (cfiCond44) V13 load(1, XDATA, add(CFA_XSP16, literal(-9)))
          CFI (cfiCond44) V14 load(1, XDATA, add(CFA_XSP16, literal(-8)))
          CFI (cfiCond44) V15 load(1, XDATA, add(CFA_XSP16, literal(-7)))
          CFI (cfiCond44) R7 load(1, XDATA, add(CFA_XSP16, literal(-6)))
          CFI (cfiCond44) ?RET_LOW load(1, XDATA, add(CFA_XSP16, literal(-5)))
          CFI (cfiCond44) ?RET_HIGH load(1, XDATA, add(CFA_XSP16, literal(-4)))
          CFI (cfiCond44) ?BRET_EXT load(1, XDATA, add(CFA_XSP16, literal(-3)))
          CFI (cfiCond44) DPL0 load(1, XDATA, add(CFA_XSP16, literal(-2)))
          CFI (cfiCond44) DPH0 load(1, XDATA, add(CFA_XSP16, literal(-1)))
          CFI (cfiCond44) CFA_SP SP+-2
          CFI (cfiCond44) CFA_XSP16 add(XSP16, 28)
          CFI Block cfiPicker45 Using cfiCommon1
          CFI (cfiPicker45) NoFunction
          CFI (cfiPicker45) Picker
        MOVX      A,@DPTR
        MOV       DPL,?V10
        MOV       DPH,?V11
        MOVX      @DPTR,A
        RET
          CFI EndBlock cfiCond43
          CFI EndBlock cfiCond44
          CFI EndBlock cfiPicker45

        RSEG BANKED_CODE:HUGECODE:NOROOT(0)
?Subroutine14:
          CFI Block cfiCond46 Using cfiCommon0
          CFI Function afIncomingData
          CFI Conditional ??CrossCallReturnLabel_19
          CFI R6 load(1, XDATA, add(CFA_XSP16, literal(-24)))
          CFI VB load(1, XDATA, add(CFA_XSP16, literal(-23)))
          CFI V0 load(1, XDATA, add(CFA_XSP16, literal(-22)))
          CFI V1 load(1, XDATA, add(CFA_XSP16, literal(-21)))
          CFI V2 load(1, XDATA, add(CFA_XSP16, literal(-20)))
          CFI V3 load(1, XDATA, add(CFA_XSP16, literal(-19)))
          CFI V4 load(1, XDATA, add(CFA_XSP16, literal(-18)))
          CFI V5 load(1, XDATA, add(CFA_XSP16, literal(-17)))
          CFI V6 load(1, XDATA, add(CFA_XSP16, literal(-16)))
          CFI V7 load(1, XDATA, add(CFA_XSP16, literal(-15)))
          CFI V8 load(1, XDATA, add(CFA_XSP16, literal(-14)))
          CFI V9 load(1, XDATA, add(CFA_XSP16, literal(-13)))
          CFI V10 load(1, XDATA, add(CFA_XSP16, literal(-12)))
          CFI V11 load(1, XDATA, add(CFA_XSP16, literal(-11)))
          CFI V12 load(1, XDATA, add(CFA_XSP16, literal(-10)))
          CFI V13 load(1, XDATA, add(CFA_XSP16, literal(-9)))
          CFI V14 load(1, XDATA, add(CFA_XSP16, literal(-8)))
          CFI V15 load(1, XDATA, add(CFA_XSP16, literal(-7)))
          CFI R7 load(1, XDATA, add(CFA_XSP16, literal(-6)))
          CFI ?RET_LOW load(1, XDATA, add(CFA_XSP16, literal(-5)))
          CFI ?RET_HIGH load(1, XDATA, add(CFA_XSP16, literal(-4)))
          CFI ?BRET_EXT load(1, XDATA, add(CFA_XSP16, literal(-3)))
          CFI DPL0 load(1, XDATA, add(CFA_XSP16, literal(-2)))
          CFI DPH0 load(1, XDATA, add(CFA_XSP16, literal(-1)))
          CFI CFA_SP SP+-2
          CFI CFA_XSP16 add(XSP16, 28)
          CFI Block cfiCond47 Using cfiCommon0
          CFI (cfiCond47) Function afIncomingData
          CFI (cfiCond47) Conditional ??CrossCallReturnLabel_20
          CFI (cfiCond47) R6 load(1, XDATA, add(CFA_XSP16, literal(-24)))
          CFI (cfiCond47) VB load(1, XDATA, add(CFA_XSP16, literal(-23)))
          CFI (cfiCond47) V0 load(1, XDATA, add(CFA_XSP16, literal(-22)))
          CFI (cfiCond47) V1 load(1, XDATA, add(CFA_XSP16, literal(-21)))
          CFI (cfiCond47) V2 load(1, XDATA, add(CFA_XSP16, literal(-20)))
          CFI (cfiCond47) V3 load(1, XDATA, add(CFA_XSP16, literal(-19)))
          CFI (cfiCond47) V4 load(1, XDATA, add(CFA_XSP16, literal(-18)))
          CFI (cfiCond47) V5 load(1, XDATA, add(CFA_XSP16, literal(-17)))
          CFI (cfiCond47) V6 load(1, XDATA, add(CFA_XSP16, literal(-16)))
          CFI (cfiCond47) V7 load(1, XDATA, add(CFA_XSP16, literal(-15)))
          CFI (cfiCond47) V8 load(1, XDATA, add(CFA_XSP16, literal(-14)))
          CFI (cfiCond47) V9 load(1, XDATA, add(CFA_XSP16, literal(-13)))
          CFI (cfiCond47) V10 load(1, XDATA, add(CFA_XSP16, literal(-12)))
          CFI (cfiCond47) V11 load(1, XDATA, add(CFA_XSP16, literal(-11)))
          CFI (cfiCond47) V12 load(1, XDATA, add(CFA_XSP16, literal(-10)))
          CFI (cfiCond47) V13 load(1, XDATA, add(CFA_XSP16, literal(-9)))
          CFI (cfiCond47) V14 load(1, XDATA, add(CFA_XSP16, literal(-8)))
          CFI (cfiCond47) V15 load(1, XDATA, add(CFA_XSP16, literal(-7)))
          CFI (cfiCond47) R7 load(1, XDATA, add(CFA_XSP16, literal(-6)))
          CFI (cfiCond47) ?RET_LOW load(1, XDATA, add(CFA_XSP16, literal(-5)))
          CFI (cfiCond47) ?RET_HIGH load(1, XDATA, add(CFA_XSP16, literal(-4)))
          CFI (cfiCond47) ?BRET_EXT load(1, XDATA, add(CFA_XSP16, literal(-3)))
          CFI (cfiCond47) DPL0 load(1, XDATA, add(CFA_XSP16, literal(-2)))
          CFI (cfiCond47) DPH0 load(1, XDATA, add(CFA_XSP16, literal(-1)))
          CFI (cfiCond47) CFA_SP SP+-2
          CFI (cfiCond47) CFA_XSP16 add(XSP16, 28)
          CFI Block cfiPicker48 Using cfiCommon1
          CFI (cfiPicker48) NoFunction
          CFI (cfiPicker48) Picker
        LCALL     ?Subroutine36 & 0xFFFF
??CrossCallReturnLabel_66:
        MOV       ?V0,R2
        MOV       ?V1,R3
        RET
          CFI EndBlock cfiCond46
          CFI EndBlock cfiCond47
          CFI EndBlock cfiPicker48

        RSEG BANKED_CODE:HUGECODE:NOROOT(0)
?Subroutine36:
          CFI Block cfiCond49 Using cfiCommon0
          CFI Function afRegister
          CFI Conditional ??CrossCallReturnLabel_65
          CFI R6 load(1, XDATA, add(CFA_XSP16, literal(-10)))
          CFI VB load(1, XDATA, add(CFA_XSP16, literal(-9)))
          CFI V0 load(1, XDATA, add(CFA_XSP16, literal(-8)))
          CFI V1 load(1, XDATA, add(CFA_XSP16, literal(-7)))
          CFI R7 load(1, XDATA, add(CFA_XSP16, literal(-6)))
          CFI ?RET_LOW load(1, XDATA, add(CFA_XSP16, literal(-5)))
          CFI ?RET_HIGH load(1, XDATA, add(CFA_XSP16, literal(-4)))
          CFI ?BRET_EXT load(1, XDATA, add(CFA_XSP16, literal(-3)))
          CFI DPL0 load(1, XDATA, add(CFA_XSP16, literal(-2)))
          CFI DPH0 load(1, XDATA, add(CFA_XSP16, literal(-1)))
          CFI CFA_SP SP+-2
          CFI CFA_XSP16 add(XSP16, 10)
          CFI Block cfiCond50 Using cfiCommon0
          CFI (cfiCond50) Function afIncomingData
          CFI (cfiCond50) Conditional ??CrossCallReturnLabel_66, ??CrossCallReturnLabel_19
          CFI (cfiCond50) R6 load(1, XDATA, add(CFA_XSP16, literal(-24)))
          CFI (cfiCond50) VB load(1, XDATA, add(CFA_XSP16, literal(-23)))
          CFI (cfiCond50) V0 load(1, XDATA, add(CFA_XSP16, literal(-22)))
          CFI (cfiCond50) V1 load(1, XDATA, add(CFA_XSP16, literal(-21)))
          CFI (cfiCond50) V2 load(1, XDATA, add(CFA_XSP16, literal(-20)))
          CFI (cfiCond50) V3 load(1, XDATA, add(CFA_XSP16, literal(-19)))
          CFI (cfiCond50) V4 load(1, XDATA, add(CFA_XSP16, literal(-18)))
          CFI (cfiCond50) V5 load(1, XDATA, add(CFA_XSP16, literal(-17)))
          CFI (cfiCond50) V6 load(1, XDATA, add(CFA_XSP16, literal(-16)))
          CFI (cfiCond50) V7 load(1, XDATA, add(CFA_XSP16, literal(-15)))
          CFI (cfiCond50) V8 load(1, XDATA, add(CFA_XSP16, literal(-14)))
          CFI (cfiCond50) V9 load(1, XDATA, add(CFA_XSP16, literal(-13)))
          CFI (cfiCond50) V10 load(1, XDATA, add(CFA_XSP16, literal(-12)))
          CFI (cfiCond50) V11 load(1, XDATA, add(CFA_XSP16, literal(-11)))
          CFI (cfiCond50) V12 load(1, XDATA, add(CFA_XSP16, literal(-10)))
          CFI (cfiCond50) V13 load(1, XDATA, add(CFA_XSP16, literal(-9)))
          CFI (cfiCond50) V14 load(1, XDATA, add(CFA_XSP16, literal(-8)))
          CFI (cfiCond50) V15 load(1, XDATA, add(CFA_XSP16, literal(-7)))
          CFI (cfiCond50) R7 load(1, XDATA, add(CFA_XSP16, literal(-6)))
          CFI (cfiCond50) ?RET_LOW load(1, XDATA, add(CFA_XSP16, literal(-5)))
          CFI (cfiCond50) ?RET_HIGH load(1, XDATA, add(CFA_XSP16, literal(-4)))
          CFI (cfiCond50) ?BRET_EXT load(1, XDATA, add(CFA_XSP16, literal(-3)))
          CFI (cfiCond50) DPL0 load(1, XDATA, add(CFA_XSP16, literal(-2)))
          CFI (cfiCond50) DPH0 load(1, XDATA, add(CFA_XSP16, literal(-1)))
          CFI (cfiCond50) CFA_SP SP+-4
          CFI (cfiCond50) CFA_XSP16 add(XSP16, 28)
          CFI Block cfiCond51 Using cfiCommon0
          CFI (cfiCond51) Function afIncomingData
          CFI (cfiCond51) Conditional ??CrossCallReturnLabel_66, ??CrossCallReturnLabel_20
          CFI (cfiCond51) R6 load(1, XDATA, add(CFA_XSP16, literal(-24)))
          CFI (cfiCond51) VB load(1, XDATA, add(CFA_XSP16, literal(-23)))
          CFI (cfiCond51) V0 load(1, XDATA, add(CFA_XSP16, literal(-22)))
          CFI (cfiCond51) V1 load(1, XDATA, add(CFA_XSP16, literal(-21)))
          CFI (cfiCond51) V2 load(1, XDATA, add(CFA_XSP16, literal(-20)))
          CFI (cfiCond51) V3 load(1, XDATA, add(CFA_XSP16, literal(-19)))
          CFI (cfiCond51) V4 load(1, XDATA, add(CFA_XSP16, literal(-18)))
          CFI (cfiCond51) V5 load(1, XDATA, add(CFA_XSP16, literal(-17)))
          CFI (cfiCond51) V6 load(1, XDATA, add(CFA_XSP16, literal(-16)))
          CFI (cfiCond51) V7 load(1, XDATA, add(CFA_XSP16, literal(-15)))
          CFI (cfiCond51) V8 load(1, XDATA, add(CFA_XSP16, literal(-14)))
          CFI (cfiCond51) V9 load(1, XDATA, add(CFA_XSP16, literal(-13)))
          CFI (cfiCond51) V10 load(1, XDATA, add(CFA_XSP16, literal(-12)))
          CFI (cfiCond51) V11 load(1, XDATA, add(CFA_XSP16, literal(-11)))
          CFI (cfiCond51) V12 load(1, XDATA, add(CFA_XSP16, literal(-10)))
          CFI (cfiCond51) V13 load(1, XDATA, add(CFA_XSP16, literal(-9)))
          CFI (cfiCond51) V14 load(1, XDATA, add(CFA_XSP16, literal(-8)))
          CFI (cfiCond51) V15 load(1, XDATA, add(CFA_XSP16, literal(-7)))
          CFI (cfiCond51) R7 load(1, XDATA, add(CFA_XSP16, literal(-6)))
          CFI (cfiCond51) ?RET_LOW load(1, XDATA, add(CFA_XSP16, literal(-5)))
          CFI (cfiCond51) ?RET_HIGH load(1, XDATA, add(CFA_XSP16, literal(-4)))
          CFI (cfiCond51) ?BRET_EXT load(1, XDATA, add(CFA_XSP16, literal(-3)))
          CFI (cfiCond51) DPL0 load(1, XDATA, add(CFA_XSP16, literal(-2)))
          CFI (cfiCond51) DPH0 load(1, XDATA, add(CFA_XSP16, literal(-1)))
          CFI (cfiCond51) CFA_SP SP+-4
          CFI (cfiCond51) CFA_XSP16 add(XSP16, 28)
          CFI Block cfiCond52 Using cfiCommon0
          CFI (cfiCond52) Function AF_DataRequest
          CFI (cfiCond52) Conditional ??CrossCallReturnLabel_67
          CFI (cfiCond52) R6 load(1, XDATA, add(CFA_XSP16, literal(-18)))
          CFI (cfiCond52) VB load(1, XDATA, add(CFA_XSP16, literal(-17)))
          CFI (cfiCond52) V0 load(1, XDATA, add(CFA_XSP16, literal(-16)))
          CFI (cfiCond52) V1 load(1, XDATA, add(CFA_XSP16, literal(-15)))
          CFI (cfiCond52) V2 load(1, XDATA, add(CFA_XSP16, literal(-14)))
          CFI (cfiCond52) V3 load(1, XDATA, add(CFA_XSP16, literal(-13)))
          CFI (cfiCond52) V4 load(1, XDATA, add(CFA_XSP16, literal(-12)))
          CFI (cfiCond52) V5 load(1, XDATA, add(CFA_XSP16, literal(-11)))
          CFI (cfiCond52) V6 load(1, XDATA, add(CFA_XSP16, literal(-10)))
          CFI (cfiCond52) V7 load(1, XDATA, add(CFA_XSP16, literal(-9)))
          CFI (cfiCond52) V8 load(1, XDATA, add(CFA_XSP16, literal(-8)))
          CFI (cfiCond52) V9 load(1, XDATA, add(CFA_XSP16, literal(-7)))
          CFI (cfiCond52) R7 load(1, XDATA, add(CFA_XSP16, literal(-6)))
          CFI (cfiCond52) ?RET_LOW load(1, XDATA, add(CFA_XSP16, literal(-5)))
          CFI (cfiCond52) ?RET_HIGH load(1, XDATA, add(CFA_XSP16, literal(-4)))
          CFI (cfiCond52) ?BRET_EXT load(1, XDATA, add(CFA_XSP16, literal(-3)))
          CFI (cfiCond52) DPL0 load(1, XDATA, add(CFA_XSP16, literal(-2)))
          CFI (cfiCond52) DPH0 load(1, XDATA, add(CFA_XSP16, literal(-1)))
          CFI (cfiCond52) CFA_SP SP+-2
          CFI (cfiCond52) CFA_XSP16 add(XSP16, 51)
          CFI Block cfiPicker53 Using cfiCommon1
          CFI (cfiPicker53) NoFunction
          CFI (cfiPicker53) Picker
        MOVX      A,@DPTR
        MOV       R1,A
        LCALL     `??afFindEndPointDescList::?relay`; Banked call to: afFindEndPointDescList
        RET
          CFI EndBlock cfiCond49
          CFI EndBlock cfiCond50
          CFI EndBlock cfiCond51
          CFI EndBlock cfiCond52
          CFI EndBlock cfiPicker53

        RSEG BANKED_CODE:HUGECODE:NOROOT(0)
?Subroutine7:
          CFI Block cfiCond54 Using cfiCommon0
          CFI Function afIncomingData
          CFI Conditional ??CrossCallReturnLabel_5
          CFI R6 load(1, XDATA, add(CFA_XSP16, literal(-24)))
          CFI VB load(1, XDATA, add(CFA_XSP16, literal(-23)))
          CFI V0 load(1, XDATA, add(CFA_XSP16, literal(-22)))
          CFI V1 load(1, XDATA, add(CFA_XSP16, literal(-21)))
          CFI V2 load(1, XDATA, add(CFA_XSP16, literal(-20)))
          CFI V3 load(1, XDATA, add(CFA_XSP16, literal(-19)))
          CFI V4 load(1, XDATA, add(CFA_XSP16, literal(-18)))
          CFI V5 load(1, XDATA, add(CFA_XSP16, literal(-17)))
          CFI V6 load(1, XDATA, add(CFA_XSP16, literal(-16)))
          CFI V7 load(1, XDATA, add(CFA_XSP16, literal(-15)))
          CFI V8 load(1, XDATA, add(CFA_XSP16, literal(-14)))
          CFI V9 load(1, XDATA, add(CFA_XSP16, literal(-13)))
          CFI V10 load(1, XDATA, add(CFA_XSP16, literal(-12)))
          CFI V11 load(1, XDATA, add(CFA_XSP16, literal(-11)))
          CFI V12 load(1, XDATA, add(CFA_XSP16, literal(-10)))
          CFI V13 load(1, XDATA, add(CFA_XSP16, literal(-9)))
          CFI V14 load(1, XDATA, add(CFA_XSP16, literal(-8)))
          CFI V15 load(1, XDATA, add(CFA_XSP16, literal(-7)))
          CFI R7 load(1, XDATA, add(CFA_XSP16, literal(-6)))
          CFI ?RET_LOW load(1, XDATA, add(CFA_XSP16, literal(-5)))
          CFI ?RET_HIGH load(1, XDATA, add(CFA_XSP16, literal(-4)))
          CFI ?BRET_EXT load(1, XDATA, add(CFA_XSP16, literal(-3)))
          CFI DPL0 load(1, XDATA, add(CFA_XSP16, literal(-2)))
          CFI DPH0 load(1, XDATA, add(CFA_XSP16, literal(-1)))
          CFI CFA_SP SP+-2
          CFI CFA_XSP16 add(XSP16, 28)
          CFI Block cfiCond55 Using cfiCommon0
          CFI (cfiCond55) Function afIncomingData
          CFI (cfiCond55) Conditional ??CrossCallReturnLabel_6
          CFI (cfiCond55) R6 load(1, XDATA, add(CFA_XSP16, literal(-24)))
          CFI (cfiCond55) VB load(1, XDATA, add(CFA_XSP16, literal(-23)))
          CFI (cfiCond55) V0 load(1, XDATA, add(CFA_XSP16, literal(-22)))
          CFI (cfiCond55) V1 load(1, XDATA, add(CFA_XSP16, literal(-21)))
          CFI (cfiCond55) V2 load(1, XDATA, add(CFA_XSP16, literal(-20)))
          CFI (cfiCond55) V3 load(1, XDATA, add(CFA_XSP16, literal(-19)))
          CFI (cfiCond55) V4 load(1, XDATA, add(CFA_XSP16, literal(-18)))
          CFI (cfiCond55) V5 load(1, XDATA, add(CFA_XSP16, literal(-17)))
          CFI (cfiCond55) V6 load(1, XDATA, add(CFA_XSP16, literal(-16)))
          CFI (cfiCond55) V7 load(1, XDATA, add(CFA_XSP16, literal(-15)))
          CFI (cfiCond55) V8 load(1, XDATA, add(CFA_XSP16, literal(-14)))
          CFI (cfiCond55) V9 load(1, XDATA, add(CFA_XSP16, literal(-13)))
          CFI (cfiCond55) V10 load(1, XDATA, add(CFA_XSP16, literal(-12)))
          CFI (cfiCond55) V11 load(1, XDATA, add(CFA_XSP16, literal(-11)))
          CFI (cfiCond55) V12 load(1, XDATA, add(CFA_XSP16, literal(-10)))
          CFI (cfiCond55) V13 load(1, XDATA, add(CFA_XSP16, literal(-9)))
          CFI (cfiCond55) V14 load(1, XDATA, add(CFA_XSP16, literal(-8)))
          CFI (cfiCond55) V15 load(1, XDATA, add(CFA_XSP16, literal(-7)))
          CFI (cfiCond55) R7 load(1, XDATA, add(CFA_XSP16, literal(-6)))
          CFI (cfiCond55) ?RET_LOW load(1, XDATA, add(CFA_XSP16, literal(-5)))
          CFI (cfiCond55) ?RET_HIGH load(1, XDATA, add(CFA_XSP16, literal(-4)))
          CFI (cfiCond55) ?BRET_EXT load(1, XDATA, add(CFA_XSP16, literal(-3)))
          CFI (cfiCond55) DPL0 load(1, XDATA, add(CFA_XSP16, literal(-2)))
          CFI (cfiCond55) DPH0 load(1, XDATA, add(CFA_XSP16, literal(-1)))
          CFI (cfiCond55) CFA_SP SP+-2
          CFI (cfiCond55) CFA_XSP16 add(XSP16, 28)
          CFI Block cfiPicker56 Using cfiCommon1
          CFI (cfiPicker56) NoFunction
          CFI (cfiPicker56) Picker
        INC       DPTR
        INC       DPTR
        INC       DPTR
        INC       DPTR
        MOVX      A,@DPTR
        MOV       R2,A
        INC       DPTR
        MOVX      A,@DPTR
        MOV       R3,A
        LCALL     `??aps_FindGroupForEndpoint::?relay`; Banked call to: aps_FindGroupForEndpoint
        MOV       A,R1
        MOV       ?V8,A
        MOV       A,#-0x2
        XRL       A,R1
        RET
          CFI EndBlock cfiCond54
          CFI EndBlock cfiCond55
          CFI EndBlock cfiPicker56
//  502 
//  503 /*********************************************************************
//  504  * @fn          afBuildMSGIncoming
//  505  *
//  506  * @brief       Build the message for the app
//  507  *
//  508  * @param
//  509  *
//  510  * @return      pointer to next in data buffer
//  511  */

        RSEG BANKED_CODE:HUGECODE:NOROOT(0)
//  512 static void afBuildMSGIncoming( aps_FrameFormat_t *aff, endPointDesc_t *epDesc,
afBuildMSGIncoming:
          CFI Block cfiBlock57 Using cfiCommon0
          CFI Function afBuildMSGIncoming
        CODE
//  513                  zAddrType_t *SrcAddress, uint16 SrcPanId, NLDE_Signal_t *sig,
//  514                  uint8 nwkSeqNum, uint8 SecurityUse, uint32 timestamp, uint8 radius )
//  515 {
        FUNCALL afBuildMSGIncoming, osal_msg_allocate
        LOCFRAME ISTACK, 0, STACK
        LOCFRAME PSTACK, 0, STACK
        LOCFRAME XSTACK, 19, STACK
        LOCFRAME IOVERLAY, 0, STATIC
        LOCFRAME DOVERLAY, 0, STATIC
        ARGFRAME ISTACK, 0, STACK
        ARGFRAME PSTACK, 0, STACK
        ARGFRAME XSTACK, 19, STACK
        ARGFRAME IOVERLAY, 0, STATIC
        ARGFRAME DOVERLAY, 0, STATIC
        FUNCALL afBuildMSGIncoming, afCopyAddress
        LOCFRAME ISTACK, 0, STACK
        LOCFRAME PSTACK, 0, STACK
        LOCFRAME XSTACK, 19, STACK
        LOCFRAME IOVERLAY, 0, STATIC
        LOCFRAME DOVERLAY, 0, STATIC
        ARGFRAME ISTACK, 0, STACK
        ARGFRAME PSTACK, 0, STACK
        ARGFRAME XSTACK, 19, STACK
        ARGFRAME IOVERLAY, 0, STATIC
        ARGFRAME DOVERLAY, 0, STATIC
        FUNCALL afBuildMSGIncoming, osal_memcpy
        LOCFRAME ISTACK, 0, STACK
        LOCFRAME PSTACK, 0, STACK
        LOCFRAME XSTACK, 22, STACK
        LOCFRAME IOVERLAY, 0, STATIC
        LOCFRAME DOVERLAY, 0, STATIC
        ARGFRAME ISTACK, 0, STACK
        ARGFRAME PSTACK, 0, STACK
        ARGFRAME XSTACK, 22, STACK
        ARGFRAME IOVERLAY, 0, STATIC
        ARGFRAME DOVERLAY, 0, STATIC
        FUNCALL afBuildMSGIncoming, osal_msg_send
        LOCFRAME ISTACK, 0, STACK
        LOCFRAME PSTACK, 0, STACK
        LOCFRAME XSTACK, 19, STACK
        LOCFRAME IOVERLAY, 0, STATIC
        LOCFRAME DOVERLAY, 0, STATIC
        ARGFRAME ISTACK, 0, STACK
        ARGFRAME PSTACK, 0, STACK
        ARGFRAME XSTACK, 19, STACK
        ARGFRAME IOVERLAY, 0, STATIC
        ARGFRAME DOVERLAY, 0, STATIC
        REQUIRE ?V0
        REQUIRE ?V1
        REQUIRE ?V2
        REQUIRE ?V3
        REQUIRE ?V4
        REQUIRE ?V5
        REQUIRE ?V6
        REQUIRE ?V8
        REQUIRE ?V9
        REQUIRE ?V10
        MOV       A,#-0x13
        LCALL     ?BANKED_ENTER_XDATA
          CFI DPH0 load(1, XDATA, add(CFA_XSP16, literal(-1)))
          CFI DPL0 load(1, XDATA, add(CFA_XSP16, literal(-2)))
          CFI ?BRET_EXT load(1, XDATA, add(CFA_XSP16, literal(-3)))
          CFI ?RET_HIGH load(1, XDATA, add(CFA_XSP16, literal(-4)))
          CFI ?RET_LOW load(1, XDATA, add(CFA_XSP16, literal(-5)))
          CFI R7 load(1, XDATA, add(CFA_XSP16, literal(-6)))
          CFI V10 load(1, XDATA, add(CFA_XSP16, literal(-7)))
          CFI V9 load(1, XDATA, add(CFA_XSP16, literal(-8)))
          CFI V8 load(1, XDATA, add(CFA_XSP16, literal(-9)))
          CFI V7 load(1, XDATA, add(CFA_XSP16, literal(-10)))
          CFI V6 load(1, XDATA, add(CFA_XSP16, literal(-11)))
          CFI V5 load(1, XDATA, add(CFA_XSP16, literal(-12)))
          CFI V4 load(1, XDATA, add(CFA_XSP16, literal(-13)))
          CFI V3 load(1, XDATA, add(CFA_XSP16, literal(-14)))
          CFI V2 load(1, XDATA, add(CFA_XSP16, literal(-15)))
          CFI V1 load(1, XDATA, add(CFA_XSP16, literal(-16)))
          CFI V0 load(1, XDATA, add(CFA_XSP16, literal(-17)))
          CFI VB load(1, XDATA, add(CFA_XSP16, literal(-18)))
          CFI R6 load(1, XDATA, add(CFA_XSP16, literal(-19)))
          CFI CFA_SP SP+0
          CFI CFA_XSP16 add(XSP16, 19)
        ; Saved register size: 19
        ; Auto size: 0
        MOV       ?V0,R2
        MOV       ?V1,R3
        MOV       ?V2,R4
        MOV       ?V3,R5
        MOV       ?V6,R1
//  516   afIncomingMSGPacket_t *MSGpkt;
//  517   const uint8 len = sizeof( afIncomingMSGPacket_t ) + aff->asduLength;
//  518   uint8 *asdu = aff->asdu;
        MOV       A,R2
        ADD       A,#0xe
        MOV       DPL,A
        CLR       A
        ADDC      A,?V1
        MOV       DPH,A
        MOVX      A,@DPTR
        MOV       ?V4,A
        INC       DPTR
        MOVX      A,@DPTR
        MOV       ?V5,A
//  519   MSGpkt = (afIncomingMSGPacket_t *)osal_msg_allocate( len );
        ; Setup parameters for call to function osal_msg_allocate
        MOV       A,R2
        LCALL     ?Subroutine30 & 0xFFFF
??CrossCallReturnLabel_53:
        ADD       A,#0x27
        MOV       R2,A
        MOV       R3,#0x0
        LCALL     `??osal_msg_allocate::?relay`; Banked call to: osal_msg_allocate
        MOV       ?V8,R2
        MOV       ?V9,R3
        MOV       R6,?V8
        MOV       R7,?V9
//  520 
//  521   if ( MSGpkt == NULL )
        MOV       A,R2
        ORL       A,R7
        JNZ       $+5
        LJMP      ??CrossCallReturnLabel_2 & 0xFFFF
//  522   {
//  523     return;
//  524   }
//  525 
//  526   MSGpkt->hdr.event = AF_INCOMING_MSG_CMD;
        MOV       DPL,R2
        MOV       DPH,R3
        MOV       A,#0x1a
        LCALL     ?Subroutine23 & 0xFFFF
//  527   MSGpkt->groupId = aff->GroupID;
??CrossCallReturnLabel_35:
        LCALL     ?Subroutine16 & 0xFFFF
??CrossCallReturnLabel_86:
        MOV       DPL,R2
        MOV       DPH,R3
        INC       DPTR
        INC       DPTR
        LCALL     ?Subroutine19 & 0xFFFF
//  528   MSGpkt->clusterId = aff->ClusterID;
??CrossCallReturnLabel_28:
        LCALL     ?Subroutine8 & 0xFFFF
??CrossCallReturnLabel_8:
        LCALL     ??Subroutine39_0 & 0xFFFF
//  529   afCopyAddress( &MSGpkt->srcAddr, SrcAddress );
??CrossCallReturnLabel_71:
        ; Setup parameters for call to function afCopyAddress
        MOV       A,#0x13
        LCALL     ?XSTACK_DISP0_8
        LCALL     ?Subroutine12 & 0xFFFF
??CrossCallReturnLabel_13:
        MOV       A,R2
        ADD       A,#0x6
        MOV       R2,A
        CLR       A
        ADDC      A,R7
        MOV       R3,A
        LCALL     `??afCopyAddress::?relay`; Banked call to: afCopyAddress
//  530   MSGpkt->srcAddr.endPoint = aff->SrcEndPoint;
        MOV       DPL,?V0
        MOV       DPH,?V1
        INC       DPTR
        INC       DPTR
        INC       DPTR
        MOVX      A,@DPTR
        PUSH      A
          CFI CFA_SP SP+-1
        MOV       A,R6
        ADD       A,#0xf
        MOV       DPL,A
        CLR       A
        ADDC      A,R7
        MOV       DPH,A
        POP       A
          CFI CFA_SP SP+0
        MOVX      @DPTR,A
//  531   MSGpkt->endPoint = epDesc->endPoint;
        MOV       DPL,?V2
        MOV       DPH,?V3
        MOVX      A,@DPTR
        PUSH      A
          CFI CFA_SP SP+-1
        MOV       A,R6
        ADD       A,#0x14
        MOV       DPL,A
        CLR       A
        ADDC      A,R7
        MOV       DPH,A
        POP       A
          CFI CFA_SP SP+0
        MOVX      @DPTR,A
//  532   MSGpkt->wasBroadcast = aff->wasBroadcast;
        MOV       A,?V0
        ADD       A,#0xc
        MOV       DPL,A
        CLR       A
        ADDC      A,?V1
        MOV       DPH,A
        MOVX      A,@DPTR
        PUSH      A
          CFI CFA_SP SP+-1
        MOV       A,R6
        ADD       A,#0x15
        MOV       DPL,A
        CLR       A
        ADDC      A,R7
        MOV       DPH,A
        POP       A
          CFI CFA_SP SP+0
        MOVX      @DPTR,A
        MOV       A,#0x17
        LCALL     ?XSTACK_DISP0_8
        LCALL     ??Subroutine41_0 & 0xFFFF
//  533   MSGpkt->LinkQuality = sig->LinkQuality;
??CrossCallReturnLabel_80:
        MOV       DPL,R0
        MOV       DPH,A
        MOVX      A,@DPTR
        PUSH      A
          CFI CFA_SP SP+-1
        MOV       A,R6
        ADD       A,#0x16
        MOV       DPL,A
        CLR       A
        ADDC      A,R7
        MOV       DPH,A
        POP       A
          CFI CFA_SP SP+0
        LCALL     ?Subroutine34 & 0xFFFF
//  534   MSGpkt->correlation = sig->correlation;
??CrossCallReturnLabel_61:
        INC       DPTR
        MOVX      A,@DPTR
        PUSH      A
          CFI CFA_SP SP+-1
        MOV       A,R6
        ADD       A,#0x17
        MOV       DPL,A
        CLR       A
        ADDC      A,R7
        MOV       DPH,A
        POP       A
          CFI CFA_SP SP+0
        LCALL     ?Subroutine34 & 0xFFFF
//  535   MSGpkt->rssi = sig->rssi;
??CrossCallReturnLabel_62:
        INC       DPTR
        INC       DPTR
        MOVX      A,@DPTR
        PUSH      A
          CFI CFA_SP SP+-1
        MOV       A,R6
        ADD       A,#0x18
        MOV       DPL,A
        CLR       A
        ADDC      A,R7
        MOV       DPH,A
        POP       A
          CFI CFA_SP SP+0
        MOVX      @DPTR,A
//  536   MSGpkt->SecurityUse = SecurityUse;
        MOV       A,#0x19
        LCALL     ?XSTACK_DISP0_8
        MOVX      A,@DPTR
        PUSH      A
          CFI CFA_SP SP+-1
        MOV       A,R6
        ADD       A,#0x19
        MOV       DPL,A
        CLR       A
        ADDC      A,R7
        MOV       DPH,A
        POP       A
          CFI CFA_SP SP+0
        MOVX      @DPTR,A
//  537   MSGpkt->timestamp = timestamp;
        MOV       A,#0x1a
        LCALL     ?XSTACK_DISP0_8
        LCALL     ?XLOAD_R0123
        MOV       A,R6
        ADD       A,#0x1a
        MOV       DPL,A
        CLR       A
        ADDC      A,R7
        MOV       DPH,A
        LCALL     ?XSTORE_R0123
//  538   MSGpkt->nwkSeqNum = nwkSeqNum;
        MOV       A,R6
        ADD       A,#0x1e
        MOV       DPL,A
        CLR       A
        ADDC      A,R7
        MOV       DPH,A
        MOV       A,?V6
        MOVX      @DPTR,A
//  539   MSGpkt->macSrcAddr = aff->macSrcAddr;
        MOV       A,?V0
        ADD       A,#0x15
        MOV       DPL,A
        CLR       A
        ADDC      A,?V1
        MOV       DPH,A
        LCALL     ?Subroutine15 & 0xFFFF
??CrossCallReturnLabel_21:
        ADD       A,#0x24
        MOV       DPL,A
        CLR       A
        ADDC      A,R7
        MOV       DPH,A
        LCALL     ?Subroutine19 & 0xFFFF
//  540   MSGpkt->macDestAddr = aff->macDestAddr;
??CrossCallReturnLabel_29:
        INC       DPTR
        INC       DPTR
        INC       DPTR
        INC       DPTR
        LCALL     ?Subroutine15 & 0xFFFF
??CrossCallReturnLabel_22:
        ADD       A,#0x12
        LCALL     ?Subroutine21 & 0xFFFF
//  541   MSGpkt->srcAddr.panId = SrcPanId;
??CrossCallReturnLabel_77:
        MOV       A,#0x15
        LCALL     ?XSTACK_DISP0_8
        LCALL     ?Subroutine15 & 0xFFFF
??CrossCallReturnLabel_23:
        ADD       A,#0x10
        LCALL     ?Subroutine21 & 0xFFFF
//  542   MSGpkt->cmd.TransSeqNumber = 0;
??CrossCallReturnLabel_78:
        MOV       A,R6
        ADD       A,#0x1f
        MOV       DPL,A
        CLR       A
        ADDC      A,R7
        MOV       DPH,A
        CLR       A
        MOVX      @DPTR,A
//  543   MSGpkt->cmd.DataLength = aff->asduLength;
        MOV       A,R6
        ADD       A,#0x20
        MOV       R0,A
        CLR       A
        ADDC      A,R7
        MOV       R1,A
        MOV       A,?V0
        LCALL     ?Subroutine30 & 0xFFFF
??CrossCallReturnLabel_54:
        MOV       DPL,R0
        MOV       DPH,R1
        MOVX      @DPTR,A
        INC       DPTR
        CLR       A
        MOVX      @DPTR,A
//  544   MSGpkt->radius = radius;
        MOV       A,#0x1e
        LCALL     ?XSTACK_DISP0_8
        MOVX      A,@DPTR
        PUSH      A
          CFI CFA_SP SP+-1
        MOV       A,R6
        ADD       A,#0x26
        MOV       DPL,A
        CLR       A
        ADDC      A,R7
        MOV       DPH,A
        POP       A
          CFI CFA_SP SP+0
        LCALL     ?Subroutine34 & 0xFFFF
//  545 
//  546   if ( MSGpkt->cmd.DataLength )
??CrossCallReturnLabel_63:
        LCALL     ??Subroutine44_0 & 0xFFFF
??CrossCallReturnLabel_94:
        JZ        ??afBuildMSGIncoming_0
//  547   {
//  548     MSGpkt->cmd.Data = (uint8 *)(MSGpkt + 1);
        MOV       A,R6
        ADD       A,#0x27
        MOV       R2,A
        CLR       A
        ADDC      A,R7
        MOV       R3,A
        LCALL     ?Subroutine31 & 0xFFFF
??CrossCallReturnLabel_55:
        MOV       A,R2
        MOVX      @DPTR,A
        INC       DPTR
        MOV       A,R3
        MOVX      @DPTR,A
//  549     osal_memcpy( MSGpkt->cmd.Data, asdu, MSGpkt->cmd.DataLength );
        ; Setup parameters for call to function osal_memcpy
        MOV       ?V8,?V4
        MOV       ?V9,?V5
        MOV       ?V10,#0x0
        MOV       R0,#?V8
        LCALL     ?PUSH_XSTACK_I_THREE
          CFI CFA_XSP16 add(XSP16, 22)
        MOV       A,R6
        ADD       A,#0x20
        MOV       DPL,A
        CLR       A
        ADDC      A,R7
        MOV       DPH,A
        LCALL     ?Subroutine12 & 0xFFFF
//  550   }
??CrossCallReturnLabel_14:
        LCALL     `??osal_memcpy::?relay`; Banked call to: osal_memcpy
        MOV       A,#0x3
        LCALL     ?DEALLOC_XSTACK8
          CFI CFA_XSP16 add(XSP16, 19)
        SJMP      ??afBuildMSGIncoming_1
//  551   else
//  552   {
//  553     MSGpkt->cmd.Data = NULL;
??afBuildMSGIncoming_0:
        LCALL     ?Subroutine31 & 0xFFFF
//  554   }
??CrossCallReturnLabel_56:
        CLR       A
        MOVX      @DPTR,A
        INC       DPTR
        MOVX      @DPTR,A
//  555 
//  556 #if defined ( MT_AF_CB_FUNC )
//  557   // If ZDO or SAPI have registered for this endpoint, dont intercept it here
//  558   if (AFCB_CHECK(CB_ID_AF_DATA_IND, *(epDesc->task_id)))
//  559   {
//  560     MT_AfIncomingMsg( (void *)MSGpkt );
//  561     // Release the memory.
//  562     osal_msg_deallocate( (void *)MSGpkt );
//  563   }
//  564   else
//  565 #endif
//  566   {
//  567     // Send message through task message.
//  568     osal_msg_send( *(epDesc->task_id), (uint8 *)MSGpkt );
??afBuildMSGIncoming_1:
        ; Setup parameters for call to function osal_msg_send
        MOV       A,R6
        MOV       R2,A
        MOV       A,R7
        MOV       R3,A
        MOV       DPL,?V2
        MOV       DPH,?V3
        LCALL     ?Subroutine5 & 0xFFFF
//  569   }
//  570 }
??CrossCallReturnLabel_2:
        MOV       R7,#0xb
        LJMP      ?BANKED_LEAVE_XDATA
          CFI EndBlock cfiBlock57

        RSEG BANKED_CODE:HUGECODE:NOROOT(0)
?Subroutine31:
          CFI Block cfiCond58 Using cfiCommon0
          CFI Function afBuildMSGIncoming
          CFI Conditional ??CrossCallReturnLabel_55
          CFI R6 load(1, XDATA, add(CFA_XSP16, literal(-19)))
          CFI VB load(1, XDATA, add(CFA_XSP16, literal(-18)))
          CFI V0 load(1, XDATA, add(CFA_XSP16, literal(-17)))
          CFI V1 load(1, XDATA, add(CFA_XSP16, literal(-16)))
          CFI V2 load(1, XDATA, add(CFA_XSP16, literal(-15)))
          CFI V3 load(1, XDATA, add(CFA_XSP16, literal(-14)))
          CFI V4 load(1, XDATA, add(CFA_XSP16, literal(-13)))
          CFI V5 load(1, XDATA, add(CFA_XSP16, literal(-12)))
          CFI V6 load(1, XDATA, add(CFA_XSP16, literal(-11)))
          CFI V7 load(1, XDATA, add(CFA_XSP16, literal(-10)))
          CFI V8 load(1, XDATA, add(CFA_XSP16, literal(-9)))
          CFI V9 load(1, XDATA, add(CFA_XSP16, literal(-8)))
          CFI V10 load(1, XDATA, add(CFA_XSP16, literal(-7)))
          CFI R7 load(1, XDATA, add(CFA_XSP16, literal(-6)))
          CFI ?RET_LOW load(1, XDATA, add(CFA_XSP16, literal(-5)))
          CFI ?RET_HIGH load(1, XDATA, add(CFA_XSP16, literal(-4)))
          CFI ?BRET_EXT load(1, XDATA, add(CFA_XSP16, literal(-3)))
          CFI DPL0 load(1, XDATA, add(CFA_XSP16, literal(-2)))
          CFI DPH0 load(1, XDATA, add(CFA_XSP16, literal(-1)))
          CFI CFA_SP SP+-2
          CFI CFA_XSP16 add(XSP16, 19)
          CFI Block cfiCond59 Using cfiCommon0
          CFI (cfiCond59) Function afBuildMSGIncoming
          CFI (cfiCond59) Conditional ??CrossCallReturnLabel_56
          CFI (cfiCond59) R6 load(1, XDATA, add(CFA_XSP16, literal(-19)))
          CFI (cfiCond59) VB load(1, XDATA, add(CFA_XSP16, literal(-18)))
          CFI (cfiCond59) V0 load(1, XDATA, add(CFA_XSP16, literal(-17)))
          CFI (cfiCond59) V1 load(1, XDATA, add(CFA_XSP16, literal(-16)))
          CFI (cfiCond59) V2 load(1, XDATA, add(CFA_XSP16, literal(-15)))
          CFI (cfiCond59) V3 load(1, XDATA, add(CFA_XSP16, literal(-14)))
          CFI (cfiCond59) V4 load(1, XDATA, add(CFA_XSP16, literal(-13)))
          CFI (cfiCond59) V5 load(1, XDATA, add(CFA_XSP16, literal(-12)))
          CFI (cfiCond59) V6 load(1, XDATA, add(CFA_XSP16, literal(-11)))
          CFI (cfiCond59) V7 load(1, XDATA, add(CFA_XSP16, literal(-10)))
          CFI (cfiCond59) V8 load(1, XDATA, add(CFA_XSP16, literal(-9)))
          CFI (cfiCond59) V9 load(1, XDATA, add(CFA_XSP16, literal(-8)))
          CFI (cfiCond59) V10 load(1, XDATA, add(CFA_XSP16, literal(-7)))
          CFI (cfiCond59) R7 load(1, XDATA, add(CFA_XSP16, literal(-6)))
          CFI (cfiCond59) ?RET_LOW load(1, XDATA, add(CFA_XSP16, literal(-5)))
          CFI (cfiCond59) ?RET_HIGH load(1, XDATA, add(CFA_XSP16, literal(-4)))
          CFI (cfiCond59) ?BRET_EXT load(1, XDATA, add(CFA_XSP16, literal(-3)))
          CFI (cfiCond59) DPL0 load(1, XDATA, add(CFA_XSP16, literal(-2)))
          CFI (cfiCond59) DPH0 load(1, XDATA, add(CFA_XSP16, literal(-1)))
          CFI (cfiCond59) CFA_SP SP+-2
          CFI (cfiCond59) CFA_XSP16 add(XSP16, 19)
          CFI Block cfiPicker60 Using cfiCommon1
          CFI (cfiPicker60) NoFunction
          CFI (cfiPicker60) Picker
        MOV       A,R6
        ADD       A,#0x22
        MOV       DPL,A
        CLR       A
        ADDC      A,R7
        MOV       DPH,A
        RET
          CFI EndBlock cfiCond58
          CFI EndBlock cfiCond59
          CFI EndBlock cfiPicker60

        RSEG BANKED_CODE:HUGECODE:NOROOT(0)
?Subroutine30:
          CFI Block cfiCond61 Using cfiCommon0
          CFI Function afBuildMSGIncoming
          CFI Conditional ??CrossCallReturnLabel_53
          CFI R6 load(1, XDATA, add(CFA_XSP16, literal(-19)))
          CFI VB load(1, XDATA, add(CFA_XSP16, literal(-18)))
          CFI V0 load(1, XDATA, add(CFA_XSP16, literal(-17)))
          CFI V1 load(1, XDATA, add(CFA_XSP16, literal(-16)))
          CFI V2 load(1, XDATA, add(CFA_XSP16, literal(-15)))
          CFI V3 load(1, XDATA, add(CFA_XSP16, literal(-14)))
          CFI V4 load(1, XDATA, add(CFA_XSP16, literal(-13)))
          CFI V5 load(1, XDATA, add(CFA_XSP16, literal(-12)))
          CFI V6 load(1, XDATA, add(CFA_XSP16, literal(-11)))
          CFI V7 load(1, XDATA, add(CFA_XSP16, literal(-10)))
          CFI V8 load(1, XDATA, add(CFA_XSP16, literal(-9)))
          CFI V9 load(1, XDATA, add(CFA_XSP16, literal(-8)))
          CFI V10 load(1, XDATA, add(CFA_XSP16, literal(-7)))
          CFI R7 load(1, XDATA, add(CFA_XSP16, literal(-6)))
          CFI ?RET_LOW load(1, XDATA, add(CFA_XSP16, literal(-5)))
          CFI ?RET_HIGH load(1, XDATA, add(CFA_XSP16, literal(-4)))
          CFI ?BRET_EXT load(1, XDATA, add(CFA_XSP16, literal(-3)))
          CFI DPL0 load(1, XDATA, add(CFA_XSP16, literal(-2)))
          CFI DPH0 load(1, XDATA, add(CFA_XSP16, literal(-1)))
          CFI CFA_SP SP+-2
          CFI CFA_XSP16 add(XSP16, 19)
          CFI Block cfiCond62 Using cfiCommon0
          CFI (cfiCond62) Function afBuildMSGIncoming
          CFI (cfiCond62) Conditional ??CrossCallReturnLabel_54
          CFI (cfiCond62) R6 load(1, XDATA, add(CFA_XSP16, literal(-19)))
          CFI (cfiCond62) VB load(1, XDATA, add(CFA_XSP16, literal(-18)))
          CFI (cfiCond62) V0 load(1, XDATA, add(CFA_XSP16, literal(-17)))
          CFI (cfiCond62) V1 load(1, XDATA, add(CFA_XSP16, literal(-16)))
          CFI (cfiCond62) V2 load(1, XDATA, add(CFA_XSP16, literal(-15)))
          CFI (cfiCond62) V3 load(1, XDATA, add(CFA_XSP16, literal(-14)))
          CFI (cfiCond62) V4 load(1, XDATA, add(CFA_XSP16, literal(-13)))
          CFI (cfiCond62) V5 load(1, XDATA, add(CFA_XSP16, literal(-12)))
          CFI (cfiCond62) V6 load(1, XDATA, add(CFA_XSP16, literal(-11)))
          CFI (cfiCond62) V7 load(1, XDATA, add(CFA_XSP16, literal(-10)))
          CFI (cfiCond62) V8 load(1, XDATA, add(CFA_XSP16, literal(-9)))
          CFI (cfiCond62) V9 load(1, XDATA, add(CFA_XSP16, literal(-8)))
          CFI (cfiCond62) V10 load(1, XDATA, add(CFA_XSP16, literal(-7)))
          CFI (cfiCond62) R7 load(1, XDATA, add(CFA_XSP16, literal(-6)))
          CFI (cfiCond62) ?RET_LOW load(1, XDATA, add(CFA_XSP16, literal(-5)))
          CFI (cfiCond62) ?RET_HIGH load(1, XDATA, add(CFA_XSP16, literal(-4)))
          CFI (cfiCond62) ?BRET_EXT load(1, XDATA, add(CFA_XSP16, literal(-3)))
          CFI (cfiCond62) DPL0 load(1, XDATA, add(CFA_XSP16, literal(-2)))
          CFI (cfiCond62) DPH0 load(1, XDATA, add(CFA_XSP16, literal(-1)))
          CFI (cfiCond62) CFA_SP SP+-2
          CFI (cfiCond62) CFA_XSP16 add(XSP16, 19)
          CFI Block cfiPicker63 Using cfiCommon1
          CFI (cfiPicker63) NoFunction
          CFI (cfiPicker63) Picker
        ADD       A,#0x10
        MOV       DPL,A
        CLR       A
        ADDC      A,?V1
        MOV       DPH,A
        MOVX      A,@DPTR
        RET
          CFI EndBlock cfiCond61
          CFI EndBlock cfiCond62
          CFI EndBlock cfiPicker63

        RSEG BANKED_CODE:HUGECODE:NOROOT(0)
?Subroutine23:
          CFI Block cfiCond64 Using cfiCommon0
          CFI Function afReflectError
          CFI Conditional ??CrossCallReturnLabel_34
          CFI R6 load(1, XDATA, add(CFA_XSP16, literal(-16)))
          CFI VB load(1, XDATA, add(CFA_XSP16, literal(-15)))
          CFI V0 load(1, XDATA, add(CFA_XSP16, literal(-14)))
          CFI V1 load(1, XDATA, add(CFA_XSP16, literal(-13)))
          CFI V2 load(1, XDATA, add(CFA_XSP16, literal(-12)))
          CFI V3 load(1, XDATA, add(CFA_XSP16, literal(-11)))
          CFI V4 load(1, XDATA, add(CFA_XSP16, literal(-10)))
          CFI V5 load(1, XDATA, add(CFA_XSP16, literal(-9)))
          CFI V6 load(1, XDATA, add(CFA_XSP16, literal(-8)))
          CFI V7 load(1, XDATA, add(CFA_XSP16, literal(-7)))
          CFI R7 load(1, XDATA, add(CFA_XSP16, literal(-6)))
          CFI ?RET_LOW load(1, XDATA, add(CFA_XSP16, literal(-5)))
          CFI ?RET_HIGH load(1, XDATA, add(CFA_XSP16, literal(-4)))
          CFI ?BRET_EXT load(1, XDATA, add(CFA_XSP16, literal(-3)))
          CFI DPL0 load(1, XDATA, add(CFA_XSP16, literal(-2)))
          CFI DPH0 load(1, XDATA, add(CFA_XSP16, literal(-1)))
          CFI CFA_SP SP+-2
          CFI CFA_XSP16 add(XSP16, 16)
          CFI Block cfiCond65 Using cfiCommon0
          CFI (cfiCond65) Function afBuildMSGIncoming
          CFI (cfiCond65) Conditional ??CrossCallReturnLabel_35
          CFI (cfiCond65) R6 load(1, XDATA, add(CFA_XSP16, literal(-19)))
          CFI (cfiCond65) VB load(1, XDATA, add(CFA_XSP16, literal(-18)))
          CFI (cfiCond65) V0 load(1, XDATA, add(CFA_XSP16, literal(-17)))
          CFI (cfiCond65) V1 load(1, XDATA, add(CFA_XSP16, literal(-16)))
          CFI (cfiCond65) V2 load(1, XDATA, add(CFA_XSP16, literal(-15)))
          CFI (cfiCond65) V3 load(1, XDATA, add(CFA_XSP16, literal(-14)))
          CFI (cfiCond65) V4 load(1, XDATA, add(CFA_XSP16, literal(-13)))
          CFI (cfiCond65) V5 load(1, XDATA, add(CFA_XSP16, literal(-12)))
          CFI (cfiCond65) V6 load(1, XDATA, add(CFA_XSP16, literal(-11)))
          CFI (cfiCond65) V7 load(1, XDATA, add(CFA_XSP16, literal(-10)))
          CFI (cfiCond65) V8 load(1, XDATA, add(CFA_XSP16, literal(-9)))
          CFI (cfiCond65) V9 load(1, XDATA, add(CFA_XSP16, literal(-8)))
          CFI (cfiCond65) V10 load(1, XDATA, add(CFA_XSP16, literal(-7)))
          CFI (cfiCond65) R7 load(1, XDATA, add(CFA_XSP16, literal(-6)))
          CFI (cfiCond65) ?RET_LOW load(1, XDATA, add(CFA_XSP16, literal(-5)))
          CFI (cfiCond65) ?RET_HIGH load(1, XDATA, add(CFA_XSP16, literal(-4)))
          CFI (cfiCond65) ?BRET_EXT load(1, XDATA, add(CFA_XSP16, literal(-3)))
          CFI (cfiCond65) DPL0 load(1, XDATA, add(CFA_XSP16, literal(-2)))
          CFI (cfiCond65) DPH0 load(1, XDATA, add(CFA_XSP16, literal(-1)))
          CFI (cfiCond65) CFA_SP SP+-2
          CFI (cfiCond65) CFA_XSP16 add(XSP16, 19)
          CFI Block cfiCond66 Using cfiCommon0
          CFI (cfiCond66) Function AF_DataRequest
          CFI (cfiCond66) Conditional ??CrossCallReturnLabel_36
          CFI (cfiCond66) R6 load(1, XDATA, add(CFA_XSP16, literal(-18)))
          CFI (cfiCond66) VB load(1, XDATA, add(CFA_XSP16, literal(-17)))
          CFI (cfiCond66) V0 load(1, XDATA, add(CFA_XSP16, literal(-16)))
          CFI (cfiCond66) V1 load(1, XDATA, add(CFA_XSP16, literal(-15)))
          CFI (cfiCond66) V2 load(1, XDATA, add(CFA_XSP16, literal(-14)))
          CFI (cfiCond66) V3 load(1, XDATA, add(CFA_XSP16, literal(-13)))
          CFI (cfiCond66) V4 load(1, XDATA, add(CFA_XSP16, literal(-12)))
          CFI (cfiCond66) V5 load(1, XDATA, add(CFA_XSP16, literal(-11)))
          CFI (cfiCond66) V6 load(1, XDATA, add(CFA_XSP16, literal(-10)))
          CFI (cfiCond66) V7 load(1, XDATA, add(CFA_XSP16, literal(-9)))
          CFI (cfiCond66) V8 load(1, XDATA, add(CFA_XSP16, literal(-8)))
          CFI (cfiCond66) V9 load(1, XDATA, add(CFA_XSP16, literal(-7)))
          CFI (cfiCond66) R7 load(1, XDATA, add(CFA_XSP16, literal(-6)))
          CFI (cfiCond66) ?RET_LOW load(1, XDATA, add(CFA_XSP16, literal(-5)))
          CFI (cfiCond66) ?RET_HIGH load(1, XDATA, add(CFA_XSP16, literal(-4)))
          CFI (cfiCond66) ?BRET_EXT load(1, XDATA, add(CFA_XSP16, literal(-3)))
          CFI (cfiCond66) DPL0 load(1, XDATA, add(CFA_XSP16, literal(-2)))
          CFI (cfiCond66) DPH0 load(1, XDATA, add(CFA_XSP16, literal(-1)))
          CFI (cfiCond66) CFA_SP SP+-2
          CFI (cfiCond66) CFA_XSP16 add(XSP16, 51)
          CFI Block cfiPicker67 Using cfiCommon1
          CFI (cfiPicker67) NoFunction
          CFI (cfiPicker67) Picker
        MOVX      @DPTR,A
        ; Setup parameters for call to function osal_msg_send
        MOV       DPL,?V0
        MOV       DPH,?V1
        RET
          CFI EndBlock cfiCond64
          CFI EndBlock cfiCond65
          CFI EndBlock cfiCond66
          CFI EndBlock cfiPicker67

        RSEG BANKED_CODE:HUGECODE:NOROOT(0)
?Subroutine21:
          CFI Block cfiCond68 Using cfiCommon0
          CFI Function afBuildMSGIncoming
          CFI Conditional ??CrossCallReturnLabel_77
          CFI R6 load(1, XDATA, add(CFA_XSP16, literal(-19)))
          CFI VB load(1, XDATA, add(CFA_XSP16, literal(-18)))
          CFI V0 load(1, XDATA, add(CFA_XSP16, literal(-17)))
          CFI V1 load(1, XDATA, add(CFA_XSP16, literal(-16)))
          CFI V2 load(1, XDATA, add(CFA_XSP16, literal(-15)))
          CFI V3 load(1, XDATA, add(CFA_XSP16, literal(-14)))
          CFI V4 load(1, XDATA, add(CFA_XSP16, literal(-13)))
          CFI V5 load(1, XDATA, add(CFA_XSP16, literal(-12)))
          CFI V6 load(1, XDATA, add(CFA_XSP16, literal(-11)))
          CFI V7 load(1, XDATA, add(CFA_XSP16, literal(-10)))
          CFI V8 load(1, XDATA, add(CFA_XSP16, literal(-9)))
          CFI V9 load(1, XDATA, add(CFA_XSP16, literal(-8)))
          CFI V10 load(1, XDATA, add(CFA_XSP16, literal(-7)))
          CFI R7 load(1, XDATA, add(CFA_XSP16, literal(-6)))
          CFI ?RET_LOW load(1, XDATA, add(CFA_XSP16, literal(-5)))
          CFI ?RET_HIGH load(1, XDATA, add(CFA_XSP16, literal(-4)))
          CFI ?BRET_EXT load(1, XDATA, add(CFA_XSP16, literal(-3)))
          CFI DPL0 load(1, XDATA, add(CFA_XSP16, literal(-2)))
          CFI DPH0 load(1, XDATA, add(CFA_XSP16, literal(-1)))
          CFI CFA_SP SP+-2
          CFI CFA_XSP16 add(XSP16, 19)
          CFI Block cfiCond69 Using cfiCommon0
          CFI (cfiCond69) Function afBuildMSGIncoming
          CFI (cfiCond69) Conditional ??CrossCallReturnLabel_78
          CFI (cfiCond69) R6 load(1, XDATA, add(CFA_XSP16, literal(-19)))
          CFI (cfiCond69) VB load(1, XDATA, add(CFA_XSP16, literal(-18)))
          CFI (cfiCond69) V0 load(1, XDATA, add(CFA_XSP16, literal(-17)))
          CFI (cfiCond69) V1 load(1, XDATA, add(CFA_XSP16, literal(-16)))
          CFI (cfiCond69) V2 load(1, XDATA, add(CFA_XSP16, literal(-15)))
          CFI (cfiCond69) V3 load(1, XDATA, add(CFA_XSP16, literal(-14)))
          CFI (cfiCond69) V4 load(1, XDATA, add(CFA_XSP16, literal(-13)))
          CFI (cfiCond69) V5 load(1, XDATA, add(CFA_XSP16, literal(-12)))
          CFI (cfiCond69) V6 load(1, XDATA, add(CFA_XSP16, literal(-11)))
          CFI (cfiCond69) V7 load(1, XDATA, add(CFA_XSP16, literal(-10)))
          CFI (cfiCond69) V8 load(1, XDATA, add(CFA_XSP16, literal(-9)))
          CFI (cfiCond69) V9 load(1, XDATA, add(CFA_XSP16, literal(-8)))
          CFI (cfiCond69) V10 load(1, XDATA, add(CFA_XSP16, literal(-7)))
          CFI (cfiCond69) R7 load(1, XDATA, add(CFA_XSP16, literal(-6)))
          CFI (cfiCond69) ?RET_LOW load(1, XDATA, add(CFA_XSP16, literal(-5)))
          CFI (cfiCond69) ?RET_HIGH load(1, XDATA, add(CFA_XSP16, literal(-4)))
          CFI (cfiCond69) ?BRET_EXT load(1, XDATA, add(CFA_XSP16, literal(-3)))
          CFI (cfiCond69) DPL0 load(1, XDATA, add(CFA_XSP16, literal(-2)))
          CFI (cfiCond69) DPH0 load(1, XDATA, add(CFA_XSP16, literal(-1)))
          CFI (cfiCond69) CFA_SP SP+-2
          CFI (cfiCond69) CFA_XSP16 add(XSP16, 19)
          CFI Block cfiPicker70 Using cfiCommon1
          CFI (cfiPicker70) NoFunction
          CFI (cfiPicker70) Picker
        MOV       DPL,A
        CLR       A
        ADDC      A,R7
        MOV       DPH,A
          CFI EndBlock cfiCond68
          CFI EndBlock cfiCond69
          CFI EndBlock cfiPicker70
        REQUIRE ??Subroutine39_0
        ; // Fall through to label ??Subroutine39_0

        RSEG BANKED_CODE:HUGECODE:NOROOT(0)
??Subroutine39_0:
          CFI Block cfiCond71 Using cfiCommon0
          CFI Function afRegisterExtended
          CFI Conditional ??CrossCallReturnLabel_70
          CFI R6 load(1, XDATA, add(CFA_XSP16, literal(-12)))
          CFI VB load(1, XDATA, add(CFA_XSP16, literal(-11)))
          CFI V0 load(1, XDATA, add(CFA_XSP16, literal(-10)))
          CFI V1 load(1, XDATA, add(CFA_XSP16, literal(-9)))
          CFI V2 load(1, XDATA, add(CFA_XSP16, literal(-8)))
          CFI V3 load(1, XDATA, add(CFA_XSP16, literal(-7)))
          CFI R7 load(1, XDATA, add(CFA_XSP16, literal(-6)))
          CFI ?RET_LOW load(1, XDATA, add(CFA_XSP16, literal(-5)))
          CFI ?RET_HIGH load(1, XDATA, add(CFA_XSP16, literal(-4)))
          CFI ?BRET_EXT load(1, XDATA, add(CFA_XSP16, literal(-3)))
          CFI DPL0 load(1, XDATA, add(CFA_XSP16, literal(-2)))
          CFI DPH0 load(1, XDATA, add(CFA_XSP16, literal(-1)))
          CFI CFA_SP SP+-2
          CFI CFA_XSP16 add(XSP16, 12)
          CFI Block cfiCond72 Using cfiCommon0
          CFI (cfiCond72) Function afBuildMSGIncoming
          CFI (cfiCond72) Conditional ??CrossCallReturnLabel_71
          CFI (cfiCond72) R6 load(1, XDATA, add(CFA_XSP16, literal(-19)))
          CFI (cfiCond72) VB load(1, XDATA, add(CFA_XSP16, literal(-18)))
          CFI (cfiCond72) V0 load(1, XDATA, add(CFA_XSP16, literal(-17)))
          CFI (cfiCond72) V1 load(1, XDATA, add(CFA_XSP16, literal(-16)))
          CFI (cfiCond72) V2 load(1, XDATA, add(CFA_XSP16, literal(-15)))
          CFI (cfiCond72) V3 load(1, XDATA, add(CFA_XSP16, literal(-14)))
          CFI (cfiCond72) V4 load(1, XDATA, add(CFA_XSP16, literal(-13)))
          CFI (cfiCond72) V5 load(1, XDATA, add(CFA_XSP16, literal(-12)))
          CFI (cfiCond72) V6 load(1, XDATA, add(CFA_XSP16, literal(-11)))
          CFI (cfiCond72) V7 load(1, XDATA, add(CFA_XSP16, literal(-10)))
          CFI (cfiCond72) V8 load(1, XDATA, add(CFA_XSP16, literal(-9)))
          CFI (cfiCond72) V9 load(1, XDATA, add(CFA_XSP16, literal(-8)))
          CFI (cfiCond72) V10 load(1, XDATA, add(CFA_XSP16, literal(-7)))
          CFI (cfiCond72) R7 load(1, XDATA, add(CFA_XSP16, literal(-6)))
          CFI (cfiCond72) ?RET_LOW load(1, XDATA, add(CFA_XSP16, literal(-5)))
          CFI (cfiCond72) ?RET_HIGH load(1, XDATA, add(CFA_XSP16, literal(-4)))
          CFI (cfiCond72) ?BRET_EXT load(1, XDATA, add(CFA_XSP16, literal(-3)))
          CFI (cfiCond72) DPL0 load(1, XDATA, add(CFA_XSP16, literal(-2)))
          CFI (cfiCond72) DPH0 load(1, XDATA, add(CFA_XSP16, literal(-1)))
          CFI (cfiCond72) CFA_SP SP+-2
          CFI (cfiCond72) CFA_XSP16 add(XSP16, 19)
          CFI Block cfiCond73 Using cfiCommon0
          CFI (cfiCond73) Function AF_DataRequest
          CFI (cfiCond73) Conditional ??CrossCallReturnLabel_72
          CFI (cfiCond73) R6 load(1, XDATA, add(CFA_XSP16, literal(-18)))
          CFI (cfiCond73) VB load(1, XDATA, add(CFA_XSP16, literal(-17)))
          CFI (cfiCond73) V0 load(1, XDATA, add(CFA_XSP16, literal(-16)))
          CFI (cfiCond73) V1 load(1, XDATA, add(CFA_XSP16, literal(-15)))
          CFI (cfiCond73) V2 load(1, XDATA, add(CFA_XSP16, literal(-14)))
          CFI (cfiCond73) V3 load(1, XDATA, add(CFA_XSP16, literal(-13)))
          CFI (cfiCond73) V4 load(1, XDATA, add(CFA_XSP16, literal(-12)))
          CFI (cfiCond73) V5 load(1, XDATA, add(CFA_XSP16, literal(-11)))
          CFI (cfiCond73) V6 load(1, XDATA, add(CFA_XSP16, literal(-10)))
          CFI (cfiCond73) V7 load(1, XDATA, add(CFA_XSP16, literal(-9)))
          CFI (cfiCond73) V8 load(1, XDATA, add(CFA_XSP16, literal(-8)))
          CFI (cfiCond73) V9 load(1, XDATA, add(CFA_XSP16, literal(-7)))
          CFI (cfiCond73) R7 load(1, XDATA, add(CFA_XSP16, literal(-6)))
          CFI (cfiCond73) ?RET_LOW load(1, XDATA, add(CFA_XSP16, literal(-5)))
          CFI (cfiCond73) ?RET_HIGH load(1, XDATA, add(CFA_XSP16, literal(-4)))
          CFI (cfiCond73) ?BRET_EXT load(1, XDATA, add(CFA_XSP16, literal(-3)))
          CFI (cfiCond73) DPL0 load(1, XDATA, add(CFA_XSP16, literal(-2)))
          CFI (cfiCond73) DPH0 load(1, XDATA, add(CFA_XSP16, literal(-1)))
          CFI (cfiCond73) CFA_SP SP+-2
          CFI (cfiCond73) CFA_XSP16 add(XSP16, 51)
          CFI Block cfiCond74 Using cfiCommon0
          CFI (cfiCond74) Function AF_DataRequest
          CFI (cfiCond74) Conditional ??CrossCallReturnLabel_73
          CFI (cfiCond74) R6 load(1, XDATA, add(CFA_XSP16, literal(-18)))
          CFI (cfiCond74) VB load(1, XDATA, add(CFA_XSP16, literal(-17)))
          CFI (cfiCond74) V0 load(1, XDATA, add(CFA_XSP16, literal(-16)))
          CFI (cfiCond74) V1 load(1, XDATA, add(CFA_XSP16, literal(-15)))
          CFI (cfiCond74) V2 load(1, XDATA, add(CFA_XSP16, literal(-14)))
          CFI (cfiCond74) V3 load(1, XDATA, add(CFA_XSP16, literal(-13)))
          CFI (cfiCond74) V4 load(1, XDATA, add(CFA_XSP16, literal(-12)))
          CFI (cfiCond74) V5 load(1, XDATA, add(CFA_XSP16, literal(-11)))
          CFI (cfiCond74) V6 load(1, XDATA, add(CFA_XSP16, literal(-10)))
          CFI (cfiCond74) V7 load(1, XDATA, add(CFA_XSP16, literal(-9)))
          CFI (cfiCond74) V8 load(1, XDATA, add(CFA_XSP16, literal(-8)))
          CFI (cfiCond74) V9 load(1, XDATA, add(CFA_XSP16, literal(-7)))
          CFI (cfiCond74) R7 load(1, XDATA, add(CFA_XSP16, literal(-6)))
          CFI (cfiCond74) ?RET_LOW load(1, XDATA, add(CFA_XSP16, literal(-5)))
          CFI (cfiCond74) ?RET_HIGH load(1, XDATA, add(CFA_XSP16, literal(-4)))
          CFI (cfiCond74) ?BRET_EXT load(1, XDATA, add(CFA_XSP16, literal(-3)))
          CFI (cfiCond74) DPL0 load(1, XDATA, add(CFA_XSP16, literal(-2)))
          CFI (cfiCond74) DPH0 load(1, XDATA, add(CFA_XSP16, literal(-1)))
          CFI (cfiCond74) CFA_SP SP+-2
          CFI (cfiCond74) CFA_XSP16 add(XSP16, 51)
          CFI Block cfiCond75 Using cfiCommon0
          CFI (cfiCond75) Function AF_DataRequest
          CFI (cfiCond75) Conditional ??CrossCallReturnLabel_74
          CFI (cfiCond75) R6 load(1, XDATA, add(CFA_XSP16, literal(-18)))
          CFI (cfiCond75) VB load(1, XDATA, add(CFA_XSP16, literal(-17)))
          CFI (cfiCond75) V0 load(1, XDATA, add(CFA_XSP16, literal(-16)))
          CFI (cfiCond75) V1 load(1, XDATA, add(CFA_XSP16, literal(-15)))
          CFI (cfiCond75) V2 load(1, XDATA, add(CFA_XSP16, literal(-14)))
          CFI (cfiCond75) V3 load(1, XDATA, add(CFA_XSP16, literal(-13)))
          CFI (cfiCond75) V4 load(1, XDATA, add(CFA_XSP16, literal(-12)))
          CFI (cfiCond75) V5 load(1, XDATA, add(CFA_XSP16, literal(-11)))
          CFI (cfiCond75) V6 load(1, XDATA, add(CFA_XSP16, literal(-10)))
          CFI (cfiCond75) V7 load(1, XDATA, add(CFA_XSP16, literal(-9)))
          CFI (cfiCond75) V8 load(1, XDATA, add(CFA_XSP16, literal(-8)))
          CFI (cfiCond75) V9 load(1, XDATA, add(CFA_XSP16, literal(-7)))
          CFI (cfiCond75) R7 load(1, XDATA, add(CFA_XSP16, literal(-6)))
          CFI (cfiCond75) ?RET_LOW load(1, XDATA, add(CFA_XSP16, literal(-5)))
          CFI (cfiCond75) ?RET_HIGH load(1, XDATA, add(CFA_XSP16, literal(-4)))
          CFI (cfiCond75) ?BRET_EXT load(1, XDATA, add(CFA_XSP16, literal(-3)))
          CFI (cfiCond75) DPL0 load(1, XDATA, add(CFA_XSP16, literal(-2)))
          CFI (cfiCond75) DPH0 load(1, XDATA, add(CFA_XSP16, literal(-1)))
          CFI (cfiCond75) CFA_SP SP+-2
          CFI (cfiCond75) CFA_XSP16 add(XSP16, 51)
          CFI Block cfiCond76 Using cfiCommon0
          CFI (cfiCond76) Function AF_DataRequest
          CFI (cfiCond76) Conditional ??CrossCallReturnLabel_75
          CFI (cfiCond76) R6 load(1, XDATA, add(CFA_XSP16, literal(-18)))
          CFI (cfiCond76) VB load(1, XDATA, add(CFA_XSP16, literal(-17)))
          CFI (cfiCond76) V0 load(1, XDATA, add(CFA_XSP16, literal(-16)))
          CFI (cfiCond76) V1 load(1, XDATA, add(CFA_XSP16, literal(-15)))
          CFI (cfiCond76) V2 load(1, XDATA, add(CFA_XSP16, literal(-14)))
          CFI (cfiCond76) V3 load(1, XDATA, add(CFA_XSP16, literal(-13)))
          CFI (cfiCond76) V4 load(1, XDATA, add(CFA_XSP16, literal(-12)))
          CFI (cfiCond76) V5 load(1, XDATA, add(CFA_XSP16, literal(-11)))
          CFI (cfiCond76) V6 load(1, XDATA, add(CFA_XSP16, literal(-10)))
          CFI (cfiCond76) V7 load(1, XDATA, add(CFA_XSP16, literal(-9)))
          CFI (cfiCond76) V8 load(1, XDATA, add(CFA_XSP16, literal(-8)))
          CFI (cfiCond76) V9 load(1, XDATA, add(CFA_XSP16, literal(-7)))
          CFI (cfiCond76) R7 load(1, XDATA, add(CFA_XSP16, literal(-6)))
          CFI (cfiCond76) ?RET_LOW load(1, XDATA, add(CFA_XSP16, literal(-5)))
          CFI (cfiCond76) ?RET_HIGH load(1, XDATA, add(CFA_XSP16, literal(-4)))
          CFI (cfiCond76) ?BRET_EXT load(1, XDATA, add(CFA_XSP16, literal(-3)))
          CFI (cfiCond76) DPL0 load(1, XDATA, add(CFA_XSP16, literal(-2)))
          CFI (cfiCond76) DPH0 load(1, XDATA, add(CFA_XSP16, literal(-1)))
          CFI (cfiCond76) CFA_SP SP+-2
          CFI (cfiCond76) CFA_XSP16 add(XSP16, 51)
          CFI Block cfiCond77 Using cfiCommon0
          CFI (cfiCond77) Function AF_DataRequest
          CFI (cfiCond77) Conditional ??CrossCallReturnLabel_76
          CFI (cfiCond77) R6 load(1, XDATA, add(CFA_XSP16, literal(-18)))
          CFI (cfiCond77) VB load(1, XDATA, add(CFA_XSP16, literal(-17)))
          CFI (cfiCond77) V0 load(1, XDATA, add(CFA_XSP16, literal(-16)))
          CFI (cfiCond77) V1 load(1, XDATA, add(CFA_XSP16, literal(-15)))
          CFI (cfiCond77) V2 load(1, XDATA, add(CFA_XSP16, literal(-14)))
          CFI (cfiCond77) V3 load(1, XDATA, add(CFA_XSP16, literal(-13)))
          CFI (cfiCond77) V4 load(1, XDATA, add(CFA_XSP16, literal(-12)))
          CFI (cfiCond77) V5 load(1, XDATA, add(CFA_XSP16, literal(-11)))
          CFI (cfiCond77) V6 load(1, XDATA, add(CFA_XSP16, literal(-10)))
          CFI (cfiCond77) V7 load(1, XDATA, add(CFA_XSP16, literal(-9)))
          CFI (cfiCond77) V8 load(1, XDATA, add(CFA_XSP16, literal(-8)))
          CFI (cfiCond77) V9 load(1, XDATA, add(CFA_XSP16, literal(-7)))
          CFI (cfiCond77) R7 load(1, XDATA, add(CFA_XSP16, literal(-6)))
          CFI (cfiCond77) ?RET_LOW load(1, XDATA, add(CFA_XSP16, literal(-5)))
          CFI (cfiCond77) ?RET_HIGH load(1, XDATA, add(CFA_XSP16, literal(-4)))
          CFI (cfiCond77) ?BRET_EXT load(1, XDATA, add(CFA_XSP16, literal(-3)))
          CFI (cfiCond77) DPL0 load(1, XDATA, add(CFA_XSP16, literal(-2)))
          CFI (cfiCond77) DPH0 load(1, XDATA, add(CFA_XSP16, literal(-1)))
          CFI (cfiCond77) CFA_SP SP+-2
          CFI (cfiCond77) CFA_XSP16 add(XSP16, 51)
          CFI Block cfiCond78 Using cfiCommon0
          CFI (cfiCond78) Function afBuildMSGIncoming
          CFI (cfiCond78) Conditional ??CrossCallReturnLabel_77
          CFI (cfiCond78) R6 load(1, XDATA, add(CFA_XSP16, literal(-19)))
          CFI (cfiCond78) VB load(1, XDATA, add(CFA_XSP16, literal(-18)))
          CFI (cfiCond78) V0 load(1, XDATA, add(CFA_XSP16, literal(-17)))
          CFI (cfiCond78) V1 load(1, XDATA, add(CFA_XSP16, literal(-16)))
          CFI (cfiCond78) V2 load(1, XDATA, add(CFA_XSP16, literal(-15)))
          CFI (cfiCond78) V3 load(1, XDATA, add(CFA_XSP16, literal(-14)))
          CFI (cfiCond78) V4 load(1, XDATA, add(CFA_XSP16, literal(-13)))
          CFI (cfiCond78) V5 load(1, XDATA, add(CFA_XSP16, literal(-12)))
          CFI (cfiCond78) V6 load(1, XDATA, add(CFA_XSP16, literal(-11)))
          CFI (cfiCond78) V7 load(1, XDATA, add(CFA_XSP16, literal(-10)))
          CFI (cfiCond78) V8 load(1, XDATA, add(CFA_XSP16, literal(-9)))
          CFI (cfiCond78) V9 load(1, XDATA, add(CFA_XSP16, literal(-8)))
          CFI (cfiCond78) V10 load(1, XDATA, add(CFA_XSP16, literal(-7)))
          CFI (cfiCond78) R7 load(1, XDATA, add(CFA_XSP16, literal(-6)))
          CFI (cfiCond78) ?RET_LOW load(1, XDATA, add(CFA_XSP16, literal(-5)))
          CFI (cfiCond78) ?RET_HIGH load(1, XDATA, add(CFA_XSP16, literal(-4)))
          CFI (cfiCond78) ?BRET_EXT load(1, XDATA, add(CFA_XSP16, literal(-3)))
          CFI (cfiCond78) DPL0 load(1, XDATA, add(CFA_XSP16, literal(-2)))
          CFI (cfiCond78) DPH0 load(1, XDATA, add(CFA_XSP16, literal(-1)))
          CFI (cfiCond78) CFA_SP SP+-2
          CFI (cfiCond78) CFA_XSP16 add(XSP16, 19)
          CFI Block cfiCond79 Using cfiCommon0
          CFI (cfiCond79) Function afBuildMSGIncoming
          CFI (cfiCond79) Conditional ??CrossCallReturnLabel_78
          CFI (cfiCond79) R6 load(1, XDATA, add(CFA_XSP16, literal(-19)))
          CFI (cfiCond79) VB load(1, XDATA, add(CFA_XSP16, literal(-18)))
          CFI (cfiCond79) V0 load(1, XDATA, add(CFA_XSP16, literal(-17)))
          CFI (cfiCond79) V1 load(1, XDATA, add(CFA_XSP16, literal(-16)))
          CFI (cfiCond79) V2 load(1, XDATA, add(CFA_XSP16, literal(-15)))
          CFI (cfiCond79) V3 load(1, XDATA, add(CFA_XSP16, literal(-14)))
          CFI (cfiCond79) V4 load(1, XDATA, add(CFA_XSP16, literal(-13)))
          CFI (cfiCond79) V5 load(1, XDATA, add(CFA_XSP16, literal(-12)))
          CFI (cfiCond79) V6 load(1, XDATA, add(CFA_XSP16, literal(-11)))
          CFI (cfiCond79) V7 load(1, XDATA, add(CFA_XSP16, literal(-10)))
          CFI (cfiCond79) V8 load(1, XDATA, add(CFA_XSP16, literal(-9)))
          CFI (cfiCond79) V9 load(1, XDATA, add(CFA_XSP16, literal(-8)))
          CFI (cfiCond79) V10 load(1, XDATA, add(CFA_XSP16, literal(-7)))
          CFI (cfiCond79) R7 load(1, XDATA, add(CFA_XSP16, literal(-6)))
          CFI (cfiCond79) ?RET_LOW load(1, XDATA, add(CFA_XSP16, literal(-5)))
          CFI (cfiCond79) ?RET_HIGH load(1, XDATA, add(CFA_XSP16, literal(-4)))
          CFI (cfiCond79) ?BRET_EXT load(1, XDATA, add(CFA_XSP16, literal(-3)))
          CFI (cfiCond79) DPL0 load(1, XDATA, add(CFA_XSP16, literal(-2)))
          CFI (cfiCond79) DPH0 load(1, XDATA, add(CFA_XSP16, literal(-1)))
          CFI (cfiCond79) CFA_SP SP+-2
          CFI (cfiCond79) CFA_XSP16 add(XSP16, 19)
          CFI Block cfiPicker80 Using cfiCommon1
          CFI (cfiPicker80) NoFunction
          CFI (cfiPicker80) Picker
        MOV       A,R0
        MOVX      @DPTR,A
        INC       DPTR
        MOV       A,R1
        MOVX      @DPTR,A
        RET
          CFI EndBlock cfiCond71
          CFI EndBlock cfiCond72
          CFI EndBlock cfiCond73
          CFI EndBlock cfiCond74
          CFI EndBlock cfiCond75
          CFI EndBlock cfiCond76
          CFI EndBlock cfiCond77
          CFI EndBlock cfiCond78
          CFI EndBlock cfiCond79
          CFI EndBlock cfiPicker80

        RSEG BANKED_CODE:HUGECODE:NOROOT(0)
?Subroutine19:
          CFI Block cfiCond81 Using cfiCommon0
          CFI Function afBuildMSGIncoming
          CFI Conditional ??CrossCallReturnLabel_28
          CFI R6 load(1, XDATA, add(CFA_XSP16, literal(-19)))
          CFI VB load(1, XDATA, add(CFA_XSP16, literal(-18)))
          CFI V0 load(1, XDATA, add(CFA_XSP16, literal(-17)))
          CFI V1 load(1, XDATA, add(CFA_XSP16, literal(-16)))
          CFI V2 load(1, XDATA, add(CFA_XSP16, literal(-15)))
          CFI V3 load(1, XDATA, add(CFA_XSP16, literal(-14)))
          CFI V4 load(1, XDATA, add(CFA_XSP16, literal(-13)))
          CFI V5 load(1, XDATA, add(CFA_XSP16, literal(-12)))
          CFI V6 load(1, XDATA, add(CFA_XSP16, literal(-11)))
          CFI V7 load(1, XDATA, add(CFA_XSP16, literal(-10)))
          CFI V8 load(1, XDATA, add(CFA_XSP16, literal(-9)))
          CFI V9 load(1, XDATA, add(CFA_XSP16, literal(-8)))
          CFI V10 load(1, XDATA, add(CFA_XSP16, literal(-7)))
          CFI R7 load(1, XDATA, add(CFA_XSP16, literal(-6)))
          CFI ?RET_LOW load(1, XDATA, add(CFA_XSP16, literal(-5)))
          CFI ?RET_HIGH load(1, XDATA, add(CFA_XSP16, literal(-4)))
          CFI ?BRET_EXT load(1, XDATA, add(CFA_XSP16, literal(-3)))
          CFI DPL0 load(1, XDATA, add(CFA_XSP16, literal(-2)))
          CFI DPH0 load(1, XDATA, add(CFA_XSP16, literal(-1)))
          CFI CFA_SP SP+-2
          CFI CFA_XSP16 add(XSP16, 19)
          CFI Block cfiCond82 Using cfiCommon0
          CFI (cfiCond82) Function afBuildMSGIncoming
          CFI (cfiCond82) Conditional ??CrossCallReturnLabel_29
          CFI (cfiCond82) R6 load(1, XDATA, add(CFA_XSP16, literal(-19)))
          CFI (cfiCond82) VB load(1, XDATA, add(CFA_XSP16, literal(-18)))
          CFI (cfiCond82) V0 load(1, XDATA, add(CFA_XSP16, literal(-17)))
          CFI (cfiCond82) V1 load(1, XDATA, add(CFA_XSP16, literal(-16)))
          CFI (cfiCond82) V2 load(1, XDATA, add(CFA_XSP16, literal(-15)))
          CFI (cfiCond82) V3 load(1, XDATA, add(CFA_XSP16, literal(-14)))
          CFI (cfiCond82) V4 load(1, XDATA, add(CFA_XSP16, literal(-13)))
          CFI (cfiCond82) V5 load(1, XDATA, add(CFA_XSP16, literal(-12)))
          CFI (cfiCond82) V6 load(1, XDATA, add(CFA_XSP16, literal(-11)))
          CFI (cfiCond82) V7 load(1, XDATA, add(CFA_XSP16, literal(-10)))
          CFI (cfiCond82) V8 load(1, XDATA, add(CFA_XSP16, literal(-9)))
          CFI (cfiCond82) V9 load(1, XDATA, add(CFA_XSP16, literal(-8)))
          CFI (cfiCond82) V10 load(1, XDATA, add(CFA_XSP16, literal(-7)))
          CFI (cfiCond82) R7 load(1, XDATA, add(CFA_XSP16, literal(-6)))
          CFI (cfiCond82) ?RET_LOW load(1, XDATA, add(CFA_XSP16, literal(-5)))
          CFI (cfiCond82) ?RET_HIGH load(1, XDATA, add(CFA_XSP16, literal(-4)))
          CFI (cfiCond82) ?BRET_EXT load(1, XDATA, add(CFA_XSP16, literal(-3)))
          CFI (cfiCond82) DPL0 load(1, XDATA, add(CFA_XSP16, literal(-2)))
          CFI (cfiCond82) DPH0 load(1, XDATA, add(CFA_XSP16, literal(-1)))
          CFI (cfiCond82) CFA_SP SP+-2
          CFI (cfiCond82) CFA_XSP16 add(XSP16, 19)
          CFI Block cfiPicker83 Using cfiCommon1
          CFI (cfiPicker83) NoFunction
          CFI (cfiPicker83) Picker
        MOV       A,R0
        MOVX      @DPTR,A
        INC       DPTR
        MOV       A,R1
        MOVX      @DPTR,A
        MOV       DPL,?V0
        MOV       DPH,?V1
        INC       DPTR
        INC       DPTR
        INC       DPTR
        INC       DPTR
        INC       DPTR
        INC       DPTR
        RET
          CFI EndBlock cfiCond81
          CFI EndBlock cfiCond82
          CFI EndBlock cfiPicker83

        RSEG BANKED_CODE:HUGECODE:NOROOT(0)
?Subroutine16:
          CFI Block cfiCond84 Using cfiCommon0
          CFI Function afBuildMSGIncoming
          CFI Conditional ??CrossCallReturnLabel_86
          CFI R6 load(1, XDATA, add(CFA_XSP16, literal(-19)))
          CFI VB load(1, XDATA, add(CFA_XSP16, literal(-18)))
          CFI V0 load(1, XDATA, add(CFA_XSP16, literal(-17)))
          CFI V1 load(1, XDATA, add(CFA_XSP16, literal(-16)))
          CFI V2 load(1, XDATA, add(CFA_XSP16, literal(-15)))
          CFI V3 load(1, XDATA, add(CFA_XSP16, literal(-14)))
          CFI V4 load(1, XDATA, add(CFA_XSP16, literal(-13)))
          CFI V5 load(1, XDATA, add(CFA_XSP16, literal(-12)))
          CFI V6 load(1, XDATA, add(CFA_XSP16, literal(-11)))
          CFI V7 load(1, XDATA, add(CFA_XSP16, literal(-10)))
          CFI V8 load(1, XDATA, add(CFA_XSP16, literal(-9)))
          CFI V9 load(1, XDATA, add(CFA_XSP16, literal(-8)))
          CFI V10 load(1, XDATA, add(CFA_XSP16, literal(-7)))
          CFI R7 load(1, XDATA, add(CFA_XSP16, literal(-6)))
          CFI ?RET_LOW load(1, XDATA, add(CFA_XSP16, literal(-5)))
          CFI ?RET_HIGH load(1, XDATA, add(CFA_XSP16, literal(-4)))
          CFI ?BRET_EXT load(1, XDATA, add(CFA_XSP16, literal(-3)))
          CFI DPL0 load(1, XDATA, add(CFA_XSP16, literal(-2)))
          CFI DPH0 load(1, XDATA, add(CFA_XSP16, literal(-1)))
          CFI CFA_SP SP+-2
          CFI CFA_XSP16 add(XSP16, 19)
          CFI Block cfiCond85 Using cfiCommon0
          CFI (cfiCond85) Function AF_DataRequest
          CFI (cfiCond85) Conditional ??CrossCallReturnLabel_87
          CFI (cfiCond85) R6 load(1, XDATA, add(CFA_XSP16, literal(-18)))
          CFI (cfiCond85) VB load(1, XDATA, add(CFA_XSP16, literal(-17)))
          CFI (cfiCond85) V0 load(1, XDATA, add(CFA_XSP16, literal(-16)))
          CFI (cfiCond85) V1 load(1, XDATA, add(CFA_XSP16, literal(-15)))
          CFI (cfiCond85) V2 load(1, XDATA, add(CFA_XSP16, literal(-14)))
          CFI (cfiCond85) V3 load(1, XDATA, add(CFA_XSP16, literal(-13)))
          CFI (cfiCond85) V4 load(1, XDATA, add(CFA_XSP16, literal(-12)))
          CFI (cfiCond85) V5 load(1, XDATA, add(CFA_XSP16, literal(-11)))
          CFI (cfiCond85) V6 load(1, XDATA, add(CFA_XSP16, literal(-10)))
          CFI (cfiCond85) V7 load(1, XDATA, add(CFA_XSP16, literal(-9)))
          CFI (cfiCond85) V8 load(1, XDATA, add(CFA_XSP16, literal(-8)))
          CFI (cfiCond85) V9 load(1, XDATA, add(CFA_XSP16, literal(-7)))
          CFI (cfiCond85) R7 load(1, XDATA, add(CFA_XSP16, literal(-6)))
          CFI (cfiCond85) ?RET_LOW load(1, XDATA, add(CFA_XSP16, literal(-5)))
          CFI (cfiCond85) ?RET_HIGH load(1, XDATA, add(CFA_XSP16, literal(-4)))
          CFI (cfiCond85) ?BRET_EXT load(1, XDATA, add(CFA_XSP16, literal(-3)))
          CFI (cfiCond85) DPL0 load(1, XDATA, add(CFA_XSP16, literal(-2)))
          CFI (cfiCond85) DPH0 load(1, XDATA, add(CFA_XSP16, literal(-1)))
          CFI (cfiCond85) CFA_SP SP+-2
          CFI (cfiCond85) CFA_XSP16 add(XSP16, 51)
          CFI Block cfiPicker86 Using cfiCommon1
          CFI (cfiPicker86) NoFunction
          CFI (cfiPicker86) Picker
        INC       DPTR
        INC       DPTR
        INC       DPTR
          CFI EndBlock cfiCond84
          CFI EndBlock cfiCond85
          CFI EndBlock cfiPicker86
        REQUIRE ??Subroutine40_0
        ; // Fall through to label ??Subroutine40_0

        RSEG BANKED_CODE:HUGECODE:NOROOT(0)
??Subroutine40_0:
          CFI Block cfiCond87 Using cfiCommon0
          CFI Function AF_DataRequest
          CFI Conditional ??CrossCallReturnLabel_85
          CFI R6 load(1, XDATA, add(CFA_XSP16, literal(-18)))
          CFI VB load(1, XDATA, add(CFA_XSP16, literal(-17)))
          CFI V0 load(1, XDATA, add(CFA_XSP16, literal(-16)))
          CFI V1 load(1, XDATA, add(CFA_XSP16, literal(-15)))
          CFI V2 load(1, XDATA, add(CFA_XSP16, literal(-14)))
          CFI V3 load(1, XDATA, add(CFA_XSP16, literal(-13)))
          CFI V4 load(1, XDATA, add(CFA_XSP16, literal(-12)))
          CFI V5 load(1, XDATA, add(CFA_XSP16, literal(-11)))
          CFI V6 load(1, XDATA, add(CFA_XSP16, literal(-10)))
          CFI V7 load(1, XDATA, add(CFA_XSP16, literal(-9)))
          CFI V8 load(1, XDATA, add(CFA_XSP16, literal(-8)))
          CFI V9 load(1, XDATA, add(CFA_XSP16, literal(-7)))
          CFI R7 load(1, XDATA, add(CFA_XSP16, literal(-6)))
          CFI ?RET_LOW load(1, XDATA, add(CFA_XSP16, literal(-5)))
          CFI ?RET_HIGH load(1, XDATA, add(CFA_XSP16, literal(-4)))
          CFI ?BRET_EXT load(1, XDATA, add(CFA_XSP16, literal(-3)))
          CFI DPL0 load(1, XDATA, add(CFA_XSP16, literal(-2)))
          CFI DPH0 load(1, XDATA, add(CFA_XSP16, literal(-1)))
          CFI CFA_SP SP+-2
          CFI CFA_XSP16 add(XSP16, 51)
          CFI Block cfiCond88 Using cfiCommon0
          CFI (cfiCond88) Function afBuildMSGIncoming
          CFI (cfiCond88) Conditional ??CrossCallReturnLabel_86
          CFI (cfiCond88) R6 load(1, XDATA, add(CFA_XSP16, literal(-19)))
          CFI (cfiCond88) VB load(1, XDATA, add(CFA_XSP16, literal(-18)))
          CFI (cfiCond88) V0 load(1, XDATA, add(CFA_XSP16, literal(-17)))
          CFI (cfiCond88) V1 load(1, XDATA, add(CFA_XSP16, literal(-16)))
          CFI (cfiCond88) V2 load(1, XDATA, add(CFA_XSP16, literal(-15)))
          CFI (cfiCond88) V3 load(1, XDATA, add(CFA_XSP16, literal(-14)))
          CFI (cfiCond88) V4 load(1, XDATA, add(CFA_XSP16, literal(-13)))
          CFI (cfiCond88) V5 load(1, XDATA, add(CFA_XSP16, literal(-12)))
          CFI (cfiCond88) V6 load(1, XDATA, add(CFA_XSP16, literal(-11)))
          CFI (cfiCond88) V7 load(1, XDATA, add(CFA_XSP16, literal(-10)))
          CFI (cfiCond88) V8 load(1, XDATA, add(CFA_XSP16, literal(-9)))
          CFI (cfiCond88) V9 load(1, XDATA, add(CFA_XSP16, literal(-8)))
          CFI (cfiCond88) V10 load(1, XDATA, add(CFA_XSP16, literal(-7)))
          CFI (cfiCond88) R7 load(1, XDATA, add(CFA_XSP16, literal(-6)))
          CFI (cfiCond88) ?RET_LOW load(1, XDATA, add(CFA_XSP16, literal(-5)))
          CFI (cfiCond88) ?RET_HIGH load(1, XDATA, add(CFA_XSP16, literal(-4)))
          CFI (cfiCond88) ?BRET_EXT load(1, XDATA, add(CFA_XSP16, literal(-3)))
          CFI (cfiCond88) DPL0 load(1, XDATA, add(CFA_XSP16, literal(-2)))
          CFI (cfiCond88) DPH0 load(1, XDATA, add(CFA_XSP16, literal(-1)))
          CFI (cfiCond88) CFA_SP SP+-2
          CFI (cfiCond88) CFA_XSP16 add(XSP16, 19)
          CFI Block cfiCond89 Using cfiCommon0
          CFI (cfiCond89) Function AF_DataRequest
          CFI (cfiCond89) Conditional ??CrossCallReturnLabel_87
          CFI (cfiCond89) R6 load(1, XDATA, add(CFA_XSP16, literal(-18)))
          CFI (cfiCond89) VB load(1, XDATA, add(CFA_XSP16, literal(-17)))
          CFI (cfiCond89) V0 load(1, XDATA, add(CFA_XSP16, literal(-16)))
          CFI (cfiCond89) V1 load(1, XDATA, add(CFA_XSP16, literal(-15)))
          CFI (cfiCond89) V2 load(1, XDATA, add(CFA_XSP16, literal(-14)))
          CFI (cfiCond89) V3 load(1, XDATA, add(CFA_XSP16, literal(-13)))
          CFI (cfiCond89) V4 load(1, XDATA, add(CFA_XSP16, literal(-12)))
          CFI (cfiCond89) V5 load(1, XDATA, add(CFA_XSP16, literal(-11)))
          CFI (cfiCond89) V6 load(1, XDATA, add(CFA_XSP16, literal(-10)))
          CFI (cfiCond89) V7 load(1, XDATA, add(CFA_XSP16, literal(-9)))
          CFI (cfiCond89) V8 load(1, XDATA, add(CFA_XSP16, literal(-8)))
          CFI (cfiCond89) V9 load(1, XDATA, add(CFA_XSP16, literal(-7)))
          CFI (cfiCond89) R7 load(1, XDATA, add(CFA_XSP16, literal(-6)))
          CFI (cfiCond89) ?RET_LOW load(1, XDATA, add(CFA_XSP16, literal(-5)))
          CFI (cfiCond89) ?RET_HIGH load(1, XDATA, add(CFA_XSP16, literal(-4)))
          CFI (cfiCond89) ?BRET_EXT load(1, XDATA, add(CFA_XSP16, literal(-3)))
          CFI (cfiCond89) DPL0 load(1, XDATA, add(CFA_XSP16, literal(-2)))
          CFI (cfiCond89) DPH0 load(1, XDATA, add(CFA_XSP16, literal(-1)))
          CFI (cfiCond89) CFA_SP SP+-2
          CFI (cfiCond89) CFA_XSP16 add(XSP16, 51)
          CFI Block cfiPicker90 Using cfiCommon1
          CFI (cfiPicker90) NoFunction
          CFI (cfiPicker90) Picker
        INC       DPTR
          CFI EndBlock cfiCond87
          CFI EndBlock cfiCond88
          CFI EndBlock cfiCond89
          CFI EndBlock cfiPicker90
        REQUIRE ??Subroutine41_0
        ; // Fall through to label ??Subroutine41_0

        RSEG BANKED_CODE:HUGECODE:NOROOT(0)
??Subroutine41_0:
          CFI Block cfiCond91 Using cfiCommon0
          CFI Function afDelete
          CFI Conditional ??CrossCallReturnLabel_79
          CFI R6 load(1, XDATA, add(CFA_XSP16, literal(-9)))
          CFI VB load(1, XDATA, add(CFA_XSP16, literal(-8)))
          CFI V0 load(1, XDATA, add(CFA_XSP16, literal(-7)))
          CFI R7 load(1, XDATA, add(CFA_XSP16, literal(-6)))
          CFI ?RET_LOW load(1, XDATA, add(CFA_XSP16, literal(-5)))
          CFI ?RET_HIGH load(1, XDATA, add(CFA_XSP16, literal(-4)))
          CFI ?BRET_EXT load(1, XDATA, add(CFA_XSP16, literal(-3)))
          CFI DPL0 load(1, XDATA, add(CFA_XSP16, literal(-2)))
          CFI DPH0 load(1, XDATA, add(CFA_XSP16, literal(-1)))
          CFI CFA_SP SP+-2
          CFI CFA_XSP16 add(XSP16, 9)
          CFI Block cfiCond92 Using cfiCommon0
          CFI (cfiCond92) Function afBuildMSGIncoming
          CFI (cfiCond92) Conditional ??CrossCallReturnLabel_80
          CFI (cfiCond92) R6 load(1, XDATA, add(CFA_XSP16, literal(-19)))
          CFI (cfiCond92) VB load(1, XDATA, add(CFA_XSP16, literal(-18)))
          CFI (cfiCond92) V0 load(1, XDATA, add(CFA_XSP16, literal(-17)))
          CFI (cfiCond92) V1 load(1, XDATA, add(CFA_XSP16, literal(-16)))
          CFI (cfiCond92) V2 load(1, XDATA, add(CFA_XSP16, literal(-15)))
          CFI (cfiCond92) V3 load(1, XDATA, add(CFA_XSP16, literal(-14)))
          CFI (cfiCond92) V4 load(1, XDATA, add(CFA_XSP16, literal(-13)))
          CFI (cfiCond92) V5 load(1, XDATA, add(CFA_XSP16, literal(-12)))
          CFI (cfiCond92) V6 load(1, XDATA, add(CFA_XSP16, literal(-11)))
          CFI (cfiCond92) V7 load(1, XDATA, add(CFA_XSP16, literal(-10)))
          CFI (cfiCond92) V8 load(1, XDATA, add(CFA_XSP16, literal(-9)))
          CFI (cfiCond92) V9 load(1, XDATA, add(CFA_XSP16, literal(-8)))
          CFI (cfiCond92) V10 load(1, XDATA, add(CFA_XSP16, literal(-7)))
          CFI (cfiCond92) R7 load(1, XDATA, add(CFA_XSP16, literal(-6)))
          CFI (cfiCond92) ?RET_LOW load(1, XDATA, add(CFA_XSP16, literal(-5)))
          CFI (cfiCond92) ?RET_HIGH load(1, XDATA, add(CFA_XSP16, literal(-4)))
          CFI (cfiCond92) ?BRET_EXT load(1, XDATA, add(CFA_XSP16, literal(-3)))
          CFI (cfiCond92) DPL0 load(1, XDATA, add(CFA_XSP16, literal(-2)))
          CFI (cfiCond92) DPH0 load(1, XDATA, add(CFA_XSP16, literal(-1)))
          CFI (cfiCond92) CFA_SP SP+-2
          CFI (cfiCond92) CFA_XSP16 add(XSP16, 19)
          CFI Block cfiCond93 Using cfiCommon0
          CFI (cfiCond93) Function AF_DataRequest
          CFI (cfiCond93) Conditional ??CrossCallReturnLabel_81
          CFI (cfiCond93) R6 load(1, XDATA, add(CFA_XSP16, literal(-18)))
          CFI (cfiCond93) VB load(1, XDATA, add(CFA_XSP16, literal(-17)))
          CFI (cfiCond93) V0 load(1, XDATA, add(CFA_XSP16, literal(-16)))
          CFI (cfiCond93) V1 load(1, XDATA, add(CFA_XSP16, literal(-15)))
          CFI (cfiCond93) V2 load(1, XDATA, add(CFA_XSP16, literal(-14)))
          CFI (cfiCond93) V3 load(1, XDATA, add(CFA_XSP16, literal(-13)))
          CFI (cfiCond93) V4 load(1, XDATA, add(CFA_XSP16, literal(-12)))
          CFI (cfiCond93) V5 load(1, XDATA, add(CFA_XSP16, literal(-11)))
          CFI (cfiCond93) V6 load(1, XDATA, add(CFA_XSP16, literal(-10)))
          CFI (cfiCond93) V7 load(1, XDATA, add(CFA_XSP16, literal(-9)))
          CFI (cfiCond93) V8 load(1, XDATA, add(CFA_XSP16, literal(-8)))
          CFI (cfiCond93) V9 load(1, XDATA, add(CFA_XSP16, literal(-7)))
          CFI (cfiCond93) R7 load(1, XDATA, add(CFA_XSP16, literal(-6)))
          CFI (cfiCond93) ?RET_LOW load(1, XDATA, add(CFA_XSP16, literal(-5)))
          CFI (cfiCond93) ?RET_HIGH load(1, XDATA, add(CFA_XSP16, literal(-4)))
          CFI (cfiCond93) ?BRET_EXT load(1, XDATA, add(CFA_XSP16, literal(-3)))
          CFI (cfiCond93) DPL0 load(1, XDATA, add(CFA_XSP16, literal(-2)))
          CFI (cfiCond93) DPH0 load(1, XDATA, add(CFA_XSP16, literal(-1)))
          CFI (cfiCond93) CFA_SP SP+-2
          CFI (cfiCond93) CFA_XSP16 add(XSP16, 51)
          CFI Block cfiCond94 Using cfiCommon0
          CFI (cfiCond94) Function AF_DataRequest
          CFI (cfiCond94) Conditional ??CrossCallReturnLabel_82
          CFI (cfiCond94) R6 load(1, XDATA, add(CFA_XSP16, literal(-18)))
          CFI (cfiCond94) VB load(1, XDATA, add(CFA_XSP16, literal(-17)))
          CFI (cfiCond94) V0 load(1, XDATA, add(CFA_XSP16, literal(-16)))
          CFI (cfiCond94) V1 load(1, XDATA, add(CFA_XSP16, literal(-15)))
          CFI (cfiCond94) V2 load(1, XDATA, add(CFA_XSP16, literal(-14)))
          CFI (cfiCond94) V3 load(1, XDATA, add(CFA_XSP16, literal(-13)))
          CFI (cfiCond94) V4 load(1, XDATA, add(CFA_XSP16, literal(-12)))
          CFI (cfiCond94) V5 load(1, XDATA, add(CFA_XSP16, literal(-11)))
          CFI (cfiCond94) V6 load(1, XDATA, add(CFA_XSP16, literal(-10)))
          CFI (cfiCond94) V7 load(1, XDATA, add(CFA_XSP16, literal(-9)))
          CFI (cfiCond94) V8 load(1, XDATA, add(CFA_XSP16, literal(-8)))
          CFI (cfiCond94) V9 load(1, XDATA, add(CFA_XSP16, literal(-7)))
          CFI (cfiCond94) R7 load(1, XDATA, add(CFA_XSP16, literal(-6)))
          CFI (cfiCond94) ?RET_LOW load(1, XDATA, add(CFA_XSP16, literal(-5)))
          CFI (cfiCond94) ?RET_HIGH load(1, XDATA, add(CFA_XSP16, literal(-4)))
          CFI (cfiCond94) ?BRET_EXT load(1, XDATA, add(CFA_XSP16, literal(-3)))
          CFI (cfiCond94) DPL0 load(1, XDATA, add(CFA_XSP16, literal(-2)))
          CFI (cfiCond94) DPH0 load(1, XDATA, add(CFA_XSP16, literal(-1)))
          CFI (cfiCond94) CFA_SP SP+-2
          CFI (cfiCond94) CFA_XSP16 add(XSP16, 51)
          CFI Block cfiCond95 Using cfiCommon0
          CFI (cfiCond95) Function AF_DataRequest
          CFI (cfiCond95) Conditional ??CrossCallReturnLabel_83
          CFI (cfiCond95) R6 load(1, XDATA, add(CFA_XSP16, literal(-18)))
          CFI (cfiCond95) VB load(1, XDATA, add(CFA_XSP16, literal(-17)))
          CFI (cfiCond95) V0 load(1, XDATA, add(CFA_XSP16, literal(-16)))
          CFI (cfiCond95) V1 load(1, XDATA, add(CFA_XSP16, literal(-15)))
          CFI (cfiCond95) V2 load(1, XDATA, add(CFA_XSP16, literal(-14)))
          CFI (cfiCond95) V3 load(1, XDATA, add(CFA_XSP16, literal(-13)))
          CFI (cfiCond95) V4 load(1, XDATA, add(CFA_XSP16, literal(-12)))
          CFI (cfiCond95) V5 load(1, XDATA, add(CFA_XSP16, literal(-11)))
          CFI (cfiCond95) V6 load(1, XDATA, add(CFA_XSP16, literal(-10)))
          CFI (cfiCond95) V7 load(1, XDATA, add(CFA_XSP16, literal(-9)))
          CFI (cfiCond95) V8 load(1, XDATA, add(CFA_XSP16, literal(-8)))
          CFI (cfiCond95) V9 load(1, XDATA, add(CFA_XSP16, literal(-7)))
          CFI (cfiCond95) R7 load(1, XDATA, add(CFA_XSP16, literal(-6)))
          CFI (cfiCond95) ?RET_LOW load(1, XDATA, add(CFA_XSP16, literal(-5)))
          CFI (cfiCond95) ?RET_HIGH load(1, XDATA, add(CFA_XSP16, literal(-4)))
          CFI (cfiCond95) ?BRET_EXT load(1, XDATA, add(CFA_XSP16, literal(-3)))
          CFI (cfiCond95) DPL0 load(1, XDATA, add(CFA_XSP16, literal(-2)))
          CFI (cfiCond95) DPH0 load(1, XDATA, add(CFA_XSP16, literal(-1)))
          CFI (cfiCond95) CFA_SP SP+-2
          CFI (cfiCond95) CFA_XSP16 add(XSP16, 51)
          CFI Block cfiCond96 Using cfiCommon0
          CFI (cfiCond96) Function AF_DataRequest
          CFI (cfiCond96) Conditional ??CrossCallReturnLabel_84
          CFI (cfiCond96) R6 load(1, XDATA, add(CFA_XSP16, literal(-18)))
          CFI (cfiCond96) VB load(1, XDATA, add(CFA_XSP16, literal(-17)))
          CFI (cfiCond96) V0 load(1, XDATA, add(CFA_XSP16, literal(-16)))
          CFI (cfiCond96) V1 load(1, XDATA, add(CFA_XSP16, literal(-15)))
          CFI (cfiCond96) V2 load(1, XDATA, add(CFA_XSP16, literal(-14)))
          CFI (cfiCond96) V3 load(1, XDATA, add(CFA_XSP16, literal(-13)))
          CFI (cfiCond96) V4 load(1, XDATA, add(CFA_XSP16, literal(-12)))
          CFI (cfiCond96) V5 load(1, XDATA, add(CFA_XSP16, literal(-11)))
          CFI (cfiCond96) V6 load(1, XDATA, add(CFA_XSP16, literal(-10)))
          CFI (cfiCond96) V7 load(1, XDATA, add(CFA_XSP16, literal(-9)))
          CFI (cfiCond96) V8 load(1, XDATA, add(CFA_XSP16, literal(-8)))
          CFI (cfiCond96) V9 load(1, XDATA, add(CFA_XSP16, literal(-7)))
          CFI (cfiCond96) R7 load(1, XDATA, add(CFA_XSP16, literal(-6)))
          CFI (cfiCond96) ?RET_LOW load(1, XDATA, add(CFA_XSP16, literal(-5)))
          CFI (cfiCond96) ?RET_HIGH load(1, XDATA, add(CFA_XSP16, literal(-4)))
          CFI (cfiCond96) ?BRET_EXT load(1, XDATA, add(CFA_XSP16, literal(-3)))
          CFI (cfiCond96) DPL0 load(1, XDATA, add(CFA_XSP16, literal(-2)))
          CFI (cfiCond96) DPH0 load(1, XDATA, add(CFA_XSP16, literal(-1)))
          CFI (cfiCond96) CFA_SP SP+-2
          CFI (cfiCond96) CFA_XSP16 add(XSP16, 51)
          CFI Block cfiCond97 Using cfiCommon0
          CFI (cfiCond97) Function AF_DataRequest
          CFI (cfiCond97) Conditional ??CrossCallReturnLabel_85
          CFI (cfiCond97) R6 load(1, XDATA, add(CFA_XSP16, literal(-18)))
          CFI (cfiCond97) VB load(1, XDATA, add(CFA_XSP16, literal(-17)))
          CFI (cfiCond97) V0 load(1, XDATA, add(CFA_XSP16, literal(-16)))
          CFI (cfiCond97) V1 load(1, XDATA, add(CFA_XSP16, literal(-15)))
          CFI (cfiCond97) V2 load(1, XDATA, add(CFA_XSP16, literal(-14)))
          CFI (cfiCond97) V3 load(1, XDATA, add(CFA_XSP16, literal(-13)))
          CFI (cfiCond97) V4 load(1, XDATA, add(CFA_XSP16, literal(-12)))
          CFI (cfiCond97) V5 load(1, XDATA, add(CFA_XSP16, literal(-11)))
          CFI (cfiCond97) V6 load(1, XDATA, add(CFA_XSP16, literal(-10)))
          CFI (cfiCond97) V7 load(1, XDATA, add(CFA_XSP16, literal(-9)))
          CFI (cfiCond97) V8 load(1, XDATA, add(CFA_XSP16, literal(-8)))
          CFI (cfiCond97) V9 load(1, XDATA, add(CFA_XSP16, literal(-7)))
          CFI (cfiCond97) R7 load(1, XDATA, add(CFA_XSP16, literal(-6)))
          CFI (cfiCond97) ?RET_LOW load(1, XDATA, add(CFA_XSP16, literal(-5)))
          CFI (cfiCond97) ?RET_HIGH load(1, XDATA, add(CFA_XSP16, literal(-4)))
          CFI (cfiCond97) ?BRET_EXT load(1, XDATA, add(CFA_XSP16, literal(-3)))
          CFI (cfiCond97) DPL0 load(1, XDATA, add(CFA_XSP16, literal(-2)))
          CFI (cfiCond97) DPH0 load(1, XDATA, add(CFA_XSP16, literal(-1)))
          CFI (cfiCond97) CFA_SP SP+-2
          CFI (cfiCond97) CFA_XSP16 add(XSP16, 51)
          CFI Block cfiCond98 Using cfiCommon0
          CFI (cfiCond98) Function afBuildMSGIncoming
          CFI (cfiCond98) Conditional ??CrossCallReturnLabel_86
          CFI (cfiCond98) R6 load(1, XDATA, add(CFA_XSP16, literal(-19)))
          CFI (cfiCond98) VB load(1, XDATA, add(CFA_XSP16, literal(-18)))
          CFI (cfiCond98) V0 load(1, XDATA, add(CFA_XSP16, literal(-17)))
          CFI (cfiCond98) V1 load(1, XDATA, add(CFA_XSP16, literal(-16)))
          CFI (cfiCond98) V2 load(1, XDATA, add(CFA_XSP16, literal(-15)))
          CFI (cfiCond98) V3 load(1, XDATA, add(CFA_XSP16, literal(-14)))
          CFI (cfiCond98) V4 load(1, XDATA, add(CFA_XSP16, literal(-13)))
          CFI (cfiCond98) V5 load(1, XDATA, add(CFA_XSP16, literal(-12)))
          CFI (cfiCond98) V6 load(1, XDATA, add(CFA_XSP16, literal(-11)))
          CFI (cfiCond98) V7 load(1, XDATA, add(CFA_XSP16, literal(-10)))
          CFI (cfiCond98) V8 load(1, XDATA, add(CFA_XSP16, literal(-9)))
          CFI (cfiCond98) V9 load(1, XDATA, add(CFA_XSP16, literal(-8)))
          CFI (cfiCond98) V10 load(1, XDATA, add(CFA_XSP16, literal(-7)))
          CFI (cfiCond98) R7 load(1, XDATA, add(CFA_XSP16, literal(-6)))
          CFI (cfiCond98) ?RET_LOW load(1, XDATA, add(CFA_XSP16, literal(-5)))
          CFI (cfiCond98) ?RET_HIGH load(1, XDATA, add(CFA_XSP16, literal(-4)))
          CFI (cfiCond98) ?BRET_EXT load(1, XDATA, add(CFA_XSP16, literal(-3)))
          CFI (cfiCond98) DPL0 load(1, XDATA, add(CFA_XSP16, literal(-2)))
          CFI (cfiCond98) DPH0 load(1, XDATA, add(CFA_XSP16, literal(-1)))
          CFI (cfiCond98) CFA_SP SP+-2
          CFI (cfiCond98) CFA_XSP16 add(XSP16, 19)
          CFI Block cfiCond99 Using cfiCommon0
          CFI (cfiCond99) Function AF_DataRequest
          CFI (cfiCond99) Conditional ??CrossCallReturnLabel_87
          CFI (cfiCond99) R6 load(1, XDATA, add(CFA_XSP16, literal(-18)))
          CFI (cfiCond99) VB load(1, XDATA, add(CFA_XSP16, literal(-17)))
          CFI (cfiCond99) V0 load(1, XDATA, add(CFA_XSP16, literal(-16)))
          CFI (cfiCond99) V1 load(1, XDATA, add(CFA_XSP16, literal(-15)))
          CFI (cfiCond99) V2 load(1, XDATA, add(CFA_XSP16, literal(-14)))
          CFI (cfiCond99) V3 load(1, XDATA, add(CFA_XSP16, literal(-13)))
          CFI (cfiCond99) V4 load(1, XDATA, add(CFA_XSP16, literal(-12)))
          CFI (cfiCond99) V5 load(1, XDATA, add(CFA_XSP16, literal(-11)))
          CFI (cfiCond99) V6 load(1, XDATA, add(CFA_XSP16, literal(-10)))
          CFI (cfiCond99) V7 load(1, XDATA, add(CFA_XSP16, literal(-9)))
          CFI (cfiCond99) V8 load(1, XDATA, add(CFA_XSP16, literal(-8)))
          CFI (cfiCond99) V9 load(1, XDATA, add(CFA_XSP16, literal(-7)))
          CFI (cfiCond99) R7 load(1, XDATA, add(CFA_XSP16, literal(-6)))
          CFI (cfiCond99) ?RET_LOW load(1, XDATA, add(CFA_XSP16, literal(-5)))
          CFI (cfiCond99) ?RET_HIGH load(1, XDATA, add(CFA_XSP16, literal(-4)))
          CFI (cfiCond99) ?BRET_EXT load(1, XDATA, add(CFA_XSP16, literal(-3)))
          CFI (cfiCond99) DPL0 load(1, XDATA, add(CFA_XSP16, literal(-2)))
          CFI (cfiCond99) DPH0 load(1, XDATA, add(CFA_XSP16, literal(-1)))
          CFI (cfiCond99) CFA_SP SP+-2
          CFI (cfiCond99) CFA_XSP16 add(XSP16, 51)
          CFI Block cfiPicker100 Using cfiCommon1
          CFI (cfiPicker100) NoFunction
          CFI (cfiPicker100) Picker
        LCALL     ??Subroutine50_0 & 0xFFFF
??CrossCallReturnLabel_121:
        MOV       R1,A
        RET
          CFI EndBlock cfiCond91
          CFI EndBlock cfiCond92
          CFI EndBlock cfiCond93
          CFI EndBlock cfiCond94
          CFI EndBlock cfiCond95
          CFI EndBlock cfiCond96
          CFI EndBlock cfiCond97
          CFI EndBlock cfiCond98
          CFI EndBlock cfiCond99
          CFI EndBlock cfiPicker100

        RSEG BANKED_CODE:HUGECODE:NOROOT(0)
?Subroutine15:
          CFI Block cfiCond101 Using cfiCommon0
          CFI Function afBuildMSGIncoming
          CFI Conditional ??CrossCallReturnLabel_21
          CFI R6 load(1, XDATA, add(CFA_XSP16, literal(-19)))
          CFI VB load(1, XDATA, add(CFA_XSP16, literal(-18)))
          CFI V0 load(1, XDATA, add(CFA_XSP16, literal(-17)))
          CFI V1 load(1, XDATA, add(CFA_XSP16, literal(-16)))
          CFI V2 load(1, XDATA, add(CFA_XSP16, literal(-15)))
          CFI V3 load(1, XDATA, add(CFA_XSP16, literal(-14)))
          CFI V4 load(1, XDATA, add(CFA_XSP16, literal(-13)))
          CFI V5 load(1, XDATA, add(CFA_XSP16, literal(-12)))
          CFI V6 load(1, XDATA, add(CFA_XSP16, literal(-11)))
          CFI V7 load(1, XDATA, add(CFA_XSP16, literal(-10)))
          CFI V8 load(1, XDATA, add(CFA_XSP16, literal(-9)))
          CFI V9 load(1, XDATA, add(CFA_XSP16, literal(-8)))
          CFI V10 load(1, XDATA, add(CFA_XSP16, literal(-7)))
          CFI R7 load(1, XDATA, add(CFA_XSP16, literal(-6)))
          CFI ?RET_LOW load(1, XDATA, add(CFA_XSP16, literal(-5)))
          CFI ?RET_HIGH load(1, XDATA, add(CFA_XSP16, literal(-4)))
          CFI ?BRET_EXT load(1, XDATA, add(CFA_XSP16, literal(-3)))
          CFI DPL0 load(1, XDATA, add(CFA_XSP16, literal(-2)))
          CFI DPH0 load(1, XDATA, add(CFA_XSP16, literal(-1)))
          CFI CFA_SP SP+-2
          CFI CFA_XSP16 add(XSP16, 19)
          CFI Block cfiCond102 Using cfiCommon0
          CFI (cfiCond102) Function afBuildMSGIncoming
          CFI (cfiCond102) Conditional ??CrossCallReturnLabel_22
          CFI (cfiCond102) R6 load(1, XDATA, add(CFA_XSP16, literal(-19)))
          CFI (cfiCond102) VB load(1, XDATA, add(CFA_XSP16, literal(-18)))
          CFI (cfiCond102) V0 load(1, XDATA, add(CFA_XSP16, literal(-17)))
          CFI (cfiCond102) V1 load(1, XDATA, add(CFA_XSP16, literal(-16)))
          CFI (cfiCond102) V2 load(1, XDATA, add(CFA_XSP16, literal(-15)))
          CFI (cfiCond102) V3 load(1, XDATA, add(CFA_XSP16, literal(-14)))
          CFI (cfiCond102) V4 load(1, XDATA, add(CFA_XSP16, literal(-13)))
          CFI (cfiCond102) V5 load(1, XDATA, add(CFA_XSP16, literal(-12)))
          CFI (cfiCond102) V6 load(1, XDATA, add(CFA_XSP16, literal(-11)))
          CFI (cfiCond102) V7 load(1, XDATA, add(CFA_XSP16, literal(-10)))
          CFI (cfiCond102) V8 load(1, XDATA, add(CFA_XSP16, literal(-9)))
          CFI (cfiCond102) V9 load(1, XDATA, add(CFA_XSP16, literal(-8)))
          CFI (cfiCond102) V10 load(1, XDATA, add(CFA_XSP16, literal(-7)))
          CFI (cfiCond102) R7 load(1, XDATA, add(CFA_XSP16, literal(-6)))
          CFI (cfiCond102) ?RET_LOW load(1, XDATA, add(CFA_XSP16, literal(-5)))
          CFI (cfiCond102) ?RET_HIGH load(1, XDATA, add(CFA_XSP16, literal(-4)))
          CFI (cfiCond102) ?BRET_EXT load(1, XDATA, add(CFA_XSP16, literal(-3)))
          CFI (cfiCond102) DPL0 load(1, XDATA, add(CFA_XSP16, literal(-2)))
          CFI (cfiCond102) DPH0 load(1, XDATA, add(CFA_XSP16, literal(-1)))
          CFI (cfiCond102) CFA_SP SP+-2
          CFI (cfiCond102) CFA_XSP16 add(XSP16, 19)
          CFI Block cfiCond103 Using cfiCommon0
          CFI (cfiCond103) Function afBuildMSGIncoming
          CFI (cfiCond103) Conditional ??CrossCallReturnLabel_23
          CFI (cfiCond103) R6 load(1, XDATA, add(CFA_XSP16, literal(-19)))
          CFI (cfiCond103) VB load(1, XDATA, add(CFA_XSP16, literal(-18)))
          CFI (cfiCond103) V0 load(1, XDATA, add(CFA_XSP16, literal(-17)))
          CFI (cfiCond103) V1 load(1, XDATA, add(CFA_XSP16, literal(-16)))
          CFI (cfiCond103) V2 load(1, XDATA, add(CFA_XSP16, literal(-15)))
          CFI (cfiCond103) V3 load(1, XDATA, add(CFA_XSP16, literal(-14)))
          CFI (cfiCond103) V4 load(1, XDATA, add(CFA_XSP16, literal(-13)))
          CFI (cfiCond103) V5 load(1, XDATA, add(CFA_XSP16, literal(-12)))
          CFI (cfiCond103) V6 load(1, XDATA, add(CFA_XSP16, literal(-11)))
          CFI (cfiCond103) V7 load(1, XDATA, add(CFA_XSP16, literal(-10)))
          CFI (cfiCond103) V8 load(1, XDATA, add(CFA_XSP16, literal(-9)))
          CFI (cfiCond103) V9 load(1, XDATA, add(CFA_XSP16, literal(-8)))
          CFI (cfiCond103) V10 load(1, XDATA, add(CFA_XSP16, literal(-7)))
          CFI (cfiCond103) R7 load(1, XDATA, add(CFA_XSP16, literal(-6)))
          CFI (cfiCond103) ?RET_LOW load(1, XDATA, add(CFA_XSP16, literal(-5)))
          CFI (cfiCond103) ?RET_HIGH load(1, XDATA, add(CFA_XSP16, literal(-4)))
          CFI (cfiCond103) ?BRET_EXT load(1, XDATA, add(CFA_XSP16, literal(-3)))
          CFI (cfiCond103) DPL0 load(1, XDATA, add(CFA_XSP16, literal(-2)))
          CFI (cfiCond103) DPH0 load(1, XDATA, add(CFA_XSP16, literal(-1)))
          CFI (cfiCond103) CFA_SP SP+-2
          CFI (cfiCond103) CFA_XSP16 add(XSP16, 19)
          CFI Block cfiPicker104 Using cfiCommon1
          CFI (cfiPicker104) NoFunction
          CFI (cfiPicker104) Picker
        LCALL     ??Subroutine50_0 & 0xFFFF
??CrossCallReturnLabel_118:
        MOV       R1,A
        MOV       A,R6
        RET
          CFI EndBlock cfiCond101
          CFI EndBlock cfiCond102
          CFI EndBlock cfiCond103
          CFI EndBlock cfiPicker104

        RSEG BANKED_CODE:HUGECODE:NOROOT(0)
?Subroutine8:
          CFI Block cfiCond105 Using cfiCommon0
          CFI Function afRegisterExtended
          CFI Conditional ??CrossCallReturnLabel_7
          CFI R6 load(1, XDATA, add(CFA_XSP16, literal(-12)))
          CFI VB load(1, XDATA, add(CFA_XSP16, literal(-11)))
          CFI V0 load(1, XDATA, add(CFA_XSP16, literal(-10)))
          CFI V1 load(1, XDATA, add(CFA_XSP16, literal(-9)))
          CFI V2 load(1, XDATA, add(CFA_XSP16, literal(-8)))
          CFI V3 load(1, XDATA, add(CFA_XSP16, literal(-7)))
          CFI R7 load(1, XDATA, add(CFA_XSP16, literal(-6)))
          CFI ?RET_LOW load(1, XDATA, add(CFA_XSP16, literal(-5)))
          CFI ?RET_HIGH load(1, XDATA, add(CFA_XSP16, literal(-4)))
          CFI ?BRET_EXT load(1, XDATA, add(CFA_XSP16, literal(-3)))
          CFI DPL0 load(1, XDATA, add(CFA_XSP16, literal(-2)))
          CFI DPH0 load(1, XDATA, add(CFA_XSP16, literal(-1)))
          CFI CFA_SP SP+-2
          CFI CFA_XSP16 add(XSP16, 12)
          CFI Block cfiCond106 Using cfiCommon0
          CFI (cfiCond106) Function afBuildMSGIncoming
          CFI (cfiCond106) Conditional ??CrossCallReturnLabel_8
          CFI (cfiCond106) R6 load(1, XDATA, add(CFA_XSP16, literal(-19)))
          CFI (cfiCond106) VB load(1, XDATA, add(CFA_XSP16, literal(-18)))
          CFI (cfiCond106) V0 load(1, XDATA, add(CFA_XSP16, literal(-17)))
          CFI (cfiCond106) V1 load(1, XDATA, add(CFA_XSP16, literal(-16)))
          CFI (cfiCond106) V2 load(1, XDATA, add(CFA_XSP16, literal(-15)))
          CFI (cfiCond106) V3 load(1, XDATA, add(CFA_XSP16, literal(-14)))
          CFI (cfiCond106) V4 load(1, XDATA, add(CFA_XSP16, literal(-13)))
          CFI (cfiCond106) V5 load(1, XDATA, add(CFA_XSP16, literal(-12)))
          CFI (cfiCond106) V6 load(1, XDATA, add(CFA_XSP16, literal(-11)))
          CFI (cfiCond106) V7 load(1, XDATA, add(CFA_XSP16, literal(-10)))
          CFI (cfiCond106) V8 load(1, XDATA, add(CFA_XSP16, literal(-9)))
          CFI (cfiCond106) V9 load(1, XDATA, add(CFA_XSP16, literal(-8)))
          CFI (cfiCond106) V10 load(1, XDATA, add(CFA_XSP16, literal(-7)))
          CFI (cfiCond106) R7 load(1, XDATA, add(CFA_XSP16, literal(-6)))
          CFI (cfiCond106) ?RET_LOW load(1, XDATA, add(CFA_XSP16, literal(-5)))
          CFI (cfiCond106) ?RET_HIGH load(1, XDATA, add(CFA_XSP16, literal(-4)))
          CFI (cfiCond106) ?BRET_EXT load(1, XDATA, add(CFA_XSP16, literal(-3)))
          CFI (cfiCond106) DPL0 load(1, XDATA, add(CFA_XSP16, literal(-2)))
          CFI (cfiCond106) DPH0 load(1, XDATA, add(CFA_XSP16, literal(-1)))
          CFI (cfiCond106) CFA_SP SP+-2
          CFI (cfiCond106) CFA_XSP16 add(XSP16, 19)
          CFI Block cfiPicker107 Using cfiCommon1
          CFI (cfiPicker107) NoFunction
          CFI (cfiPicker107) Picker
        LCALL     ?Subroutine35 & 0xFFFF
??CrossCallReturnLabel_90:
        INC       DPTR
        INC       DPTR
        INC       DPTR
        INC       DPTR
        RET
          CFI EndBlock cfiCond105
          CFI EndBlock cfiCond106
          CFI EndBlock cfiPicker107

        RSEG BANKED_CODE:HUGECODE:NOROOT(0)
?Subroutine35:
          CFI Block cfiCond108 Using cfiCommon0
          CFI Function afRegisterExtended
          CFI Conditional ??CrossCallReturnLabel_90, ??CrossCallReturnLabel_7
          CFI R6 load(1, XDATA, add(CFA_XSP16, literal(-12)))
          CFI VB load(1, XDATA, add(CFA_XSP16, literal(-11)))
          CFI V0 load(1, XDATA, add(CFA_XSP16, literal(-10)))
          CFI V1 load(1, XDATA, add(CFA_XSP16, literal(-9)))
          CFI V2 load(1, XDATA, add(CFA_XSP16, literal(-8)))
          CFI V3 load(1, XDATA, add(CFA_XSP16, literal(-7)))
          CFI R7 load(1, XDATA, add(CFA_XSP16, literal(-6)))
          CFI ?RET_LOW load(1, XDATA, add(CFA_XSP16, literal(-5)))
          CFI ?RET_HIGH load(1, XDATA, add(CFA_XSP16, literal(-4)))
          CFI ?BRET_EXT load(1, XDATA, add(CFA_XSP16, literal(-3)))
          CFI DPL0 load(1, XDATA, add(CFA_XSP16, literal(-2)))
          CFI DPH0 load(1, XDATA, add(CFA_XSP16, literal(-1)))
          CFI CFA_SP SP+-4
          CFI CFA_XSP16 add(XSP16, 12)
          CFI Block cfiCond109 Using cfiCommon0
          CFI (cfiCond109) Function afBuildMSGIncoming
          CFI (cfiCond109) Conditional ??CrossCallReturnLabel_90, ??CrossCallReturnLabel_8
          CFI (cfiCond109) R6 load(1, XDATA, add(CFA_XSP16, literal(-19)))
          CFI (cfiCond109) VB load(1, XDATA, add(CFA_XSP16, literal(-18)))
          CFI (cfiCond109) V0 load(1, XDATA, add(CFA_XSP16, literal(-17)))
          CFI (cfiCond109) V1 load(1, XDATA, add(CFA_XSP16, literal(-16)))
          CFI (cfiCond109) V2 load(1, XDATA, add(CFA_XSP16, literal(-15)))
          CFI (cfiCond109) V3 load(1, XDATA, add(CFA_XSP16, literal(-14)))
          CFI (cfiCond109) V4 load(1, XDATA, add(CFA_XSP16, literal(-13)))
          CFI (cfiCond109) V5 load(1, XDATA, add(CFA_XSP16, literal(-12)))
          CFI (cfiCond109) V6 load(1, XDATA, add(CFA_XSP16, literal(-11)))
          CFI (cfiCond109) V7 load(1, XDATA, add(CFA_XSP16, literal(-10)))
          CFI (cfiCond109) V8 load(1, XDATA, add(CFA_XSP16, literal(-9)))
          CFI (cfiCond109) V9 load(1, XDATA, add(CFA_XSP16, literal(-8)))
          CFI (cfiCond109) V10 load(1, XDATA, add(CFA_XSP16, literal(-7)))
          CFI (cfiCond109) R7 load(1, XDATA, add(CFA_XSP16, literal(-6)))
          CFI (cfiCond109) ?RET_LOW load(1, XDATA, add(CFA_XSP16, literal(-5)))
          CFI (cfiCond109) ?RET_HIGH load(1, XDATA, add(CFA_XSP16, literal(-4)))
          CFI (cfiCond109) ?BRET_EXT load(1, XDATA, add(CFA_XSP16, literal(-3)))
          CFI (cfiCond109) DPL0 load(1, XDATA, add(CFA_XSP16, literal(-2)))
          CFI (cfiCond109) DPH0 load(1, XDATA, add(CFA_XSP16, literal(-1)))
          CFI (cfiCond109) CFA_SP SP+-4
          CFI (cfiCond109) CFA_XSP16 add(XSP16, 19)
          CFI Block cfiCond110 Using cfiCommon0
          CFI (cfiCond110) Function afRegisterExtended
          CFI (cfiCond110) Conditional ??CrossCallReturnLabel_89, ??CrossCallReturnLabel_3
          CFI (cfiCond110) R6 load(1, XDATA, add(CFA_XSP16, literal(-12)))
          CFI (cfiCond110) VB load(1, XDATA, add(CFA_XSP16, literal(-11)))
          CFI (cfiCond110) V0 load(1, XDATA, add(CFA_XSP16, literal(-10)))
          CFI (cfiCond110) V1 load(1, XDATA, add(CFA_XSP16, literal(-9)))
          CFI (cfiCond110) V2 load(1, XDATA, add(CFA_XSP16, literal(-8)))
          CFI (cfiCond110) V3 load(1, XDATA, add(CFA_XSP16, literal(-7)))
          CFI (cfiCond110) R7 load(1, XDATA, add(CFA_XSP16, literal(-6)))
          CFI (cfiCond110) ?RET_LOW load(1, XDATA, add(CFA_XSP16, literal(-5)))
          CFI (cfiCond110) ?RET_HIGH load(1, XDATA, add(CFA_XSP16, literal(-4)))
          CFI (cfiCond110) ?BRET_EXT load(1, XDATA, add(CFA_XSP16, literal(-3)))
          CFI (cfiCond110) DPL0 load(1, XDATA, add(CFA_XSP16, literal(-2)))
          CFI (cfiCond110) DPH0 load(1, XDATA, add(CFA_XSP16, literal(-1)))
          CFI (cfiCond110) CFA_SP SP+-4
          CFI (cfiCond110) CFA_XSP16 add(XSP16, 12)
          CFI Block cfiCond111 Using cfiCommon0
          CFI (cfiCond111) Function afCopyAddress
          CFI (cfiCond111) Conditional ??CrossCallReturnLabel_89, ??CrossCallReturnLabel_4
          CFI (cfiCond111) R6 load(1, XDATA, add(CFA_XSP16, literal(-9)))
          CFI (cfiCond111) VB load(1, XDATA, add(CFA_XSP16, literal(-8)))
          CFI (cfiCond111) V0 load(1, XDATA, add(CFA_XSP16, literal(-7)))
          CFI (cfiCond111) R7 load(1, XDATA, add(CFA_XSP16, literal(-6)))
          CFI (cfiCond111) ?RET_LOW load(1, XDATA, add(CFA_XSP16, literal(-5)))
          CFI (cfiCond111) ?RET_HIGH load(1, XDATA, add(CFA_XSP16, literal(-4)))
          CFI (cfiCond111) ?BRET_EXT load(1, XDATA, add(CFA_XSP16, literal(-3)))
          CFI (cfiCond111) DPL0 load(1, XDATA, add(CFA_XSP16, literal(-2)))
          CFI (cfiCond111) DPH0 load(1, XDATA, add(CFA_XSP16, literal(-1)))
          CFI (cfiCond111) CFA_SP SP+-4
          CFI (cfiCond111) CFA_XSP16 add(XSP16, 9)
          CFI Block cfiPicker112 Using cfiCommon1
          CFI (cfiPicker112) NoFunction
          CFI (cfiPicker112) Picker
        MOVX      A,@DPTR
        MOV       R0,A
        INC       DPTR
          CFI EndBlock cfiCond108
          CFI EndBlock cfiCond109
          CFI EndBlock cfiCond110
          CFI EndBlock cfiCond111
          CFI EndBlock cfiPicker112
        REQUIRE ??Subroutine42_0
        ; // Fall through to label ??Subroutine42_0

        RSEG BANKED_CODE:HUGECODE:NOROOT(0)
??Subroutine42_0:
          CFI Block cfiCond113 Using cfiCommon0
          CFI Function AF_DataRequestSrcRtg
          CFI Conditional ??CrossCallReturnLabel_88
          CFI R6 load(1, XDATA, add(CFA_XSP16, literal(-12)))
          CFI VB load(1, XDATA, add(CFA_XSP16, literal(-11)))
          CFI V0 load(1, XDATA, add(CFA_XSP16, literal(-10)))
          CFI V1 load(1, XDATA, add(CFA_XSP16, literal(-9)))
          CFI V2 load(1, XDATA, add(CFA_XSP16, literal(-8)))
          CFI V3 load(1, XDATA, add(CFA_XSP16, literal(-7)))
          CFI R7 load(1, XDATA, add(CFA_XSP16, literal(-6)))
          CFI ?RET_LOW load(1, XDATA, add(CFA_XSP16, literal(-5)))
          CFI ?RET_HIGH load(1, XDATA, add(CFA_XSP16, literal(-4)))
          CFI ?BRET_EXT load(1, XDATA, add(CFA_XSP16, literal(-3)))
          CFI DPL0 load(1, XDATA, add(CFA_XSP16, literal(-2)))
          CFI DPH0 load(1, XDATA, add(CFA_XSP16, literal(-1)))
          CFI CFA_SP SP+-2
          CFI CFA_XSP16 add(XSP16, 12)
          CFI Block cfiCond114 Using cfiCommon0
          CFI (cfiCond114) Function afRegisterExtended
          CFI (cfiCond114) Conditional ??CrossCallReturnLabel_90, ??CrossCallReturnLabel_7
          CFI (cfiCond114) R6 load(1, XDATA, add(CFA_XSP16, literal(-12)))
          CFI (cfiCond114) VB load(1, XDATA, add(CFA_XSP16, literal(-11)))
          CFI (cfiCond114) V0 load(1, XDATA, add(CFA_XSP16, literal(-10)))
          CFI (cfiCond114) V1 load(1, XDATA, add(CFA_XSP16, literal(-9)))
          CFI (cfiCond114) V2 load(1, XDATA, add(CFA_XSP16, literal(-8)))
          CFI (cfiCond114) V3 load(1, XDATA, add(CFA_XSP16, literal(-7)))
          CFI (cfiCond114) R7 load(1, XDATA, add(CFA_XSP16, literal(-6)))
          CFI (cfiCond114) ?RET_LOW load(1, XDATA, add(CFA_XSP16, literal(-5)))
          CFI (cfiCond114) ?RET_HIGH load(1, XDATA, add(CFA_XSP16, literal(-4)))
          CFI (cfiCond114) ?BRET_EXT load(1, XDATA, add(CFA_XSP16, literal(-3)))
          CFI (cfiCond114) DPL0 load(1, XDATA, add(CFA_XSP16, literal(-2)))
          CFI (cfiCond114) DPH0 load(1, XDATA, add(CFA_XSP16, literal(-1)))
          CFI (cfiCond114) CFA_SP SP+-4
          CFI (cfiCond114) CFA_XSP16 add(XSP16, 12)
          CFI Block cfiCond115 Using cfiCommon0
          CFI (cfiCond115) Function afBuildMSGIncoming
          CFI (cfiCond115) Conditional ??CrossCallReturnLabel_90, ??CrossCallReturnLabel_8
          CFI (cfiCond115) R6 load(1, XDATA, add(CFA_XSP16, literal(-19)))
          CFI (cfiCond115) VB load(1, XDATA, add(CFA_XSP16, literal(-18)))
          CFI (cfiCond115) V0 load(1, XDATA, add(CFA_XSP16, literal(-17)))
          CFI (cfiCond115) V1 load(1, XDATA, add(CFA_XSP16, literal(-16)))
          CFI (cfiCond115) V2 load(1, XDATA, add(CFA_XSP16, literal(-15)))
          CFI (cfiCond115) V3 load(1, XDATA, add(CFA_XSP16, literal(-14)))
          CFI (cfiCond115) V4 load(1, XDATA, add(CFA_XSP16, literal(-13)))
          CFI (cfiCond115) V5 load(1, XDATA, add(CFA_XSP16, literal(-12)))
          CFI (cfiCond115) V6 load(1, XDATA, add(CFA_XSP16, literal(-11)))
          CFI (cfiCond115) V7 load(1, XDATA, add(CFA_XSP16, literal(-10)))
          CFI (cfiCond115) V8 load(1, XDATA, add(CFA_XSP16, literal(-9)))
          CFI (cfiCond115) V9 load(1, XDATA, add(CFA_XSP16, literal(-8)))
          CFI (cfiCond115) V10 load(1, XDATA, add(CFA_XSP16, literal(-7)))
          CFI (cfiCond115) R7 load(1, XDATA, add(CFA_XSP16, literal(-6)))
          CFI (cfiCond115) ?RET_LOW load(1, XDATA, add(CFA_XSP16, literal(-5)))
          CFI (cfiCond115) ?RET_HIGH load(1, XDATA, add(CFA_XSP16, literal(-4)))
          CFI (cfiCond115) ?BRET_EXT load(1, XDATA, add(CFA_XSP16, literal(-3)))
          CFI (cfiCond115) DPL0 load(1, XDATA, add(CFA_XSP16, literal(-2)))
          CFI (cfiCond115) DPH0 load(1, XDATA, add(CFA_XSP16, literal(-1)))
          CFI (cfiCond115) CFA_SP SP+-4
          CFI (cfiCond115) CFA_XSP16 add(XSP16, 19)
          CFI Block cfiCond116 Using cfiCommon0
          CFI (cfiCond116) Function afRegisterExtended
          CFI (cfiCond116) Conditional ??CrossCallReturnLabel_89, ??CrossCallReturnLabel_3
          CFI (cfiCond116) R6 load(1, XDATA, add(CFA_XSP16, literal(-12)))
          CFI (cfiCond116) VB load(1, XDATA, add(CFA_XSP16, literal(-11)))
          CFI (cfiCond116) V0 load(1, XDATA, add(CFA_XSP16, literal(-10)))
          CFI (cfiCond116) V1 load(1, XDATA, add(CFA_XSP16, literal(-9)))
          CFI (cfiCond116) V2 load(1, XDATA, add(CFA_XSP16, literal(-8)))
          CFI (cfiCond116) V3 load(1, XDATA, add(CFA_XSP16, literal(-7)))
          CFI (cfiCond116) R7 load(1, XDATA, add(CFA_XSP16, literal(-6)))
          CFI (cfiCond116) ?RET_LOW load(1, XDATA, add(CFA_XSP16, literal(-5)))
          CFI (cfiCond116) ?RET_HIGH load(1, XDATA, add(CFA_XSP16, literal(-4)))
          CFI (cfiCond116) ?BRET_EXT load(1, XDATA, add(CFA_XSP16, literal(-3)))
          CFI (cfiCond116) DPL0 load(1, XDATA, add(CFA_XSP16, literal(-2)))
          CFI (cfiCond116) DPH0 load(1, XDATA, add(CFA_XSP16, literal(-1)))
          CFI (cfiCond116) CFA_SP SP+-4
          CFI (cfiCond116) CFA_XSP16 add(XSP16, 12)
          CFI Block cfiCond117 Using cfiCommon0
          CFI (cfiCond117) Function afCopyAddress
          CFI (cfiCond117) Conditional ??CrossCallReturnLabel_89, ??CrossCallReturnLabel_4
          CFI (cfiCond117) R6 load(1, XDATA, add(CFA_XSP16, literal(-9)))
          CFI (cfiCond117) VB load(1, XDATA, add(CFA_XSP16, literal(-8)))
          CFI (cfiCond117) V0 load(1, XDATA, add(CFA_XSP16, literal(-7)))
          CFI (cfiCond117) R7 load(1, XDATA, add(CFA_XSP16, literal(-6)))
          CFI (cfiCond117) ?RET_LOW load(1, XDATA, add(CFA_XSP16, literal(-5)))
          CFI (cfiCond117) ?RET_HIGH load(1, XDATA, add(CFA_XSP16, literal(-4)))
          CFI (cfiCond117) ?BRET_EXT load(1, XDATA, add(CFA_XSP16, literal(-3)))
          CFI (cfiCond117) DPL0 load(1, XDATA, add(CFA_XSP16, literal(-2)))
          CFI (cfiCond117) DPH0 load(1, XDATA, add(CFA_XSP16, literal(-1)))
          CFI (cfiCond117) CFA_SP SP+-4
          CFI (cfiCond117) CFA_XSP16 add(XSP16, 9)
          CFI Block cfiPicker118 Using cfiCommon1
          CFI (cfiPicker118) NoFunction
          CFI (cfiPicker118) Picker
        MOVX      A,@DPTR
        MOV       R1,A
        MOV       DPL,R2
        MOV       DPH,R3
        RET
          CFI EndBlock cfiCond113
          CFI EndBlock cfiCond114
          CFI EndBlock cfiCond115
          CFI EndBlock cfiCond116
          CFI EndBlock cfiCond117
          CFI EndBlock cfiPicker118

        RSEG BANKED_CODE:HUGECODE:NOROOT(0)
?Subroutine4:
          CFI Block cfiCond119 Using cfiCommon0
          CFI Function afIncomingData
          CFI Conditional ??CrossCallReturnLabel_98
          CFI R6 load(1, XDATA, add(CFA_XSP16, literal(-24)))
          CFI VB load(1, XDATA, add(CFA_XSP16, literal(-23)))
          CFI V0 load(1, XDATA, add(CFA_XSP16, literal(-22)))
          CFI V1 load(1, XDATA, add(CFA_XSP16, literal(-21)))
          CFI V2 load(1, XDATA, add(CFA_XSP16, literal(-20)))
          CFI V3 load(1, XDATA, add(CFA_XSP16, literal(-19)))
          CFI V4 load(1, XDATA, add(CFA_XSP16, literal(-18)))
          CFI V5 load(1, XDATA, add(CFA_XSP16, literal(-17)))
          CFI V6 load(1, XDATA, add(CFA_XSP16, literal(-16)))
          CFI V7 load(1, XDATA, add(CFA_XSP16, literal(-15)))
          CFI V8 load(1, XDATA, add(CFA_XSP16, literal(-14)))
          CFI V9 load(1, XDATA, add(CFA_XSP16, literal(-13)))
          CFI V10 load(1, XDATA, add(CFA_XSP16, literal(-12)))
          CFI V11 load(1, XDATA, add(CFA_XSP16, literal(-11)))
          CFI V12 load(1, XDATA, add(CFA_XSP16, literal(-10)))
          CFI V13 load(1, XDATA, add(CFA_XSP16, literal(-9)))
          CFI V14 load(1, XDATA, add(CFA_XSP16, literal(-8)))
          CFI V15 load(1, XDATA, add(CFA_XSP16, literal(-7)))
          CFI R7 load(1, XDATA, add(CFA_XSP16, literal(-6)))
          CFI ?RET_LOW load(1, XDATA, add(CFA_XSP16, literal(-5)))
          CFI ?RET_HIGH load(1, XDATA, add(CFA_XSP16, literal(-4)))
          CFI ?BRET_EXT load(1, XDATA, add(CFA_XSP16, literal(-3)))
          CFI DPL0 load(1, XDATA, add(CFA_XSP16, literal(-2)))
          CFI DPH0 load(1, XDATA, add(CFA_XSP16, literal(-1)))
          CFI CFA_SP SP+-2
          CFI CFA_XSP16 add(XSP16, 28)
          CFI Block cfiCond120 Using cfiCommon0
          CFI (cfiCond120) Function AF_DataRequest
          CFI (cfiCond120) Conditional ??CrossCallReturnLabel_99
          CFI (cfiCond120) R6 load(1, XDATA, add(CFA_XSP16, literal(-18)))
          CFI (cfiCond120) VB load(1, XDATA, add(CFA_XSP16, literal(-17)))
          CFI (cfiCond120) V0 load(1, XDATA, add(CFA_XSP16, literal(-16)))
          CFI (cfiCond120) V1 load(1, XDATA, add(CFA_XSP16, literal(-15)))
          CFI (cfiCond120) V2 load(1, XDATA, add(CFA_XSP16, literal(-14)))
          CFI (cfiCond120) V3 load(1, XDATA, add(CFA_XSP16, literal(-13)))
          CFI (cfiCond120) V4 load(1, XDATA, add(CFA_XSP16, literal(-12)))
          CFI (cfiCond120) V5 load(1, XDATA, add(CFA_XSP16, literal(-11)))
          CFI (cfiCond120) V6 load(1, XDATA, add(CFA_XSP16, literal(-10)))
          CFI (cfiCond120) V7 load(1, XDATA, add(CFA_XSP16, literal(-9)))
          CFI (cfiCond120) V8 load(1, XDATA, add(CFA_XSP16, literal(-8)))
          CFI (cfiCond120) V9 load(1, XDATA, add(CFA_XSP16, literal(-7)))
          CFI (cfiCond120) R7 load(1, XDATA, add(CFA_XSP16, literal(-6)))
          CFI (cfiCond120) ?RET_LOW load(1, XDATA, add(CFA_XSP16, literal(-5)))
          CFI (cfiCond120) ?RET_HIGH load(1, XDATA, add(CFA_XSP16, literal(-4)))
          CFI (cfiCond120) ?BRET_EXT load(1, XDATA, add(CFA_XSP16, literal(-3)))
          CFI (cfiCond120) DPL0 load(1, XDATA, add(CFA_XSP16, literal(-2)))
          CFI (cfiCond120) DPH0 load(1, XDATA, add(CFA_XSP16, literal(-1)))
          CFI (cfiCond120) CFA_SP SP+-2
          CFI (cfiCond120) CFA_XSP16 add(XSP16, 51)
          CFI Block cfiPicker121 Using cfiCommon1
          CFI (cfiPicker121) NoFunction
          CFI (cfiPicker121) Picker
        MOV       DPL,?V0
        MOV       DPH,?V1
          CFI EndBlock cfiCond119
          CFI EndBlock cfiCond120
          CFI EndBlock cfiPicker121
        REQUIRE ??Subroutine43_0
        ; // Fall through to label ??Subroutine43_0

        RSEG BANKED_CODE:HUGECODE:NOROOT(0)
??Subroutine43_0:
          CFI Block cfiCond122 Using cfiCommon0
          CFI Function afIncomingData
          CFI Conditional ??CrossCallReturnLabel_96
          CFI R6 load(1, XDATA, add(CFA_XSP16, literal(-24)))
          CFI VB load(1, XDATA, add(CFA_XSP16, literal(-23)))
          CFI V0 load(1, XDATA, add(CFA_XSP16, literal(-22)))
          CFI V1 load(1, XDATA, add(CFA_XSP16, literal(-21)))
          CFI V2 load(1, XDATA, add(CFA_XSP16, literal(-20)))
          CFI V3 load(1, XDATA, add(CFA_XSP16, literal(-19)))
          CFI V4 load(1, XDATA, add(CFA_XSP16, literal(-18)))
          CFI V5 load(1, XDATA, add(CFA_XSP16, literal(-17)))
          CFI V6 load(1, XDATA, add(CFA_XSP16, literal(-16)))
          CFI V7 load(1, XDATA, add(CFA_XSP16, literal(-15)))
          CFI V8 load(1, XDATA, add(CFA_XSP16, literal(-14)))
          CFI V9 load(1, XDATA, add(CFA_XSP16, literal(-13)))
          CFI V10 load(1, XDATA, add(CFA_XSP16, literal(-12)))
          CFI V11 load(1, XDATA, add(CFA_XSP16, literal(-11)))
          CFI V12 load(1, XDATA, add(CFA_XSP16, literal(-10)))
          CFI V13 load(1, XDATA, add(CFA_XSP16, literal(-9)))
          CFI V14 load(1, XDATA, add(CFA_XSP16, literal(-8)))
          CFI V15 load(1, XDATA, add(CFA_XSP16, literal(-7)))
          CFI R7 load(1, XDATA, add(CFA_XSP16, literal(-6)))
          CFI ?RET_LOW load(1, XDATA, add(CFA_XSP16, literal(-5)))
          CFI ?RET_HIGH load(1, XDATA, add(CFA_XSP16, literal(-4)))
          CFI ?BRET_EXT load(1, XDATA, add(CFA_XSP16, literal(-3)))
          CFI DPL0 load(1, XDATA, add(CFA_XSP16, literal(-2)))
          CFI DPH0 load(1, XDATA, add(CFA_XSP16, literal(-1)))
          CFI CFA_SP SP+-2
          CFI CFA_XSP16 add(XSP16, 28)
          CFI Block cfiCond123 Using cfiCommon0
          CFI (cfiCond123) Function AF_DataRequest
          CFI (cfiCond123) Conditional ??CrossCallReturnLabel_97
          CFI (cfiCond123) R6 load(1, XDATA, add(CFA_XSP16, literal(-18)))
          CFI (cfiCond123) VB load(1, XDATA, add(CFA_XSP16, literal(-17)))
          CFI (cfiCond123) V0 load(1, XDATA, add(CFA_XSP16, literal(-16)))
          CFI (cfiCond123) V1 load(1, XDATA, add(CFA_XSP16, literal(-15)))
          CFI (cfiCond123) V2 load(1, XDATA, add(CFA_XSP16, literal(-14)))
          CFI (cfiCond123) V3 load(1, XDATA, add(CFA_XSP16, literal(-13)))
          CFI (cfiCond123) V4 load(1, XDATA, add(CFA_XSP16, literal(-12)))
          CFI (cfiCond123) V5 load(1, XDATA, add(CFA_XSP16, literal(-11)))
          CFI (cfiCond123) V6 load(1, XDATA, add(CFA_XSP16, literal(-10)))
          CFI (cfiCond123) V7 load(1, XDATA, add(CFA_XSP16, literal(-9)))
          CFI (cfiCond123) V8 load(1, XDATA, add(CFA_XSP16, literal(-8)))
          CFI (cfiCond123) V9 load(1, XDATA, add(CFA_XSP16, literal(-7)))
          CFI (cfiCond123) R7 load(1, XDATA, add(CFA_XSP16, literal(-6)))
          CFI (cfiCond123) ?RET_LOW load(1, XDATA, add(CFA_XSP16, literal(-5)))
          CFI (cfiCond123) ?RET_HIGH load(1, XDATA, add(CFA_XSP16, literal(-4)))
          CFI (cfiCond123) ?BRET_EXT load(1, XDATA, add(CFA_XSP16, literal(-3)))
          CFI (cfiCond123) DPL0 load(1, XDATA, add(CFA_XSP16, literal(-2)))
          CFI (cfiCond123) DPH0 load(1, XDATA, add(CFA_XSP16, literal(-1)))
          CFI (cfiCond123) CFA_SP SP+-2
          CFI (cfiCond123) CFA_XSP16 add(XSP16, 51)
          CFI Block cfiCond124 Using cfiCommon0
          CFI (cfiCond124) Function afIncomingData
          CFI (cfiCond124) Conditional ??CrossCallReturnLabel_98
          CFI (cfiCond124) R6 load(1, XDATA, add(CFA_XSP16, literal(-24)))
          CFI (cfiCond124) VB load(1, XDATA, add(CFA_XSP16, literal(-23)))
          CFI (cfiCond124) V0 load(1, XDATA, add(CFA_XSP16, literal(-22)))
          CFI (cfiCond124) V1 load(1, XDATA, add(CFA_XSP16, literal(-21)))
          CFI (cfiCond124) V2 load(1, XDATA, add(CFA_XSP16, literal(-20)))
          CFI (cfiCond124) V3 load(1, XDATA, add(CFA_XSP16, literal(-19)))
          CFI (cfiCond124) V4 load(1, XDATA, add(CFA_XSP16, literal(-18)))
          CFI (cfiCond124) V5 load(1, XDATA, add(CFA_XSP16, literal(-17)))
          CFI (cfiCond124) V6 load(1, XDATA, add(CFA_XSP16, literal(-16)))
          CFI (cfiCond124) V7 load(1, XDATA, add(CFA_XSP16, literal(-15)))
          CFI (cfiCond124) V8 load(1, XDATA, add(CFA_XSP16, literal(-14)))
          CFI (cfiCond124) V9 load(1, XDATA, add(CFA_XSP16, literal(-13)))
          CFI (cfiCond124) V10 load(1, XDATA, add(CFA_XSP16, literal(-12)))
          CFI (cfiCond124) V11 load(1, XDATA, add(CFA_XSP16, literal(-11)))
          CFI (cfiCond124) V12 load(1, XDATA, add(CFA_XSP16, literal(-10)))
          CFI (cfiCond124) V13 load(1, XDATA, add(CFA_XSP16, literal(-9)))
          CFI (cfiCond124) V14 load(1, XDATA, add(CFA_XSP16, literal(-8)))
          CFI (cfiCond124) V15 load(1, XDATA, add(CFA_XSP16, literal(-7)))
          CFI (cfiCond124) R7 load(1, XDATA, add(CFA_XSP16, literal(-6)))
          CFI (cfiCond124) ?RET_LOW load(1, XDATA, add(CFA_XSP16, literal(-5)))
          CFI (cfiCond124) ?RET_HIGH load(1, XDATA, add(CFA_XSP16, literal(-4)))
          CFI (cfiCond124) ?BRET_EXT load(1, XDATA, add(CFA_XSP16, literal(-3)))
          CFI (cfiCond124) DPL0 load(1, XDATA, add(CFA_XSP16, literal(-2)))
          CFI (cfiCond124) DPH0 load(1, XDATA, add(CFA_XSP16, literal(-1)))
          CFI (cfiCond124) CFA_SP SP+-2
          CFI (cfiCond124) CFA_XSP16 add(XSP16, 28)
          CFI Block cfiCond125 Using cfiCommon0
          CFI (cfiCond125) Function AF_DataRequest
          CFI (cfiCond125) Conditional ??CrossCallReturnLabel_99
          CFI (cfiCond125) R6 load(1, XDATA, add(CFA_XSP16, literal(-18)))
          CFI (cfiCond125) VB load(1, XDATA, add(CFA_XSP16, literal(-17)))
          CFI (cfiCond125) V0 load(1, XDATA, add(CFA_XSP16, literal(-16)))
          CFI (cfiCond125) V1 load(1, XDATA, add(CFA_XSP16, literal(-15)))
          CFI (cfiCond125) V2 load(1, XDATA, add(CFA_XSP16, literal(-14)))
          CFI (cfiCond125) V3 load(1, XDATA, add(CFA_XSP16, literal(-13)))
          CFI (cfiCond125) V4 load(1, XDATA, add(CFA_XSP16, literal(-12)))
          CFI (cfiCond125) V5 load(1, XDATA, add(CFA_XSP16, literal(-11)))
          CFI (cfiCond125) V6 load(1, XDATA, add(CFA_XSP16, literal(-10)))
          CFI (cfiCond125) V7 load(1, XDATA, add(CFA_XSP16, literal(-9)))
          CFI (cfiCond125) V8 load(1, XDATA, add(CFA_XSP16, literal(-8)))
          CFI (cfiCond125) V9 load(1, XDATA, add(CFA_XSP16, literal(-7)))
          CFI (cfiCond125) R7 load(1, XDATA, add(CFA_XSP16, literal(-6)))
          CFI (cfiCond125) ?RET_LOW load(1, XDATA, add(CFA_XSP16, literal(-5)))
          CFI (cfiCond125) ?RET_HIGH load(1, XDATA, add(CFA_XSP16, literal(-4)))
          CFI (cfiCond125) ?BRET_EXT load(1, XDATA, add(CFA_XSP16, literal(-3)))
          CFI (cfiCond125) DPL0 load(1, XDATA, add(CFA_XSP16, literal(-2)))
          CFI (cfiCond125) DPH0 load(1, XDATA, add(CFA_XSP16, literal(-1)))
          CFI (cfiCond125) CFA_SP SP+-2
          CFI (cfiCond125) CFA_XSP16 add(XSP16, 51)
          CFI Block cfiPicker126 Using cfiCommon1
          CFI (cfiPicker126) NoFunction
          CFI (cfiPicker126) Picker
        INC       DPTR
        INC       DPTR
        INC       DPTR
        INC       DPTR
          CFI EndBlock cfiCond122
          CFI EndBlock cfiCond123
          CFI EndBlock cfiCond124
          CFI EndBlock cfiCond125
          CFI EndBlock cfiPicker126
        REQUIRE ??Subroutine44_0
        ; // Fall through to label ??Subroutine44_0

        RSEG BANKED_CODE:HUGECODE:NOROOT(0)
??Subroutine44_0:
          CFI Block cfiCond127 Using cfiCommon0
          CFI Function afDelete
          CFI Conditional ??CrossCallReturnLabel_92
          CFI R6 load(1, XDATA, add(CFA_XSP16, literal(-9)))
          CFI VB load(1, XDATA, add(CFA_XSP16, literal(-8)))
          CFI V0 load(1, XDATA, add(CFA_XSP16, literal(-7)))
          CFI R7 load(1, XDATA, add(CFA_XSP16, literal(-6)))
          CFI ?RET_LOW load(1, XDATA, add(CFA_XSP16, literal(-5)))
          CFI ?RET_HIGH load(1, XDATA, add(CFA_XSP16, literal(-4)))
          CFI ?BRET_EXT load(1, XDATA, add(CFA_XSP16, literal(-3)))
          CFI DPL0 load(1, XDATA, add(CFA_XSP16, literal(-2)))
          CFI DPH0 load(1, XDATA, add(CFA_XSP16, literal(-1)))
          CFI CFA_SP SP+-2
          CFI CFA_XSP16 add(XSP16, 9)
          CFI Block cfiCond128 Using cfiCommon0
          CFI (cfiCond128) Function afIncomingData
          CFI (cfiCond128) Conditional ??CrossCallReturnLabel_93
          CFI (cfiCond128) R6 load(1, XDATA, add(CFA_XSP16, literal(-24)))
          CFI (cfiCond128) VB load(1, XDATA, add(CFA_XSP16, literal(-23)))
          CFI (cfiCond128) V0 load(1, XDATA, add(CFA_XSP16, literal(-22)))
          CFI (cfiCond128) V1 load(1, XDATA, add(CFA_XSP16, literal(-21)))
          CFI (cfiCond128) V2 load(1, XDATA, add(CFA_XSP16, literal(-20)))
          CFI (cfiCond128) V3 load(1, XDATA, add(CFA_XSP16, literal(-19)))
          CFI (cfiCond128) V4 load(1, XDATA, add(CFA_XSP16, literal(-18)))
          CFI (cfiCond128) V5 load(1, XDATA, add(CFA_XSP16, literal(-17)))
          CFI (cfiCond128) V6 load(1, XDATA, add(CFA_XSP16, literal(-16)))
          CFI (cfiCond128) V7 load(1, XDATA, add(CFA_XSP16, literal(-15)))
          CFI (cfiCond128) V8 load(1, XDATA, add(CFA_XSP16, literal(-14)))
          CFI (cfiCond128) V9 load(1, XDATA, add(CFA_XSP16, literal(-13)))
          CFI (cfiCond128) V10 load(1, XDATA, add(CFA_XSP16, literal(-12)))
          CFI (cfiCond128) V11 load(1, XDATA, add(CFA_XSP16, literal(-11)))
          CFI (cfiCond128) V12 load(1, XDATA, add(CFA_XSP16, literal(-10)))
          CFI (cfiCond128) V13 load(1, XDATA, add(CFA_XSP16, literal(-9)))
          CFI (cfiCond128) V14 load(1, XDATA, add(CFA_XSP16, literal(-8)))
          CFI (cfiCond128) V15 load(1, XDATA, add(CFA_XSP16, literal(-7)))
          CFI (cfiCond128) R7 load(1, XDATA, add(CFA_XSP16, literal(-6)))
          CFI (cfiCond128) ?RET_LOW load(1, XDATA, add(CFA_XSP16, literal(-5)))
          CFI (cfiCond128) ?RET_HIGH load(1, XDATA, add(CFA_XSP16, literal(-4)))
          CFI (cfiCond128) ?BRET_EXT load(1, XDATA, add(CFA_XSP16, literal(-3)))
          CFI (cfiCond128) DPL0 load(1, XDATA, add(CFA_XSP16, literal(-2)))
          CFI (cfiCond128) DPH0 load(1, XDATA, add(CFA_XSP16, literal(-1)))
          CFI (cfiCond128) CFA_SP SP+-2
          CFI (cfiCond128) CFA_XSP16 add(XSP16, 28)
          CFI Block cfiCond129 Using cfiCommon0
          CFI (cfiCond129) Function afBuildMSGIncoming
          CFI (cfiCond129) Conditional ??CrossCallReturnLabel_94
          CFI (cfiCond129) R6 load(1, XDATA, add(CFA_XSP16, literal(-19)))
          CFI (cfiCond129) VB load(1, XDATA, add(CFA_XSP16, literal(-18)))
          CFI (cfiCond129) V0 load(1, XDATA, add(CFA_XSP16, literal(-17)))
          CFI (cfiCond129) V1 load(1, XDATA, add(CFA_XSP16, literal(-16)))
          CFI (cfiCond129) V2 load(1, XDATA, add(CFA_XSP16, literal(-15)))
          CFI (cfiCond129) V3 load(1, XDATA, add(CFA_XSP16, literal(-14)))
          CFI (cfiCond129) V4 load(1, XDATA, add(CFA_XSP16, literal(-13)))
          CFI (cfiCond129) V5 load(1, XDATA, add(CFA_XSP16, literal(-12)))
          CFI (cfiCond129) V6 load(1, XDATA, add(CFA_XSP16, literal(-11)))
          CFI (cfiCond129) V7 load(1, XDATA, add(CFA_XSP16, literal(-10)))
          CFI (cfiCond129) V8 load(1, XDATA, add(CFA_XSP16, literal(-9)))
          CFI (cfiCond129) V9 load(1, XDATA, add(CFA_XSP16, literal(-8)))
          CFI (cfiCond129) V10 load(1, XDATA, add(CFA_XSP16, literal(-7)))
          CFI (cfiCond129) R7 load(1, XDATA, add(CFA_XSP16, literal(-6)))
          CFI (cfiCond129) ?RET_LOW load(1, XDATA, add(CFA_XSP16, literal(-5)))
          CFI (cfiCond129) ?RET_HIGH load(1, XDATA, add(CFA_XSP16, literal(-4)))
          CFI (cfiCond129) ?BRET_EXT load(1, XDATA, add(CFA_XSP16, literal(-3)))
          CFI (cfiCond129) DPL0 load(1, XDATA, add(CFA_XSP16, literal(-2)))
          CFI (cfiCond129) DPH0 load(1, XDATA, add(CFA_XSP16, literal(-1)))
          CFI (cfiCond129) CFA_SP SP+-2
          CFI (cfiCond129) CFA_XSP16 add(XSP16, 19)
          CFI Block cfiCond130 Using cfiCommon0
          CFI (cfiCond130) Function AF_DataRequest
          CFI (cfiCond130) Conditional ??CrossCallReturnLabel_91
          CFI (cfiCond130) R6 load(1, XDATA, add(CFA_XSP16, literal(-18)))
          CFI (cfiCond130) VB load(1, XDATA, add(CFA_XSP16, literal(-17)))
          CFI (cfiCond130) V0 load(1, XDATA, add(CFA_XSP16, literal(-16)))
          CFI (cfiCond130) V1 load(1, XDATA, add(CFA_XSP16, literal(-15)))
          CFI (cfiCond130) V2 load(1, XDATA, add(CFA_XSP16, literal(-14)))
          CFI (cfiCond130) V3 load(1, XDATA, add(CFA_XSP16, literal(-13)))
          CFI (cfiCond130) V4 load(1, XDATA, add(CFA_XSP16, literal(-12)))
          CFI (cfiCond130) V5 load(1, XDATA, add(CFA_XSP16, literal(-11)))
          CFI (cfiCond130) V6 load(1, XDATA, add(CFA_XSP16, literal(-10)))
          CFI (cfiCond130) V7 load(1, XDATA, add(CFA_XSP16, literal(-9)))
          CFI (cfiCond130) V8 load(1, XDATA, add(CFA_XSP16, literal(-8)))
          CFI (cfiCond130) V9 load(1, XDATA, add(CFA_XSP16, literal(-7)))
          CFI (cfiCond130) R7 load(1, XDATA, add(CFA_XSP16, literal(-6)))
          CFI (cfiCond130) ?RET_LOW load(1, XDATA, add(CFA_XSP16, literal(-5)))
          CFI (cfiCond130) ?RET_HIGH load(1, XDATA, add(CFA_XSP16, literal(-4)))
          CFI (cfiCond130) ?BRET_EXT load(1, XDATA, add(CFA_XSP16, literal(-3)))
          CFI (cfiCond130) DPL0 load(1, XDATA, add(CFA_XSP16, literal(-2)))
          CFI (cfiCond130) DPH0 load(1, XDATA, add(CFA_XSP16, literal(-1)))
          CFI (cfiCond130) CFA_SP SP+-2
          CFI (cfiCond130) CFA_XSP16 add(XSP16, 51)
          CFI Block cfiCond131 Using cfiCommon0
          CFI (cfiCond131) Function AF_DataRequest
          CFI (cfiCond131) Conditional ??CrossCallReturnLabel_95
          CFI (cfiCond131) R6 load(1, XDATA, add(CFA_XSP16, literal(-18)))
          CFI (cfiCond131) VB load(1, XDATA, add(CFA_XSP16, literal(-17)))
          CFI (cfiCond131) V0 load(1, XDATA, add(CFA_XSP16, literal(-16)))
          CFI (cfiCond131) V1 load(1, XDATA, add(CFA_XSP16, literal(-15)))
          CFI (cfiCond131) V2 load(1, XDATA, add(CFA_XSP16, literal(-14)))
          CFI (cfiCond131) V3 load(1, XDATA, add(CFA_XSP16, literal(-13)))
          CFI (cfiCond131) V4 load(1, XDATA, add(CFA_XSP16, literal(-12)))
          CFI (cfiCond131) V5 load(1, XDATA, add(CFA_XSP16, literal(-11)))
          CFI (cfiCond131) V6 load(1, XDATA, add(CFA_XSP16, literal(-10)))
          CFI (cfiCond131) V7 load(1, XDATA, add(CFA_XSP16, literal(-9)))
          CFI (cfiCond131) V8 load(1, XDATA, add(CFA_XSP16, literal(-8)))
          CFI (cfiCond131) V9 load(1, XDATA, add(CFA_XSP16, literal(-7)))
          CFI (cfiCond131) R7 load(1, XDATA, add(CFA_XSP16, literal(-6)))
          CFI (cfiCond131) ?RET_LOW load(1, XDATA, add(CFA_XSP16, literal(-5)))
          CFI (cfiCond131) ?RET_HIGH load(1, XDATA, add(CFA_XSP16, literal(-4)))
          CFI (cfiCond131) ?BRET_EXT load(1, XDATA, add(CFA_XSP16, literal(-3)))
          CFI (cfiCond131) DPL0 load(1, XDATA, add(CFA_XSP16, literal(-2)))
          CFI (cfiCond131) DPH0 load(1, XDATA, add(CFA_XSP16, literal(-1)))
          CFI (cfiCond131) CFA_SP SP+-2
          CFI (cfiCond131) CFA_XSP16 add(XSP16, 51)
          CFI Block cfiCond132 Using cfiCommon0
          CFI (cfiCond132) Function afIncomingData
          CFI (cfiCond132) Conditional ??CrossCallReturnLabel_96
          CFI (cfiCond132) R6 load(1, XDATA, add(CFA_XSP16, literal(-24)))
          CFI (cfiCond132) VB load(1, XDATA, add(CFA_XSP16, literal(-23)))
          CFI (cfiCond132) V0 load(1, XDATA, add(CFA_XSP16, literal(-22)))
          CFI (cfiCond132) V1 load(1, XDATA, add(CFA_XSP16, literal(-21)))
          CFI (cfiCond132) V2 load(1, XDATA, add(CFA_XSP16, literal(-20)))
          CFI (cfiCond132) V3 load(1, XDATA, add(CFA_XSP16, literal(-19)))
          CFI (cfiCond132) V4 load(1, XDATA, add(CFA_XSP16, literal(-18)))
          CFI (cfiCond132) V5 load(1, XDATA, add(CFA_XSP16, literal(-17)))
          CFI (cfiCond132) V6 load(1, XDATA, add(CFA_XSP16, literal(-16)))
          CFI (cfiCond132) V7 load(1, XDATA, add(CFA_XSP16, literal(-15)))
          CFI (cfiCond132) V8 load(1, XDATA, add(CFA_XSP16, literal(-14)))
          CFI (cfiCond132) V9 load(1, XDATA, add(CFA_XSP16, literal(-13)))
          CFI (cfiCond132) V10 load(1, XDATA, add(CFA_XSP16, literal(-12)))
          CFI (cfiCond132) V11 load(1, XDATA, add(CFA_XSP16, literal(-11)))
          CFI (cfiCond132) V12 load(1, XDATA, add(CFA_XSP16, literal(-10)))
          CFI (cfiCond132) V13 load(1, XDATA, add(CFA_XSP16, literal(-9)))
          CFI (cfiCond132) V14 load(1, XDATA, add(CFA_XSP16, literal(-8)))
          CFI (cfiCond132) V15 load(1, XDATA, add(CFA_XSP16, literal(-7)))
          CFI (cfiCond132) R7 load(1, XDATA, add(CFA_XSP16, literal(-6)))
          CFI (cfiCond132) ?RET_LOW load(1, XDATA, add(CFA_XSP16, literal(-5)))
          CFI (cfiCond132) ?RET_HIGH load(1, XDATA, add(CFA_XSP16, literal(-4)))
          CFI (cfiCond132) ?BRET_EXT load(1, XDATA, add(CFA_XSP16, literal(-3)))
          CFI (cfiCond132) DPL0 load(1, XDATA, add(CFA_XSP16, literal(-2)))
          CFI (cfiCond132) DPH0 load(1, XDATA, add(CFA_XSP16, literal(-1)))
          CFI (cfiCond132) CFA_SP SP+-2
          CFI (cfiCond132) CFA_XSP16 add(XSP16, 28)
          CFI Block cfiCond133 Using cfiCommon0
          CFI (cfiCond133) Function AF_DataRequest
          CFI (cfiCond133) Conditional ??CrossCallReturnLabel_97
          CFI (cfiCond133) R6 load(1, XDATA, add(CFA_XSP16, literal(-18)))
          CFI (cfiCond133) VB load(1, XDATA, add(CFA_XSP16, literal(-17)))
          CFI (cfiCond133) V0 load(1, XDATA, add(CFA_XSP16, literal(-16)))
          CFI (cfiCond133) V1 load(1, XDATA, add(CFA_XSP16, literal(-15)))
          CFI (cfiCond133) V2 load(1, XDATA, add(CFA_XSP16, literal(-14)))
          CFI (cfiCond133) V3 load(1, XDATA, add(CFA_XSP16, literal(-13)))
          CFI (cfiCond133) V4 load(1, XDATA, add(CFA_XSP16, literal(-12)))
          CFI (cfiCond133) V5 load(1, XDATA, add(CFA_XSP16, literal(-11)))
          CFI (cfiCond133) V6 load(1, XDATA, add(CFA_XSP16, literal(-10)))
          CFI (cfiCond133) V7 load(1, XDATA, add(CFA_XSP16, literal(-9)))
          CFI (cfiCond133) V8 load(1, XDATA, add(CFA_XSP16, literal(-8)))
          CFI (cfiCond133) V9 load(1, XDATA, add(CFA_XSP16, literal(-7)))
          CFI (cfiCond133) R7 load(1, XDATA, add(CFA_XSP16, literal(-6)))
          CFI (cfiCond133) ?RET_LOW load(1, XDATA, add(CFA_XSP16, literal(-5)))
          CFI (cfiCond133) ?RET_HIGH load(1, XDATA, add(CFA_XSP16, literal(-4)))
          CFI (cfiCond133) ?BRET_EXT load(1, XDATA, add(CFA_XSP16, literal(-3)))
          CFI (cfiCond133) DPL0 load(1, XDATA, add(CFA_XSP16, literal(-2)))
          CFI (cfiCond133) DPH0 load(1, XDATA, add(CFA_XSP16, literal(-1)))
          CFI (cfiCond133) CFA_SP SP+-2
          CFI (cfiCond133) CFA_XSP16 add(XSP16, 51)
          CFI Block cfiCond134 Using cfiCommon0
          CFI (cfiCond134) Function afIncomingData
          CFI (cfiCond134) Conditional ??CrossCallReturnLabel_98
          CFI (cfiCond134) R6 load(1, XDATA, add(CFA_XSP16, literal(-24)))
          CFI (cfiCond134) VB load(1, XDATA, add(CFA_XSP16, literal(-23)))
          CFI (cfiCond134) V0 load(1, XDATA, add(CFA_XSP16, literal(-22)))
          CFI (cfiCond134) V1 load(1, XDATA, add(CFA_XSP16, literal(-21)))
          CFI (cfiCond134) V2 load(1, XDATA, add(CFA_XSP16, literal(-20)))
          CFI (cfiCond134) V3 load(1, XDATA, add(CFA_XSP16, literal(-19)))
          CFI (cfiCond134) V4 load(1, XDATA, add(CFA_XSP16, literal(-18)))
          CFI (cfiCond134) V5 load(1, XDATA, add(CFA_XSP16, literal(-17)))
          CFI (cfiCond134) V6 load(1, XDATA, add(CFA_XSP16, literal(-16)))
          CFI (cfiCond134) V7 load(1, XDATA, add(CFA_XSP16, literal(-15)))
          CFI (cfiCond134) V8 load(1, XDATA, add(CFA_XSP16, literal(-14)))
          CFI (cfiCond134) V9 load(1, XDATA, add(CFA_XSP16, literal(-13)))
          CFI (cfiCond134) V10 load(1, XDATA, add(CFA_XSP16, literal(-12)))
          CFI (cfiCond134) V11 load(1, XDATA, add(CFA_XSP16, literal(-11)))
          CFI (cfiCond134) V12 load(1, XDATA, add(CFA_XSP16, literal(-10)))
          CFI (cfiCond134) V13 load(1, XDATA, add(CFA_XSP16, literal(-9)))
          CFI (cfiCond134) V14 load(1, XDATA, add(CFA_XSP16, literal(-8)))
          CFI (cfiCond134) V15 load(1, XDATA, add(CFA_XSP16, literal(-7)))
          CFI (cfiCond134) R7 load(1, XDATA, add(CFA_XSP16, literal(-6)))
          CFI (cfiCond134) ?RET_LOW load(1, XDATA, add(CFA_XSP16, literal(-5)))
          CFI (cfiCond134) ?RET_HIGH load(1, XDATA, add(CFA_XSP16, literal(-4)))
          CFI (cfiCond134) ?BRET_EXT load(1, XDATA, add(CFA_XSP16, literal(-3)))
          CFI (cfiCond134) DPL0 load(1, XDATA, add(CFA_XSP16, literal(-2)))
          CFI (cfiCond134) DPH0 load(1, XDATA, add(CFA_XSP16, literal(-1)))
          CFI (cfiCond134) CFA_SP SP+-2
          CFI (cfiCond134) CFA_XSP16 add(XSP16, 28)
          CFI Block cfiCond135 Using cfiCommon0
          CFI (cfiCond135) Function AF_DataRequest
          CFI (cfiCond135) Conditional ??CrossCallReturnLabel_99
          CFI (cfiCond135) R6 load(1, XDATA, add(CFA_XSP16, literal(-18)))
          CFI (cfiCond135) VB load(1, XDATA, add(CFA_XSP16, literal(-17)))
          CFI (cfiCond135) V0 load(1, XDATA, add(CFA_XSP16, literal(-16)))
          CFI (cfiCond135) V1 load(1, XDATA, add(CFA_XSP16, literal(-15)))
          CFI (cfiCond135) V2 load(1, XDATA, add(CFA_XSP16, literal(-14)))
          CFI (cfiCond135) V3 load(1, XDATA, add(CFA_XSP16, literal(-13)))
          CFI (cfiCond135) V4 load(1, XDATA, add(CFA_XSP16, literal(-12)))
          CFI (cfiCond135) V5 load(1, XDATA, add(CFA_XSP16, literal(-11)))
          CFI (cfiCond135) V6 load(1, XDATA, add(CFA_XSP16, literal(-10)))
          CFI (cfiCond135) V7 load(1, XDATA, add(CFA_XSP16, literal(-9)))
          CFI (cfiCond135) V8 load(1, XDATA, add(CFA_XSP16, literal(-8)))
          CFI (cfiCond135) V9 load(1, XDATA, add(CFA_XSP16, literal(-7)))
          CFI (cfiCond135) R7 load(1, XDATA, add(CFA_XSP16, literal(-6)))
          CFI (cfiCond135) ?RET_LOW load(1, XDATA, add(CFA_XSP16, literal(-5)))
          CFI (cfiCond135) ?RET_HIGH load(1, XDATA, add(CFA_XSP16, literal(-4)))
          CFI (cfiCond135) ?BRET_EXT load(1, XDATA, add(CFA_XSP16, literal(-3)))
          CFI (cfiCond135) DPL0 load(1, XDATA, add(CFA_XSP16, literal(-2)))
          CFI (cfiCond135) DPH0 load(1, XDATA, add(CFA_XSP16, literal(-1)))
          CFI (cfiCond135) CFA_SP SP+-2
          CFI (cfiCond135) CFA_XSP16 add(XSP16, 51)
          CFI Block cfiPicker136 Using cfiCommon1
          CFI (cfiPicker136) NoFunction
          CFI (cfiPicker136) Picker
        LCALL     ??Subroutine50_0 & 0xFFFF
??CrossCallReturnLabel_122:
        MOV       R1,A
        MOV       A,R0
        ORL       A,R1
        RET
          CFI EndBlock cfiCond127
          CFI EndBlock cfiCond128
          CFI EndBlock cfiCond129
          CFI EndBlock cfiCond130
          CFI EndBlock cfiCond131
          CFI EndBlock cfiCond132
          CFI EndBlock cfiCond133
          CFI EndBlock cfiCond134
          CFI EndBlock cfiCond135
          CFI EndBlock cfiPicker136
//  571 
//  572 /*********************************************************************
//  573  * @fn      AF_DataRequest
//  574  *
//  575  * @brief   Common functionality for invoking APSDE_DataReq() for both
//  576  *          SendMulti and MSG-Send.
//  577  *
//  578  * input parameters
//  579  *
//  580  * @param  *dstAddr - Full ZB destination address: Nwk Addr + End Point.
//  581  * @param  *srcEP - Origination (i.e. respond to or ack to) End Point Descr.
//  582  * @param   cID - A valid cluster ID as specified by the Profile.
//  583  * @param   len - Number of bytes of data pointed to by next param.
//  584  * @param  *buf - A pointer to the data bytes to send.
//  585  * @param  *transID - A pointer to a byte which can be modified and which will
//  586  *                    be used as the transaction sequence number of the msg.
//  587  * @param   options - Valid bit mask of Tx options.
//  588  * @param   radius - Normally set to AF_DEFAULT_RADIUS.
//  589  *
//  590  * output parameters
//  591  *
//  592  * @param  *transID - Incremented by one if the return value is success.
//  593  *
//  594  * @return  afStatus_t - See previous definition of afStatus_... types.
//  595  */

        RSEG XDATA_I:XDATA:NOROOT(0)
//  596 uint8 AF_DataRequestDiscoverRoute = DISC_ROUTE_NETWORK;
AF_DataRequestDiscoverRoute:
        DATA8
        DS 1
        REQUIRE `?<Initializer for AF_DataRequestDiscoverRoute>`
        REQUIRE __INIT_XDATA_I

        RSEG BANKED_CODE:HUGECODE:NOROOT(0)
//  597 afStatus_t AF_DataRequest( afAddrType_t *dstAddr, endPointDesc_t *srcEP,
AF_DataRequest:
          CFI Block cfiBlock137 Using cfiCommon0
          CFI Function AF_DataRequest
        CODE
//  598                            uint16 cID, uint16 len, uint8 *buf, uint8 *transID,
//  599                            uint8 options, uint8 radius )
//  600 {
        FUNCALL AF_DataRequest, NLME_GetShortAddr
        LOCFRAME ISTACK, 0, STACK
        LOCFRAME PSTACK, 0, STACK
        LOCFRAME XSTACK, 51, STACK
        LOCFRAME IOVERLAY, 0, STATIC
        LOCFRAME DOVERLAY, 0, STATIC
        ARGFRAME ISTACK, 0, STACK
        ARGFRAME PSTACK, 0, STACK
        ARGFRAME XSTACK, 51, STACK
        ARGFRAME IOVERLAY, 0, STATIC
        ARGFRAME DOVERLAY, 0, STATIC
        FUNCALL AF_DataRequest, RTG_CheckRtStatus
        LOCFRAME ISTACK, 0, STACK
        LOCFRAME PSTACK, 0, STACK
        LOCFRAME XSTACK, 51, STACK
        LOCFRAME IOVERLAY, 0, STATIC
        LOCFRAME DOVERLAY, 0, STATIC
        ARGFRAME ISTACK, 0, STACK
        ARGFRAME PSTACK, 0, STACK
        ARGFRAME XSTACK, 51, STACK
        ARGFRAME IOVERLAY, 0, STATIC
        ARGFRAME DOVERLAY, 0, STATIC
        FUNCALL AF_DataRequest, NLME_IsAddressBroadcast
        LOCFRAME ISTACK, 0, STACK
        LOCFRAME PSTACK, 0, STACK
        LOCFRAME XSTACK, 51, STACK
        LOCFRAME IOVERLAY, 0, STATIC
        LOCFRAME DOVERLAY, 0, STATIC
        ARGFRAME ISTACK, 0, STACK
        ARGFRAME PSTACK, 0, STACK
        ARGFRAME XSTACK, 51, STACK
        ARGFRAME IOVERLAY, 0, STATIC
        ARGFRAME DOVERLAY, 0, STATIC
        FUNCALL AF_DataRequest, sAddrExtCpy
        LOCFRAME ISTACK, 0, STACK
        LOCFRAME PSTACK, 0, STACK
        LOCFRAME XSTACK, 51, STACK
        LOCFRAME IOVERLAY, 0, STATIC
        LOCFRAME DOVERLAY, 0, STATIC
        ARGFRAME ISTACK, 0, STACK
        ARGFRAME PSTACK, 0, STACK
        ARGFRAME XSTACK, 51, STACK
        ARGFRAME IOVERLAY, 0, STATIC
        ARGFRAME DOVERLAY, 0, STATIC
        FUNCALL AF_DataRequest, osal_mem_free
        LOCFRAME ISTACK, 0, STACK
        LOCFRAME PSTACK, 0, STACK
        LOCFRAME XSTACK, 51, STACK
        LOCFRAME IOVERLAY, 0, STATIC
        LOCFRAME DOVERLAY, 0, STATIC
        ARGFRAME ISTACK, 0, STACK
        ARGFRAME PSTACK, 0, STACK
        ARGFRAME XSTACK, 51, STACK
        ARGFRAME IOVERLAY, 0, STATIC
        ARGFRAME DOVERLAY, 0, STATIC
        FUNCALL AF_DataRequest, afFindEndPointDescList
        LOCFRAME ISTACK, 0, STACK
        LOCFRAME PSTACK, 0, STACK
        LOCFRAME XSTACK, 51, STACK
        LOCFRAME IOVERLAY, 0, STATIC
        LOCFRAME DOVERLAY, 0, STATIC
        ARGFRAME ISTACK, 0, STACK
        ARGFRAME PSTACK, 0, STACK
        ARGFRAME XSTACK, 51, STACK
        ARGFRAME IOVERLAY, 0, STATIC
        ARGFRAME DOVERLAY, 0, STATIC
        FUNCALL AF_DataRequest, StubAPS_InterPan
        LOCFRAME ISTACK, 0, STACK
        LOCFRAME PSTACK, 0, STACK
        LOCFRAME XSTACK, 51, STACK
        LOCFRAME IOVERLAY, 0, STATIC
        LOCFRAME DOVERLAY, 0, STATIC
        ARGFRAME ISTACK, 0, STACK
        ARGFRAME PSTACK, 0, STACK
        ARGFRAME XSTACK, 51, STACK
        ARGFRAME IOVERLAY, 0, STATIC
        ARGFRAME DOVERLAY, 0, STATIC
        FUNCALL AF_DataRequest, INTERP_DataReqMTU
        LOCFRAME ISTACK, 0, STACK
        LOCFRAME PSTACK, 0, STACK
        LOCFRAME XSTACK, 51, STACK
        LOCFRAME IOVERLAY, 0, STATIC
        LOCFRAME DOVERLAY, 0, STATIC
        ARGFRAME ISTACK, 0, STACK
        ARGFRAME PSTACK, 0, STACK
        ARGFRAME XSTACK, 51, STACK
        ARGFRAME IOVERLAY, 0, STATIC
        ARGFRAME DOVERLAY, 0, STATIC
        FUNCALL AF_DataRequest, INTERP_DataReq
        LOCFRAME ISTACK, 0, STACK
        LOCFRAME PSTACK, 0, STACK
        LOCFRAME XSTACK, 51, STACK
        LOCFRAME IOVERLAY, 0, STATIC
        LOCFRAME DOVERLAY, 0, STATIC
        ARGFRAME ISTACK, 0, STACK
        ARGFRAME PSTACK, 0, STACK
        ARGFRAME XSTACK, 51, STACK
        ARGFRAME IOVERLAY, 0, STATIC
        ARGFRAME DOVERLAY, 0, STATIC
        FUNCALL AF_DataRequest, afDataReqMTU
        LOCFRAME ISTACK, 0, STACK
        LOCFRAME PSTACK, 0, STACK
        LOCFRAME XSTACK, 51, STACK
        LOCFRAME IOVERLAY, 0, STATIC
        LOCFRAME DOVERLAY, 0, STATIC
        ARGFRAME ISTACK, 0, STACK
        ARGFRAME PSTACK, 0, STACK
        ARGFRAME XSTACK, 51, STACK
        ARGFRAME IOVERLAY, 0, STATIC
        ARGFRAME DOVERLAY, 0, STATIC
        FUNCALL AF_DataRequest, APSDE_DataReq
        LOCFRAME ISTACK, 0, STACK
        LOCFRAME PSTACK, 0, STACK
        LOCFRAME XSTACK, 51, STACK
        LOCFRAME IOVERLAY, 0, STATIC
        LOCFRAME DOVERLAY, 0, STATIC
        ARGFRAME ISTACK, 0, STACK
        ARGFRAME PSTACK, 0, STACK
        ARGFRAME XSTACK, 51, STACK
        ARGFRAME IOVERLAY, 0, STATIC
        ARGFRAME DOVERLAY, 0, STATIC
        FUNCALL AF_DataRequest, NLME_GetShortAddr
        LOCFRAME ISTACK, 0, STACK
        LOCFRAME PSTACK, 0, STACK
        LOCFRAME XSTACK, 51, STACK
        LOCFRAME IOVERLAY, 0, STATIC
        LOCFRAME DOVERLAY, 0, STATIC
        ARGFRAME ISTACK, 0, STACK
        ARGFRAME PSTACK, 0, STACK
        ARGFRAME XSTACK, 51, STACK
        ARGFRAME IOVERLAY, 0, STATIC
        ARGFRAME DOVERLAY, 0, STATIC
        FUNCALL AF_DataRequest, afDataConfirm
        LOCFRAME ISTACK, 0, STACK
        LOCFRAME PSTACK, 0, STACK
        LOCFRAME XSTACK, 51, STACK
        LOCFRAME IOVERLAY, 0, STATIC
        LOCFRAME DOVERLAY, 0, STATIC
        ARGFRAME ISTACK, 0, STACK
        ARGFRAME PSTACK, 0, STACK
        ARGFRAME XSTACK, 51, STACK
        ARGFRAME IOVERLAY, 0, STATIC
        ARGFRAME DOVERLAY, 0, STATIC
        REQUIRE ?V0
        REQUIRE ?V1
        REQUIRE ?V2
        REQUIRE ?V4
        REQUIRE ?V5
        REQUIRE ?V6
        REQUIRE ?V7
        REQUIRE ?V8
        REQUIRE ?V9
        MOV       A,#-0x12
        LCALL     ?BANKED_ENTER_XDATA
          CFI DPH0 load(1, XDATA, add(CFA_XSP16, literal(-1)))
          CFI DPL0 load(1, XDATA, add(CFA_XSP16, literal(-2)))
          CFI ?BRET_EXT load(1, XDATA, add(CFA_XSP16, literal(-3)))
          CFI ?RET_HIGH load(1, XDATA, add(CFA_XSP16, literal(-4)))
          CFI ?RET_LOW load(1, XDATA, add(CFA_XSP16, literal(-5)))
          CFI R7 load(1, XDATA, add(CFA_XSP16, literal(-6)))
          CFI V9 load(1, XDATA, add(CFA_XSP16, literal(-7)))
          CFI V8 load(1, XDATA, add(CFA_XSP16, literal(-8)))
          CFI V7 load(1, XDATA, add(CFA_XSP16, literal(-9)))
          CFI V6 load(1, XDATA, add(CFA_XSP16, literal(-10)))
          CFI V5 load(1, XDATA, add(CFA_XSP16, literal(-11)))
          CFI V4 load(1, XDATA, add(CFA_XSP16, literal(-12)))
          CFI V3 load(1, XDATA, add(CFA_XSP16, literal(-13)))
          CFI V2 load(1, XDATA, add(CFA_XSP16, literal(-14)))
          CFI V1 load(1, XDATA, add(CFA_XSP16, literal(-15)))
          CFI V0 load(1, XDATA, add(CFA_XSP16, literal(-16)))
          CFI VB load(1, XDATA, add(CFA_XSP16, literal(-17)))
          CFI R6 load(1, XDATA, add(CFA_XSP16, literal(-18)))
          CFI CFA_SP SP+0
          CFI CFA_XSP16 add(XSP16, 18)
        ; Saved register size: 18
        ; Auto size: 33
        MOV       A,#-0x21
        LCALL     ?ALLOC_XSTACK8
          CFI CFA_XSP16 add(XSP16, 51)
        MOV       A,R2
        MOV       R6,A
        MOV       A,R3
        MOV       R7,A
        MOV       ?V0,R4
        MOV       ?V1,R5
        MOV       ?V2,R1
//  601   pDescCB pfnDescCB;
//  602   ZStatus_t stat;
//  603   APSDE_DataReq_t req;
//  604   afDataReqMTU_t mtu;
//  605   epList_t *pList;
//  606 
//  607   // Verify source end point
//  608   if ( srcEP == NULL )
        MOV       A,R4
        ORL       A,R5
        JNZ       $+5
        LJMP      ??AF_DataRequest_0 & 0xFFFF
//  609   {
//  610     return afStatus_INVALID_PARAMETER;
//  611   }
//  612 
//  613 #if !defined( REFLECTOR )
//  614   if ( dstAddr->addrMode == afAddrNotPresent )
//  615   {
//  616     return afStatus_INVALID_PARAMETER;
//  617   }
//  618 #endif
//  619   
//  620   // copy the addressing mode, to get the length of the packet
//  621   mtu.aps.addressingMode = dstAddr->addrMode; 
        MOV       DPL,R2
        MOV       DPH,R3
        INC       DPTR
        INC       DPTR
        INC       DPTR
        INC       DPTR
        INC       DPTR
        INC       DPTR
        INC       DPTR
        INC       DPTR
        MOVX      A,@DPTR
        PUSH      A
          CFI CFA_SP SP+-1
        MOV       A,#0x2
        LCALL     ?XSTACK_DISP0_8
        POP       A
          CFI CFA_SP SP+0
        MOVX      @DPTR,A
//  622 
//  623   // Check if route is available before sending data
//  624   if ( options & AF_LIMIT_CONCENTRATOR  )
        MOV       A,R1
        MOV       C,0xE0 /* A   */.3
        JNC       ??AF_DataRequest_1
//  625   {
//  626     if ( dstAddr->addrMode != afAddr16Bit )
        MOV       DPL,R2
        MOV       DPH,R3
        INC       DPTR
        INC       DPTR
        INC       DPTR
        INC       DPTR
        INC       DPTR
        INC       DPTR
        INC       DPTR
        INC       DPTR
        MOVX      A,@DPTR
        XRL       A,#0x2
        JZ        $+5
        LJMP      ??AF_DataRequest_0 & 0xFFFF
//  627     {
//  628       return ( afStatus_INVALID_PARAMETER );
//  629     }
//  630 
//  631     // First, make sure the destination is not its self, then check for an existing route.
//  632     if ( (dstAddr->addr.shortAddr != NLME_GetShortAddr())
//  633         && (RTG_CheckRtStatus( dstAddr->addr.shortAddr, RT_ACTIVE, (MTO_ROUTE | NO_ROUTE_CACHE) ) != RTG_SUCCESS) )
        ; Setup parameters for call to function NLME_GetShortAddr
        LCALL     ?Subroutine32 & 0xFFFF
??CrossCallReturnLabel_57:
        MOV       DPL,R6
        MOV       DPH,R7
        MOVX      A,@DPTR
        XRL       A,R0
        JNZ       ??AF_DataRequest_2
        INC       DPTR
        MOVX      A,@DPTR
        XRL       A,R1
??AF_DataRequest_2:
        JZ        ??AF_DataRequest_1
        ; Setup parameters for call to function RTG_CheckRtStatus
        MOV       R4,#0x3
        MOV       R1,#0x1
        MOV       DPL,R6
        MOV       DPH,R7
        LCALL     ??Subroutine46_0 & 0xFFFF
??CrossCallReturnLabel_101:
        LCALL     `??RTG_CheckRtStatus::?relay`; Banked call to: RTG_CheckRtStatus
        MOV       A,R1
        JZ        ??AF_DataRequest_1
//  634     {
//  635       // A valid route to a concentrator wasn't found
//  636       return ( afStatus_NO_ROUTE );
        MOV       R1,#-0x33
        LJMP      ??AF_DataRequest_3 & 0xFFFF
//  637     }
//  638   }
//  639 
//  640   // Validate broadcasting
//  641   if ( ( dstAddr->addrMode == afAddr16Bit     ) ||
//  642        ( dstAddr->addrMode == afAddrBroadcast )    )
??AF_DataRequest_1:
        MOV       DPL,R6
        MOV       DPH,R7
        INC       DPTR
        INC       DPTR
        INC       DPTR
        INC       DPTR
        INC       DPTR
        INC       DPTR
        INC       DPTR
        INC       DPTR
        MOVX      A,@DPTR
        XRL       A,#0x2
        JZ        ??AF_DataRequest_4
        MOV       DPL,R6
        MOV       DPH,R7
        INC       DPTR
        INC       DPTR
        INC       DPTR
        INC       DPTR
        INC       DPTR
        INC       DPTR
        INC       DPTR
        INC       DPTR
        MOVX      A,@DPTR
        XRL       A,#0xf
        JNZ       ??AF_DataRequest_5
//  643   {
//  644     // Check for valid broadcast values
//  645     if( ADDR_NOT_BCAST != NLME_IsAddressBroadcast( dstAddr->addr.shortAddr )  )
??AF_DataRequest_4:
        ; Setup parameters for call to function NLME_IsAddressBroadcast
        MOV       DPL,R6
        MOV       DPH,R7
        LCALL     ??Subroutine46_0 & 0xFFFF
??CrossCallReturnLabel_102:
        LCALL     `??NLME_IsAddressBroadcast::?relay`; Banked call to: NLME_IsAddressBroadcast
        MOV       A,R1
        MOV       DPL,R6
        MOV       DPH,R7
        INC       DPTR
        INC       DPTR
        INC       DPTR
        INC       DPTR
        INC       DPTR
        INC       DPTR
        INC       DPTR
        INC       DPTR
        JZ        ??AF_DataRequest_6
//  646     {
//  647       // Force mode to broadcast
//  648       dstAddr->addrMode = afAddrBroadcast;
        MOV       A,#0xf
        MOVX      @DPTR,A
//  649     }
//  650     else
//  651     {
//  652       // Address is not a valid broadcast type
//  653       if ( dstAddr->addrMode == afAddrBroadcast )
//  654       {
//  655         return afStatus_INVALID_PARAMETER;
//  656       }
//  657     }
//  658   }
//  659   else if ( dstAddr->addrMode != afAddr64Bit &&
//  660             dstAddr->addrMode != afAddrGroup &&
//  661             dstAddr->addrMode != afAddrNotPresent )
//  662   {
//  663     return afStatus_INVALID_PARAMETER;
//  664   }
//  665 
//  666   // Set destination address
//  667   req.dstAddr.addrMode = dstAddr->addrMode;
??AF_DataRequest_7:
        MOV       A,R6
        ADD       A,#0x8
        MOV       R0,A
        CLR       A
        ADDC      A,R7
        MOV       R1,A
        MOV       DPL,R0
        MOV       DPH,A
        MOVX      A,@DPTR
        PUSH      A
          CFI CFA_SP SP+-1
        MOV       A,#0xb
        LCALL     ?XSTACK_DISP0_8
        POP       A
          CFI CFA_SP SP+0
        LCALL     ?Subroutine27 & 0xFFFF
//  668   if ( dstAddr->addrMode == afAddr64Bit )
??CrossCallReturnLabel_45:
        JNZ       ??AF_DataRequest_8
//  669   {
//  670     osal_cpyExtAddr( req.dstAddr.addr.extAddr, dstAddr->addr.extAddr );
        ; Setup parameters for call to function sAddrExtCpy
        MOV       A,R6
        MOV       R4,A
        MOV       A,R7
        MOV       R5,A
        MOV       A,#0x3
        LCALL     ?XSTACK_DISP101_8
        LCALL     `??sAddrExtCpy::?relay`; Banked call to: sAddrExtCpy
        SJMP      ??CrossCallReturnLabel_72
//  671   }
??AF_DataRequest_6:
        MOVX      A,@DPTR
        XRL       A,#0xf
        JNZ       ??AF_DataRequest_7
        SJMP      ??AF_DataRequest_0
??AF_DataRequest_5:
        MOV       DPL,R6
        MOV       DPH,R7
        INC       DPTR
        INC       DPTR
        INC       DPTR
        INC       DPTR
        INC       DPTR
        INC       DPTR
        INC       DPTR
        INC       DPTR
        MOVX      A,@DPTR
        XRL       A,#0x3
        JZ        ??AF_DataRequest_7
        MOV       DPL,R6
        MOV       DPH,R7
        INC       DPTR
        INC       DPTR
        INC       DPTR
        INC       DPTR
        INC       DPTR
        INC       DPTR
        INC       DPTR
        INC       DPTR
        MOVX      A,@DPTR
        XRL       A,#0x1
        JZ        ??AF_DataRequest_7
        MOV       DPL,R6
        MOV       DPH,R7
        INC       DPTR
        INC       DPTR
        INC       DPTR
        INC       DPTR
        INC       DPTR
        INC       DPTR
        INC       DPTR
        INC       DPTR
        MOVX      A,@DPTR
        JZ        ??AF_DataRequest_7
??AF_DataRequest_0:
        MOV       R1,#0x2
        LJMP      ??AF_DataRequest_3 & 0xFFFF
//  672   else
//  673   {
//  674     req.dstAddr.addr.shortAddr = dstAddr->addr.shortAddr;
??AF_DataRequest_8:
        MOV       DPL,R6
        MOV       DPH,R7
        LCALL     ??Subroutine41_0 & 0xFFFF
//  675   }
??CrossCallReturnLabel_81:
        MOV       A,#0x3
        LCALL     ?XSTACK_DISP0_8
        LCALL     ??Subroutine39_0 & 0xFFFF
//  676 
//  677   // This option is to use Wildcard ProfileID in outgoing packets
//  678   if ( options & AF_WILDCARD_PROFILEID )
??CrossCallReturnLabel_72:
        MOV       A,?V2
        MOV       C,0xE0 /* A   */.1
        MOV       A,#0x12
        JNC       ??AF_DataRequest_9
//  679   {
//  680     req.profileID = ZDO_WILDCARD_PROFILE_ID;
        LCALL     ?XSTACK_DISP0_8
        MOV       A,#-0x1
        MOVX      @DPTR,A
        INC       DPTR
        SJMP      ??AF_DataRequest_10
//  681   }
//  682   else
//  683   {
//  684     req.profileID = ZDO_PROFILE_ID;
??AF_DataRequest_9:
        LCALL     ?XSTACK_DISP0_8
        CLR       A
        MOVX      @DPTR,A
        INC       DPTR
        MOVX      @DPTR,A
//  685 
//  686     if ( (pfnDescCB = afGetDescCB( srcEP )) )
        MOV       DPTR,#epList
??AF_DataRequest_11:
        LCALL     ??Subroutine44_0 & 0xFFFF
??CrossCallReturnLabel_91:
        JZ        ??AF_DataRequest_12
        MOV       DPL,R0
        MOV       DPH,R1
        LCALL     ??Subroutine45_0 & 0xFFFF
??CrossCallReturnLabel_104:
        MOV       A,?V0
        XRL       A,R2
        JNZ       ??AF_DataRequest_13
        MOV       A,?V1
        XRL       A,R3
??AF_DataRequest_13:
        MOV       DPL,R0
        MOV       DPH,R1
        JNZ       ??AF_DataRequest_11
        INC       DPTR
        INC       DPTR
        LCALL     ?Subroutine37 & 0xFFFF
??CrossCallReturnLabel_119:
        MOV       R5,A
        MOV       A,R0
        ORL       A,R5
        JZ        ??AF_DataRequest_12
//  687     {
//  688       uint16 *pID = (uint16 *)(pfnDescCB(
//  689                                    AF_DESCRIPTOR_PROFILE_ID, srcEP->endPoint ));
        ; Setup parameters for indirect call
        MOV       DPL,?V0
        MOV       DPH,?V1
        MOVX      A,@DPTR
        MOV       R2,A
        MOV       R1,#0x2
        MOV       DPL,R0
        MOV       DPH,R5
        LCALL     ?CALL_IND
//  690       if ( pID )
        MOV       A,R2
        ORL       A,R3
        JZ        ??AF_DataRequest_14
//  691       {
//  692         req.profileID = *pID;
        MOV       DPL,R2
        MOV       DPH,R3
        LCALL     ??Subroutine41_0 & 0xFFFF
??CrossCallReturnLabel_82:
        MOV       A,#0x12
        LCALL     ?XSTACK_DISP0_8
        LCALL     ??Subroutine39_0 & 0xFFFF
//  693         osal_mem_free( pID );
??CrossCallReturnLabel_73:
        ; Setup parameters for call to function osal_mem_free
        LCALL     `??osal_mem_free::?relay`; Banked call to: osal_mem_free
        SJMP      ??AF_DataRequest_14
//  694       }
//  695     }
//  696     else if ( srcEP->simpleDesc )
??AF_DataRequest_12:
        LCALL     ?Subroutine4 & 0xFFFF
??CrossCallReturnLabel_99:
        JZ        ??AF_DataRequest_14
//  697     {
//  698       req.profileID = srcEP->simpleDesc->AppProfId;
        LCALL     ?Subroutine11 & 0xFFFF
//  699     }
//  700   }
??CrossCallReturnLabel_116:
        LCALL     ??Subroutine40_0 & 0xFFFF
??CrossCallReturnLabel_85:
        MOV       A,#0x12
        LCALL     ?XSTACK_DISP0_8
        MOV       A,R0
        MOVX      @DPTR,A
        INC       DPTR
        MOV       A,R1
??AF_DataRequest_10:
        MOVX      @DPTR,A
//  701 
//  702   req.txOptions = 0;
??AF_DataRequest_14:
        MOV       A,#0x18
        LCALL     ?XSTACK_DISP0_8
        CLR       A
        MOVX      @DPTR,A
        INC       DPTR
        MOVX      @DPTR,A
//  703 
//  704   if ( ( options & AF_ACK_REQUEST              ) &&
//  705        ( req.dstAddr.addrMode != AddrBroadcast ) &&
//  706        ( req.dstAddr.addrMode != AddrGroup     )    )
        MOV       A,?V2
        MOV       C,0xE0 /* A   */.4
        JNC       ??AF_DataRequest_15
        MOV       A,#0xb
        LCALL     ?XSTACK_DISP0_8
        MOVX      A,@DPTR
        XRL       A,#0xf
        JZ        ??AF_DataRequest_15
        MOVX      A,@DPTR
        XRL       A,#0x1
        JZ        ??AF_DataRequest_15
//  707   {
//  708     req.txOptions |=  APS_TX_OPTIONS_ACK;
        MOV       A,#0x18
        LCALL     ?XSTACK_DISP0_8
        MOV       A,#0x4
        MOVX      @DPTR,A
        INC       DPTR
        CLR       A
        MOVX      @DPTR,A
//  709   }
//  710 
//  711   if ( options & AF_SKIP_ROUTING )
??AF_DataRequest_15:
        MOV       A,?V2
        MOV       C,0xE0 /* A   */.7
        JNC       ??AF_DataRequest_16
//  712   {
//  713     req.txOptions |=  APS_TX_OPTIONS_SKIP_ROUTING;
        MOV       A,#0x18
        LCALL     ?XSTACK_DISP0_8
        MOVX      A,@DPTR
        ORL       A,#0x10
        MOVX      @DPTR,A
//  714   }
//  715 
//  716   if ( options & AF_EN_SECURITY )
??AF_DataRequest_16:
        MOV       A,?V2
        MOV       C,0xE0 /* A   */.6
        JNC       ??AF_DataRequest_17
//  717   {
//  718     req.txOptions |= APS_TX_OPTIONS_SECURITY_ENABLE;
        MOV       A,#0x18
        LCALL     ?XSTACK_DISP0_8
        MOVX      A,@DPTR
        ORL       A,#0x1
        MOVX      @DPTR,A
//  719     mtu.aps.secure = TRUE;
        MOV       A,#0x1
        LCALL     ?XSTACK_DISP0_8
        MOV       A,#0x1
        SJMP      ??AF_DataRequest_18
//  720   }
//  721   else
//  722   {
//  723     mtu.aps.secure = FALSE;
??AF_DataRequest_17:
        MOV       A,#0x1
        LCALL     ?XSTACK_DISP0_8
        CLR       A
??AF_DataRequest_18:
        MOVX      @DPTR,A
//  724   }
//  725 
//  726   if ( options & AF_PREPROCESS )
        MOV       A,?V2
        MOV       C,0xE0 /* A   */.2
        JNC       ??AF_DataRequest_19
//  727   {
//  728     req.txOptions |=  APS_TX_OPTIONS_PREPROCESS;
        MOV       A,#0x18
        LCALL     ?XSTACK_DISP0_8
        MOVX      A,@DPTR
        ORL       A,#0x40
        MOVX      @DPTR,A
//  729   }
//  730 
//  731   mtu.kvp = FALSE;
??AF_DataRequest_19:
        MOV       DPL,?XSP + 0
        MOV       DPH,?XSP + 1
        CLR       A
        MOVX      @DPTR,A
//  732 
//  733   if ( options & AF_SUPRESS_ROUTE_DISC_NETWORK )
        MOV       A,?V2
        MOV       C,0xE0 /* A   */.5
        JNC       ??AF_DataRequest_20
//  734   {
//  735     req.discoverRoute = DISC_ROUTE_INITIATE;
        MOV       A,#0x1b
        LCALL     ?XSTACK_DISP0_8
        MOV       A,#0x4
        SJMP      ??AF_DataRequest_21
//  736   }
//  737   else
//  738   {
//  739     req.discoverRoute = AF_DataRequestDiscoverRoute;
??AF_DataRequest_20:
        MOV       DPTR,#AF_DataRequestDiscoverRoute
        MOVX      A,@DPTR
        PUSH      A
          CFI CFA_SP SP+-1
        MOV       A,#0x1b
        LCALL     ?XSTACK_DISP0_8
        POP       A
          CFI CFA_SP SP+0
??AF_DataRequest_21:
        MOVX      @DPTR,A
        MOV       A,#0x39
        LCALL     ?XSTACK_DISP0_8
        MOVX      A,@DPTR
        MOV       ?V6,A
        INC       DPTR
        MOVX      A,@DPTR
        MOV       ?V7,A
//  740   }
//  741 
//  742   req.transID       = *transID;
        MOV       DPL,?V6
        MOV       DPH,A
        MOVX      A,@DPTR
        PUSH      A
          CFI CFA_SP SP+-1
        MOV       A,#0x1a
        LCALL     ?XSTACK_DISP0_8
        POP       A
          CFI CFA_SP SP+0
        LCALL     ?Subroutine23 & 0xFFFF
//  743   req.srcEP         = srcEP->endPoint;
??CrossCallReturnLabel_36:
        MOVX      A,@DPTR
        PUSH      A
          CFI CFA_SP SP+-1
        MOV       A,#0xc
        LCALL     ?XSTACK_DISP0_8
        POP       A
          CFI CFA_SP SP+0
        LCALL     ?Subroutine22 & 0xFFFF
//  744   req.dstEP         = dstAddr->endPoint;
??CrossCallReturnLabel_32:
        INC       DPTR
        INC       DPTR
        INC       DPTR
        MOVX      A,@DPTR
        PUSH      A
          CFI CFA_SP SP+-1
        MOV       A,#0xd
        LCALL     ?XSTACK_DISP0_8
        POP       A
          CFI CFA_SP SP+0
        MOVX      @DPTR,A
//  745   req.clusterID     = cID;
        MOV       A,#0x33
        LCALL     ?XSTACK_DISP0_8
        LCALL     ??Subroutine41_0 & 0xFFFF
??CrossCallReturnLabel_83:
        MOV       A,#0x10
        LCALL     ?XSTACK_DISP0_8
        LCALL     ??Subroutine39_0 & 0xFFFF
??CrossCallReturnLabel_74:
        MOV       A,#0x35
        LCALL     ?XSTACK_DISP0_8
        MOVX      A,@DPTR
        MOV       ?V4,A
        INC       DPTR
        MOVX      A,@DPTR
        MOV       ?V5,A
//  746   req.asduLen       = len;
        MOV       A,#0x14
        LCALL     ?XSTACK_DISP0_8
        MOV       A,?V4
        MOVX      @DPTR,A
        INC       DPTR
        MOV       A,?V5
        MOVX      @DPTR,A
//  747   req.asdu          = buf;
        MOV       A,#0x37
        LCALL     ?XSTACK_DISP0_8
        LCALL     ??Subroutine41_0 & 0xFFFF
??CrossCallReturnLabel_84:
        MOV       A,#0x16
        LCALL     ?XSTACK_DISP0_8
        LCALL     ??Subroutine39_0 & 0xFFFF
//  748   req.radiusCounter = radius;
??CrossCallReturnLabel_75:
        MOV       A,#0x3b
        LCALL     ?XSTACK_DISP0_8
        MOVX      A,@DPTR
        PUSH      A
          CFI CFA_SP SP+-1
        MOV       A,#0x1c
        LCALL     ?XSTACK_DISP0_8
        POP       A
          CFI CFA_SP SP+0
        LCALL     ?Subroutine22 & 0xFFFF
//  749 #if defined ( INTER_PAN )
//  750   req.dstPanId      = dstAddr->panId;
??CrossCallReturnLabel_33:
        LCALL     ?Subroutine16 & 0xFFFF
??CrossCallReturnLabel_87:
        MOV       A,#0xe
        LCALL     ?XSTACK_DISP0_8
        LCALL     ??Subroutine39_0 & 0xFFFF
//  751 #endif // INTER_PAN
//  752 
//  753   // Look if there is a Callback function registered for this endpoint
//  754   // The callback is used to control the AF Transaction ID used when sending messages
//  755   pList = afFindEndPointDescList( srcEP->endPoint );
??CrossCallReturnLabel_76:
        ; Setup parameters for call to function afFindEndPointDescList
        MOV       DPL,?V0
        MOV       DPH,?V1
        LCALL     ?Subroutine36 & 0xFFFF
??CrossCallReturnLabel_67:
        MOV       ?V8,R2
        MOV       ?V9,R3
        MOV       R4,?V8
        MOV       R5,?V9
//  756 
//  757   if ( ( pList != NULL ) && ( pList->pfnApplCB != NULL ) )
        MOV       A,R2
        ORL       A,R5
        JZ        ??AF_DataRequest_22
        MOV       DPL,R2
        MOV       DPH,R3
        INC       DPTR
        INC       DPTR
        INC       DPTR
        INC       DPTR
        INC       DPTR
        LCALL     ??Subroutine43_0 & 0xFFFF
??CrossCallReturnLabel_97:
        JZ        ??AF_DataRequest_22
//  758   {
//  759     pList->pfnApplCB( &req );
        ; Setup parameters for indirect call
        MOV       A,#0x3
        LCALL     ?XSTACK_DISP101_8
        MOV       DPL,R4
        MOV       DPH,R5
        INC       DPTR
        INC       DPTR
        INC       DPTR
        INC       DPTR
        INC       DPTR
        LCALL     ??Subroutine47_0 & 0xFFFF
//  760   }
??CrossCallReturnLabel_114:
        LCALL     ?CALL_IND
//  761 
//  762 #if defined ( INTER_PAN )
//  763   if ( StubAPS_InterPan( dstAddr->panId, dstAddr->endPoint ) )
??AF_DataRequest_22:
        ; Setup parameters for call to function StubAPS_InterPan
        MOV       DPL,R6
        MOV       DPH,R7
        INC       DPTR
        INC       DPTR
        INC       DPTR
        INC       DPTR
        INC       DPTR
        INC       DPTR
        INC       DPTR
        INC       DPTR
        INC       DPTR
        MOVX      A,@DPTR
        MOV       R1,A
        MOV       DPL,R6
        MOV       DPH,R7
        INC       DPTR
        INC       DPTR
        INC       DPTR
        INC       DPTR
        INC       DPTR
        INC       DPTR
        LCALL     ?Subroutine10 & 0xFFFF
??CrossCallReturnLabel_106:
        LCALL     `??StubAPS_InterPan::?relay`; Banked call to: StubAPS_InterPan
        MOV       A,R1
        JZ        ??AF_DataRequest_23
//  764   {
//  765     if ( len > INTERP_DataReqMTU() )
        ; Setup parameters for call to function INTERP_DataReqMTU
        LCALL     `??INTERP_DataReqMTU::?relay`; Banked call to: INTERP_DataReqMTU
        MOV       A,R1
        CLR       C
        SUBB      A,?V4
        CLR       A
        SUBB      A,?V5
        JC        ??AF_DataRequest_24
//  766     {
//  767       stat = afStatus_INVALID_PARAMETER;
//  768     }
//  769     else
//  770     {
//  771       stat = INTERP_DataReq( &req );
        ; Setup parameters for call to function INTERP_DataReq
        MOV       A,#0x3
        LCALL     ?XSTACK_DISP101_8
        LCALL     `??INTERP_DataReq::?relay`; Banked call to: INTERP_DataReq
        SJMP      ??AF_DataRequest_25
//  772     }
//  773   }
//  774   else
//  775 #endif // INTER_PAN
//  776   {
//  777     if (len > afDataReqMTU( &mtu ) )
??AF_DataRequest_23:
        ; Setup parameters for call to function afDataReqMTU
        MOV       R2,?XSP + 0
        MOV       R3,?XSP + 1
        LCALL     `??afDataReqMTU::?relay`; Banked call to: afDataReqMTU
        MOV       A,R1
        CLR       C
        SUBB      A,?V4
        CLR       A
        SUBB      A,?V5
        JNC       ??AF_DataRequest_26
//  778     {
//  779       if (apsfSendFragmented)
        MOV       DPTR,#apsfSendFragmented
        LCALL     ??Subroutine44_0 & 0xFFFF
??CrossCallReturnLabel_95:
        JZ        ??AF_DataRequest_24
//  780       {
//  781         stat = (*apsfSendFragmented)( &req );
        ; Setup parameters for indirect call
        MOV       A,#0x3
        LCALL     ?XSTACK_DISP101_8
        LCALL     ??Subroutine49_0 & 0xFFFF
//  782       }
??CrossCallReturnLabel_108:
        LCALL     ?CALL_IND
        SJMP      ??AF_DataRequest_25
//  783       else
//  784       {
//  785         stat = afStatus_INVALID_PARAMETER;
??AF_DataRequest_24:
        MOV       R6,#0x2
        SJMP      ??AF_DataRequest_27
//  786       }
//  787     }
//  788     else
//  789     {
//  790       stat = APSDE_DataReq( &req );
??AF_DataRequest_26:
        ; Setup parameters for call to function APSDE_DataReq
        MOV       A,#0x3
        LCALL     ?XSTACK_DISP101_8
        LCALL     `??APSDE_DataReq::?relay`; Banked call to: APSDE_DataReq
??AF_DataRequest_25:
        MOV       A,R1
        MOV       R6,A
//  791     }
//  792   }
//  793 
//  794   /*
//  795    * If this is an EndPoint-to-EndPoint message on the same device, it will not
//  796    * get added to the NWK databufs. So it will not go OTA and it will not get
//  797    * a MACCB_DATA_CONFIRM_CMD callback. Thus it is necessary to generate the
//  798    * AF_DATA_CONFIRM_CMD here. Note that APSDE_DataConfirm() only generates one
//  799    * message with the first in line TransSeqNumber, even on a multi message.
//  800    * Also note that a reflected msg will not have its confirmation generated
//  801    * here.
//  802    */
//  803   if ( (req.dstAddr.addrMode == Addr16Bit) &&
//  804        (req.dstAddr.addr.shortAddr == NLME_GetShortAddr()) )
??AF_DataRequest_27:
        MOV       A,#0xb
        LCALL     ?XSTACK_DISP0_8
        MOVX      A,@DPTR
        XRL       A,#0x2
        JNZ       ??AF_DataRequest_28
        ; Setup parameters for call to function NLME_GetShortAddr
        LCALL     ?Subroutine32 & 0xFFFF
??CrossCallReturnLabel_58:
        MOV       A,#0x3
        LCALL     ?XSTACK_DISP0_8
        MOVX      A,@DPTR
        XRL       A,R0
        JNZ       ??AF_DataRequest_29
        INC       DPTR
        MOVX      A,@DPTR
        XRL       A,R1
??AF_DataRequest_29:
        JNZ       ??AF_DataRequest_28
//  805   {
//  806     afDataConfirm( srcEP->endPoint, *transID, stat );
        ; Setup parameters for call to function afDataConfirm
        MOV       A,R6
        MOV       R3,A
        MOV       DPL,?V6
        MOV       DPH,?V7
        MOVX      A,@DPTR
        MOV       R2,A
        MOV       DPL,?V0
        MOV       DPH,?V1
        MOVX      A,@DPTR
        MOV       R1,A
        LCALL     `??afDataConfirm::?relay`; Banked call to: afDataConfirm
//  807   }
//  808 
//  809   if ( stat == afStatus_SUCCESS )
??AF_DataRequest_28:
        MOV       A,R6
        JNZ       ??AF_DataRequest_30
//  810   {
//  811     (*transID)++;
        MOV       DPL,?V6
        MOV       DPH,?V7
        MOVX      A,@DPTR
        INC       A
        MOVX      @DPTR,A
//  812   }
//  813 
//  814   return (afStatus_t)stat;
??AF_DataRequest_30:
        MOV       A,R6
        MOV       R1,A
??AF_DataRequest_3:
        MOV       A,#0x21
        LCALL     ?DEALLOC_XSTACK8
          CFI CFA_XSP16 add(XSP16, 18)
        MOV       R7,#0xa
        LJMP      ?BANKED_LEAVE_XDATA
//  815 }
          CFI EndBlock cfiBlock137

        RSEG BANKED_CODE:HUGECODE:NOROOT(0)
?Subroutine32:
          CFI Block cfiCond138 Using cfiCommon0
          CFI Function AF_DataRequest
          CFI Conditional ??CrossCallReturnLabel_57
          CFI R6 load(1, XDATA, add(CFA_XSP16, literal(-18)))
          CFI VB load(1, XDATA, add(CFA_XSP16, literal(-17)))
          CFI V0 load(1, XDATA, add(CFA_XSP16, literal(-16)))
          CFI V1 load(1, XDATA, add(CFA_XSP16, literal(-15)))
          CFI V2 load(1, XDATA, add(CFA_XSP16, literal(-14)))
          CFI V3 load(1, XDATA, add(CFA_XSP16, literal(-13)))
          CFI V4 load(1, XDATA, add(CFA_XSP16, literal(-12)))
          CFI V5 load(1, XDATA, add(CFA_XSP16, literal(-11)))
          CFI V6 load(1, XDATA, add(CFA_XSP16, literal(-10)))
          CFI V7 load(1, XDATA, add(CFA_XSP16, literal(-9)))
          CFI V8 load(1, XDATA, add(CFA_XSP16, literal(-8)))
          CFI V9 load(1, XDATA, add(CFA_XSP16, literal(-7)))
          CFI R7 load(1, XDATA, add(CFA_XSP16, literal(-6)))
          CFI ?RET_LOW load(1, XDATA, add(CFA_XSP16, literal(-5)))
          CFI ?RET_HIGH load(1, XDATA, add(CFA_XSP16, literal(-4)))
          CFI ?BRET_EXT load(1, XDATA, add(CFA_XSP16, literal(-3)))
          CFI DPL0 load(1, XDATA, add(CFA_XSP16, literal(-2)))
          CFI DPH0 load(1, XDATA, add(CFA_XSP16, literal(-1)))
          CFI CFA_SP SP+-2
          CFI CFA_XSP16 add(XSP16, 51)
          CFI Block cfiCond139 Using cfiCommon0
          CFI (cfiCond139) Function AF_DataRequest
          CFI (cfiCond139) Conditional ??CrossCallReturnLabel_58
          CFI (cfiCond139) R6 load(1, XDATA, add(CFA_XSP16, literal(-18)))
          CFI (cfiCond139) VB load(1, XDATA, add(CFA_XSP16, literal(-17)))
          CFI (cfiCond139) V0 load(1, XDATA, add(CFA_XSP16, literal(-16)))
          CFI (cfiCond139) V1 load(1, XDATA, add(CFA_XSP16, literal(-15)))
          CFI (cfiCond139) V2 load(1, XDATA, add(CFA_XSP16, literal(-14)))
          CFI (cfiCond139) V3 load(1, XDATA, add(CFA_XSP16, literal(-13)))
          CFI (cfiCond139) V4 load(1, XDATA, add(CFA_XSP16, literal(-12)))
          CFI (cfiCond139) V5 load(1, XDATA, add(CFA_XSP16, literal(-11)))
          CFI (cfiCond139) V6 load(1, XDATA, add(CFA_XSP16, literal(-10)))
          CFI (cfiCond139) V7 load(1, XDATA, add(CFA_XSP16, literal(-9)))
          CFI (cfiCond139) V8 load(1, XDATA, add(CFA_XSP16, literal(-8)))
          CFI (cfiCond139) V9 load(1, XDATA, add(CFA_XSP16, literal(-7)))
          CFI (cfiCond139) R7 load(1, XDATA, add(CFA_XSP16, literal(-6)))
          CFI (cfiCond139) ?RET_LOW load(1, XDATA, add(CFA_XSP16, literal(-5)))
          CFI (cfiCond139) ?RET_HIGH load(1, XDATA, add(CFA_XSP16, literal(-4)))
          CFI (cfiCond139) ?BRET_EXT load(1, XDATA, add(CFA_XSP16, literal(-3)))
          CFI (cfiCond139) DPL0 load(1, XDATA, add(CFA_XSP16, literal(-2)))
          CFI (cfiCond139) DPH0 load(1, XDATA, add(CFA_XSP16, literal(-1)))
          CFI (cfiCond139) CFA_SP SP+-2
          CFI (cfiCond139) CFA_XSP16 add(XSP16, 51)
          CFI Block cfiPicker140 Using cfiCommon1
          CFI (cfiPicker140) NoFunction
          CFI (cfiPicker140) Picker
        LCALL     `??NLME_GetShortAddr::?relay`; Banked call to: NLME_GetShortAddr
        MOV       ?V4,R2
        MOV       ?V5,R3
        MOV       R0,?V4
        MOV       R1,?V5
        RET
          CFI EndBlock cfiCond138
          CFI EndBlock cfiCond139
          CFI EndBlock cfiPicker140

        RSEG BANKED_CODE:HUGECODE:NOROOT(0)
?Subroutine22:
          CFI Block cfiCond141 Using cfiCommon0
          CFI Function AF_DataRequest
          CFI Conditional ??CrossCallReturnLabel_32
          CFI R6 load(1, XDATA, add(CFA_XSP16, literal(-18)))
          CFI VB load(1, XDATA, add(CFA_XSP16, literal(-17)))
          CFI V0 load(1, XDATA, add(CFA_XSP16, literal(-16)))
          CFI V1 load(1, XDATA, add(CFA_XSP16, literal(-15)))
          CFI V2 load(1, XDATA, add(CFA_XSP16, literal(-14)))
          CFI V3 load(1, XDATA, add(CFA_XSP16, literal(-13)))
          CFI V4 load(1, XDATA, add(CFA_XSP16, literal(-12)))
          CFI V5 load(1, XDATA, add(CFA_XSP16, literal(-11)))
          CFI V6 load(1, XDATA, add(CFA_XSP16, literal(-10)))
          CFI V7 load(1, XDATA, add(CFA_XSP16, literal(-9)))
          CFI V8 load(1, XDATA, add(CFA_XSP16, literal(-8)))
          CFI V9 load(1, XDATA, add(CFA_XSP16, literal(-7)))
          CFI R7 load(1, XDATA, add(CFA_XSP16, literal(-6)))
          CFI ?RET_LOW load(1, XDATA, add(CFA_XSP16, literal(-5)))
          CFI ?RET_HIGH load(1, XDATA, add(CFA_XSP16, literal(-4)))
          CFI ?BRET_EXT load(1, XDATA, add(CFA_XSP16, literal(-3)))
          CFI DPL0 load(1, XDATA, add(CFA_XSP16, literal(-2)))
          CFI DPH0 load(1, XDATA, add(CFA_XSP16, literal(-1)))
          CFI CFA_SP SP+-2
          CFI CFA_XSP16 add(XSP16, 51)
          CFI Block cfiCond142 Using cfiCommon0
          CFI (cfiCond142) Function AF_DataRequest
          CFI (cfiCond142) Conditional ??CrossCallReturnLabel_33
          CFI (cfiCond142) R6 load(1, XDATA, add(CFA_XSP16, literal(-18)))
          CFI (cfiCond142) VB load(1, XDATA, add(CFA_XSP16, literal(-17)))
          CFI (cfiCond142) V0 load(1, XDATA, add(CFA_XSP16, literal(-16)))
          CFI (cfiCond142) V1 load(1, XDATA, add(CFA_XSP16, literal(-15)))
          CFI (cfiCond142) V2 load(1, XDATA, add(CFA_XSP16, literal(-14)))
          CFI (cfiCond142) V3 load(1, XDATA, add(CFA_XSP16, literal(-13)))
          CFI (cfiCond142) V4 load(1, XDATA, add(CFA_XSP16, literal(-12)))
          CFI (cfiCond142) V5 load(1, XDATA, add(CFA_XSP16, literal(-11)))
          CFI (cfiCond142) V6 load(1, XDATA, add(CFA_XSP16, literal(-10)))
          CFI (cfiCond142) V7 load(1, XDATA, add(CFA_XSP16, literal(-9)))
          CFI (cfiCond142) V8 load(1, XDATA, add(CFA_XSP16, literal(-8)))
          CFI (cfiCond142) V9 load(1, XDATA, add(CFA_XSP16, literal(-7)))
          CFI (cfiCond142) R7 load(1, XDATA, add(CFA_XSP16, literal(-6)))
          CFI (cfiCond142) ?RET_LOW load(1, XDATA, add(CFA_XSP16, literal(-5)))
          CFI (cfiCond142) ?RET_HIGH load(1, XDATA, add(CFA_XSP16, literal(-4)))
          CFI (cfiCond142) ?BRET_EXT load(1, XDATA, add(CFA_XSP16, literal(-3)))
          CFI (cfiCond142) DPL0 load(1, XDATA, add(CFA_XSP16, literal(-2)))
          CFI (cfiCond142) DPH0 load(1, XDATA, add(CFA_XSP16, literal(-1)))
          CFI (cfiCond142) CFA_SP SP+-2
          CFI (cfiCond142) CFA_XSP16 add(XSP16, 51)
          CFI Block cfiPicker143 Using cfiCommon1
          CFI (cfiPicker143) NoFunction
          CFI (cfiPicker143) Picker
        MOVX      @DPTR,A
        MOV       DPL,R6
        MOV       DPH,R7
        INC       DPTR
        INC       DPTR
        INC       DPTR
        INC       DPTR
        INC       DPTR
        INC       DPTR
        RET
          CFI EndBlock cfiCond141
          CFI EndBlock cfiCond142
          CFI EndBlock cfiPicker143
//  816 
//  817 #if defined ( ZIGBEEPRO )
//  818 /*********************************************************************
//  819  * @fn      AF_DataRequestSrcRtg
//  820  *
//  821  * @brief   Common functionality for invoking APSDE_DataReq() for both
//  822  *          SendMulti and MSG-Send.
//  823  *
//  824  * input parameters
//  825  *
//  826  * @param  *dstAddr - Full ZB destination address: Nwk Addr + End Point.
//  827  * @param  *srcEP - Origination (i.e. respond to or ack to) End Point Descr.
//  828  * @param   cID - A valid cluster ID as specified by the Profile.
//  829  * @param   len - Number of bytes of data pointed to by next param.
//  830  * @param  *buf - A pointer to the data bytes to send.
//  831  * @param  *transID - A pointer to a byte which can be modified and which will
//  832  *                    be used as the transaction sequence number of the msg.
//  833  * @param   options - Valid bit mask of Tx options.
//  834  * @param   radius - Normally set to AF_DEFAULT_RADIUS.
//  835  * @param   relayCnt - Number of devices in the relay list
//  836  * @param   pRelayList - Pointer to the relay list
//  837  *
//  838  * output parameters
//  839  *
//  840  * @param  *transID - Incremented by one if the return value is success.
//  841  *
//  842  * @return  afStatus_t - See previous definition of afStatus_... types.
//  843  */
//  844 

        RSEG BANKED_CODE:HUGECODE:NOROOT(0)
//  845 afStatus_t AF_DataRequestSrcRtg( afAddrType_t *dstAddr, endPointDesc_t *srcEP,
AF_DataRequestSrcRtg:
          CFI Block cfiBlock144 Using cfiCommon0
          CFI Function AF_DataRequestSrcRtg
        CODE
//  846                            uint16 cID, uint16 len, uint8 *buf, uint8 *transID,
//  847                            uint8 options, uint8 radius, uint8 relayCnt, uint16* pRelayList )
//  848 {
        FUNCALL AF_DataRequestSrcRtg, RTG_AddSrcRtgEntry_Guaranteed
        LOCFRAME ISTACK, 0, STACK
        LOCFRAME PSTACK, 0, STACK
        LOCFRAME XSTACK, 12, STACK
        LOCFRAME IOVERLAY, 0, STATIC
        LOCFRAME DOVERLAY, 0, STATIC
        ARGFRAME ISTACK, 0, STACK
        ARGFRAME PSTACK, 0, STACK
        ARGFRAME XSTACK, 12, STACK
        ARGFRAME IOVERLAY, 0, STATIC
        ARGFRAME DOVERLAY, 0, STATIC
        FUNCALL AF_DataRequestSrcRtg, AF_DataRequest
        LOCFRAME ISTACK, 0, STACK
        LOCFRAME PSTACK, 0, STACK
        LOCFRAME XSTACK, 21, STACK
        LOCFRAME IOVERLAY, 0, STATIC
        LOCFRAME DOVERLAY, 0, STATIC
        ARGFRAME ISTACK, 0, STACK
        ARGFRAME PSTACK, 0, STACK
        ARGFRAME XSTACK, 21, STACK
        ARGFRAME IOVERLAY, 0, STATIC
        ARGFRAME DOVERLAY, 0, STATIC
        REQUIRE ?V0
        REQUIRE ?V1
        REQUIRE ?V2
        REQUIRE ?V3
        MOV       A,#-0xc
        LCALL     ?BANKED_ENTER_XDATA
          CFI DPH0 load(1, XDATA, add(CFA_XSP16, literal(-1)))
          CFI DPL0 load(1, XDATA, add(CFA_XSP16, literal(-2)))
          CFI ?BRET_EXT load(1, XDATA, add(CFA_XSP16, literal(-3)))
          CFI ?RET_HIGH load(1, XDATA, add(CFA_XSP16, literal(-4)))
          CFI ?RET_LOW load(1, XDATA, add(CFA_XSP16, literal(-5)))
          CFI R7 load(1, XDATA, add(CFA_XSP16, literal(-6)))
          CFI V3 load(1, XDATA, add(CFA_XSP16, literal(-7)))
          CFI V2 load(1, XDATA, add(CFA_XSP16, literal(-8)))
          CFI V1 load(1, XDATA, add(CFA_XSP16, literal(-9)))
          CFI V0 load(1, XDATA, add(CFA_XSP16, literal(-10)))
          CFI VB load(1, XDATA, add(CFA_XSP16, literal(-11)))
          CFI R6 load(1, XDATA, add(CFA_XSP16, literal(-12)))
          CFI CFA_SP SP+0
          CFI CFA_XSP16 add(XSP16, 12)
        ; Saved register size: 12
        ; Auto size: 0
        MOV       A,R2
        MOV       R6,A
        MOV       A,R3
        MOV       R7,A
        MOV       ?V0,R4
        MOV       ?V1,R5
        MOV       ?V2,R1
//  849   uint8 status;
//  850 
//  851   /* Add the source route to the source routing table */
//  852   status = RTG_AddSrcRtgEntry_Guaranteed( dstAddr->addr.shortAddr, relayCnt,
//  853                                          pRelayList );
        ; Setup parameters for call to function RTG_AddSrcRtgEntry_Guaranteed
        MOV       A,#0x16
        LCALL     ?XSTACK_DISP0_8
        LCALL     ?Subroutine12 & 0xFFFF
??CrossCallReturnLabel_15:
        MOV       A,#0x15
        LCALL     ?XSTACK_DISP0_8
        LCALL     ??Subroutine42_0 & 0xFFFF
??CrossCallReturnLabel_88:
        LCALL     ??Subroutine46_0 & 0xFFFF
??CrossCallReturnLabel_103:
        LCALL     `??RTG_AddSrcRtgEntry_Guaranteed::?relay`; Banked call to: RTG_AddSrcRtgEntry_Guaranteed
        MOV       A,R1
        MOV       R1,A
//  854 
//  855   if( status == RTG_SUCCESS)
        JNZ       ??AF_DataRequestSrcRtg_0
//  856   {
//  857     /* Call AF_DataRequest to send the data */
//  858     status = AF_DataRequest( dstAddr, srcEP, cID, len, buf, transID, options, radius );
        ; Setup parameters for call to function AF_DataRequest
        MOV       A,#0x14
        LCALL     ?XSTACK_DISP0_8
        MOVX      A,@DPTR
        MOV       ?V3,A
        MOV       R0,#?V3
        LCALL     ?PUSH_XSTACK_I_ONE
          CFI CFA_XSP16 add(XSP16, 13)
        MOV       A,#0x13
        LCALL     ?XSTACK_DISP0_8
        LCALL     ?PUSH_XSTACK8_X_TWO
          CFI CFA_XSP16 add(XSP16, 15)
        MOV       A,#0x13
        LCALL     ?XSTACK_DISP0_8
        LCALL     ?PUSH_XSTACK8_X_TWO
          CFI CFA_XSP16 add(XSP16, 17)
        MOV       A,#0x13
        LCALL     ?XSTACK_DISP0_8
        LCALL     ?PUSH_XSTACK8_X_TWO
          CFI CFA_XSP16 add(XSP16, 19)
        MOV       A,#0x13
        LCALL     ?XSTACK_DISP0_8
        LCALL     ?PUSH_XSTACK8_X_TWO
          CFI CFA_XSP16 add(XSP16, 21)
        MOV       R1,?V2
        MOV       R4,?V0
        MOV       R5,?V1
        MOV       A,R6
        MOV       R2,A
        MOV       A,R7
        MOV       R3,A
        LCALL     `??AF_DataRequest::?relay`; Banked call to: AF_DataRequest
        MOV       A,#0x9
        LCALL     ?DEALLOC_XSTACK8
          CFI CFA_XSP16 add(XSP16, 12)
        MOV       A,R1
        MOV       R1,A
        SJMP      ??AF_DataRequestSrcRtg_1
//  859   }
//  860   else if( status == RTG_INVALID_PATH )
??AF_DataRequestSrcRtg_0:
        MOV       A,#0x5
        XRL       A,R1
        JNZ       ??AF_DataRequestSrcRtg_2
//  861   {
//  862     /* The source route relay count is exceeding the network limit */
//  863     status = afStatus_INVALID_PARAMETER;
        MOV       R1,#0x2
        SJMP      ??AF_DataRequestSrcRtg_1
//  864   }
//  865   else
//  866   {
//  867     /* The guaranteed adding entry fails due to memory failure */
//  868     status = afStatus_MEM_FAIL;
??AF_DataRequestSrcRtg_2:
        MOV       R1,#0x10
//  869   }
//  870   return status;
??AF_DataRequestSrcRtg_1:
        LJMP      ?Subroutine0 & 0xFFFF
//  871 }
          CFI EndBlock cfiBlock144

        RSEG BANKED_CODE:HUGECODE:NOROOT(0)
?Subroutine12:
          CFI Block cfiCond145 Using cfiCommon0
          CFI Function afDelete
          CFI Conditional ??CrossCallReturnLabel_12
          CFI R6 load(1, XDATA, add(CFA_XSP16, literal(-9)))
          CFI VB load(1, XDATA, add(CFA_XSP16, literal(-8)))
          CFI V0 load(1, XDATA, add(CFA_XSP16, literal(-7)))
          CFI R7 load(1, XDATA, add(CFA_XSP16, literal(-6)))
          CFI ?RET_LOW load(1, XDATA, add(CFA_XSP16, literal(-5)))
          CFI ?RET_HIGH load(1, XDATA, add(CFA_XSP16, literal(-4)))
          CFI ?BRET_EXT load(1, XDATA, add(CFA_XSP16, literal(-3)))
          CFI DPL0 load(1, XDATA, add(CFA_XSP16, literal(-2)))
          CFI DPH0 load(1, XDATA, add(CFA_XSP16, literal(-1)))
          CFI CFA_SP SP+-2
          CFI CFA_XSP16 add(XSP16, 9)
          CFI Block cfiCond146 Using cfiCommon0
          CFI (cfiCond146) Function afBuildMSGIncoming
          CFI (cfiCond146) Conditional ??CrossCallReturnLabel_13
          CFI (cfiCond146) R6 load(1, XDATA, add(CFA_XSP16, literal(-19)))
          CFI (cfiCond146) VB load(1, XDATA, add(CFA_XSP16, literal(-18)))
          CFI (cfiCond146) V0 load(1, XDATA, add(CFA_XSP16, literal(-17)))
          CFI (cfiCond146) V1 load(1, XDATA, add(CFA_XSP16, literal(-16)))
          CFI (cfiCond146) V2 load(1, XDATA, add(CFA_XSP16, literal(-15)))
          CFI (cfiCond146) V3 load(1, XDATA, add(CFA_XSP16, literal(-14)))
          CFI (cfiCond146) V4 load(1, XDATA, add(CFA_XSP16, literal(-13)))
          CFI (cfiCond146) V5 load(1, XDATA, add(CFA_XSP16, literal(-12)))
          CFI (cfiCond146) V6 load(1, XDATA, add(CFA_XSP16, literal(-11)))
          CFI (cfiCond146) V7 load(1, XDATA, add(CFA_XSP16, literal(-10)))
          CFI (cfiCond146) V8 load(1, XDATA, add(CFA_XSP16, literal(-9)))
          CFI (cfiCond146) V9 load(1, XDATA, add(CFA_XSP16, literal(-8)))
          CFI (cfiCond146) V10 load(1, XDATA, add(CFA_XSP16, literal(-7)))
          CFI (cfiCond146) R7 load(1, XDATA, add(CFA_XSP16, literal(-6)))
          CFI (cfiCond146) ?RET_LOW load(1, XDATA, add(CFA_XSP16, literal(-5)))
          CFI (cfiCond146) ?RET_HIGH load(1, XDATA, add(CFA_XSP16, literal(-4)))
          CFI (cfiCond146) ?BRET_EXT load(1, XDATA, add(CFA_XSP16, literal(-3)))
          CFI (cfiCond146) DPL0 load(1, XDATA, add(CFA_XSP16, literal(-2)))
          CFI (cfiCond146) DPH0 load(1, XDATA, add(CFA_XSP16, literal(-1)))
          CFI (cfiCond146) CFA_SP SP+-2
          CFI (cfiCond146) CFA_XSP16 add(XSP16, 19)
          CFI Block cfiCond147 Using cfiCommon0
          CFI (cfiCond147) Function afBuildMSGIncoming
          CFI (cfiCond147) Conditional ??CrossCallReturnLabel_14
          CFI (cfiCond147) R6 load(1, XDATA, add(CFA_XSP16, literal(-19)))
          CFI (cfiCond147) VB load(1, XDATA, add(CFA_XSP16, literal(-18)))
          CFI (cfiCond147) V0 load(1, XDATA, add(CFA_XSP16, literal(-17)))
          CFI (cfiCond147) V1 load(1, XDATA, add(CFA_XSP16, literal(-16)))
          CFI (cfiCond147) V2 load(1, XDATA, add(CFA_XSP16, literal(-15)))
          CFI (cfiCond147) V3 load(1, XDATA, add(CFA_XSP16, literal(-14)))
          CFI (cfiCond147) V4 load(1, XDATA, add(CFA_XSP16, literal(-13)))
          CFI (cfiCond147) V5 load(1, XDATA, add(CFA_XSP16, literal(-12)))
          CFI (cfiCond147) V6 load(1, XDATA, add(CFA_XSP16, literal(-11)))
          CFI (cfiCond147) V7 load(1, XDATA, add(CFA_XSP16, literal(-10)))
          CFI (cfiCond147) V8 load(1, XDATA, add(CFA_XSP16, literal(-9)))
          CFI (cfiCond147) V9 load(1, XDATA, add(CFA_XSP16, literal(-8)))
          CFI (cfiCond147) V10 load(1, XDATA, add(CFA_XSP16, literal(-7)))
          CFI (cfiCond147) R7 load(1, XDATA, add(CFA_XSP16, literal(-6)))
          CFI (cfiCond147) ?RET_LOW load(1, XDATA, add(CFA_XSP16, literal(-5)))
          CFI (cfiCond147) ?RET_HIGH load(1, XDATA, add(CFA_XSP16, literal(-4)))
          CFI (cfiCond147) ?BRET_EXT load(1, XDATA, add(CFA_XSP16, literal(-3)))
          CFI (cfiCond147) DPL0 load(1, XDATA, add(CFA_XSP16, literal(-2)))
          CFI (cfiCond147) DPH0 load(1, XDATA, add(CFA_XSP16, literal(-1)))
          CFI (cfiCond147) CFA_SP SP+-2
          CFI (cfiCond147) CFA_XSP16 add(XSP16, 22)
          CFI Block cfiCond148 Using cfiCommon0
          CFI (cfiCond148) Function AF_DataRequestSrcRtg
          CFI (cfiCond148) Conditional ??CrossCallReturnLabel_15
          CFI (cfiCond148) R6 load(1, XDATA, add(CFA_XSP16, literal(-12)))
          CFI (cfiCond148) VB load(1, XDATA, add(CFA_XSP16, literal(-11)))
          CFI (cfiCond148) V0 load(1, XDATA, add(CFA_XSP16, literal(-10)))
          CFI (cfiCond148) V1 load(1, XDATA, add(CFA_XSP16, literal(-9)))
          CFI (cfiCond148) V2 load(1, XDATA, add(CFA_XSP16, literal(-8)))
          CFI (cfiCond148) V3 load(1, XDATA, add(CFA_XSP16, literal(-7)))
          CFI (cfiCond148) R7 load(1, XDATA, add(CFA_XSP16, literal(-6)))
          CFI (cfiCond148) ?RET_LOW load(1, XDATA, add(CFA_XSP16, literal(-5)))
          CFI (cfiCond148) ?RET_HIGH load(1, XDATA, add(CFA_XSP16, literal(-4)))
          CFI (cfiCond148) ?BRET_EXT load(1, XDATA, add(CFA_XSP16, literal(-3)))
          CFI (cfiCond148) DPL0 load(1, XDATA, add(CFA_XSP16, literal(-2)))
          CFI (cfiCond148) DPH0 load(1, XDATA, add(CFA_XSP16, literal(-1)))
          CFI (cfiCond148) CFA_SP SP+-2
          CFI (cfiCond148) CFA_XSP16 add(XSP16, 12)
          CFI Block cfiCond149 Using cfiCommon0
          CFI (cfiCond149) Function afEndPoints
          CFI (cfiCond149) Conditional ??CrossCallReturnLabel_16
          CFI (cfiCond149) DPL0 Frame(CFA_SP, 4)
          CFI (cfiCond149) DPH0 Frame(CFA_SP, 5)
          CFI (cfiCond149) CFA_SP SP+-7
          CFI Block cfiPicker150 Using cfiCommon1
          CFI (cfiPicker150) NoFunction
          CFI (cfiPicker150) Picker
        MOVX      A,@DPTR
        MOV       R4,A
        INC       DPTR
        MOVX      A,@DPTR
        MOV       R5,A
        RET
          CFI EndBlock cfiCond145
          CFI EndBlock cfiCond146
          CFI EndBlock cfiCond147
          CFI EndBlock cfiCond148
          CFI EndBlock cfiCond149
          CFI EndBlock cfiPicker150

        RSEG BANKED_CODE:HUGECODE:NOROOT(0)
?Subroutine10:
          CFI Block cfiCond151 Using cfiCommon0
          CFI Function AF_DataRequest
          CFI Conditional ??CrossCallReturnLabel_106
          CFI R6 load(1, XDATA, add(CFA_XSP16, literal(-18)))
          CFI VB load(1, XDATA, add(CFA_XSP16, literal(-17)))
          CFI V0 load(1, XDATA, add(CFA_XSP16, literal(-16)))
          CFI V1 load(1, XDATA, add(CFA_XSP16, literal(-15)))
          CFI V2 load(1, XDATA, add(CFA_XSP16, literal(-14)))
          CFI V3 load(1, XDATA, add(CFA_XSP16, literal(-13)))
          CFI V4 load(1, XDATA, add(CFA_XSP16, literal(-12)))
          CFI V5 load(1, XDATA, add(CFA_XSP16, literal(-11)))
          CFI V6 load(1, XDATA, add(CFA_XSP16, literal(-10)))
          CFI V7 load(1, XDATA, add(CFA_XSP16, literal(-9)))
          CFI V8 load(1, XDATA, add(CFA_XSP16, literal(-8)))
          CFI V9 load(1, XDATA, add(CFA_XSP16, literal(-7)))
          CFI R7 load(1, XDATA, add(CFA_XSP16, literal(-6)))
          CFI ?RET_LOW load(1, XDATA, add(CFA_XSP16, literal(-5)))
          CFI ?RET_HIGH load(1, XDATA, add(CFA_XSP16, literal(-4)))
          CFI ?BRET_EXT load(1, XDATA, add(CFA_XSP16, literal(-3)))
          CFI DPL0 load(1, XDATA, add(CFA_XSP16, literal(-2)))
          CFI DPH0 load(1, XDATA, add(CFA_XSP16, literal(-1)))
          CFI CFA_SP SP+-2
          CFI CFA_XSP16 add(XSP16, 51)
          CFI Block cfiCond152 Using cfiCommon0
          CFI (cfiCond152) Function afFindSimpleDesc
          CFI (cfiCond152) Conditional ??CrossCallReturnLabel_107
          CFI (cfiCond152) R6 load(1, XDATA, add(CFA_XSP16, literal(-12)))
          CFI (cfiCond152) VB load(1, XDATA, add(CFA_XSP16, literal(-11)))
          CFI (cfiCond152) V0 load(1, XDATA, add(CFA_XSP16, literal(-10)))
          CFI (cfiCond152) V1 load(1, XDATA, add(CFA_XSP16, literal(-9)))
          CFI (cfiCond152) V2 load(1, XDATA, add(CFA_XSP16, literal(-8)))
          CFI (cfiCond152) V3 load(1, XDATA, add(CFA_XSP16, literal(-7)))
          CFI (cfiCond152) R7 load(1, XDATA, add(CFA_XSP16, literal(-6)))
          CFI (cfiCond152) ?RET_LOW load(1, XDATA, add(CFA_XSP16, literal(-5)))
          CFI (cfiCond152) ?RET_HIGH load(1, XDATA, add(CFA_XSP16, literal(-4)))
          CFI (cfiCond152) ?BRET_EXT load(1, XDATA, add(CFA_XSP16, literal(-3)))
          CFI (cfiCond152) DPL0 load(1, XDATA, add(CFA_XSP16, literal(-2)))
          CFI (cfiCond152) DPH0 load(1, XDATA, add(CFA_XSP16, literal(-1)))
          CFI (cfiCond152) CFA_SP SP+-2
          CFI (cfiCond152) CFA_XSP16 add(XSP16, 12)
          CFI Block cfiPicker153 Using cfiCommon1
          CFI (cfiPicker153) NoFunction
          CFI (cfiPicker153) Picker
        INC       DPTR
        INC       DPTR
          CFI EndBlock cfiCond151
          CFI EndBlock cfiCond152
          CFI EndBlock cfiPicker153
        REQUIRE ??Subroutine45_0
        ; // Fall through to label ??Subroutine45_0

        RSEG BANKED_CODE:HUGECODE:NOROOT(0)
??Subroutine45_0:
          CFI Block cfiCond154 Using cfiCommon0
          CFI Function AF_DataRequest
          CFI Conditional ??CrossCallReturnLabel_104
          CFI R6 load(1, XDATA, add(CFA_XSP16, literal(-18)))
          CFI VB load(1, XDATA, add(CFA_XSP16, literal(-17)))
          CFI V0 load(1, XDATA, add(CFA_XSP16, literal(-16)))
          CFI V1 load(1, XDATA, add(CFA_XSP16, literal(-15)))
          CFI V2 load(1, XDATA, add(CFA_XSP16, literal(-14)))
          CFI V3 load(1, XDATA, add(CFA_XSP16, literal(-13)))
          CFI V4 load(1, XDATA, add(CFA_XSP16, literal(-12)))
          CFI V5 load(1, XDATA, add(CFA_XSP16, literal(-11)))
          CFI V6 load(1, XDATA, add(CFA_XSP16, literal(-10)))
          CFI V7 load(1, XDATA, add(CFA_XSP16, literal(-9)))
          CFI V8 load(1, XDATA, add(CFA_XSP16, literal(-8)))
          CFI V9 load(1, XDATA, add(CFA_XSP16, literal(-7)))
          CFI R7 load(1, XDATA, add(CFA_XSP16, literal(-6)))
          CFI ?RET_LOW load(1, XDATA, add(CFA_XSP16, literal(-5)))
          CFI ?RET_HIGH load(1, XDATA, add(CFA_XSP16, literal(-4)))
          CFI ?BRET_EXT load(1, XDATA, add(CFA_XSP16, literal(-3)))
          CFI DPL0 load(1, XDATA, add(CFA_XSP16, literal(-2)))
          CFI DPH0 load(1, XDATA, add(CFA_XSP16, literal(-1)))
          CFI CFA_SP SP+-2
          CFI CFA_XSP16 add(XSP16, 51)
          CFI Block cfiCond155 Using cfiCommon0
          CFI (cfiCond155) Function afFindEndPointDesc
          CFI (cfiCond155) Conditional ??CrossCallReturnLabel_105
          CFI (cfiCond155) R6 load(1, XDATA, add(CFA_XSP16, literal(-10)))
          CFI (cfiCond155) VB load(1, XDATA, add(CFA_XSP16, literal(-9)))
          CFI (cfiCond155) V0 load(1, XDATA, add(CFA_XSP16, literal(-8)))
          CFI (cfiCond155) V1 load(1, XDATA, add(CFA_XSP16, literal(-7)))
          CFI (cfiCond155) R7 load(1, XDATA, add(CFA_XSP16, literal(-6)))
          CFI (cfiCond155) ?RET_LOW load(1, XDATA, add(CFA_XSP16, literal(-5)))
          CFI (cfiCond155) ?RET_HIGH load(1, XDATA, add(CFA_XSP16, literal(-4)))
          CFI (cfiCond155) ?BRET_EXT load(1, XDATA, add(CFA_XSP16, literal(-3)))
          CFI (cfiCond155) DPL0 load(1, XDATA, add(CFA_XSP16, literal(-2)))
          CFI (cfiCond155) DPH0 load(1, XDATA, add(CFA_XSP16, literal(-1)))
          CFI (cfiCond155) CFA_SP SP+-2
          CFI (cfiCond155) CFA_XSP16 add(XSP16, 10)
          CFI Block cfiCond156 Using cfiCommon0
          CFI (cfiCond156) Function AF_DataRequest
          CFI (cfiCond156) Conditional ??CrossCallReturnLabel_106
          CFI (cfiCond156) R6 load(1, XDATA, add(CFA_XSP16, literal(-18)))
          CFI (cfiCond156) VB load(1, XDATA, add(CFA_XSP16, literal(-17)))
          CFI (cfiCond156) V0 load(1, XDATA, add(CFA_XSP16, literal(-16)))
          CFI (cfiCond156) V1 load(1, XDATA, add(CFA_XSP16, literal(-15)))
          CFI (cfiCond156) V2 load(1, XDATA, add(CFA_XSP16, literal(-14)))
          CFI (cfiCond156) V3 load(1, XDATA, add(CFA_XSP16, literal(-13)))
          CFI (cfiCond156) V4 load(1, XDATA, add(CFA_XSP16, literal(-12)))
          CFI (cfiCond156) V5 load(1, XDATA, add(CFA_XSP16, literal(-11)))
          CFI (cfiCond156) V6 load(1, XDATA, add(CFA_XSP16, literal(-10)))
          CFI (cfiCond156) V7 load(1, XDATA, add(CFA_XSP16, literal(-9)))
          CFI (cfiCond156) V8 load(1, XDATA, add(CFA_XSP16, literal(-8)))
          CFI (cfiCond156) V9 load(1, XDATA, add(CFA_XSP16, literal(-7)))
          CFI (cfiCond156) R7 load(1, XDATA, add(CFA_XSP16, literal(-6)))
          CFI (cfiCond156) ?RET_LOW load(1, XDATA, add(CFA_XSP16, literal(-5)))
          CFI (cfiCond156) ?RET_HIGH load(1, XDATA, add(CFA_XSP16, literal(-4)))
          CFI (cfiCond156) ?BRET_EXT load(1, XDATA, add(CFA_XSP16, literal(-3)))
          CFI (cfiCond156) DPL0 load(1, XDATA, add(CFA_XSP16, literal(-2)))
          CFI (cfiCond156) DPH0 load(1, XDATA, add(CFA_XSP16, literal(-1)))
          CFI (cfiCond156) CFA_SP SP+-2
          CFI (cfiCond156) CFA_XSP16 add(XSP16, 51)
          CFI Block cfiCond157 Using cfiCommon0
          CFI (cfiCond157) Function afFindSimpleDesc
          CFI (cfiCond157) Conditional ??CrossCallReturnLabel_107
          CFI (cfiCond157) R6 load(1, XDATA, add(CFA_XSP16, literal(-12)))
          CFI (cfiCond157) VB load(1, XDATA, add(CFA_XSP16, literal(-11)))
          CFI (cfiCond157) V0 load(1, XDATA, add(CFA_XSP16, literal(-10)))
          CFI (cfiCond157) V1 load(1, XDATA, add(CFA_XSP16, literal(-9)))
          CFI (cfiCond157) V2 load(1, XDATA, add(CFA_XSP16, literal(-8)))
          CFI (cfiCond157) V3 load(1, XDATA, add(CFA_XSP16, literal(-7)))
          CFI (cfiCond157) R7 load(1, XDATA, add(CFA_XSP16, literal(-6)))
          CFI (cfiCond157) ?RET_LOW load(1, XDATA, add(CFA_XSP16, literal(-5)))
          CFI (cfiCond157) ?RET_HIGH load(1, XDATA, add(CFA_XSP16, literal(-4)))
          CFI (cfiCond157) ?BRET_EXT load(1, XDATA, add(CFA_XSP16, literal(-3)))
          CFI (cfiCond157) DPL0 load(1, XDATA, add(CFA_XSP16, literal(-2)))
          CFI (cfiCond157) DPH0 load(1, XDATA, add(CFA_XSP16, literal(-1)))
          CFI (cfiCond157) CFA_SP SP+-2
          CFI (cfiCond157) CFA_XSP16 add(XSP16, 12)
          CFI Block cfiPicker158 Using cfiCommon1
          CFI (cfiPicker158) NoFunction
          CFI (cfiPicker158) Picker
        INC       DPTR
        INC       DPTR
          CFI EndBlock cfiCond154
          CFI EndBlock cfiCond155
          CFI EndBlock cfiCond156
          CFI EndBlock cfiCond157
          CFI EndBlock cfiPicker158
        REQUIRE ??Subroutine46_0
        ; // Fall through to label ??Subroutine46_0

        RSEG BANKED_CODE:HUGECODE:NOROOT(0)
??Subroutine46_0:
          CFI Block cfiCond159 Using cfiCommon0
          CFI Function afDelete
          CFI Conditional ??CrossCallReturnLabel_100
          CFI R6 load(1, XDATA, add(CFA_XSP16, literal(-9)))
          CFI VB load(1, XDATA, add(CFA_XSP16, literal(-8)))
          CFI V0 load(1, XDATA, add(CFA_XSP16, literal(-7)))
          CFI R7 load(1, XDATA, add(CFA_XSP16, literal(-6)))
          CFI ?RET_LOW load(1, XDATA, add(CFA_XSP16, literal(-5)))
          CFI ?RET_HIGH load(1, XDATA, add(CFA_XSP16, literal(-4)))
          CFI ?BRET_EXT load(1, XDATA, add(CFA_XSP16, literal(-3)))
          CFI DPL0 load(1, XDATA, add(CFA_XSP16, literal(-2)))
          CFI DPH0 load(1, XDATA, add(CFA_XSP16, literal(-1)))
          CFI CFA_SP SP+-2
          CFI CFA_XSP16 add(XSP16, 9)
          CFI Block cfiCond160 Using cfiCommon0
          CFI (cfiCond160) Function AF_DataRequest
          CFI (cfiCond160) Conditional ??CrossCallReturnLabel_101
          CFI (cfiCond160) R6 load(1, XDATA, add(CFA_XSP16, literal(-18)))
          CFI (cfiCond160) VB load(1, XDATA, add(CFA_XSP16, literal(-17)))
          CFI (cfiCond160) V0 load(1, XDATA, add(CFA_XSP16, literal(-16)))
          CFI (cfiCond160) V1 load(1, XDATA, add(CFA_XSP16, literal(-15)))
          CFI (cfiCond160) V2 load(1, XDATA, add(CFA_XSP16, literal(-14)))
          CFI (cfiCond160) V3 load(1, XDATA, add(CFA_XSP16, literal(-13)))
          CFI (cfiCond160) V4 load(1, XDATA, add(CFA_XSP16, literal(-12)))
          CFI (cfiCond160) V5 load(1, XDATA, add(CFA_XSP16, literal(-11)))
          CFI (cfiCond160) V6 load(1, XDATA, add(CFA_XSP16, literal(-10)))
          CFI (cfiCond160) V7 load(1, XDATA, add(CFA_XSP16, literal(-9)))
          CFI (cfiCond160) V8 load(1, XDATA, add(CFA_XSP16, literal(-8)))
          CFI (cfiCond160) V9 load(1, XDATA, add(CFA_XSP16, literal(-7)))
          CFI (cfiCond160) R7 load(1, XDATA, add(CFA_XSP16, literal(-6)))
          CFI (cfiCond160) ?RET_LOW load(1, XDATA, add(CFA_XSP16, literal(-5)))
          CFI (cfiCond160) ?RET_HIGH load(1, XDATA, add(CFA_XSP16, literal(-4)))
          CFI (cfiCond160) ?BRET_EXT load(1, XDATA, add(CFA_XSP16, literal(-3)))
          CFI (cfiCond160) DPL0 load(1, XDATA, add(CFA_XSP16, literal(-2)))
          CFI (cfiCond160) DPH0 load(1, XDATA, add(CFA_XSP16, literal(-1)))
          CFI (cfiCond160) CFA_SP SP+-2
          CFI (cfiCond160) CFA_XSP16 add(XSP16, 51)
          CFI Block cfiCond161 Using cfiCommon0
          CFI (cfiCond161) Function AF_DataRequest
          CFI (cfiCond161) Conditional ??CrossCallReturnLabel_102
          CFI (cfiCond161) R6 load(1, XDATA, add(CFA_XSP16, literal(-18)))
          CFI (cfiCond161) VB load(1, XDATA, add(CFA_XSP16, literal(-17)))
          CFI (cfiCond161) V0 load(1, XDATA, add(CFA_XSP16, literal(-16)))
          CFI (cfiCond161) V1 load(1, XDATA, add(CFA_XSP16, literal(-15)))
          CFI (cfiCond161) V2 load(1, XDATA, add(CFA_XSP16, literal(-14)))
          CFI (cfiCond161) V3 load(1, XDATA, add(CFA_XSP16, literal(-13)))
          CFI (cfiCond161) V4 load(1, XDATA, add(CFA_XSP16, literal(-12)))
          CFI (cfiCond161) V5 load(1, XDATA, add(CFA_XSP16, literal(-11)))
          CFI (cfiCond161) V6 load(1, XDATA, add(CFA_XSP16, literal(-10)))
          CFI (cfiCond161) V7 load(1, XDATA, add(CFA_XSP16, literal(-9)))
          CFI (cfiCond161) V8 load(1, XDATA, add(CFA_XSP16, literal(-8)))
          CFI (cfiCond161) V9 load(1, XDATA, add(CFA_XSP16, literal(-7)))
          CFI (cfiCond161) R7 load(1, XDATA, add(CFA_XSP16, literal(-6)))
          CFI (cfiCond161) ?RET_LOW load(1, XDATA, add(CFA_XSP16, literal(-5)))
          CFI (cfiCond161) ?RET_HIGH load(1, XDATA, add(CFA_XSP16, literal(-4)))
          CFI (cfiCond161) ?BRET_EXT load(1, XDATA, add(CFA_XSP16, literal(-3)))
          CFI (cfiCond161) DPL0 load(1, XDATA, add(CFA_XSP16, literal(-2)))
          CFI (cfiCond161) DPH0 load(1, XDATA, add(CFA_XSP16, literal(-1)))
          CFI (cfiCond161) CFA_SP SP+-2
          CFI (cfiCond161) CFA_XSP16 add(XSP16, 51)
          CFI Block cfiCond162 Using cfiCommon0
          CFI (cfiCond162) Function AF_DataRequestSrcRtg
          CFI (cfiCond162) Conditional ??CrossCallReturnLabel_103
          CFI (cfiCond162) R6 load(1, XDATA, add(CFA_XSP16, literal(-12)))
          CFI (cfiCond162) VB load(1, XDATA, add(CFA_XSP16, literal(-11)))
          CFI (cfiCond162) V0 load(1, XDATA, add(CFA_XSP16, literal(-10)))
          CFI (cfiCond162) V1 load(1, XDATA, add(CFA_XSP16, literal(-9)))
          CFI (cfiCond162) V2 load(1, XDATA, add(CFA_XSP16, literal(-8)))
          CFI (cfiCond162) V3 load(1, XDATA, add(CFA_XSP16, literal(-7)))
          CFI (cfiCond162) R7 load(1, XDATA, add(CFA_XSP16, literal(-6)))
          CFI (cfiCond162) ?RET_LOW load(1, XDATA, add(CFA_XSP16, literal(-5)))
          CFI (cfiCond162) ?RET_HIGH load(1, XDATA, add(CFA_XSP16, literal(-4)))
          CFI (cfiCond162) ?BRET_EXT load(1, XDATA, add(CFA_XSP16, literal(-3)))
          CFI (cfiCond162) DPL0 load(1, XDATA, add(CFA_XSP16, literal(-2)))
          CFI (cfiCond162) DPH0 load(1, XDATA, add(CFA_XSP16, literal(-1)))
          CFI (cfiCond162) CFA_SP SP+-2
          CFI (cfiCond162) CFA_XSP16 add(XSP16, 12)
          CFI Block cfiCond163 Using cfiCommon0
          CFI (cfiCond163) Function AF_DataRequest
          CFI (cfiCond163) Conditional ??CrossCallReturnLabel_104
          CFI (cfiCond163) R6 load(1, XDATA, add(CFA_XSP16, literal(-18)))
          CFI (cfiCond163) VB load(1, XDATA, add(CFA_XSP16, literal(-17)))
          CFI (cfiCond163) V0 load(1, XDATA, add(CFA_XSP16, literal(-16)))
          CFI (cfiCond163) V1 load(1, XDATA, add(CFA_XSP16, literal(-15)))
          CFI (cfiCond163) V2 load(1, XDATA, add(CFA_XSP16, literal(-14)))
          CFI (cfiCond163) V3 load(1, XDATA, add(CFA_XSP16, literal(-13)))
          CFI (cfiCond163) V4 load(1, XDATA, add(CFA_XSP16, literal(-12)))
          CFI (cfiCond163) V5 load(1, XDATA, add(CFA_XSP16, literal(-11)))
          CFI (cfiCond163) V6 load(1, XDATA, add(CFA_XSP16, literal(-10)))
          CFI (cfiCond163) V7 load(1, XDATA, add(CFA_XSP16, literal(-9)))
          CFI (cfiCond163) V8 load(1, XDATA, add(CFA_XSP16, literal(-8)))
          CFI (cfiCond163) V9 load(1, XDATA, add(CFA_XSP16, literal(-7)))
          CFI (cfiCond163) R7 load(1, XDATA, add(CFA_XSP16, literal(-6)))
          CFI (cfiCond163) ?RET_LOW load(1, XDATA, add(CFA_XSP16, literal(-5)))
          CFI (cfiCond163) ?RET_HIGH load(1, XDATA, add(CFA_XSP16, literal(-4)))
          CFI (cfiCond163) ?BRET_EXT load(1, XDATA, add(CFA_XSP16, literal(-3)))
          CFI (cfiCond163) DPL0 load(1, XDATA, add(CFA_XSP16, literal(-2)))
          CFI (cfiCond163) DPH0 load(1, XDATA, add(CFA_XSP16, literal(-1)))
          CFI (cfiCond163) CFA_SP SP+-2
          CFI (cfiCond163) CFA_XSP16 add(XSP16, 51)
          CFI Block cfiCond164 Using cfiCommon0
          CFI (cfiCond164) Function afFindEndPointDesc
          CFI (cfiCond164) Conditional ??CrossCallReturnLabel_105
          CFI (cfiCond164) R6 load(1, XDATA, add(CFA_XSP16, literal(-10)))
          CFI (cfiCond164) VB load(1, XDATA, add(CFA_XSP16, literal(-9)))
          CFI (cfiCond164) V0 load(1, XDATA, add(CFA_XSP16, literal(-8)))
          CFI (cfiCond164) V1 load(1, XDATA, add(CFA_XSP16, literal(-7)))
          CFI (cfiCond164) R7 load(1, XDATA, add(CFA_XSP16, literal(-6)))
          CFI (cfiCond164) ?RET_LOW load(1, XDATA, add(CFA_XSP16, literal(-5)))
          CFI (cfiCond164) ?RET_HIGH load(1, XDATA, add(CFA_XSP16, literal(-4)))
          CFI (cfiCond164) ?BRET_EXT load(1, XDATA, add(CFA_XSP16, literal(-3)))
          CFI (cfiCond164) DPL0 load(1, XDATA, add(CFA_XSP16, literal(-2)))
          CFI (cfiCond164) DPH0 load(1, XDATA, add(CFA_XSP16, literal(-1)))
          CFI (cfiCond164) CFA_SP SP+-2
          CFI (cfiCond164) CFA_XSP16 add(XSP16, 10)
          CFI Block cfiCond165 Using cfiCommon0
          CFI (cfiCond165) Function AF_DataRequest
          CFI (cfiCond165) Conditional ??CrossCallReturnLabel_106
          CFI (cfiCond165) R6 load(1, XDATA, add(CFA_XSP16, literal(-18)))
          CFI (cfiCond165) VB load(1, XDATA, add(CFA_XSP16, literal(-17)))
          CFI (cfiCond165) V0 load(1, XDATA, add(CFA_XSP16, literal(-16)))
          CFI (cfiCond165) V1 load(1, XDATA, add(CFA_XSP16, literal(-15)))
          CFI (cfiCond165) V2 load(1, XDATA, add(CFA_XSP16, literal(-14)))
          CFI (cfiCond165) V3 load(1, XDATA, add(CFA_XSP16, literal(-13)))
          CFI (cfiCond165) V4 load(1, XDATA, add(CFA_XSP16, literal(-12)))
          CFI (cfiCond165) V5 load(1, XDATA, add(CFA_XSP16, literal(-11)))
          CFI (cfiCond165) V6 load(1, XDATA, add(CFA_XSP16, literal(-10)))
          CFI (cfiCond165) V7 load(1, XDATA, add(CFA_XSP16, literal(-9)))
          CFI (cfiCond165) V8 load(1, XDATA, add(CFA_XSP16, literal(-8)))
          CFI (cfiCond165) V9 load(1, XDATA, add(CFA_XSP16, literal(-7)))
          CFI (cfiCond165) R7 load(1, XDATA, add(CFA_XSP16, literal(-6)))
          CFI (cfiCond165) ?RET_LOW load(1, XDATA, add(CFA_XSP16, literal(-5)))
          CFI (cfiCond165) ?RET_HIGH load(1, XDATA, add(CFA_XSP16, literal(-4)))
          CFI (cfiCond165) ?BRET_EXT load(1, XDATA, add(CFA_XSP16, literal(-3)))
          CFI (cfiCond165) DPL0 load(1, XDATA, add(CFA_XSP16, literal(-2)))
          CFI (cfiCond165) DPH0 load(1, XDATA, add(CFA_XSP16, literal(-1)))
          CFI (cfiCond165) CFA_SP SP+-2
          CFI (cfiCond165) CFA_XSP16 add(XSP16, 51)
          CFI Block cfiCond166 Using cfiCommon0
          CFI (cfiCond166) Function afFindSimpleDesc
          CFI (cfiCond166) Conditional ??CrossCallReturnLabel_107
          CFI (cfiCond166) R6 load(1, XDATA, add(CFA_XSP16, literal(-12)))
          CFI (cfiCond166) VB load(1, XDATA, add(CFA_XSP16, literal(-11)))
          CFI (cfiCond166) V0 load(1, XDATA, add(CFA_XSP16, literal(-10)))
          CFI (cfiCond166) V1 load(1, XDATA, add(CFA_XSP16, literal(-9)))
          CFI (cfiCond166) V2 load(1, XDATA, add(CFA_XSP16, literal(-8)))
          CFI (cfiCond166) V3 load(1, XDATA, add(CFA_XSP16, literal(-7)))
          CFI (cfiCond166) R7 load(1, XDATA, add(CFA_XSP16, literal(-6)))
          CFI (cfiCond166) ?RET_LOW load(1, XDATA, add(CFA_XSP16, literal(-5)))
          CFI (cfiCond166) ?RET_HIGH load(1, XDATA, add(CFA_XSP16, literal(-4)))
          CFI (cfiCond166) ?BRET_EXT load(1, XDATA, add(CFA_XSP16, literal(-3)))
          CFI (cfiCond166) DPL0 load(1, XDATA, add(CFA_XSP16, literal(-2)))
          CFI (cfiCond166) DPH0 load(1, XDATA, add(CFA_XSP16, literal(-1)))
          CFI (cfiCond166) CFA_SP SP+-2
          CFI (cfiCond166) CFA_XSP16 add(XSP16, 12)
          CFI Block cfiPicker167 Using cfiCommon1
          CFI (cfiPicker167) NoFunction
          CFI (cfiPicker167) Picker
        MOVX      A,@DPTR
        MOV       R2,A
        INC       DPTR
        MOVX      A,@DPTR
        MOV       R3,A
        RET
          CFI EndBlock cfiCond159
          CFI EndBlock cfiCond160
          CFI EndBlock cfiCond161
          CFI EndBlock cfiCond162
          CFI EndBlock cfiCond163
          CFI EndBlock cfiCond164
          CFI EndBlock cfiCond165
          CFI EndBlock cfiCond166
          CFI EndBlock cfiPicker167
//  872 
//  873 #endif // ZIGBEEPRO
//  874 
//  875 /*********************************************************************
//  876  * @fn      afFindEndPointDescList
//  877  *
//  878  * @brief   Find the endpoint description entry from the endpoint
//  879  *          number.
//  880  *
//  881  * @param   EndPoint - Application Endpoint to look for
//  882  *
//  883  * @return  the address to the endpoint/interface description entry
//  884  */

        RSEG BANKED_CODE:HUGECODE:NOROOT(0)
//  885 static epList_t *afFindEndPointDescList( uint8 EndPoint )
afFindEndPointDescList:
          CFI Block cfiBlock168 Using cfiCommon0
          CFI Function afFindEndPointDescList
        CODE
//  886 {
        PUSH      DPL
          CFI DPL0 Frame(CFA_SP, 4)
          CFI CFA_SP SP+-4
        PUSH      DPH
          CFI DPH0 Frame(CFA_SP, 5)
          CFI CFA_SP SP+-5
        ; Saved register size: 2
        ; Auto size: 0
//  887   epList_t *epSearch;
//  888 
//  889   for (epSearch = epList; epSearch != NULL; epSearch = epSearch->nextDesc)
        MOV       DPTR,#epList
        SJMP      ??afFindEndPointDescList_0
??afFindEndPointDescList_1:
        MOV       DPL,R2
        MOV       DPH,R3
??afFindEndPointDescList_0:
        LCALL     ?Subroutine9 & 0xFFFF
??CrossCallReturnLabel_10:
        JZ        ??afFindEndPointDescList_2
//  890   {
//  891     if (epSearch->epDesc->endPoint == EndPoint)
        MOV       DPL,R2
        MOV       DPH,R3
        INC       DPTR
        INC       DPTR
        MOVX      A,@DPTR
        MOV       R0,A
        LCALL     ??Subroutine48_0 & 0xFFFF
//  892     {
//  893       break;
//  894     }
//  895   }
??CrossCallReturnLabel_109:
        MOVX      A,@DPTR
        XRL       A,R1
        JNZ       ??afFindEndPointDescList_1
//  896 
//  897   return epSearch;
??afFindEndPointDescList_2:
          CFI EndBlock cfiBlock168
        REQUIRE ?Subroutine3
        ; // Fall through to label ?Subroutine3
//  898 }

        RSEG BANKED_CODE:HUGECODE:NOROOT(0)
?Subroutine3:
          CFI Block cfiBlock169 Using cfiCommon0
          CFI NoFunction
          CFI CFA_SP SP+-5
          CFI DPL0 Frame(CFA_SP, 4)
          CFI DPH0 Frame(CFA_SP, 5)
        POP       DPH
          CFI CFA_SP SP+-4
          CFI DPH0 SameValue
        POP       DPL
          CFI CFA_SP SP+-3
          CFI DPL0 SameValue
        LJMP      ?BRET
          CFI EndBlock cfiBlock169

        RSEG BANKED_CODE:HUGECODE:NOROOT(0)
?Subroutine9:
          CFI Block cfiCond170 Using cfiCommon0
          CFI Function afDelete
          CFI Conditional ??CrossCallReturnLabel_9
          CFI R6 load(1, XDATA, add(CFA_XSP16, literal(-9)))
          CFI VB load(1, XDATA, add(CFA_XSP16, literal(-8)))
          CFI V0 load(1, XDATA, add(CFA_XSP16, literal(-7)))
          CFI R7 load(1, XDATA, add(CFA_XSP16, literal(-6)))
          CFI ?RET_LOW load(1, XDATA, add(CFA_XSP16, literal(-5)))
          CFI ?RET_HIGH load(1, XDATA, add(CFA_XSP16, literal(-4)))
          CFI ?BRET_EXT load(1, XDATA, add(CFA_XSP16, literal(-3)))
          CFI DPL0 load(1, XDATA, add(CFA_XSP16, literal(-2)))
          CFI DPH0 load(1, XDATA, add(CFA_XSP16, literal(-1)))
          CFI CFA_SP SP+-2
          CFI CFA_XSP16 add(XSP16, 9)
          CFI Block cfiCond171 Using cfiCommon0
          CFI (cfiCond171) Function afFindEndPointDescList
          CFI (cfiCond171) Conditional ??CrossCallReturnLabel_10
          CFI (cfiCond171) DPL0 Frame(CFA_SP, 4)
          CFI (cfiCond171) DPH0 Frame(CFA_SP, 5)
          CFI (cfiCond171) CFA_SP SP+-7
          CFI Block cfiCond172 Using cfiCommon0
          CFI (cfiCond172) Function afFindSimpleDesc
          CFI (cfiCond172) Conditional ??CrossCallReturnLabel_11
          CFI (cfiCond172) R6 load(1, XDATA, add(CFA_XSP16, literal(-12)))
          CFI (cfiCond172) VB load(1, XDATA, add(CFA_XSP16, literal(-11)))
          CFI (cfiCond172) V0 load(1, XDATA, add(CFA_XSP16, literal(-10)))
          CFI (cfiCond172) V1 load(1, XDATA, add(CFA_XSP16, literal(-9)))
          CFI (cfiCond172) V2 load(1, XDATA, add(CFA_XSP16, literal(-8)))
          CFI (cfiCond172) V3 load(1, XDATA, add(CFA_XSP16, literal(-7)))
          CFI (cfiCond172) R7 load(1, XDATA, add(CFA_XSP16, literal(-6)))
          CFI (cfiCond172) ?RET_LOW load(1, XDATA, add(CFA_XSP16, literal(-5)))
          CFI (cfiCond172) ?RET_HIGH load(1, XDATA, add(CFA_XSP16, literal(-4)))
          CFI (cfiCond172) ?BRET_EXT load(1, XDATA, add(CFA_XSP16, literal(-3)))
          CFI (cfiCond172) DPL0 load(1, XDATA, add(CFA_XSP16, literal(-2)))
          CFI (cfiCond172) DPH0 load(1, XDATA, add(CFA_XSP16, literal(-1)))
          CFI (cfiCond172) CFA_SP SP+-2
          CFI (cfiCond172) CFA_XSP16 add(XSP16, 12)
          CFI Block cfiPicker173 Using cfiCommon1
          CFI (cfiPicker173) NoFunction
          CFI (cfiPicker173) Picker
        MOVX      A,@DPTR
        MOV       R2,A
        INC       DPTR
        MOVX      A,@DPTR
        MOV       R3,A
        MOV       A,R2
        ORL       A,R3
        RET
          CFI EndBlock cfiCond170
          CFI EndBlock cfiCond171
          CFI EndBlock cfiCond172
          CFI EndBlock cfiPicker173
//  899 
//  900 /*********************************************************************
//  901  * @fn      afFindEndPointDesc
//  902  *
//  903  * @brief   Find the endpoint description entry from the endpoint
//  904  *          number.
//  905  *
//  906  * @param   EndPoint - Application Endpoint to look for
//  907  *
//  908  * @return  the address to the endpoint/interface description entry
//  909  */

        RSEG BANKED_CODE:HUGECODE:NOROOT(0)
//  910 endPointDesc_t *afFindEndPointDesc( uint8 EndPoint )
afFindEndPointDesc:
          CFI Block cfiBlock174 Using cfiCommon0
          CFI Function afFindEndPointDesc
        CODE
//  911 {
        FUNCALL afFindEndPointDesc, afFindEndPointDescList
        LOCFRAME ISTACK, 0, STACK
        LOCFRAME PSTACK, 0, STACK
        LOCFRAME XSTACK, 10, STACK
        LOCFRAME IOVERLAY, 0, STATIC
        LOCFRAME DOVERLAY, 0, STATIC
        ARGFRAME ISTACK, 0, STACK
        ARGFRAME PSTACK, 0, STACK
        ARGFRAME XSTACK, 10, STACK
        ARGFRAME IOVERLAY, 0, STATIC
        ARGFRAME DOVERLAY, 0, STATIC
        REQUIRE ?V0
        REQUIRE ?V1
        MOV       A,#-0xa
        LCALL     ?BANKED_ENTER_XDATA
          CFI DPH0 load(1, XDATA, add(CFA_XSP16, literal(-1)))
          CFI DPL0 load(1, XDATA, add(CFA_XSP16, literal(-2)))
          CFI ?BRET_EXT load(1, XDATA, add(CFA_XSP16, literal(-3)))
          CFI ?RET_HIGH load(1, XDATA, add(CFA_XSP16, literal(-4)))
          CFI ?RET_LOW load(1, XDATA, add(CFA_XSP16, literal(-5)))
          CFI R7 load(1, XDATA, add(CFA_XSP16, literal(-6)))
          CFI V1 load(1, XDATA, add(CFA_XSP16, literal(-7)))
          CFI V0 load(1, XDATA, add(CFA_XSP16, literal(-8)))
          CFI VB load(1, XDATA, add(CFA_XSP16, literal(-9)))
          CFI R6 load(1, XDATA, add(CFA_XSP16, literal(-10)))
          CFI CFA_SP SP+0
          CFI CFA_XSP16 add(XSP16, 10)
        ; Saved register size: 10
        ; Auto size: 0
//  912   epList_t *epSearch;
//  913 
//  914   // Look for the endpoint
//  915   epSearch = afFindEndPointDescList( EndPoint );
        ; Setup parameters for call to function afFindEndPointDescList
        LCALL     ?Subroutine28 & 0xFFFF
//  916 
//  917   if ( epSearch )
??CrossCallReturnLabel_47:
        JZ        ??afFindEndPointDesc_0
//  918     return ( epSearch->epDesc );
        LCALL     ??Subroutine45_0 & 0xFFFF
??CrossCallReturnLabel_105:
        SJMP      ??afFindEndPointDesc_1
//  919   else
//  920     return ( (endPointDesc_t *)NULL );
??afFindEndPointDesc_0:
        MOV       R2,#0x0
        MOV       R3,#0x0
??afFindEndPointDesc_1:
        LJMP      ?Subroutine1 & 0xFFFF
//  921 }
          CFI EndBlock cfiBlock174
//  922 
//  923 /*********************************************************************
//  924  * @fn      afFindSimpleDesc
//  925  *
//  926  * @brief   Find the Simple Descriptor from the endpoint number.
//  927  *
//  928  * @param   EP - Application Endpoint to look for.
//  929  *
//  930  * @return  Non-zero to indicate that the descriptor memory must be freed.
//  931  */

        RSEG BANKED_CODE:HUGECODE:NOROOT(0)
//  932 uint8 afFindSimpleDesc( SimpleDescriptionFormat_t **ppDesc, uint8 EP )
afFindSimpleDesc:
          CFI Block cfiBlock175 Using cfiCommon0
          CFI Function afFindSimpleDesc
        CODE
//  933 {
        FUNCALL afFindSimpleDesc, afFindEndPointDescList
        LOCFRAME ISTACK, 0, STACK
        LOCFRAME PSTACK, 0, STACK
        LOCFRAME XSTACK, 12, STACK
        LOCFRAME IOVERLAY, 0, STATIC
        LOCFRAME DOVERLAY, 0, STATIC
        ARGFRAME ISTACK, 0, STACK
        ARGFRAME PSTACK, 0, STACK
        ARGFRAME XSTACK, 12, STACK
        ARGFRAME IOVERLAY, 0, STATIC
        ARGFRAME DOVERLAY, 0, STATIC
        REQUIRE ?V0
        REQUIRE ?V2
        REQUIRE ?V3
        MOV       A,#-0xc
        LCALL     ?BANKED_ENTER_XDATA
          CFI DPH0 load(1, XDATA, add(CFA_XSP16, literal(-1)))
          CFI DPL0 load(1, XDATA, add(CFA_XSP16, literal(-2)))
          CFI ?BRET_EXT load(1, XDATA, add(CFA_XSP16, literal(-3)))
          CFI ?RET_HIGH load(1, XDATA, add(CFA_XSP16, literal(-4)))
          CFI ?RET_LOW load(1, XDATA, add(CFA_XSP16, literal(-5)))
          CFI R7 load(1, XDATA, add(CFA_XSP16, literal(-6)))
          CFI V3 load(1, XDATA, add(CFA_XSP16, literal(-7)))
          CFI V2 load(1, XDATA, add(CFA_XSP16, literal(-8)))
          CFI V1 load(1, XDATA, add(CFA_XSP16, literal(-9)))
          CFI V0 load(1, XDATA, add(CFA_XSP16, literal(-10)))
          CFI VB load(1, XDATA, add(CFA_XSP16, literal(-11)))
          CFI R6 load(1, XDATA, add(CFA_XSP16, literal(-12)))
          CFI CFA_SP SP+0
          CFI CFA_XSP16 add(XSP16, 12)
        ; Saved register size: 12
        ; Auto size: 0
        MOV       A,R2
        MOV       R6,A
        MOV       A,R3
        MOV       R7,A
        MOV       ?V0,R1
//  934   epList_t *epItem = afFindEndPointDescList( EP );
        ; Setup parameters for call to function afFindEndPointDescList
        LCALL     `??afFindEndPointDescList::?relay`; Banked call to: afFindEndPointDescList
        MOV       ?V2,R2
        MOV       ?V3,R3
        MOV       R4,?V2
        MOV       R5,?V3
//  935   uint8 rtrn = FALSE;
        MOV       R1,#0x0
//  936 
//  937   if ( epItem )
        MOV       A,R2
        ORL       A,R5
        JZ        ??afFindSimpleDesc_0
//  938   {
//  939     if ( epItem->pfnDescCB )
        MOV       DPL,R2
        MOV       DPH,R3
        INC       DPTR
        INC       DPTR
        INC       DPTR
        INC       DPTR
        LCALL     ?Subroutine9 & 0xFFFF
??CrossCallReturnLabel_11:
        JZ        ??afFindSimpleDesc_1
//  940     {
//  941       *ppDesc = epItem->pfnDescCB( AF_DESCRIPTOR_SIMPLE, EP );
        ; Setup parameters for indirect call
        MOV       R2,?V0
        INC       R1
        MOV       DPL,R4
        MOV       DPH,R5
        INC       DPTR
        INC       DPTR
        INC       DPTR
        INC       DPTR
        MOVX      A,@DPTR
        MOV       R0,A
        LCALL     ??Subroutine48_0 & 0xFFFF
??CrossCallReturnLabel_110:
        LCALL     ?CALL_IND
        MOV       DPL,R6
        MOV       DPH,R7
        MOV       A,R2
        MOVX      @DPTR,A
        INC       DPTR
        MOV       A,R3
        MOVX      @DPTR,A
//  942       rtrn = TRUE;
        MOV       R1,#0x1
        SJMP      ??afFindSimpleDesc_2
//  943     }
//  944     else
//  945     {
//  946       *ppDesc = epItem->epDesc->simpleDesc;
??afFindSimpleDesc_1:
        MOV       DPL,R4
        MOV       DPH,R5
        INC       DPTR
        INC       DPTR
        MOVX      A,@DPTR
        MOV       R0,A
        LCALL     ??Subroutine48_0 & 0xFFFF
//  947     }
//  948   }
??CrossCallReturnLabel_111:
        LCALL     ?Subroutine10 & 0xFFFF
??CrossCallReturnLabel_107:
        MOV       DPL,R6
        MOV       DPH,R7
        MOV       A,R2
        MOVX      @DPTR,A
        INC       DPTR
        MOV       A,R3
        SJMP      ??afFindSimpleDesc_3
//  949   else
//  950   {
//  951     *ppDesc = NULL;
??afFindSimpleDesc_0:
        MOV       DPL,R6
        MOV       DPH,R7
        CLR       A
        MOVX      @DPTR,A
        INC       DPTR
??afFindSimpleDesc_3:
        MOVX      @DPTR,A
//  952   }
//  953 
//  954   return rtrn;
??afFindSimpleDesc_2:
        LJMP      ?Subroutine0 & 0xFFFF
//  955 }
          CFI EndBlock cfiBlock175

        RSEG BANKED_CODE:HUGECODE:NOROOT(0)
?Subroutine11:
          CFI Block cfiCond176 Using cfiCommon0
          CFI Function afIncomingData
          CFI Conditional ??CrossCallReturnLabel_115
          CFI R6 load(1, XDATA, add(CFA_XSP16, literal(-24)))
          CFI VB load(1, XDATA, add(CFA_XSP16, literal(-23)))
          CFI V0 load(1, XDATA, add(CFA_XSP16, literal(-22)))
          CFI V1 load(1, XDATA, add(CFA_XSP16, literal(-21)))
          CFI V2 load(1, XDATA, add(CFA_XSP16, literal(-20)))
          CFI V3 load(1, XDATA, add(CFA_XSP16, literal(-19)))
          CFI V4 load(1, XDATA, add(CFA_XSP16, literal(-18)))
          CFI V5 load(1, XDATA, add(CFA_XSP16, literal(-17)))
          CFI V6 load(1, XDATA, add(CFA_XSP16, literal(-16)))
          CFI V7 load(1, XDATA, add(CFA_XSP16, literal(-15)))
          CFI V8 load(1, XDATA, add(CFA_XSP16, literal(-14)))
          CFI V9 load(1, XDATA, add(CFA_XSP16, literal(-13)))
          CFI V10 load(1, XDATA, add(CFA_XSP16, literal(-12)))
          CFI V11 load(1, XDATA, add(CFA_XSP16, literal(-11)))
          CFI V12 load(1, XDATA, add(CFA_XSP16, literal(-10)))
          CFI V13 load(1, XDATA, add(CFA_XSP16, literal(-9)))
          CFI V14 load(1, XDATA, add(CFA_XSP16, literal(-8)))
          CFI V15 load(1, XDATA, add(CFA_XSP16, literal(-7)))
          CFI R7 load(1, XDATA, add(CFA_XSP16, literal(-6)))
          CFI ?RET_LOW load(1, XDATA, add(CFA_XSP16, literal(-5)))
          CFI ?RET_HIGH load(1, XDATA, add(CFA_XSP16, literal(-4)))
          CFI ?BRET_EXT load(1, XDATA, add(CFA_XSP16, literal(-3)))
          CFI DPL0 load(1, XDATA, add(CFA_XSP16, literal(-2)))
          CFI DPH0 load(1, XDATA, add(CFA_XSP16, literal(-1)))
          CFI CFA_SP SP+-2
          CFI CFA_XSP16 add(XSP16, 28)
          CFI Block cfiCond177 Using cfiCommon0
          CFI (cfiCond177) Function AF_DataRequest
          CFI (cfiCond177) Conditional ??CrossCallReturnLabel_116
          CFI (cfiCond177) R6 load(1, XDATA, add(CFA_XSP16, literal(-18)))
          CFI (cfiCond177) VB load(1, XDATA, add(CFA_XSP16, literal(-17)))
          CFI (cfiCond177) V0 load(1, XDATA, add(CFA_XSP16, literal(-16)))
          CFI (cfiCond177) V1 load(1, XDATA, add(CFA_XSP16, literal(-15)))
          CFI (cfiCond177) V2 load(1, XDATA, add(CFA_XSP16, literal(-14)))
          CFI (cfiCond177) V3 load(1, XDATA, add(CFA_XSP16, literal(-13)))
          CFI (cfiCond177) V4 load(1, XDATA, add(CFA_XSP16, literal(-12)))
          CFI (cfiCond177) V5 load(1, XDATA, add(CFA_XSP16, literal(-11)))
          CFI (cfiCond177) V6 load(1, XDATA, add(CFA_XSP16, literal(-10)))
          CFI (cfiCond177) V7 load(1, XDATA, add(CFA_XSP16, literal(-9)))
          CFI (cfiCond177) V8 load(1, XDATA, add(CFA_XSP16, literal(-8)))
          CFI (cfiCond177) V9 load(1, XDATA, add(CFA_XSP16, literal(-7)))
          CFI (cfiCond177) R7 load(1, XDATA, add(CFA_XSP16, literal(-6)))
          CFI (cfiCond177) ?RET_LOW load(1, XDATA, add(CFA_XSP16, literal(-5)))
          CFI (cfiCond177) ?RET_HIGH load(1, XDATA, add(CFA_XSP16, literal(-4)))
          CFI (cfiCond177) ?BRET_EXT load(1, XDATA, add(CFA_XSP16, literal(-3)))
          CFI (cfiCond177) DPL0 load(1, XDATA, add(CFA_XSP16, literal(-2)))
          CFI (cfiCond177) DPH0 load(1, XDATA, add(CFA_XSP16, literal(-1)))
          CFI (cfiCond177) CFA_SP SP+-2
          CFI (cfiCond177) CFA_XSP16 add(XSP16, 51)
          CFI Block cfiPicker178 Using cfiCommon1
          CFI (cfiPicker178) NoFunction
          CFI (cfiPicker178) Picker
        MOV       DPL,?V0
        MOV       DPH,?V1
          CFI EndBlock cfiCond176
          CFI EndBlock cfiCond177
          CFI EndBlock cfiPicker178
        REQUIRE ??Subroutine47_0
        ; // Fall through to label ??Subroutine47_0

        RSEG BANKED_CODE:HUGECODE:NOROOT(0)
??Subroutine47_0:
          CFI Block cfiCond179 Using cfiCommon0
          CFI Function afIncomingData
          CFI Conditional ??CrossCallReturnLabel_113
          CFI R6 load(1, XDATA, add(CFA_XSP16, literal(-24)))
          CFI VB load(1, XDATA, add(CFA_XSP16, literal(-23)))
          CFI V0 load(1, XDATA, add(CFA_XSP16, literal(-22)))
          CFI V1 load(1, XDATA, add(CFA_XSP16, literal(-21)))
          CFI V2 load(1, XDATA, add(CFA_XSP16, literal(-20)))
          CFI V3 load(1, XDATA, add(CFA_XSP16, literal(-19)))
          CFI V4 load(1, XDATA, add(CFA_XSP16, literal(-18)))
          CFI V5 load(1, XDATA, add(CFA_XSP16, literal(-17)))
          CFI V6 load(1, XDATA, add(CFA_XSP16, literal(-16)))
          CFI V7 load(1, XDATA, add(CFA_XSP16, literal(-15)))
          CFI V8 load(1, XDATA, add(CFA_XSP16, literal(-14)))
          CFI V9 load(1, XDATA, add(CFA_XSP16, literal(-13)))
          CFI V10 load(1, XDATA, add(CFA_XSP16, literal(-12)))
          CFI V11 load(1, XDATA, add(CFA_XSP16, literal(-11)))
          CFI V12 load(1, XDATA, add(CFA_XSP16, literal(-10)))
          CFI V13 load(1, XDATA, add(CFA_XSP16, literal(-9)))
          CFI V14 load(1, XDATA, add(CFA_XSP16, literal(-8)))
          CFI V15 load(1, XDATA, add(CFA_XSP16, literal(-7)))
          CFI R7 load(1, XDATA, add(CFA_XSP16, literal(-6)))
          CFI ?RET_LOW load(1, XDATA, add(CFA_XSP16, literal(-5)))
          CFI ?RET_HIGH load(1, XDATA, add(CFA_XSP16, literal(-4)))
          CFI ?BRET_EXT load(1, XDATA, add(CFA_XSP16, literal(-3)))
          CFI DPL0 load(1, XDATA, add(CFA_XSP16, literal(-2)))
          CFI DPH0 load(1, XDATA, add(CFA_XSP16, literal(-1)))
          CFI CFA_SP SP+-2
          CFI CFA_XSP16 add(XSP16, 28)
          CFI Block cfiCond180 Using cfiCommon0
          CFI (cfiCond180) Function AF_DataRequest
          CFI (cfiCond180) Conditional ??CrossCallReturnLabel_114
          CFI (cfiCond180) R6 load(1, XDATA, add(CFA_XSP16, literal(-18)))
          CFI (cfiCond180) VB load(1, XDATA, add(CFA_XSP16, literal(-17)))
          CFI (cfiCond180) V0 load(1, XDATA, add(CFA_XSP16, literal(-16)))
          CFI (cfiCond180) V1 load(1, XDATA, add(CFA_XSP16, literal(-15)))
          CFI (cfiCond180) V2 load(1, XDATA, add(CFA_XSP16, literal(-14)))
          CFI (cfiCond180) V3 load(1, XDATA, add(CFA_XSP16, literal(-13)))
          CFI (cfiCond180) V4 load(1, XDATA, add(CFA_XSP16, literal(-12)))
          CFI (cfiCond180) V5 load(1, XDATA, add(CFA_XSP16, literal(-11)))
          CFI (cfiCond180) V6 load(1, XDATA, add(CFA_XSP16, literal(-10)))
          CFI (cfiCond180) V7 load(1, XDATA, add(CFA_XSP16, literal(-9)))
          CFI (cfiCond180) V8 load(1, XDATA, add(CFA_XSP16, literal(-8)))
          CFI (cfiCond180) V9 load(1, XDATA, add(CFA_XSP16, literal(-7)))
          CFI (cfiCond180) R7 load(1, XDATA, add(CFA_XSP16, literal(-6)))
          CFI (cfiCond180) ?RET_LOW load(1, XDATA, add(CFA_XSP16, literal(-5)))
          CFI (cfiCond180) ?RET_HIGH load(1, XDATA, add(CFA_XSP16, literal(-4)))
          CFI (cfiCond180) ?BRET_EXT load(1, XDATA, add(CFA_XSP16, literal(-3)))
          CFI (cfiCond180) DPL0 load(1, XDATA, add(CFA_XSP16, literal(-2)))
          CFI (cfiCond180) DPH0 load(1, XDATA, add(CFA_XSP16, literal(-1)))
          CFI (cfiCond180) CFA_SP SP+-2
          CFI (cfiCond180) CFA_XSP16 add(XSP16, 51)
          CFI Block cfiCond181 Using cfiCommon0
          CFI (cfiCond181) Function afIncomingData
          CFI (cfiCond181) Conditional ??CrossCallReturnLabel_115
          CFI (cfiCond181) R6 load(1, XDATA, add(CFA_XSP16, literal(-24)))
          CFI (cfiCond181) VB load(1, XDATA, add(CFA_XSP16, literal(-23)))
          CFI (cfiCond181) V0 load(1, XDATA, add(CFA_XSP16, literal(-22)))
          CFI (cfiCond181) V1 load(1, XDATA, add(CFA_XSP16, literal(-21)))
          CFI (cfiCond181) V2 load(1, XDATA, add(CFA_XSP16, literal(-20)))
          CFI (cfiCond181) V3 load(1, XDATA, add(CFA_XSP16, literal(-19)))
          CFI (cfiCond181) V4 load(1, XDATA, add(CFA_XSP16, literal(-18)))
          CFI (cfiCond181) V5 load(1, XDATA, add(CFA_XSP16, literal(-17)))
          CFI (cfiCond181) V6 load(1, XDATA, add(CFA_XSP16, literal(-16)))
          CFI (cfiCond181) V7 load(1, XDATA, add(CFA_XSP16, literal(-15)))
          CFI (cfiCond181) V8 load(1, XDATA, add(CFA_XSP16, literal(-14)))
          CFI (cfiCond181) V9 load(1, XDATA, add(CFA_XSP16, literal(-13)))
          CFI (cfiCond181) V10 load(1, XDATA, add(CFA_XSP16, literal(-12)))
          CFI (cfiCond181) V11 load(1, XDATA, add(CFA_XSP16, literal(-11)))
          CFI (cfiCond181) V12 load(1, XDATA, add(CFA_XSP16, literal(-10)))
          CFI (cfiCond181) V13 load(1, XDATA, add(CFA_XSP16, literal(-9)))
          CFI (cfiCond181) V14 load(1, XDATA, add(CFA_XSP16, literal(-8)))
          CFI (cfiCond181) V15 load(1, XDATA, add(CFA_XSP16, literal(-7)))
          CFI (cfiCond181) R7 load(1, XDATA, add(CFA_XSP16, literal(-6)))
          CFI (cfiCond181) ?RET_LOW load(1, XDATA, add(CFA_XSP16, literal(-5)))
          CFI (cfiCond181) ?RET_HIGH load(1, XDATA, add(CFA_XSP16, literal(-4)))
          CFI (cfiCond181) ?BRET_EXT load(1, XDATA, add(CFA_XSP16, literal(-3)))
          CFI (cfiCond181) DPL0 load(1, XDATA, add(CFA_XSP16, literal(-2)))
          CFI (cfiCond181) DPH0 load(1, XDATA, add(CFA_XSP16, literal(-1)))
          CFI (cfiCond181) CFA_SP SP+-2
          CFI (cfiCond181) CFA_XSP16 add(XSP16, 28)
          CFI Block cfiCond182 Using cfiCommon0
          CFI (cfiCond182) Function AF_DataRequest
          CFI (cfiCond182) Conditional ??CrossCallReturnLabel_116
          CFI (cfiCond182) R6 load(1, XDATA, add(CFA_XSP16, literal(-18)))
          CFI (cfiCond182) VB load(1, XDATA, add(CFA_XSP16, literal(-17)))
          CFI (cfiCond182) V0 load(1, XDATA, add(CFA_XSP16, literal(-16)))
          CFI (cfiCond182) V1 load(1, XDATA, add(CFA_XSP16, literal(-15)))
          CFI (cfiCond182) V2 load(1, XDATA, add(CFA_XSP16, literal(-14)))
          CFI (cfiCond182) V3 load(1, XDATA, add(CFA_XSP16, literal(-13)))
          CFI (cfiCond182) V4 load(1, XDATA, add(CFA_XSP16, literal(-12)))
          CFI (cfiCond182) V5 load(1, XDATA, add(CFA_XSP16, literal(-11)))
          CFI (cfiCond182) V6 load(1, XDATA, add(CFA_XSP16, literal(-10)))
          CFI (cfiCond182) V7 load(1, XDATA, add(CFA_XSP16, literal(-9)))
          CFI (cfiCond182) V8 load(1, XDATA, add(CFA_XSP16, literal(-8)))
          CFI (cfiCond182) V9 load(1, XDATA, add(CFA_XSP16, literal(-7)))
          CFI (cfiCond182) R7 load(1, XDATA, add(CFA_XSP16, literal(-6)))
          CFI (cfiCond182) ?RET_LOW load(1, XDATA, add(CFA_XSP16, literal(-5)))
          CFI (cfiCond182) ?RET_HIGH load(1, XDATA, add(CFA_XSP16, literal(-4)))
          CFI (cfiCond182) ?BRET_EXT load(1, XDATA, add(CFA_XSP16, literal(-3)))
          CFI (cfiCond182) DPL0 load(1, XDATA, add(CFA_XSP16, literal(-2)))
          CFI (cfiCond182) DPH0 load(1, XDATA, add(CFA_XSP16, literal(-1)))
          CFI (cfiCond182) CFA_SP SP+-2
          CFI (cfiCond182) CFA_XSP16 add(XSP16, 51)
          CFI Block cfiPicker183 Using cfiCommon1
          CFI (cfiPicker183) NoFunction
          CFI (cfiPicker183) Picker
        INC       DPTR
        INC       DPTR
        INC       DPTR
        INC       DPTR
          CFI EndBlock cfiCond179
          CFI EndBlock cfiCond180
          CFI EndBlock cfiCond181
          CFI EndBlock cfiCond182
          CFI EndBlock cfiPicker183
        REQUIRE ??Subroutine48_0
        ; // Fall through to label ??Subroutine48_0

        RSEG BANKED_CODE:HUGECODE:NOROOT(0)
??Subroutine48_0:
          CFI Block cfiCond184 Using cfiCommon0
          CFI Function afFindEndPointDescList
          CFI Conditional ??CrossCallReturnLabel_109
          CFI DPL0 Frame(CFA_SP, 4)
          CFI DPH0 Frame(CFA_SP, 5)
          CFI CFA_SP SP+-7
          CFI Block cfiCond185 Using cfiCommon0
          CFI (cfiCond185) Function afFindSimpleDesc
          CFI (cfiCond185) Conditional ??CrossCallReturnLabel_110
          CFI (cfiCond185) R6 load(1, XDATA, add(CFA_XSP16, literal(-12)))
          CFI (cfiCond185) VB load(1, XDATA, add(CFA_XSP16, literal(-11)))
          CFI (cfiCond185) V0 load(1, XDATA, add(CFA_XSP16, literal(-10)))
          CFI (cfiCond185) V1 load(1, XDATA, add(CFA_XSP16, literal(-9)))
          CFI (cfiCond185) V2 load(1, XDATA, add(CFA_XSP16, literal(-8)))
          CFI (cfiCond185) V3 load(1, XDATA, add(CFA_XSP16, literal(-7)))
          CFI (cfiCond185) R7 load(1, XDATA, add(CFA_XSP16, literal(-6)))
          CFI (cfiCond185) ?RET_LOW load(1, XDATA, add(CFA_XSP16, literal(-5)))
          CFI (cfiCond185) ?RET_HIGH load(1, XDATA, add(CFA_XSP16, literal(-4)))
          CFI (cfiCond185) ?BRET_EXT load(1, XDATA, add(CFA_XSP16, literal(-3)))
          CFI (cfiCond185) DPL0 load(1, XDATA, add(CFA_XSP16, literal(-2)))
          CFI (cfiCond185) DPH0 load(1, XDATA, add(CFA_XSP16, literal(-1)))
          CFI (cfiCond185) CFA_SP SP+-2
          CFI (cfiCond185) CFA_XSP16 add(XSP16, 12)
          CFI Block cfiCond186 Using cfiCommon0
          CFI (cfiCond186) Function afFindSimpleDesc
          CFI (cfiCond186) Conditional ??CrossCallReturnLabel_111
          CFI (cfiCond186) R6 load(1, XDATA, add(CFA_XSP16, literal(-12)))
          CFI (cfiCond186) VB load(1, XDATA, add(CFA_XSP16, literal(-11)))
          CFI (cfiCond186) V0 load(1, XDATA, add(CFA_XSP16, literal(-10)))
          CFI (cfiCond186) V1 load(1, XDATA, add(CFA_XSP16, literal(-9)))
          CFI (cfiCond186) V2 load(1, XDATA, add(CFA_XSP16, literal(-8)))
          CFI (cfiCond186) V3 load(1, XDATA, add(CFA_XSP16, literal(-7)))
          CFI (cfiCond186) R7 load(1, XDATA, add(CFA_XSP16, literal(-6)))
          CFI (cfiCond186) ?RET_LOW load(1, XDATA, add(CFA_XSP16, literal(-5)))
          CFI (cfiCond186) ?RET_HIGH load(1, XDATA, add(CFA_XSP16, literal(-4)))
          CFI (cfiCond186) ?BRET_EXT load(1, XDATA, add(CFA_XSP16, literal(-3)))
          CFI (cfiCond186) DPL0 load(1, XDATA, add(CFA_XSP16, literal(-2)))
          CFI (cfiCond186) DPH0 load(1, XDATA, add(CFA_XSP16, literal(-1)))
          CFI (cfiCond186) CFA_SP SP+-2
          CFI (cfiCond186) CFA_XSP16 add(XSP16, 12)
          CFI Block cfiCond187 Using cfiCommon0
          CFI (cfiCond187) Function afEndPoints
          CFI (cfiCond187) Conditional ??CrossCallReturnLabel_112
          CFI (cfiCond187) DPL0 Frame(CFA_SP, 4)
          CFI (cfiCond187) DPH0 Frame(CFA_SP, 5)
          CFI (cfiCond187) CFA_SP SP+-7
          CFI Block cfiCond188 Using cfiCommon0
          CFI (cfiCond188) Function afIncomingData
          CFI (cfiCond188) Conditional ??CrossCallReturnLabel_113
          CFI (cfiCond188) R6 load(1, XDATA, add(CFA_XSP16, literal(-24)))
          CFI (cfiCond188) VB load(1, XDATA, add(CFA_XSP16, literal(-23)))
          CFI (cfiCond188) V0 load(1, XDATA, add(CFA_XSP16, literal(-22)))
          CFI (cfiCond188) V1 load(1, XDATA, add(CFA_XSP16, literal(-21)))
          CFI (cfiCond188) V2 load(1, XDATA, add(CFA_XSP16, literal(-20)))
          CFI (cfiCond188) V3 load(1, XDATA, add(CFA_XSP16, literal(-19)))
          CFI (cfiCond188) V4 load(1, XDATA, add(CFA_XSP16, literal(-18)))
          CFI (cfiCond188) V5 load(1, XDATA, add(CFA_XSP16, literal(-17)))
          CFI (cfiCond188) V6 load(1, XDATA, add(CFA_XSP16, literal(-16)))
          CFI (cfiCond188) V7 load(1, XDATA, add(CFA_XSP16, literal(-15)))
          CFI (cfiCond188) V8 load(1, XDATA, add(CFA_XSP16, literal(-14)))
          CFI (cfiCond188) V9 load(1, XDATA, add(CFA_XSP16, literal(-13)))
          CFI (cfiCond188) V10 load(1, XDATA, add(CFA_XSP16, literal(-12)))
          CFI (cfiCond188) V11 load(1, XDATA, add(CFA_XSP16, literal(-11)))
          CFI (cfiCond188) V12 load(1, XDATA, add(CFA_XSP16, literal(-10)))
          CFI (cfiCond188) V13 load(1, XDATA, add(CFA_XSP16, literal(-9)))
          CFI (cfiCond188) V14 load(1, XDATA, add(CFA_XSP16, literal(-8)))
          CFI (cfiCond188) V15 load(1, XDATA, add(CFA_XSP16, literal(-7)))
          CFI (cfiCond188) R7 load(1, XDATA, add(CFA_XSP16, literal(-6)))
          CFI (cfiCond188) ?RET_LOW load(1, XDATA, add(CFA_XSP16, literal(-5)))
          CFI (cfiCond188) ?RET_HIGH load(1, XDATA, add(CFA_XSP16, literal(-4)))
          CFI (cfiCond188) ?BRET_EXT load(1, XDATA, add(CFA_XSP16, literal(-3)))
          CFI (cfiCond188) DPL0 load(1, XDATA, add(CFA_XSP16, literal(-2)))
          CFI (cfiCond188) DPH0 load(1, XDATA, add(CFA_XSP16, literal(-1)))
          CFI (cfiCond188) CFA_SP SP+-2
          CFI (cfiCond188) CFA_XSP16 add(XSP16, 28)
          CFI Block cfiCond189 Using cfiCommon0
          CFI (cfiCond189) Function AF_DataRequest
          CFI (cfiCond189) Conditional ??CrossCallReturnLabel_114
          CFI (cfiCond189) R6 load(1, XDATA, add(CFA_XSP16, literal(-18)))
          CFI (cfiCond189) VB load(1, XDATA, add(CFA_XSP16, literal(-17)))
          CFI (cfiCond189) V0 load(1, XDATA, add(CFA_XSP16, literal(-16)))
          CFI (cfiCond189) V1 load(1, XDATA, add(CFA_XSP16, literal(-15)))
          CFI (cfiCond189) V2 load(1, XDATA, add(CFA_XSP16, literal(-14)))
          CFI (cfiCond189) V3 load(1, XDATA, add(CFA_XSP16, literal(-13)))
          CFI (cfiCond189) V4 load(1, XDATA, add(CFA_XSP16, literal(-12)))
          CFI (cfiCond189) V5 load(1, XDATA, add(CFA_XSP16, literal(-11)))
          CFI (cfiCond189) V6 load(1, XDATA, add(CFA_XSP16, literal(-10)))
          CFI (cfiCond189) V7 load(1, XDATA, add(CFA_XSP16, literal(-9)))
          CFI (cfiCond189) V8 load(1, XDATA, add(CFA_XSP16, literal(-8)))
          CFI (cfiCond189) V9 load(1, XDATA, add(CFA_XSP16, literal(-7)))
          CFI (cfiCond189) R7 load(1, XDATA, add(CFA_XSP16, literal(-6)))
          CFI (cfiCond189) ?RET_LOW load(1, XDATA, add(CFA_XSP16, literal(-5)))
          CFI (cfiCond189) ?RET_HIGH load(1, XDATA, add(CFA_XSP16, literal(-4)))
          CFI (cfiCond189) ?BRET_EXT load(1, XDATA, add(CFA_XSP16, literal(-3)))
          CFI (cfiCond189) DPL0 load(1, XDATA, add(CFA_XSP16, literal(-2)))
          CFI (cfiCond189) DPH0 load(1, XDATA, add(CFA_XSP16, literal(-1)))
          CFI (cfiCond189) CFA_SP SP+-2
          CFI (cfiCond189) CFA_XSP16 add(XSP16, 51)
          CFI Block cfiCond190 Using cfiCommon0
          CFI (cfiCond190) Function afIncomingData
          CFI (cfiCond190) Conditional ??CrossCallReturnLabel_115
          CFI (cfiCond190) R6 load(1, XDATA, add(CFA_XSP16, literal(-24)))
          CFI (cfiCond190) VB load(1, XDATA, add(CFA_XSP16, literal(-23)))
          CFI (cfiCond190) V0 load(1, XDATA, add(CFA_XSP16, literal(-22)))
          CFI (cfiCond190) V1 load(1, XDATA, add(CFA_XSP16, literal(-21)))
          CFI (cfiCond190) V2 load(1, XDATA, add(CFA_XSP16, literal(-20)))
          CFI (cfiCond190) V3 load(1, XDATA, add(CFA_XSP16, literal(-19)))
          CFI (cfiCond190) V4 load(1, XDATA, add(CFA_XSP16, literal(-18)))
          CFI (cfiCond190) V5 load(1, XDATA, add(CFA_XSP16, literal(-17)))
          CFI (cfiCond190) V6 load(1, XDATA, add(CFA_XSP16, literal(-16)))
          CFI (cfiCond190) V7 load(1, XDATA, add(CFA_XSP16, literal(-15)))
          CFI (cfiCond190) V8 load(1, XDATA, add(CFA_XSP16, literal(-14)))
          CFI (cfiCond190) V9 load(1, XDATA, add(CFA_XSP16, literal(-13)))
          CFI (cfiCond190) V10 load(1, XDATA, add(CFA_XSP16, literal(-12)))
          CFI (cfiCond190) V11 load(1, XDATA, add(CFA_XSP16, literal(-11)))
          CFI (cfiCond190) V12 load(1, XDATA, add(CFA_XSP16, literal(-10)))
          CFI (cfiCond190) V13 load(1, XDATA, add(CFA_XSP16, literal(-9)))
          CFI (cfiCond190) V14 load(1, XDATA, add(CFA_XSP16, literal(-8)))
          CFI (cfiCond190) V15 load(1, XDATA, add(CFA_XSP16, literal(-7)))
          CFI (cfiCond190) R7 load(1, XDATA, add(CFA_XSP16, literal(-6)))
          CFI (cfiCond190) ?RET_LOW load(1, XDATA, add(CFA_XSP16, literal(-5)))
          CFI (cfiCond190) ?RET_HIGH load(1, XDATA, add(CFA_XSP16, literal(-4)))
          CFI (cfiCond190) ?BRET_EXT load(1, XDATA, add(CFA_XSP16, literal(-3)))
          CFI (cfiCond190) DPL0 load(1, XDATA, add(CFA_XSP16, literal(-2)))
          CFI (cfiCond190) DPH0 load(1, XDATA, add(CFA_XSP16, literal(-1)))
          CFI (cfiCond190) CFA_SP SP+-2
          CFI (cfiCond190) CFA_XSP16 add(XSP16, 28)
          CFI Block cfiCond191 Using cfiCommon0
          CFI (cfiCond191) Function AF_DataRequest
          CFI (cfiCond191) Conditional ??CrossCallReturnLabel_116
          CFI (cfiCond191) R6 load(1, XDATA, add(CFA_XSP16, literal(-18)))
          CFI (cfiCond191) VB load(1, XDATA, add(CFA_XSP16, literal(-17)))
          CFI (cfiCond191) V0 load(1, XDATA, add(CFA_XSP16, literal(-16)))
          CFI (cfiCond191) V1 load(1, XDATA, add(CFA_XSP16, literal(-15)))
          CFI (cfiCond191) V2 load(1, XDATA, add(CFA_XSP16, literal(-14)))
          CFI (cfiCond191) V3 load(1, XDATA, add(CFA_XSP16, literal(-13)))
          CFI (cfiCond191) V4 load(1, XDATA, add(CFA_XSP16, literal(-12)))
          CFI (cfiCond191) V5 load(1, XDATA, add(CFA_XSP16, literal(-11)))
          CFI (cfiCond191) V6 load(1, XDATA, add(CFA_XSP16, literal(-10)))
          CFI (cfiCond191) V7 load(1, XDATA, add(CFA_XSP16, literal(-9)))
          CFI (cfiCond191) V8 load(1, XDATA, add(CFA_XSP16, literal(-8)))
          CFI (cfiCond191) V9 load(1, XDATA, add(CFA_XSP16, literal(-7)))
          CFI (cfiCond191) R7 load(1, XDATA, add(CFA_XSP16, literal(-6)))
          CFI (cfiCond191) ?RET_LOW load(1, XDATA, add(CFA_XSP16, literal(-5)))
          CFI (cfiCond191) ?RET_HIGH load(1, XDATA, add(CFA_XSP16, literal(-4)))
          CFI (cfiCond191) ?BRET_EXT load(1, XDATA, add(CFA_XSP16, literal(-3)))
          CFI (cfiCond191) DPL0 load(1, XDATA, add(CFA_XSP16, literal(-2)))
          CFI (cfiCond191) DPH0 load(1, XDATA, add(CFA_XSP16, literal(-1)))
          CFI (cfiCond191) CFA_SP SP+-2
          CFI (cfiCond191) CFA_XSP16 add(XSP16, 51)
          CFI Block cfiPicker192 Using cfiCommon1
          CFI (cfiPicker192) NoFunction
          CFI (cfiPicker192) Picker
        INC       DPTR
          CFI EndBlock cfiCond184
          CFI EndBlock cfiCond185
          CFI EndBlock cfiCond186
          CFI EndBlock cfiCond187
          CFI EndBlock cfiCond188
          CFI EndBlock cfiCond189
          CFI EndBlock cfiCond190
          CFI EndBlock cfiCond191
          CFI EndBlock cfiPicker192
        REQUIRE ??Subroutine49_0
        ; // Fall through to label ??Subroutine49_0

        RSEG BANKED_CODE:HUGECODE:NOROOT(0)
??Subroutine49_0:
          CFI Block cfiCond193 Using cfiCommon0
          CFI Function AF_DataRequest
          CFI Conditional ??CrossCallReturnLabel_108
          CFI R6 load(1, XDATA, add(CFA_XSP16, literal(-18)))
          CFI VB load(1, XDATA, add(CFA_XSP16, literal(-17)))
          CFI V0 load(1, XDATA, add(CFA_XSP16, literal(-16)))
          CFI V1 load(1, XDATA, add(CFA_XSP16, literal(-15)))
          CFI V2 load(1, XDATA, add(CFA_XSP16, literal(-14)))
          CFI V3 load(1, XDATA, add(CFA_XSP16, literal(-13)))
          CFI V4 load(1, XDATA, add(CFA_XSP16, literal(-12)))
          CFI V5 load(1, XDATA, add(CFA_XSP16, literal(-11)))
          CFI V6 load(1, XDATA, add(CFA_XSP16, literal(-10)))
          CFI V7 load(1, XDATA, add(CFA_XSP16, literal(-9)))
          CFI V8 load(1, XDATA, add(CFA_XSP16, literal(-8)))
          CFI V9 load(1, XDATA, add(CFA_XSP16, literal(-7)))
          CFI R7 load(1, XDATA, add(CFA_XSP16, literal(-6)))
          CFI ?RET_LOW load(1, XDATA, add(CFA_XSP16, literal(-5)))
          CFI ?RET_HIGH load(1, XDATA, add(CFA_XSP16, literal(-4)))
          CFI ?BRET_EXT load(1, XDATA, add(CFA_XSP16, literal(-3)))
          CFI DPL0 load(1, XDATA, add(CFA_XSP16, literal(-2)))
          CFI DPH0 load(1, XDATA, add(CFA_XSP16, literal(-1)))
          CFI CFA_SP SP+-2
          CFI CFA_XSP16 add(XSP16, 51)
          CFI Block cfiCond194 Using cfiCommon0
          CFI (cfiCond194) Function afFindEndPointDescList
          CFI (cfiCond194) Conditional ??CrossCallReturnLabel_109
          CFI (cfiCond194) DPL0 Frame(CFA_SP, 4)
          CFI (cfiCond194) DPH0 Frame(CFA_SP, 5)
          CFI (cfiCond194) CFA_SP SP+-7
          CFI Block cfiCond195 Using cfiCommon0
          CFI (cfiCond195) Function afFindSimpleDesc
          CFI (cfiCond195) Conditional ??CrossCallReturnLabel_110
          CFI (cfiCond195) R6 load(1, XDATA, add(CFA_XSP16, literal(-12)))
          CFI (cfiCond195) VB load(1, XDATA, add(CFA_XSP16, literal(-11)))
          CFI (cfiCond195) V0 load(1, XDATA, add(CFA_XSP16, literal(-10)))
          CFI (cfiCond195) V1 load(1, XDATA, add(CFA_XSP16, literal(-9)))
          CFI (cfiCond195) V2 load(1, XDATA, add(CFA_XSP16, literal(-8)))
          CFI (cfiCond195) V3 load(1, XDATA, add(CFA_XSP16, literal(-7)))
          CFI (cfiCond195) R7 load(1, XDATA, add(CFA_XSP16, literal(-6)))
          CFI (cfiCond195) ?RET_LOW load(1, XDATA, add(CFA_XSP16, literal(-5)))
          CFI (cfiCond195) ?RET_HIGH load(1, XDATA, add(CFA_XSP16, literal(-4)))
          CFI (cfiCond195) ?BRET_EXT load(1, XDATA, add(CFA_XSP16, literal(-3)))
          CFI (cfiCond195) DPL0 load(1, XDATA, add(CFA_XSP16, literal(-2)))
          CFI (cfiCond195) DPH0 load(1, XDATA, add(CFA_XSP16, literal(-1)))
          CFI (cfiCond195) CFA_SP SP+-2
          CFI (cfiCond195) CFA_XSP16 add(XSP16, 12)
          CFI Block cfiCond196 Using cfiCommon0
          CFI (cfiCond196) Function afFindSimpleDesc
          CFI (cfiCond196) Conditional ??CrossCallReturnLabel_111
          CFI (cfiCond196) R6 load(1, XDATA, add(CFA_XSP16, literal(-12)))
          CFI (cfiCond196) VB load(1, XDATA, add(CFA_XSP16, literal(-11)))
          CFI (cfiCond196) V0 load(1, XDATA, add(CFA_XSP16, literal(-10)))
          CFI (cfiCond196) V1 load(1, XDATA, add(CFA_XSP16, literal(-9)))
          CFI (cfiCond196) V2 load(1, XDATA, add(CFA_XSP16, literal(-8)))
          CFI (cfiCond196) V3 load(1, XDATA, add(CFA_XSP16, literal(-7)))
          CFI (cfiCond196) R7 load(1, XDATA, add(CFA_XSP16, literal(-6)))
          CFI (cfiCond196) ?RET_LOW load(1, XDATA, add(CFA_XSP16, literal(-5)))
          CFI (cfiCond196) ?RET_HIGH load(1, XDATA, add(CFA_XSP16, literal(-4)))
          CFI (cfiCond196) ?BRET_EXT load(1, XDATA, add(CFA_XSP16, literal(-3)))
          CFI (cfiCond196) DPL0 load(1, XDATA, add(CFA_XSP16, literal(-2)))
          CFI (cfiCond196) DPH0 load(1, XDATA, add(CFA_XSP16, literal(-1)))
          CFI (cfiCond196) CFA_SP SP+-2
          CFI (cfiCond196) CFA_XSP16 add(XSP16, 12)
          CFI Block cfiCond197 Using cfiCommon0
          CFI (cfiCond197) Function afEndPoints
          CFI (cfiCond197) Conditional ??CrossCallReturnLabel_112
          CFI (cfiCond197) DPL0 Frame(CFA_SP, 4)
          CFI (cfiCond197) DPH0 Frame(CFA_SP, 5)
          CFI (cfiCond197) CFA_SP SP+-7
          CFI Block cfiCond198 Using cfiCommon0
          CFI (cfiCond198) Function afIncomingData
          CFI (cfiCond198) Conditional ??CrossCallReturnLabel_113
          CFI (cfiCond198) R6 load(1, XDATA, add(CFA_XSP16, literal(-24)))
          CFI (cfiCond198) VB load(1, XDATA, add(CFA_XSP16, literal(-23)))
          CFI (cfiCond198) V0 load(1, XDATA, add(CFA_XSP16, literal(-22)))
          CFI (cfiCond198) V1 load(1, XDATA, add(CFA_XSP16, literal(-21)))
          CFI (cfiCond198) V2 load(1, XDATA, add(CFA_XSP16, literal(-20)))
          CFI (cfiCond198) V3 load(1, XDATA, add(CFA_XSP16, literal(-19)))
          CFI (cfiCond198) V4 load(1, XDATA, add(CFA_XSP16, literal(-18)))
          CFI (cfiCond198) V5 load(1, XDATA, add(CFA_XSP16, literal(-17)))
          CFI (cfiCond198) V6 load(1, XDATA, add(CFA_XSP16, literal(-16)))
          CFI (cfiCond198) V7 load(1, XDATA, add(CFA_XSP16, literal(-15)))
          CFI (cfiCond198) V8 load(1, XDATA, add(CFA_XSP16, literal(-14)))
          CFI (cfiCond198) V9 load(1, XDATA, add(CFA_XSP16, literal(-13)))
          CFI (cfiCond198) V10 load(1, XDATA, add(CFA_XSP16, literal(-12)))
          CFI (cfiCond198) V11 load(1, XDATA, add(CFA_XSP16, literal(-11)))
          CFI (cfiCond198) V12 load(1, XDATA, add(CFA_XSP16, literal(-10)))
          CFI (cfiCond198) V13 load(1, XDATA, add(CFA_XSP16, literal(-9)))
          CFI (cfiCond198) V14 load(1, XDATA, add(CFA_XSP16, literal(-8)))
          CFI (cfiCond198) V15 load(1, XDATA, add(CFA_XSP16, literal(-7)))
          CFI (cfiCond198) R7 load(1, XDATA, add(CFA_XSP16, literal(-6)))
          CFI (cfiCond198) ?RET_LOW load(1, XDATA, add(CFA_XSP16, literal(-5)))
          CFI (cfiCond198) ?RET_HIGH load(1, XDATA, add(CFA_XSP16, literal(-4)))
          CFI (cfiCond198) ?BRET_EXT load(1, XDATA, add(CFA_XSP16, literal(-3)))
          CFI (cfiCond198) DPL0 load(1, XDATA, add(CFA_XSP16, literal(-2)))
          CFI (cfiCond198) DPH0 load(1, XDATA, add(CFA_XSP16, literal(-1)))
          CFI (cfiCond198) CFA_SP SP+-2
          CFI (cfiCond198) CFA_XSP16 add(XSP16, 28)
          CFI Block cfiCond199 Using cfiCommon0
          CFI (cfiCond199) Function AF_DataRequest
          CFI (cfiCond199) Conditional ??CrossCallReturnLabel_114
          CFI (cfiCond199) R6 load(1, XDATA, add(CFA_XSP16, literal(-18)))
          CFI (cfiCond199) VB load(1, XDATA, add(CFA_XSP16, literal(-17)))
          CFI (cfiCond199) V0 load(1, XDATA, add(CFA_XSP16, literal(-16)))
          CFI (cfiCond199) V1 load(1, XDATA, add(CFA_XSP16, literal(-15)))
          CFI (cfiCond199) V2 load(1, XDATA, add(CFA_XSP16, literal(-14)))
          CFI (cfiCond199) V3 load(1, XDATA, add(CFA_XSP16, literal(-13)))
          CFI (cfiCond199) V4 load(1, XDATA, add(CFA_XSP16, literal(-12)))
          CFI (cfiCond199) V5 load(1, XDATA, add(CFA_XSP16, literal(-11)))
          CFI (cfiCond199) V6 load(1, XDATA, add(CFA_XSP16, literal(-10)))
          CFI (cfiCond199) V7 load(1, XDATA, add(CFA_XSP16, literal(-9)))
          CFI (cfiCond199) V8 load(1, XDATA, add(CFA_XSP16, literal(-8)))
          CFI (cfiCond199) V9 load(1, XDATA, add(CFA_XSP16, literal(-7)))
          CFI (cfiCond199) R7 load(1, XDATA, add(CFA_XSP16, literal(-6)))
          CFI (cfiCond199) ?RET_LOW load(1, XDATA, add(CFA_XSP16, literal(-5)))
          CFI (cfiCond199) ?RET_HIGH load(1, XDATA, add(CFA_XSP16, literal(-4)))
          CFI (cfiCond199) ?BRET_EXT load(1, XDATA, add(CFA_XSP16, literal(-3)))
          CFI (cfiCond199) DPL0 load(1, XDATA, add(CFA_XSP16, literal(-2)))
          CFI (cfiCond199) DPH0 load(1, XDATA, add(CFA_XSP16, literal(-1)))
          CFI (cfiCond199) CFA_SP SP+-2
          CFI (cfiCond199) CFA_XSP16 add(XSP16, 51)
          CFI Block cfiCond200 Using cfiCommon0
          CFI (cfiCond200) Function afIncomingData
          CFI (cfiCond200) Conditional ??CrossCallReturnLabel_115
          CFI (cfiCond200) R6 load(1, XDATA, add(CFA_XSP16, literal(-24)))
          CFI (cfiCond200) VB load(1, XDATA, add(CFA_XSP16, literal(-23)))
          CFI (cfiCond200) V0 load(1, XDATA, add(CFA_XSP16, literal(-22)))
          CFI (cfiCond200) V1 load(1, XDATA, add(CFA_XSP16, literal(-21)))
          CFI (cfiCond200) V2 load(1, XDATA, add(CFA_XSP16, literal(-20)))
          CFI (cfiCond200) V3 load(1, XDATA, add(CFA_XSP16, literal(-19)))
          CFI (cfiCond200) V4 load(1, XDATA, add(CFA_XSP16, literal(-18)))
          CFI (cfiCond200) V5 load(1, XDATA, add(CFA_XSP16, literal(-17)))
          CFI (cfiCond200) V6 load(1, XDATA, add(CFA_XSP16, literal(-16)))
          CFI (cfiCond200) V7 load(1, XDATA, add(CFA_XSP16, literal(-15)))
          CFI (cfiCond200) V8 load(1, XDATA, add(CFA_XSP16, literal(-14)))
          CFI (cfiCond200) V9 load(1, XDATA, add(CFA_XSP16, literal(-13)))
          CFI (cfiCond200) V10 load(1, XDATA, add(CFA_XSP16, literal(-12)))
          CFI (cfiCond200) V11 load(1, XDATA, add(CFA_XSP16, literal(-11)))
          CFI (cfiCond200) V12 load(1, XDATA, add(CFA_XSP16, literal(-10)))
          CFI (cfiCond200) V13 load(1, XDATA, add(CFA_XSP16, literal(-9)))
          CFI (cfiCond200) V14 load(1, XDATA, add(CFA_XSP16, literal(-8)))
          CFI (cfiCond200) V15 load(1, XDATA, add(CFA_XSP16, literal(-7)))
          CFI (cfiCond200) R7 load(1, XDATA, add(CFA_XSP16, literal(-6)))
          CFI (cfiCond200) ?RET_LOW load(1, XDATA, add(CFA_XSP16, literal(-5)))
          CFI (cfiCond200) ?RET_HIGH load(1, XDATA, add(CFA_XSP16, literal(-4)))
          CFI (cfiCond200) ?BRET_EXT load(1, XDATA, add(CFA_XSP16, literal(-3)))
          CFI (cfiCond200) DPL0 load(1, XDATA, add(CFA_XSP16, literal(-2)))
          CFI (cfiCond200) DPH0 load(1, XDATA, add(CFA_XSP16, literal(-1)))
          CFI (cfiCond200) CFA_SP SP+-2
          CFI (cfiCond200) CFA_XSP16 add(XSP16, 28)
          CFI Block cfiCond201 Using cfiCommon0
          CFI (cfiCond201) Function AF_DataRequest
          CFI (cfiCond201) Conditional ??CrossCallReturnLabel_116
          CFI (cfiCond201) R6 load(1, XDATA, add(CFA_XSP16, literal(-18)))
          CFI (cfiCond201) VB load(1, XDATA, add(CFA_XSP16, literal(-17)))
          CFI (cfiCond201) V0 load(1, XDATA, add(CFA_XSP16, literal(-16)))
          CFI (cfiCond201) V1 load(1, XDATA, add(CFA_XSP16, literal(-15)))
          CFI (cfiCond201) V2 load(1, XDATA, add(CFA_XSP16, literal(-14)))
          CFI (cfiCond201) V3 load(1, XDATA, add(CFA_XSP16, literal(-13)))
          CFI (cfiCond201) V4 load(1, XDATA, add(CFA_XSP16, literal(-12)))
          CFI (cfiCond201) V5 load(1, XDATA, add(CFA_XSP16, literal(-11)))
          CFI (cfiCond201) V6 load(1, XDATA, add(CFA_XSP16, literal(-10)))
          CFI (cfiCond201) V7 load(1, XDATA, add(CFA_XSP16, literal(-9)))
          CFI (cfiCond201) V8 load(1, XDATA, add(CFA_XSP16, literal(-8)))
          CFI (cfiCond201) V9 load(1, XDATA, add(CFA_XSP16, literal(-7)))
          CFI (cfiCond201) R7 load(1, XDATA, add(CFA_XSP16, literal(-6)))
          CFI (cfiCond201) ?RET_LOW load(1, XDATA, add(CFA_XSP16, literal(-5)))
          CFI (cfiCond201) ?RET_HIGH load(1, XDATA, add(CFA_XSP16, literal(-4)))
          CFI (cfiCond201) ?BRET_EXT load(1, XDATA, add(CFA_XSP16, literal(-3)))
          CFI (cfiCond201) DPL0 load(1, XDATA, add(CFA_XSP16, literal(-2)))
          CFI (cfiCond201) DPH0 load(1, XDATA, add(CFA_XSP16, literal(-1)))
          CFI (cfiCond201) CFA_SP SP+-2
          CFI (cfiCond201) CFA_XSP16 add(XSP16, 51)
          CFI Block cfiPicker202 Using cfiCommon1
          CFI (cfiPicker202) NoFunction
          CFI (cfiPicker202) Picker
        MOVX      A,@DPTR
        MOV       DPH,A
        MOV       DPL,R0
        RET
          CFI EndBlock cfiCond193
          CFI EndBlock cfiCond194
          CFI EndBlock cfiCond195
          CFI EndBlock cfiCond196
          CFI EndBlock cfiCond197
          CFI EndBlock cfiCond198
          CFI EndBlock cfiCond199
          CFI EndBlock cfiCond200
          CFI EndBlock cfiCond201
          CFI EndBlock cfiPicker202
//  956 
//  957 /*********************************************************************
//  958  * @fn      afGetDescCB
//  959  *
//  960  * @brief   Get the Descriptor callback function.
//  961  *
//  962  * @param   epDesc - pointer to the endpoint descriptor
//  963  *
//  964  * @return  function pointer or NULL
//  965  */
//  966 static pDescCB afGetDescCB( endPointDesc_t *epDesc )
//  967 {
//  968   epList_t *epSearch;
//  969 
//  970   // Start at the beginning
//  971   epSearch = epList;
//  972 
//  973   // Look through the list until the end
//  974   while ( epSearch )
//  975   {
//  976     // Is there a match?
//  977     if ( epSearch->epDesc == epDesc )
//  978     {
//  979       return ( epSearch->pfnDescCB );
//  980     }
//  981     else
//  982       epSearch = epSearch->nextDesc;  // Next entry
//  983   }
//  984 
//  985   return ( (pDescCB)NULL );
//  986 }
//  987 
//  988 /*********************************************************************
//  989  * @fn      afDataReqMTU
//  990  *
//  991  * @brief   Get the Data Request MTU(Max Transport Unit).
//  992  *
//  993  * @param   fields - afDataReqMTU_t
//  994  *
//  995  * @return  uint8(MTU)
//  996  */

        RSEG BANKED_CODE:HUGECODE:NOROOT(0)
//  997 uint8 afDataReqMTU( afDataReqMTU_t* fields )
afDataReqMTU:
          CFI Block cfiBlock203 Using cfiCommon0
          CFI Function afDataReqMTU
        CODE
//  998 {
        FUNCALL afDataReqMTU, APSDE_DataReqMTU
        LOCFRAME ISTACK, 0, STACK
        LOCFRAME PSTACK, 0, STACK
        LOCFRAME XSTACK, 9, STACK
        LOCFRAME IOVERLAY, 0, STATIC
        LOCFRAME DOVERLAY, 0, STATIC
        ARGFRAME ISTACK, 0, STACK
        ARGFRAME PSTACK, 0, STACK
        ARGFRAME XSTACK, 9, STACK
        ARGFRAME IOVERLAY, 0, STATIC
        ARGFRAME DOVERLAY, 0, STATIC
        MOV       A,#-0x9
        LCALL     ?BANKED_ENTER_XDATA
          CFI DPH0 load(1, XDATA, add(CFA_XSP16, literal(-1)))
          CFI DPL0 load(1, XDATA, add(CFA_XSP16, literal(-2)))
          CFI ?BRET_EXT load(1, XDATA, add(CFA_XSP16, literal(-3)))
          CFI ?RET_HIGH load(1, XDATA, add(CFA_XSP16, literal(-4)))
          CFI ?RET_LOW load(1, XDATA, add(CFA_XSP16, literal(-5)))
          CFI R7 load(1, XDATA, add(CFA_XSP16, literal(-6)))
          CFI V0 load(1, XDATA, add(CFA_XSP16, literal(-7)))
          CFI VB load(1, XDATA, add(CFA_XSP16, literal(-8)))
          CFI R6 load(1, XDATA, add(CFA_XSP16, literal(-9)))
          CFI CFA_SP SP+0
          CFI CFA_XSP16 add(XSP16, 9)
        ; Saved register size: 9
        ; Auto size: 0
//  999   uint8 len;
// 1000   uint8 hdr;
// 1001 
// 1002   if ( fields->kvp == TRUE )
        MOV       DPL,R2
        MOV       DPH,R3
        MOVX      A,@DPTR
        XRL       A,#0x1
        JNZ       ??afDataReqMTU_0
// 1003   {
// 1004     hdr = AF_HDR_KVP_MAX_LEN;
        MOV       R6,#0x8
        SJMP      ??afDataReqMTU_1
// 1005   }
// 1006   else
// 1007   {
// 1008     hdr = AF_HDR_V1_1_MAX_LEN;
??afDataReqMTU_0:
        MOV       R6,#0x0
// 1009   }
// 1010 
// 1011   len = (uint8)(APSDE_DataReqMTU(&fields->aps) - hdr);
// 1012 
// 1013   return len;
??afDataReqMTU_1:
        ; Setup parameters for call to function APSDE_DataReqMTU
        INC       DPTR
        MOV       R2,DPL
        MOV       R3,DPH
        LCALL     `??APSDE_DataReqMTU::?relay`; Banked call to: APSDE_DataReqMTU
        MOV       A,R1
        CLR       C
        SUBB      A,R6
        MOV       R1,A
        LJMP      ?Subroutine2 & 0xFFFF
// 1014 }
          CFI EndBlock cfiBlock203
// 1015 
// 1016 /*********************************************************************
// 1017  * @fn      afGetMatch
// 1018  *
// 1019  * @brief   Set the allow response flag.
// 1020  *
// 1021  * @param   ep - Application Endpoint to look for
// 1022  * @param   action - true - allow response, false - no response
// 1023  *
// 1024  * @return  TRUE allow responses, FALSE no response
// 1025  */

        RSEG BANKED_CODE:HUGECODE:NOROOT(0)
// 1026 uint8 afGetMatch( uint8 ep )
afGetMatch:
          CFI Block cfiBlock204 Using cfiCommon0
          CFI Function afGetMatch
        CODE
// 1027 {
        FUNCALL afGetMatch, afFindEndPointDescList
        LOCFRAME ISTACK, 0, STACK
        LOCFRAME PSTACK, 0, STACK
        LOCFRAME XSTACK, 10, STACK
        LOCFRAME IOVERLAY, 0, STATIC
        LOCFRAME DOVERLAY, 0, STATIC
        ARGFRAME ISTACK, 0, STACK
        ARGFRAME PSTACK, 0, STACK
        ARGFRAME XSTACK, 10, STACK
        ARGFRAME IOVERLAY, 0, STATIC
        ARGFRAME DOVERLAY, 0, STATIC
        REQUIRE ?V0
        REQUIRE ?V1
        MOV       A,#-0xa
        LCALL     ?BANKED_ENTER_XDATA
          CFI DPH0 load(1, XDATA, add(CFA_XSP16, literal(-1)))
          CFI DPL0 load(1, XDATA, add(CFA_XSP16, literal(-2)))
          CFI ?BRET_EXT load(1, XDATA, add(CFA_XSP16, literal(-3)))
          CFI ?RET_HIGH load(1, XDATA, add(CFA_XSP16, literal(-4)))
          CFI ?RET_LOW load(1, XDATA, add(CFA_XSP16, literal(-5)))
          CFI R7 load(1, XDATA, add(CFA_XSP16, literal(-6)))
          CFI V1 load(1, XDATA, add(CFA_XSP16, literal(-7)))
          CFI V0 load(1, XDATA, add(CFA_XSP16, literal(-8)))
          CFI VB load(1, XDATA, add(CFA_XSP16, literal(-9)))
          CFI R6 load(1, XDATA, add(CFA_XSP16, literal(-10)))
          CFI CFA_SP SP+0
          CFI CFA_XSP16 add(XSP16, 10)
        ; Saved register size: 10
        ; Auto size: 0
// 1028   epList_t *epSearch;
// 1029 
// 1030   // Look for the endpoint
// 1031   epSearch = afFindEndPointDescList( ep );
        ; Setup parameters for call to function afFindEndPointDescList
        LCALL     ?Subroutine28 & 0xFFFF
// 1032 
// 1033   if ( epSearch )
??CrossCallReturnLabel_48:
        JZ        ??afGetMatch_0
// 1034   {
// 1035     if ( epSearch->flags & eEP_AllowMatch )
        INC       DPTR
        INC       DPTR
        INC       DPTR
        INC       DPTR
        INC       DPTR
        INC       DPTR
        INC       DPTR
        INC       DPTR
        MOVX      A,@DPTR
        MOV       C,0xE0 /* A   */.0
        JNC       ??afGetMatch_0
// 1036       return ( TRUE );
        MOV       R1,#0x1
        SJMP      ??afGetMatch_1
// 1037     else
// 1038       return ( FALSE );
// 1039   }
// 1040   else
// 1041     return ( FALSE );
??afGetMatch_0:
        MOV       R1,#0x0
??afGetMatch_1:
          CFI EndBlock cfiBlock204
        REQUIRE ?Subroutine1
        ; // Fall through to label ?Subroutine1
// 1042 }

        RSEG BANKED_CODE:HUGECODE:NOROOT(0)
?Subroutine1:
          CFI Block cfiBlock205 Using cfiCommon0
          CFI NoFunction
          CFI CFA_SP SP+0
          CFI CFA_XSP16 add(XSP16, 10)
          CFI VB load(1, XDATA, add(CFA_XSP16, literal(-9)))
          CFI DPL0 load(1, XDATA, add(CFA_XSP16, literal(-2)))
          CFI DPH0 load(1, XDATA, add(CFA_XSP16, literal(-1)))
          CFI R6 load(1, XDATA, add(CFA_XSP16, literal(-10)))
          CFI R7 load(1, XDATA, add(CFA_XSP16, literal(-6)))
          CFI V0 load(1, XDATA, add(CFA_XSP16, literal(-8)))
          CFI V1 load(1, XDATA, add(CFA_XSP16, literal(-7)))
          CFI ?BRET_EXT load(1, XDATA, add(CFA_XSP16, literal(-3)))
          CFI ?RET_HIGH load(1, XDATA, add(CFA_XSP16, literal(-4)))
          CFI ?RET_LOW load(1, XDATA, add(CFA_XSP16, literal(-5)))
        MOV       R7,#0x2
        LJMP      ?BANKED_LEAVE_XDATA
          CFI EndBlock cfiBlock205
// 1043 
// 1044 /*********************************************************************
// 1045  * @fn      afSetMatch
// 1046  *
// 1047  * @brief   Set the allow response flag.
// 1048  *
// 1049  * @param   ep - Application Endpoint to look for
// 1050  * @param   action - true - allow response, false - no response
// 1051  *
// 1052  * @return  TRUE if success, FALSE if endpoint not found
// 1053  */

        RSEG BANKED_CODE:HUGECODE:NOROOT(0)
// 1054 uint8 afSetMatch( uint8 ep, uint8 action )
afSetMatch:
          CFI Block cfiBlock206 Using cfiCommon0
          CFI Function afSetMatch
        CODE
// 1055 {
        FUNCALL afSetMatch, afFindEndPointDescList
        LOCFRAME ISTACK, 0, STACK
        LOCFRAME PSTACK, 0, STACK
        LOCFRAME XSTACK, 10, STACK
        LOCFRAME IOVERLAY, 0, STATIC
        LOCFRAME DOVERLAY, 0, STATIC
        ARGFRAME ISTACK, 0, STACK
        ARGFRAME PSTACK, 0, STACK
        ARGFRAME XSTACK, 10, STACK
        ARGFRAME IOVERLAY, 0, STATIC
        ARGFRAME DOVERLAY, 0, STATIC
        REQUIRE ?V0
        REQUIRE ?V1
        MOV       A,#-0xa
        LCALL     ?BANKED_ENTER_XDATA
          CFI DPH0 load(1, XDATA, add(CFA_XSP16, literal(-1)))
          CFI DPL0 load(1, XDATA, add(CFA_XSP16, literal(-2)))
          CFI ?BRET_EXT load(1, XDATA, add(CFA_XSP16, literal(-3)))
          CFI ?RET_HIGH load(1, XDATA, add(CFA_XSP16, literal(-4)))
          CFI ?RET_LOW load(1, XDATA, add(CFA_XSP16, literal(-5)))
          CFI R7 load(1, XDATA, add(CFA_XSP16, literal(-6)))
          CFI V1 load(1, XDATA, add(CFA_XSP16, literal(-7)))
          CFI V0 load(1, XDATA, add(CFA_XSP16, literal(-8)))
          CFI VB load(1, XDATA, add(CFA_XSP16, literal(-9)))
          CFI R6 load(1, XDATA, add(CFA_XSP16, literal(-10)))
          CFI CFA_SP SP+0
          CFI CFA_XSP16 add(XSP16, 10)
        ; Saved register size: 10
        ; Auto size: 0
        MOV       A,R2
        MOV       R7,A
// 1056   epList_t *epSearch;
// 1057 
// 1058   // Look for the endpoint
// 1059   epSearch = afFindEndPointDescList( ep );
        ; Setup parameters for call to function afFindEndPointDescList
        LCALL     ?Subroutine28 & 0xFFFF
// 1060 
// 1061   if ( epSearch )
??CrossCallReturnLabel_49:
        JZ        ??afSetMatch_0
// 1062   {
// 1063     if ( action )
        MOV       A,R7
        INC       DPTR
        INC       DPTR
        INC       DPTR
        INC       DPTR
        INC       DPTR
        INC       DPTR
        INC       DPTR
        INC       DPTR
        JZ        ??afSetMatch_1
// 1064     {
// 1065       epSearch->flags |= eEP_AllowMatch;
        MOVX      A,@DPTR
        SETB      0xE0 /* A   */.0
        SJMP      ??afSetMatch_2
// 1066     }
// 1067     else
// 1068     {
// 1069       epSearch->flags &= (eEP_AllowMatch ^ 0xFFFF);
??afSetMatch_1:
        MOVX      A,@DPTR
        CLR       0xE0 /* A   */.0
??afSetMatch_2:
        MOVX      @DPTR,A
// 1070     }
// 1071     return ( TRUE );
        MOV       R1,#0x1
        SJMP      ??afSetMatch_3
// 1072   }
// 1073   else
// 1074     return ( FALSE );
??afSetMatch_0:
        MOV       R1,#0x0
??afSetMatch_3:
        SJMP      ?Subroutine1
// 1075 }
          CFI EndBlock cfiBlock206

        RSEG BANKED_CODE:HUGECODE:NOROOT(0)
?Subroutine28:
          CFI Block cfiCond207 Using cfiCommon0
          CFI Function afFindEndPointDesc
          CFI Conditional ??CrossCallReturnLabel_47
          CFI R6 load(1, XDATA, add(CFA_XSP16, literal(-10)))
          CFI VB load(1, XDATA, add(CFA_XSP16, literal(-9)))
          CFI V0 load(1, XDATA, add(CFA_XSP16, literal(-8)))
          CFI V1 load(1, XDATA, add(CFA_XSP16, literal(-7)))
          CFI R7 load(1, XDATA, add(CFA_XSP16, literal(-6)))
          CFI ?RET_LOW load(1, XDATA, add(CFA_XSP16, literal(-5)))
          CFI ?RET_HIGH load(1, XDATA, add(CFA_XSP16, literal(-4)))
          CFI ?BRET_EXT load(1, XDATA, add(CFA_XSP16, literal(-3)))
          CFI DPL0 load(1, XDATA, add(CFA_XSP16, literal(-2)))
          CFI DPH0 load(1, XDATA, add(CFA_XSP16, literal(-1)))
          CFI CFA_SP SP+-2
          CFI CFA_XSP16 add(XSP16, 10)
          CFI Block cfiCond208 Using cfiCommon0
          CFI (cfiCond208) Function afGetMatch
          CFI (cfiCond208) Conditional ??CrossCallReturnLabel_48
          CFI (cfiCond208) R6 load(1, XDATA, add(CFA_XSP16, literal(-10)))
          CFI (cfiCond208) VB load(1, XDATA, add(CFA_XSP16, literal(-9)))
          CFI (cfiCond208) V0 load(1, XDATA, add(CFA_XSP16, literal(-8)))
          CFI (cfiCond208) V1 load(1, XDATA, add(CFA_XSP16, literal(-7)))
          CFI (cfiCond208) R7 load(1, XDATA, add(CFA_XSP16, literal(-6)))
          CFI (cfiCond208) ?RET_LOW load(1, XDATA, add(CFA_XSP16, literal(-5)))
          CFI (cfiCond208) ?RET_HIGH load(1, XDATA, add(CFA_XSP16, literal(-4)))
          CFI (cfiCond208) ?BRET_EXT load(1, XDATA, add(CFA_XSP16, literal(-3)))
          CFI (cfiCond208) DPL0 load(1, XDATA, add(CFA_XSP16, literal(-2)))
          CFI (cfiCond208) DPH0 load(1, XDATA, add(CFA_XSP16, literal(-1)))
          CFI (cfiCond208) CFA_SP SP+-2
          CFI (cfiCond208) CFA_XSP16 add(XSP16, 10)
          CFI Block cfiCond209 Using cfiCommon0
          CFI (cfiCond209) Function afSetMatch
          CFI (cfiCond209) Conditional ??CrossCallReturnLabel_49
          CFI (cfiCond209) R6 load(1, XDATA, add(CFA_XSP16, literal(-10)))
          CFI (cfiCond209) VB load(1, XDATA, add(CFA_XSP16, literal(-9)))
          CFI (cfiCond209) V0 load(1, XDATA, add(CFA_XSP16, literal(-8)))
          CFI (cfiCond209) V1 load(1, XDATA, add(CFA_XSP16, literal(-7)))
          CFI (cfiCond209) R7 load(1, XDATA, add(CFA_XSP16, literal(-6)))
          CFI (cfiCond209) ?RET_LOW load(1, XDATA, add(CFA_XSP16, literal(-5)))
          CFI (cfiCond209) ?RET_HIGH load(1, XDATA, add(CFA_XSP16, literal(-4)))
          CFI (cfiCond209) ?BRET_EXT load(1, XDATA, add(CFA_XSP16, literal(-3)))
          CFI (cfiCond209) DPL0 load(1, XDATA, add(CFA_XSP16, literal(-2)))
          CFI (cfiCond209) DPH0 load(1, XDATA, add(CFA_XSP16, literal(-1)))
          CFI (cfiCond209) CFA_SP SP+-2
          CFI (cfiCond209) CFA_XSP16 add(XSP16, 10)
          CFI Block cfiCond210 Using cfiCommon0
          CFI (cfiCond210) Function afSetApplCB
          CFI (cfiCond210) Conditional ??CrossCallReturnLabel_50
          CFI (cfiCond210) R6 load(1, XDATA, add(CFA_XSP16, literal(-12)))
          CFI (cfiCond210) VB load(1, XDATA, add(CFA_XSP16, literal(-11)))
          CFI (cfiCond210) V0 load(1, XDATA, add(CFA_XSP16, literal(-10)))
          CFI (cfiCond210) V1 load(1, XDATA, add(CFA_XSP16, literal(-9)))
          CFI (cfiCond210) V2 load(1, XDATA, add(CFA_XSP16, literal(-8)))
          CFI (cfiCond210) V3 load(1, XDATA, add(CFA_XSP16, literal(-7)))
          CFI (cfiCond210) R7 load(1, XDATA, add(CFA_XSP16, literal(-6)))
          CFI (cfiCond210) ?RET_LOW load(1, XDATA, add(CFA_XSP16, literal(-5)))
          CFI (cfiCond210) ?RET_HIGH load(1, XDATA, add(CFA_XSP16, literal(-4)))
          CFI (cfiCond210) ?BRET_EXT load(1, XDATA, add(CFA_XSP16, literal(-3)))
          CFI (cfiCond210) DPL0 load(1, XDATA, add(CFA_XSP16, literal(-2)))
          CFI (cfiCond210) DPH0 load(1, XDATA, add(CFA_XSP16, literal(-1)))
          CFI (cfiCond210) CFA_SP SP+-2
          CFI (cfiCond210) CFA_XSP16 add(XSP16, 12)
          CFI Block cfiPicker211 Using cfiCommon1
          CFI (cfiPicker211) NoFunction
          CFI (cfiPicker211) Picker
        LCALL     `??afFindEndPointDescList::?relay`; Banked call to: afFindEndPointDescList
        MOV       DPL,R2
        MOV       DPH,R3
        MOV       A,DPL
        ORL       A,DPH
        RET
          CFI EndBlock cfiCond207
          CFI EndBlock cfiCond208
          CFI EndBlock cfiCond209
          CFI EndBlock cfiCond210
          CFI EndBlock cfiPicker211
// 1076 
// 1077 /*********************************************************************
// 1078  * @fn      afNumEndPoints
// 1079  *
// 1080  * @brief   Returns the number of endpoints defined (including 0)
// 1081  *
// 1082  * @param   none
// 1083  *
// 1084  * @return  number of endpoints
// 1085  */

        RSEG BANKED_CODE:HUGECODE:NOROOT(0)
// 1086 uint8 afNumEndPoints( void )
afNumEndPoints:
          CFI Block cfiBlock212 Using cfiCommon0
          CFI Function afNumEndPoints
        CODE
// 1087 {
        PUSH      DPL
          CFI DPL0 Frame(CFA_SP, 4)
          CFI CFA_SP SP+-4
        PUSH      DPH
          CFI DPH0 Frame(CFA_SP, 5)
          CFI CFA_SP SP+-5
        ; Saved register size: 2
        ; Auto size: 0
// 1088   epList_t *epSearch;
// 1089   uint8 endpoints;
// 1090 
// 1091   // Start at the beginning
// 1092   epSearch = epList;
        MOV       DPTR,#epList
        LCALL     ??Subroutine50_0 & 0xFFFF
??CrossCallReturnLabel_117:
        MOV       DPL,R0
        MOV       DPH,A
// 1093   endpoints = 0;
        MOV       R1,#0x0
        SJMP      ??afNumEndPoints_0
// 1094 
// 1095   while ( epSearch )
// 1096   {
// 1097     endpoints++;
??afNumEndPoints_1:
        INC       R1
// 1098     epSearch = epSearch->nextDesc;
        MOVX      A,@DPTR
        MOV       R2,A
        INC       DPTR
        MOVX      A,@DPTR
        MOV       DPL,R2
        MOV       DPH,A
// 1099   }
??afNumEndPoints_0:
        MOV       A,DPL
        ORL       A,DPH
        JNZ       ??afNumEndPoints_1
// 1100 
// 1101   return ( endpoints );
        LJMP      ?Subroutine3 & 0xFFFF
// 1102 }
          CFI EndBlock cfiBlock212

        RSEG BANKED_CODE:HUGECODE:NOROOT(0)
?Subroutine37:
          CFI Block cfiCond213 Using cfiCommon0
          CFI Function afDataConfirm
          CFI Conditional ??CrossCallReturnLabel_120, ??CrossCallReturnLabel_0
          CFI R6 load(1, XDATA, add(CFA_XSP16, literal(-14)))
          CFI VB load(1, XDATA, add(CFA_XSP16, literal(-13)))
          CFI V0 load(1, XDATA, add(CFA_XSP16, literal(-12)))
          CFI V1 load(1, XDATA, add(CFA_XSP16, literal(-11)))
          CFI V2 load(1, XDATA, add(CFA_XSP16, literal(-10)))
          CFI V3 load(1, XDATA, add(CFA_XSP16, literal(-9)))
          CFI V4 load(1, XDATA, add(CFA_XSP16, literal(-8)))
          CFI V5 load(1, XDATA, add(CFA_XSP16, literal(-7)))
          CFI R7 load(1, XDATA, add(CFA_XSP16, literal(-6)))
          CFI ?RET_LOW load(1, XDATA, add(CFA_XSP16, literal(-5)))
          CFI ?RET_HIGH load(1, XDATA, add(CFA_XSP16, literal(-4)))
          CFI ?BRET_EXT load(1, XDATA, add(CFA_XSP16, literal(-3)))
          CFI DPL0 load(1, XDATA, add(CFA_XSP16, literal(-2)))
          CFI DPH0 load(1, XDATA, add(CFA_XSP16, literal(-1)))
          CFI CFA_SP SP+-4
          CFI CFA_XSP16 add(XSP16, 14)
          CFI Block cfiCond214 Using cfiCommon0
          CFI (cfiCond214) Function afReflectError
          CFI (cfiCond214) Conditional ??CrossCallReturnLabel_120, ??CrossCallReturnLabel_1
          CFI (cfiCond214) R6 load(1, XDATA, add(CFA_XSP16, literal(-16)))
          CFI (cfiCond214) VB load(1, XDATA, add(CFA_XSP16, literal(-15)))
          CFI (cfiCond214) V0 load(1, XDATA, add(CFA_XSP16, literal(-14)))
          CFI (cfiCond214) V1 load(1, XDATA, add(CFA_XSP16, literal(-13)))
          CFI (cfiCond214) V2 load(1, XDATA, add(CFA_XSP16, literal(-12)))
          CFI (cfiCond214) V3 load(1, XDATA, add(CFA_XSP16, literal(-11)))
          CFI (cfiCond214) V4 load(1, XDATA, add(CFA_XSP16, literal(-10)))
          CFI (cfiCond214) V5 load(1, XDATA, add(CFA_XSP16, literal(-9)))
          CFI (cfiCond214) V6 load(1, XDATA, add(CFA_XSP16, literal(-8)))
          CFI (cfiCond214) V7 load(1, XDATA, add(CFA_XSP16, literal(-7)))
          CFI (cfiCond214) R7 load(1, XDATA, add(CFA_XSP16, literal(-6)))
          CFI (cfiCond214) ?RET_LOW load(1, XDATA, add(CFA_XSP16, literal(-5)))
          CFI (cfiCond214) ?RET_HIGH load(1, XDATA, add(CFA_XSP16, literal(-4)))
          CFI (cfiCond214) ?BRET_EXT load(1, XDATA, add(CFA_XSP16, literal(-3)))
          CFI (cfiCond214) DPL0 load(1, XDATA, add(CFA_XSP16, literal(-2)))
          CFI (cfiCond214) DPH0 load(1, XDATA, add(CFA_XSP16, literal(-1)))
          CFI (cfiCond214) CFA_SP SP+-4
          CFI (cfiCond214) CFA_XSP16 add(XSP16, 16)
          CFI Block cfiCond215 Using cfiCommon0
          CFI (cfiCond215) Function afBuildMSGIncoming
          CFI (cfiCond215) Conditional ??CrossCallReturnLabel_120, ??CrossCallReturnLabel_2
          CFI (cfiCond215) R6 load(1, XDATA, add(CFA_XSP16, literal(-19)))
          CFI (cfiCond215) VB load(1, XDATA, add(CFA_XSP16, literal(-18)))
          CFI (cfiCond215) V0 load(1, XDATA, add(CFA_XSP16, literal(-17)))
          CFI (cfiCond215) V1 load(1, XDATA, add(CFA_XSP16, literal(-16)))
          CFI (cfiCond215) V2 load(1, XDATA, add(CFA_XSP16, literal(-15)))
          CFI (cfiCond215) V3 load(1, XDATA, add(CFA_XSP16, literal(-14)))
          CFI (cfiCond215) V4 load(1, XDATA, add(CFA_XSP16, literal(-13)))
          CFI (cfiCond215) V5 load(1, XDATA, add(CFA_XSP16, literal(-12)))
          CFI (cfiCond215) V6 load(1, XDATA, add(CFA_XSP16, literal(-11)))
          CFI (cfiCond215) V7 load(1, XDATA, add(CFA_XSP16, literal(-10)))
          CFI (cfiCond215) V8 load(1, XDATA, add(CFA_XSP16, literal(-9)))
          CFI (cfiCond215) V9 load(1, XDATA, add(CFA_XSP16, literal(-8)))
          CFI (cfiCond215) V10 load(1, XDATA, add(CFA_XSP16, literal(-7)))
          CFI (cfiCond215) R7 load(1, XDATA, add(CFA_XSP16, literal(-6)))
          CFI (cfiCond215) ?RET_LOW load(1, XDATA, add(CFA_XSP16, literal(-5)))
          CFI (cfiCond215) ?RET_HIGH load(1, XDATA, add(CFA_XSP16, literal(-4)))
          CFI (cfiCond215) ?BRET_EXT load(1, XDATA, add(CFA_XSP16, literal(-3)))
          CFI (cfiCond215) DPL0 load(1, XDATA, add(CFA_XSP16, literal(-2)))
          CFI (cfiCond215) DPH0 load(1, XDATA, add(CFA_XSP16, literal(-1)))
          CFI (cfiCond215) CFA_SP SP+-4
          CFI (cfiCond215) CFA_XSP16 add(XSP16, 19)
          CFI Block cfiCond216 Using cfiCommon0
          CFI (cfiCond216) Function AF_DataRequest
          CFI (cfiCond216) Conditional ??CrossCallReturnLabel_119
          CFI (cfiCond216) R6 load(1, XDATA, add(CFA_XSP16, literal(-18)))
          CFI (cfiCond216) VB load(1, XDATA, add(CFA_XSP16, literal(-17)))
          CFI (cfiCond216) V0 load(1, XDATA, add(CFA_XSP16, literal(-16)))
          CFI (cfiCond216) V1 load(1, XDATA, add(CFA_XSP16, literal(-15)))
          CFI (cfiCond216) V2 load(1, XDATA, add(CFA_XSP16, literal(-14)))
          CFI (cfiCond216) V3 load(1, XDATA, add(CFA_XSP16, literal(-13)))
          CFI (cfiCond216) V4 load(1, XDATA, add(CFA_XSP16, literal(-12)))
          CFI (cfiCond216) V5 load(1, XDATA, add(CFA_XSP16, literal(-11)))
          CFI (cfiCond216) V6 load(1, XDATA, add(CFA_XSP16, literal(-10)))
          CFI (cfiCond216) V7 load(1, XDATA, add(CFA_XSP16, literal(-9)))
          CFI (cfiCond216) V8 load(1, XDATA, add(CFA_XSP16, literal(-8)))
          CFI (cfiCond216) V9 load(1, XDATA, add(CFA_XSP16, literal(-7)))
          CFI (cfiCond216) R7 load(1, XDATA, add(CFA_XSP16, literal(-6)))
          CFI (cfiCond216) ?RET_LOW load(1, XDATA, add(CFA_XSP16, literal(-5)))
          CFI (cfiCond216) ?RET_HIGH load(1, XDATA, add(CFA_XSP16, literal(-4)))
          CFI (cfiCond216) ?BRET_EXT load(1, XDATA, add(CFA_XSP16, literal(-3)))
          CFI (cfiCond216) DPL0 load(1, XDATA, add(CFA_XSP16, literal(-2)))
          CFI (cfiCond216) DPH0 load(1, XDATA, add(CFA_XSP16, literal(-1)))
          CFI (cfiCond216) CFA_SP SP+-2
          CFI (cfiCond216) CFA_XSP16 add(XSP16, 51)
          CFI Block cfiPicker217 Using cfiCommon1
          CFI (cfiPicker217) NoFunction
          CFI (cfiPicker217) Picker
        INC       DPTR
        INC       DPTR
          CFI EndBlock cfiCond213
          CFI EndBlock cfiCond214
          CFI EndBlock cfiCond215
          CFI EndBlock cfiCond216
          CFI EndBlock cfiPicker217
        REQUIRE ??Subroutine50_0
        ; // Fall through to label ??Subroutine50_0

        RSEG BANKED_CODE:HUGECODE:NOROOT(0)
??Subroutine50_0:
          CFI Block cfiCond218 Using cfiCommon0
          CFI Function afBuildMSGIncoming
          CFI Conditional ??CrossCallReturnLabel_121, ??CrossCallReturnLabel_86
          CFI R6 load(1, XDATA, add(CFA_XSP16, literal(-19)))
          CFI VB load(1, XDATA, add(CFA_XSP16, literal(-18)))
          CFI V0 load(1, XDATA, add(CFA_XSP16, literal(-17)))
          CFI V1 load(1, XDATA, add(CFA_XSP16, literal(-16)))
          CFI V2 load(1, XDATA, add(CFA_XSP16, literal(-15)))
          CFI V3 load(1, XDATA, add(CFA_XSP16, literal(-14)))
          CFI V4 load(1, XDATA, add(CFA_XSP16, literal(-13)))
          CFI V5 load(1, XDATA, add(CFA_XSP16, literal(-12)))
          CFI V6 load(1, XDATA, add(CFA_XSP16, literal(-11)))
          CFI V7 load(1, XDATA, add(CFA_XSP16, literal(-10)))
          CFI V8 load(1, XDATA, add(CFA_XSP16, literal(-9)))
          CFI V9 load(1, XDATA, add(CFA_XSP16, literal(-8)))
          CFI V10 load(1, XDATA, add(CFA_XSP16, literal(-7)))
          CFI R7 load(1, XDATA, add(CFA_XSP16, literal(-6)))
          CFI ?RET_LOW load(1, XDATA, add(CFA_XSP16, literal(-5)))
          CFI ?RET_HIGH load(1, XDATA, add(CFA_XSP16, literal(-4)))
          CFI ?BRET_EXT load(1, XDATA, add(CFA_XSP16, literal(-3)))
          CFI DPL0 load(1, XDATA, add(CFA_XSP16, literal(-2)))
          CFI DPH0 load(1, XDATA, add(CFA_XSP16, literal(-1)))
          CFI CFA_SP SP+-4
          CFI CFA_XSP16 add(XSP16, 19)
          CFI Block cfiCond219 Using cfiCommon0
          CFI (cfiCond219) Function AF_DataRequest
          CFI (cfiCond219) Conditional ??CrossCallReturnLabel_121, ??CrossCallReturnLabel_87
          CFI (cfiCond219) R6 load(1, XDATA, add(CFA_XSP16, literal(-18)))
          CFI (cfiCond219) VB load(1, XDATA, add(CFA_XSP16, literal(-17)))
          CFI (cfiCond219) V0 load(1, XDATA, add(CFA_XSP16, literal(-16)))
          CFI (cfiCond219) V1 load(1, XDATA, add(CFA_XSP16, literal(-15)))
          CFI (cfiCond219) V2 load(1, XDATA, add(CFA_XSP16, literal(-14)))
          CFI (cfiCond219) V3 load(1, XDATA, add(CFA_XSP16, literal(-13)))
          CFI (cfiCond219) V4 load(1, XDATA, add(CFA_XSP16, literal(-12)))
          CFI (cfiCond219) V5 load(1, XDATA, add(CFA_XSP16, literal(-11)))
          CFI (cfiCond219) V6 load(1, XDATA, add(CFA_XSP16, literal(-10)))
          CFI (cfiCond219) V7 load(1, XDATA, add(CFA_XSP16, literal(-9)))
          CFI (cfiCond219) V8 load(1, XDATA, add(CFA_XSP16, literal(-8)))
          CFI (cfiCond219) V9 load(1, XDATA, add(CFA_XSP16, literal(-7)))
          CFI (cfiCond219) R7 load(1, XDATA, add(CFA_XSP16, literal(-6)))
          CFI (cfiCond219) ?RET_LOW load(1, XDATA, add(CFA_XSP16, literal(-5)))
          CFI (cfiCond219) ?RET_HIGH load(1, XDATA, add(CFA_XSP16, literal(-4)))
          CFI (cfiCond219) ?BRET_EXT load(1, XDATA, add(CFA_XSP16, literal(-3)))
          CFI (cfiCond219) DPL0 load(1, XDATA, add(CFA_XSP16, literal(-2)))
          CFI (cfiCond219) DPH0 load(1, XDATA, add(CFA_XSP16, literal(-1)))
          CFI (cfiCond219) CFA_SP SP+-4
          CFI (cfiCond219) CFA_XSP16 add(XSP16, 51)
          CFI Block cfiCond220 Using cfiCommon0
          CFI (cfiCond220) Function AF_DataRequest
          CFI (cfiCond220) Conditional ??CrossCallReturnLabel_121, ??CrossCallReturnLabel_85
          CFI (cfiCond220) R6 load(1, XDATA, add(CFA_XSP16, literal(-18)))
          CFI (cfiCond220) VB load(1, XDATA, add(CFA_XSP16, literal(-17)))
          CFI (cfiCond220) V0 load(1, XDATA, add(CFA_XSP16, literal(-16)))
          CFI (cfiCond220) V1 load(1, XDATA, add(CFA_XSP16, literal(-15)))
          CFI (cfiCond220) V2 load(1, XDATA, add(CFA_XSP16, literal(-14)))
          CFI (cfiCond220) V3 load(1, XDATA, add(CFA_XSP16, literal(-13)))
          CFI (cfiCond220) V4 load(1, XDATA, add(CFA_XSP16, literal(-12)))
          CFI (cfiCond220) V5 load(1, XDATA, add(CFA_XSP16, literal(-11)))
          CFI (cfiCond220) V6 load(1, XDATA, add(CFA_XSP16, literal(-10)))
          CFI (cfiCond220) V7 load(1, XDATA, add(CFA_XSP16, literal(-9)))
          CFI (cfiCond220) V8 load(1, XDATA, add(CFA_XSP16, literal(-8)))
          CFI (cfiCond220) V9 load(1, XDATA, add(CFA_XSP16, literal(-7)))
          CFI (cfiCond220) R7 load(1, XDATA, add(CFA_XSP16, literal(-6)))
          CFI (cfiCond220) ?RET_LOW load(1, XDATA, add(CFA_XSP16, literal(-5)))
          CFI (cfiCond220) ?RET_HIGH load(1, XDATA, add(CFA_XSP16, literal(-4)))
          CFI (cfiCond220) ?BRET_EXT load(1, XDATA, add(CFA_XSP16, literal(-3)))
          CFI (cfiCond220) DPL0 load(1, XDATA, add(CFA_XSP16, literal(-2)))
          CFI (cfiCond220) DPH0 load(1, XDATA, add(CFA_XSP16, literal(-1)))
          CFI (cfiCond220) CFA_SP SP+-4
          CFI (cfiCond220) CFA_XSP16 add(XSP16, 51)
          CFI Block cfiCond221 Using cfiCommon0
          CFI (cfiCond221) Function afDelete
          CFI (cfiCond221) Conditional ??CrossCallReturnLabel_121, ??CrossCallReturnLabel_79
          CFI (cfiCond221) R6 load(1, XDATA, add(CFA_XSP16, literal(-9)))
          CFI (cfiCond221) VB load(1, XDATA, add(CFA_XSP16, literal(-8)))
          CFI (cfiCond221) V0 load(1, XDATA, add(CFA_XSP16, literal(-7)))
          CFI (cfiCond221) R7 load(1, XDATA, add(CFA_XSP16, literal(-6)))
          CFI (cfiCond221) ?RET_LOW load(1, XDATA, add(CFA_XSP16, literal(-5)))
          CFI (cfiCond221) ?RET_HIGH load(1, XDATA, add(CFA_XSP16, literal(-4)))
          CFI (cfiCond221) ?BRET_EXT load(1, XDATA, add(CFA_XSP16, literal(-3)))
          CFI (cfiCond221) DPL0 load(1, XDATA, add(CFA_XSP16, literal(-2)))
          CFI (cfiCond221) DPH0 load(1, XDATA, add(CFA_XSP16, literal(-1)))
          CFI (cfiCond221) CFA_SP SP+-4
          CFI (cfiCond221) CFA_XSP16 add(XSP16, 9)
          CFI Block cfiCond222 Using cfiCommon0
          CFI (cfiCond222) Function afBuildMSGIncoming
          CFI (cfiCond222) Conditional ??CrossCallReturnLabel_121, ??CrossCallReturnLabel_80
          CFI (cfiCond222) R6 load(1, XDATA, add(CFA_XSP16, literal(-19)))
          CFI (cfiCond222) VB load(1, XDATA, add(CFA_XSP16, literal(-18)))
          CFI (cfiCond222) V0 load(1, XDATA, add(CFA_XSP16, literal(-17)))
          CFI (cfiCond222) V1 load(1, XDATA, add(CFA_XSP16, literal(-16)))
          CFI (cfiCond222) V2 load(1, XDATA, add(CFA_XSP16, literal(-15)))
          CFI (cfiCond222) V3 load(1, XDATA, add(CFA_XSP16, literal(-14)))
          CFI (cfiCond222) V4 load(1, XDATA, add(CFA_XSP16, literal(-13)))
          CFI (cfiCond222) V5 load(1, XDATA, add(CFA_XSP16, literal(-12)))
          CFI (cfiCond222) V6 load(1, XDATA, add(CFA_XSP16, literal(-11)))
          CFI (cfiCond222) V7 load(1, XDATA, add(CFA_XSP16, literal(-10)))
          CFI (cfiCond222) V8 load(1, XDATA, add(CFA_XSP16, literal(-9)))
          CFI (cfiCond222) V9 load(1, XDATA, add(CFA_XSP16, literal(-8)))
          CFI (cfiCond222) V10 load(1, XDATA, add(CFA_XSP16, literal(-7)))
          CFI (cfiCond222) R7 load(1, XDATA, add(CFA_XSP16, literal(-6)))
          CFI (cfiCond222) ?RET_LOW load(1, XDATA, add(CFA_XSP16, literal(-5)))
          CFI (cfiCond222) ?RET_HIGH load(1, XDATA, add(CFA_XSP16, literal(-4)))
          CFI (cfiCond222) ?BRET_EXT load(1, XDATA, add(CFA_XSP16, literal(-3)))
          CFI (cfiCond222) DPL0 load(1, XDATA, add(CFA_XSP16, literal(-2)))
          CFI (cfiCond222) DPH0 load(1, XDATA, add(CFA_XSP16, literal(-1)))
          CFI (cfiCond222) CFA_SP SP+-4
          CFI (cfiCond222) CFA_XSP16 add(XSP16, 19)
          CFI Block cfiCond223 Using cfiCommon0
          CFI (cfiCond223) Function AF_DataRequest
          CFI (cfiCond223) Conditional ??CrossCallReturnLabel_121, ??CrossCallReturnLabel_81
          CFI (cfiCond223) R6 load(1, XDATA, add(CFA_XSP16, literal(-18)))
          CFI (cfiCond223) VB load(1, XDATA, add(CFA_XSP16, literal(-17)))
          CFI (cfiCond223) V0 load(1, XDATA, add(CFA_XSP16, literal(-16)))
          CFI (cfiCond223) V1 load(1, XDATA, add(CFA_XSP16, literal(-15)))
          CFI (cfiCond223) V2 load(1, XDATA, add(CFA_XSP16, literal(-14)))
          CFI (cfiCond223) V3 load(1, XDATA, add(CFA_XSP16, literal(-13)))
          CFI (cfiCond223) V4 load(1, XDATA, add(CFA_XSP16, literal(-12)))
          CFI (cfiCond223) V5 load(1, XDATA, add(CFA_XSP16, literal(-11)))
          CFI (cfiCond223) V6 load(1, XDATA, add(CFA_XSP16, literal(-10)))
          CFI (cfiCond223) V7 load(1, XDATA, add(CFA_XSP16, literal(-9)))
          CFI (cfiCond223) V8 load(1, XDATA, add(CFA_XSP16, literal(-8)))
          CFI (cfiCond223) V9 load(1, XDATA, add(CFA_XSP16, literal(-7)))
          CFI (cfiCond223) R7 load(1, XDATA, add(CFA_XSP16, literal(-6)))
          CFI (cfiCond223) ?RET_LOW load(1, XDATA, add(CFA_XSP16, literal(-5)))
          CFI (cfiCond223) ?RET_HIGH load(1, XDATA, add(CFA_XSP16, literal(-4)))
          CFI (cfiCond223) ?BRET_EXT load(1, XDATA, add(CFA_XSP16, literal(-3)))
          CFI (cfiCond223) DPL0 load(1, XDATA, add(CFA_XSP16, literal(-2)))
          CFI (cfiCond223) DPH0 load(1, XDATA, add(CFA_XSP16, literal(-1)))
          CFI (cfiCond223) CFA_SP SP+-4
          CFI (cfiCond223) CFA_XSP16 add(XSP16, 51)
          CFI Block cfiCond224 Using cfiCommon0
          CFI (cfiCond224) Function AF_DataRequest
          CFI (cfiCond224) Conditional ??CrossCallReturnLabel_121, ??CrossCallReturnLabel_82
          CFI (cfiCond224) R6 load(1, XDATA, add(CFA_XSP16, literal(-18)))
          CFI (cfiCond224) VB load(1, XDATA, add(CFA_XSP16, literal(-17)))
          CFI (cfiCond224) V0 load(1, XDATA, add(CFA_XSP16, literal(-16)))
          CFI (cfiCond224) V1 load(1, XDATA, add(CFA_XSP16, literal(-15)))
          CFI (cfiCond224) V2 load(1, XDATA, add(CFA_XSP16, literal(-14)))
          CFI (cfiCond224) V3 load(1, XDATA, add(CFA_XSP16, literal(-13)))
          CFI (cfiCond224) V4 load(1, XDATA, add(CFA_XSP16, literal(-12)))
          CFI (cfiCond224) V5 load(1, XDATA, add(CFA_XSP16, literal(-11)))
          CFI (cfiCond224) V6 load(1, XDATA, add(CFA_XSP16, literal(-10)))
          CFI (cfiCond224) V7 load(1, XDATA, add(CFA_XSP16, literal(-9)))
          CFI (cfiCond224) V8 load(1, XDATA, add(CFA_XSP16, literal(-8)))
          CFI (cfiCond224) V9 load(1, XDATA, add(CFA_XSP16, literal(-7)))
          CFI (cfiCond224) R7 load(1, XDATA, add(CFA_XSP16, literal(-6)))
          CFI (cfiCond224) ?RET_LOW load(1, XDATA, add(CFA_XSP16, literal(-5)))
          CFI (cfiCond224) ?RET_HIGH load(1, XDATA, add(CFA_XSP16, literal(-4)))
          CFI (cfiCond224) ?BRET_EXT load(1, XDATA, add(CFA_XSP16, literal(-3)))
          CFI (cfiCond224) DPL0 load(1, XDATA, add(CFA_XSP16, literal(-2)))
          CFI (cfiCond224) DPH0 load(1, XDATA, add(CFA_XSP16, literal(-1)))
          CFI (cfiCond224) CFA_SP SP+-4
          CFI (cfiCond224) CFA_XSP16 add(XSP16, 51)
          CFI Block cfiCond225 Using cfiCommon0
          CFI (cfiCond225) Function AF_DataRequest
          CFI (cfiCond225) Conditional ??CrossCallReturnLabel_121, ??CrossCallReturnLabel_83
          CFI (cfiCond225) R6 load(1, XDATA, add(CFA_XSP16, literal(-18)))
          CFI (cfiCond225) VB load(1, XDATA, add(CFA_XSP16, literal(-17)))
          CFI (cfiCond225) V0 load(1, XDATA, add(CFA_XSP16, literal(-16)))
          CFI (cfiCond225) V1 load(1, XDATA, add(CFA_XSP16, literal(-15)))
          CFI (cfiCond225) V2 load(1, XDATA, add(CFA_XSP16, literal(-14)))
          CFI (cfiCond225) V3 load(1, XDATA, add(CFA_XSP16, literal(-13)))
          CFI (cfiCond225) V4 load(1, XDATA, add(CFA_XSP16, literal(-12)))
          CFI (cfiCond225) V5 load(1, XDATA, add(CFA_XSP16, literal(-11)))
          CFI (cfiCond225) V6 load(1, XDATA, add(CFA_XSP16, literal(-10)))
          CFI (cfiCond225) V7 load(1, XDATA, add(CFA_XSP16, literal(-9)))
          CFI (cfiCond225) V8 load(1, XDATA, add(CFA_XSP16, literal(-8)))
          CFI (cfiCond225) V9 load(1, XDATA, add(CFA_XSP16, literal(-7)))
          CFI (cfiCond225) R7 load(1, XDATA, add(CFA_XSP16, literal(-6)))
          CFI (cfiCond225) ?RET_LOW load(1, XDATA, add(CFA_XSP16, literal(-5)))
          CFI (cfiCond225) ?RET_HIGH load(1, XDATA, add(CFA_XSP16, literal(-4)))
          CFI (cfiCond225) ?BRET_EXT load(1, XDATA, add(CFA_XSP16, literal(-3)))
          CFI (cfiCond225) DPL0 load(1, XDATA, add(CFA_XSP16, literal(-2)))
          CFI (cfiCond225) DPH0 load(1, XDATA, add(CFA_XSP16, literal(-1)))
          CFI (cfiCond225) CFA_SP SP+-4
          CFI (cfiCond225) CFA_XSP16 add(XSP16, 51)
          CFI Block cfiCond226 Using cfiCommon0
          CFI (cfiCond226) Function AF_DataRequest
          CFI (cfiCond226) Conditional ??CrossCallReturnLabel_121, ??CrossCallReturnLabel_84
          CFI (cfiCond226) R6 load(1, XDATA, add(CFA_XSP16, literal(-18)))
          CFI (cfiCond226) VB load(1, XDATA, add(CFA_XSP16, literal(-17)))
          CFI (cfiCond226) V0 load(1, XDATA, add(CFA_XSP16, literal(-16)))
          CFI (cfiCond226) V1 load(1, XDATA, add(CFA_XSP16, literal(-15)))
          CFI (cfiCond226) V2 load(1, XDATA, add(CFA_XSP16, literal(-14)))
          CFI (cfiCond226) V3 load(1, XDATA, add(CFA_XSP16, literal(-13)))
          CFI (cfiCond226) V4 load(1, XDATA, add(CFA_XSP16, literal(-12)))
          CFI (cfiCond226) V5 load(1, XDATA, add(CFA_XSP16, literal(-11)))
          CFI (cfiCond226) V6 load(1, XDATA, add(CFA_XSP16, literal(-10)))
          CFI (cfiCond226) V7 load(1, XDATA, add(CFA_XSP16, literal(-9)))
          CFI (cfiCond226) V8 load(1, XDATA, add(CFA_XSP16, literal(-8)))
          CFI (cfiCond226) V9 load(1, XDATA, add(CFA_XSP16, literal(-7)))
          CFI (cfiCond226) R7 load(1, XDATA, add(CFA_XSP16, literal(-6)))
          CFI (cfiCond226) ?RET_LOW load(1, XDATA, add(CFA_XSP16, literal(-5)))
          CFI (cfiCond226) ?RET_HIGH load(1, XDATA, add(CFA_XSP16, literal(-4)))
          CFI (cfiCond226) ?BRET_EXT load(1, XDATA, add(CFA_XSP16, literal(-3)))
          CFI (cfiCond226) DPL0 load(1, XDATA, add(CFA_XSP16, literal(-2)))
          CFI (cfiCond226) DPH0 load(1, XDATA, add(CFA_XSP16, literal(-1)))
          CFI (cfiCond226) CFA_SP SP+-4
          CFI (cfiCond226) CFA_XSP16 add(XSP16, 51)
          CFI Block cfiCond227 Using cfiCommon0
          CFI (cfiCond227) Function afBuildMSGIncoming
          CFI (cfiCond227) Conditional ??CrossCallReturnLabel_118, ??CrossCallReturnLabel_21
          CFI (cfiCond227) R6 load(1, XDATA, add(CFA_XSP16, literal(-19)))
          CFI (cfiCond227) VB load(1, XDATA, add(CFA_XSP16, literal(-18)))
          CFI (cfiCond227) V0 load(1, XDATA, add(CFA_XSP16, literal(-17)))
          CFI (cfiCond227) V1 load(1, XDATA, add(CFA_XSP16, literal(-16)))
          CFI (cfiCond227) V2 load(1, XDATA, add(CFA_XSP16, literal(-15)))
          CFI (cfiCond227) V3 load(1, XDATA, add(CFA_XSP16, literal(-14)))
          CFI (cfiCond227) V4 load(1, XDATA, add(CFA_XSP16, literal(-13)))
          CFI (cfiCond227) V5 load(1, XDATA, add(CFA_XSP16, literal(-12)))
          CFI (cfiCond227) V6 load(1, XDATA, add(CFA_XSP16, literal(-11)))
          CFI (cfiCond227) V7 load(1, XDATA, add(CFA_XSP16, literal(-10)))
          CFI (cfiCond227) V8 load(1, XDATA, add(CFA_XSP16, literal(-9)))
          CFI (cfiCond227) V9 load(1, XDATA, add(CFA_XSP16, literal(-8)))
          CFI (cfiCond227) V10 load(1, XDATA, add(CFA_XSP16, literal(-7)))
          CFI (cfiCond227) R7 load(1, XDATA, add(CFA_XSP16, literal(-6)))
          CFI (cfiCond227) ?RET_LOW load(1, XDATA, add(CFA_XSP16, literal(-5)))
          CFI (cfiCond227) ?RET_HIGH load(1, XDATA, add(CFA_XSP16, literal(-4)))
          CFI (cfiCond227) ?BRET_EXT load(1, XDATA, add(CFA_XSP16, literal(-3)))
          CFI (cfiCond227) DPL0 load(1, XDATA, add(CFA_XSP16, literal(-2)))
          CFI (cfiCond227) DPH0 load(1, XDATA, add(CFA_XSP16, literal(-1)))
          CFI (cfiCond227) CFA_SP SP+-4
          CFI (cfiCond227) CFA_XSP16 add(XSP16, 19)
          CFI Block cfiCond228 Using cfiCommon0
          CFI (cfiCond228) Function afBuildMSGIncoming
          CFI (cfiCond228) Conditional ??CrossCallReturnLabel_118, ??CrossCallReturnLabel_22
          CFI (cfiCond228) R6 load(1, XDATA, add(CFA_XSP16, literal(-19)))
          CFI (cfiCond228) VB load(1, XDATA, add(CFA_XSP16, literal(-18)))
          CFI (cfiCond228) V0 load(1, XDATA, add(CFA_XSP16, literal(-17)))
          CFI (cfiCond228) V1 load(1, XDATA, add(CFA_XSP16, literal(-16)))
          CFI (cfiCond228) V2 load(1, XDATA, add(CFA_XSP16, literal(-15)))
          CFI (cfiCond228) V3 load(1, XDATA, add(CFA_XSP16, literal(-14)))
          CFI (cfiCond228) V4 load(1, XDATA, add(CFA_XSP16, literal(-13)))
          CFI (cfiCond228) V5 load(1, XDATA, add(CFA_XSP16, literal(-12)))
          CFI (cfiCond228) V6 load(1, XDATA, add(CFA_XSP16, literal(-11)))
          CFI (cfiCond228) V7 load(1, XDATA, add(CFA_XSP16, literal(-10)))
          CFI (cfiCond228) V8 load(1, XDATA, add(CFA_XSP16, literal(-9)))
          CFI (cfiCond228) V9 load(1, XDATA, add(CFA_XSP16, literal(-8)))
          CFI (cfiCond228) V10 load(1, XDATA, add(CFA_XSP16, literal(-7)))
          CFI (cfiCond228) R7 load(1, XDATA, add(CFA_XSP16, literal(-6)))
          CFI (cfiCond228) ?RET_LOW load(1, XDATA, add(CFA_XSP16, literal(-5)))
          CFI (cfiCond228) ?RET_HIGH load(1, XDATA, add(CFA_XSP16, literal(-4)))
          CFI (cfiCond228) ?BRET_EXT load(1, XDATA, add(CFA_XSP16, literal(-3)))
          CFI (cfiCond228) DPL0 load(1, XDATA, add(CFA_XSP16, literal(-2)))
          CFI (cfiCond228) DPH0 load(1, XDATA, add(CFA_XSP16, literal(-1)))
          CFI (cfiCond228) CFA_SP SP+-4
          CFI (cfiCond228) CFA_XSP16 add(XSP16, 19)
          CFI Block cfiCond229 Using cfiCommon0
          CFI (cfiCond229) Function afBuildMSGIncoming
          CFI (cfiCond229) Conditional ??CrossCallReturnLabel_118, ??CrossCallReturnLabel_23
          CFI (cfiCond229) R6 load(1, XDATA, add(CFA_XSP16, literal(-19)))
          CFI (cfiCond229) VB load(1, XDATA, add(CFA_XSP16, literal(-18)))
          CFI (cfiCond229) V0 load(1, XDATA, add(CFA_XSP16, literal(-17)))
          CFI (cfiCond229) V1 load(1, XDATA, add(CFA_XSP16, literal(-16)))
          CFI (cfiCond229) V2 load(1, XDATA, add(CFA_XSP16, literal(-15)))
          CFI (cfiCond229) V3 load(1, XDATA, add(CFA_XSP16, literal(-14)))
          CFI (cfiCond229) V4 load(1, XDATA, add(CFA_XSP16, literal(-13)))
          CFI (cfiCond229) V5 load(1, XDATA, add(CFA_XSP16, literal(-12)))
          CFI (cfiCond229) V6 load(1, XDATA, add(CFA_XSP16, literal(-11)))
          CFI (cfiCond229) V7 load(1, XDATA, add(CFA_XSP16, literal(-10)))
          CFI (cfiCond229) V8 load(1, XDATA, add(CFA_XSP16, literal(-9)))
          CFI (cfiCond229) V9 load(1, XDATA, add(CFA_XSP16, literal(-8)))
          CFI (cfiCond229) V10 load(1, XDATA, add(CFA_XSP16, literal(-7)))
          CFI (cfiCond229) R7 load(1, XDATA, add(CFA_XSP16, literal(-6)))
          CFI (cfiCond229) ?RET_LOW load(1, XDATA, add(CFA_XSP16, literal(-5)))
          CFI (cfiCond229) ?RET_HIGH load(1, XDATA, add(CFA_XSP16, literal(-4)))
          CFI (cfiCond229) ?BRET_EXT load(1, XDATA, add(CFA_XSP16, literal(-3)))
          CFI (cfiCond229) DPL0 load(1, XDATA, add(CFA_XSP16, literal(-2)))
          CFI (cfiCond229) DPH0 load(1, XDATA, add(CFA_XSP16, literal(-1)))
          CFI (cfiCond229) CFA_SP SP+-4
          CFI (cfiCond229) CFA_XSP16 add(XSP16, 19)
          CFI Block cfiCond230 Using cfiCommon0
          CFI (cfiCond230) Function afIncomingData
          CFI (cfiCond230) Conditional ??CrossCallReturnLabel_122, ??CrossCallReturnLabel_98
          CFI (cfiCond230) R6 load(1, XDATA, add(CFA_XSP16, literal(-24)))
          CFI (cfiCond230) VB load(1, XDATA, add(CFA_XSP16, literal(-23)))
          CFI (cfiCond230) V0 load(1, XDATA, add(CFA_XSP16, literal(-22)))
          CFI (cfiCond230) V1 load(1, XDATA, add(CFA_XSP16, literal(-21)))
          CFI (cfiCond230) V2 load(1, XDATA, add(CFA_XSP16, literal(-20)))
          CFI (cfiCond230) V3 load(1, XDATA, add(CFA_XSP16, literal(-19)))
          CFI (cfiCond230) V4 load(1, XDATA, add(CFA_XSP16, literal(-18)))
          CFI (cfiCond230) V5 load(1, XDATA, add(CFA_XSP16, literal(-17)))
          CFI (cfiCond230) V6 load(1, XDATA, add(CFA_XSP16, literal(-16)))
          CFI (cfiCond230) V7 load(1, XDATA, add(CFA_XSP16, literal(-15)))
          CFI (cfiCond230) V8 load(1, XDATA, add(CFA_XSP16, literal(-14)))
          CFI (cfiCond230) V9 load(1, XDATA, add(CFA_XSP16, literal(-13)))
          CFI (cfiCond230) V10 load(1, XDATA, add(CFA_XSP16, literal(-12)))
          CFI (cfiCond230) V11 load(1, XDATA, add(CFA_XSP16, literal(-11)))
          CFI (cfiCond230) V12 load(1, XDATA, add(CFA_XSP16, literal(-10)))
          CFI (cfiCond230) V13 load(1, XDATA, add(CFA_XSP16, literal(-9)))
          CFI (cfiCond230) V14 load(1, XDATA, add(CFA_XSP16, literal(-8)))
          CFI (cfiCond230) V15 load(1, XDATA, add(CFA_XSP16, literal(-7)))
          CFI (cfiCond230) R7 load(1, XDATA, add(CFA_XSP16, literal(-6)))
          CFI (cfiCond230) ?RET_LOW load(1, XDATA, add(CFA_XSP16, literal(-5)))
          CFI (cfiCond230) ?RET_HIGH load(1, XDATA, add(CFA_XSP16, literal(-4)))
          CFI (cfiCond230) ?BRET_EXT load(1, XDATA, add(CFA_XSP16, literal(-3)))
          CFI (cfiCond230) DPL0 load(1, XDATA, add(CFA_XSP16, literal(-2)))
          CFI (cfiCond230) DPH0 load(1, XDATA, add(CFA_XSP16, literal(-1)))
          CFI (cfiCond230) CFA_SP SP+-4
          CFI (cfiCond230) CFA_XSP16 add(XSP16, 28)
          CFI Block cfiCond231 Using cfiCommon0
          CFI (cfiCond231) Function AF_DataRequest
          CFI (cfiCond231) Conditional ??CrossCallReturnLabel_122, ??CrossCallReturnLabel_99
          CFI (cfiCond231) R6 load(1, XDATA, add(CFA_XSP16, literal(-18)))
          CFI (cfiCond231) VB load(1, XDATA, add(CFA_XSP16, literal(-17)))
          CFI (cfiCond231) V0 load(1, XDATA, add(CFA_XSP16, literal(-16)))
          CFI (cfiCond231) V1 load(1, XDATA, add(CFA_XSP16, literal(-15)))
          CFI (cfiCond231) V2 load(1, XDATA, add(CFA_XSP16, literal(-14)))
          CFI (cfiCond231) V3 load(1, XDATA, add(CFA_XSP16, literal(-13)))
          CFI (cfiCond231) V4 load(1, XDATA, add(CFA_XSP16, literal(-12)))
          CFI (cfiCond231) V5 load(1, XDATA, add(CFA_XSP16, literal(-11)))
          CFI (cfiCond231) V6 load(1, XDATA, add(CFA_XSP16, literal(-10)))
          CFI (cfiCond231) V7 load(1, XDATA, add(CFA_XSP16, literal(-9)))
          CFI (cfiCond231) V8 load(1, XDATA, add(CFA_XSP16, literal(-8)))
          CFI (cfiCond231) V9 load(1, XDATA, add(CFA_XSP16, literal(-7)))
          CFI (cfiCond231) R7 load(1, XDATA, add(CFA_XSP16, literal(-6)))
          CFI (cfiCond231) ?RET_LOW load(1, XDATA, add(CFA_XSP16, literal(-5)))
          CFI (cfiCond231) ?RET_HIGH load(1, XDATA, add(CFA_XSP16, literal(-4)))
          CFI (cfiCond231) ?BRET_EXT load(1, XDATA, add(CFA_XSP16, literal(-3)))
          CFI (cfiCond231) DPL0 load(1, XDATA, add(CFA_XSP16, literal(-2)))
          CFI (cfiCond231) DPH0 load(1, XDATA, add(CFA_XSP16, literal(-1)))
          CFI (cfiCond231) CFA_SP SP+-4
          CFI (cfiCond231) CFA_XSP16 add(XSP16, 51)
          CFI Block cfiCond232 Using cfiCommon0
          CFI (cfiCond232) Function afIncomingData
          CFI (cfiCond232) Conditional ??CrossCallReturnLabel_122, ??CrossCallReturnLabel_96
          CFI (cfiCond232) R6 load(1, XDATA, add(CFA_XSP16, literal(-24)))
          CFI (cfiCond232) VB load(1, XDATA, add(CFA_XSP16, literal(-23)))
          CFI (cfiCond232) V0 load(1, XDATA, add(CFA_XSP16, literal(-22)))
          CFI (cfiCond232) V1 load(1, XDATA, add(CFA_XSP16, literal(-21)))
          CFI (cfiCond232) V2 load(1, XDATA, add(CFA_XSP16, literal(-20)))
          CFI (cfiCond232) V3 load(1, XDATA, add(CFA_XSP16, literal(-19)))
          CFI (cfiCond232) V4 load(1, XDATA, add(CFA_XSP16, literal(-18)))
          CFI (cfiCond232) V5 load(1, XDATA, add(CFA_XSP16, literal(-17)))
          CFI (cfiCond232) V6 load(1, XDATA, add(CFA_XSP16, literal(-16)))
          CFI (cfiCond232) V7 load(1, XDATA, add(CFA_XSP16, literal(-15)))
          CFI (cfiCond232) V8 load(1, XDATA, add(CFA_XSP16, literal(-14)))
          CFI (cfiCond232) V9 load(1, XDATA, add(CFA_XSP16, literal(-13)))
          CFI (cfiCond232) V10 load(1, XDATA, add(CFA_XSP16, literal(-12)))
          CFI (cfiCond232) V11 load(1, XDATA, add(CFA_XSP16, literal(-11)))
          CFI (cfiCond232) V12 load(1, XDATA, add(CFA_XSP16, literal(-10)))
          CFI (cfiCond232) V13 load(1, XDATA, add(CFA_XSP16, literal(-9)))
          CFI (cfiCond232) V14 load(1, XDATA, add(CFA_XSP16, literal(-8)))
          CFI (cfiCond232) V15 load(1, XDATA, add(CFA_XSP16, literal(-7)))
          CFI (cfiCond232) R7 load(1, XDATA, add(CFA_XSP16, literal(-6)))
          CFI (cfiCond232) ?RET_LOW load(1, XDATA, add(CFA_XSP16, literal(-5)))
          CFI (cfiCond232) ?RET_HIGH load(1, XDATA, add(CFA_XSP16, literal(-4)))
          CFI (cfiCond232) ?BRET_EXT load(1, XDATA, add(CFA_XSP16, literal(-3)))
          CFI (cfiCond232) DPL0 load(1, XDATA, add(CFA_XSP16, literal(-2)))
          CFI (cfiCond232) DPH0 load(1, XDATA, add(CFA_XSP16, literal(-1)))
          CFI (cfiCond232) CFA_SP SP+-4
          CFI (cfiCond232) CFA_XSP16 add(XSP16, 28)
          CFI Block cfiCond233 Using cfiCommon0
          CFI (cfiCond233) Function AF_DataRequest
          CFI (cfiCond233) Conditional ??CrossCallReturnLabel_122, ??CrossCallReturnLabel_97
          CFI (cfiCond233) R6 load(1, XDATA, add(CFA_XSP16, literal(-18)))
          CFI (cfiCond233) VB load(1, XDATA, add(CFA_XSP16, literal(-17)))
          CFI (cfiCond233) V0 load(1, XDATA, add(CFA_XSP16, literal(-16)))
          CFI (cfiCond233) V1 load(1, XDATA, add(CFA_XSP16, literal(-15)))
          CFI (cfiCond233) V2 load(1, XDATA, add(CFA_XSP16, literal(-14)))
          CFI (cfiCond233) V3 load(1, XDATA, add(CFA_XSP16, literal(-13)))
          CFI (cfiCond233) V4 load(1, XDATA, add(CFA_XSP16, literal(-12)))
          CFI (cfiCond233) V5 load(1, XDATA, add(CFA_XSP16, literal(-11)))
          CFI (cfiCond233) V6 load(1, XDATA, add(CFA_XSP16, literal(-10)))
          CFI (cfiCond233) V7 load(1, XDATA, add(CFA_XSP16, literal(-9)))
          CFI (cfiCond233) V8 load(1, XDATA, add(CFA_XSP16, literal(-8)))
          CFI (cfiCond233) V9 load(1, XDATA, add(CFA_XSP16, literal(-7)))
          CFI (cfiCond233) R7 load(1, XDATA, add(CFA_XSP16, literal(-6)))
          CFI (cfiCond233) ?RET_LOW load(1, XDATA, add(CFA_XSP16, literal(-5)))
          CFI (cfiCond233) ?RET_HIGH load(1, XDATA, add(CFA_XSP16, literal(-4)))
          CFI (cfiCond233) ?BRET_EXT load(1, XDATA, add(CFA_XSP16, literal(-3)))
          CFI (cfiCond233) DPL0 load(1, XDATA, add(CFA_XSP16, literal(-2)))
          CFI (cfiCond233) DPH0 load(1, XDATA, add(CFA_XSP16, literal(-1)))
          CFI (cfiCond233) CFA_SP SP+-4
          CFI (cfiCond233) CFA_XSP16 add(XSP16, 51)
          CFI Block cfiCond234 Using cfiCommon0
          CFI (cfiCond234) Function afDelete
          CFI (cfiCond234) Conditional ??CrossCallReturnLabel_122, ??CrossCallReturnLabel_92
          CFI (cfiCond234) R6 load(1, XDATA, add(CFA_XSP16, literal(-9)))
          CFI (cfiCond234) VB load(1, XDATA, add(CFA_XSP16, literal(-8)))
          CFI (cfiCond234) V0 load(1, XDATA, add(CFA_XSP16, literal(-7)))
          CFI (cfiCond234) R7 load(1, XDATA, add(CFA_XSP16, literal(-6)))
          CFI (cfiCond234) ?RET_LOW load(1, XDATA, add(CFA_XSP16, literal(-5)))
          CFI (cfiCond234) ?RET_HIGH load(1, XDATA, add(CFA_XSP16, literal(-4)))
          CFI (cfiCond234) ?BRET_EXT load(1, XDATA, add(CFA_XSP16, literal(-3)))
          CFI (cfiCond234) DPL0 load(1, XDATA, add(CFA_XSP16, literal(-2)))
          CFI (cfiCond234) DPH0 load(1, XDATA, add(CFA_XSP16, literal(-1)))
          CFI (cfiCond234) CFA_SP SP+-4
          CFI (cfiCond234) CFA_XSP16 add(XSP16, 9)
          CFI Block cfiCond235 Using cfiCommon0
          CFI (cfiCond235) Function afIncomingData
          CFI (cfiCond235) Conditional ??CrossCallReturnLabel_122, ??CrossCallReturnLabel_93
          CFI (cfiCond235) R6 load(1, XDATA, add(CFA_XSP16, literal(-24)))
          CFI (cfiCond235) VB load(1, XDATA, add(CFA_XSP16, literal(-23)))
          CFI (cfiCond235) V0 load(1, XDATA, add(CFA_XSP16, literal(-22)))
          CFI (cfiCond235) V1 load(1, XDATA, add(CFA_XSP16, literal(-21)))
          CFI (cfiCond235) V2 load(1, XDATA, add(CFA_XSP16, literal(-20)))
          CFI (cfiCond235) V3 load(1, XDATA, add(CFA_XSP16, literal(-19)))
          CFI (cfiCond235) V4 load(1, XDATA, add(CFA_XSP16, literal(-18)))
          CFI (cfiCond235) V5 load(1, XDATA, add(CFA_XSP16, literal(-17)))
          CFI (cfiCond235) V6 load(1, XDATA, add(CFA_XSP16, literal(-16)))
          CFI (cfiCond235) V7 load(1, XDATA, add(CFA_XSP16, literal(-15)))
          CFI (cfiCond235) V8 load(1, XDATA, add(CFA_XSP16, literal(-14)))
          CFI (cfiCond235) V9 load(1, XDATA, add(CFA_XSP16, literal(-13)))
          CFI (cfiCond235) V10 load(1, XDATA, add(CFA_XSP16, literal(-12)))
          CFI (cfiCond235) V11 load(1, XDATA, add(CFA_XSP16, literal(-11)))
          CFI (cfiCond235) V12 load(1, XDATA, add(CFA_XSP16, literal(-10)))
          CFI (cfiCond235) V13 load(1, XDATA, add(CFA_XSP16, literal(-9)))
          CFI (cfiCond235) V14 load(1, XDATA, add(CFA_XSP16, literal(-8)))
          CFI (cfiCond235) V15 load(1, XDATA, add(CFA_XSP16, literal(-7)))
          CFI (cfiCond235) R7 load(1, XDATA, add(CFA_XSP16, literal(-6)))
          CFI (cfiCond235) ?RET_LOW load(1, XDATA, add(CFA_XSP16, literal(-5)))
          CFI (cfiCond235) ?RET_HIGH load(1, XDATA, add(CFA_XSP16, literal(-4)))
          CFI (cfiCond235) ?BRET_EXT load(1, XDATA, add(CFA_XSP16, literal(-3)))
          CFI (cfiCond235) DPL0 load(1, XDATA, add(CFA_XSP16, literal(-2)))
          CFI (cfiCond235) DPH0 load(1, XDATA, add(CFA_XSP16, literal(-1)))
          CFI (cfiCond235) CFA_SP SP+-4
          CFI (cfiCond235) CFA_XSP16 add(XSP16, 28)
          CFI Block cfiCond236 Using cfiCommon0
          CFI (cfiCond236) Function afBuildMSGIncoming
          CFI (cfiCond236) Conditional ??CrossCallReturnLabel_122, ??CrossCallReturnLabel_94
          CFI (cfiCond236) R6 load(1, XDATA, add(CFA_XSP16, literal(-19)))
          CFI (cfiCond236) VB load(1, XDATA, add(CFA_XSP16, literal(-18)))
          CFI (cfiCond236) V0 load(1, XDATA, add(CFA_XSP16, literal(-17)))
          CFI (cfiCond236) V1 load(1, XDATA, add(CFA_XSP16, literal(-16)))
          CFI (cfiCond236) V2 load(1, XDATA, add(CFA_XSP16, literal(-15)))
          CFI (cfiCond236) V3 load(1, XDATA, add(CFA_XSP16, literal(-14)))
          CFI (cfiCond236) V4 load(1, XDATA, add(CFA_XSP16, literal(-13)))
          CFI (cfiCond236) V5 load(1, XDATA, add(CFA_XSP16, literal(-12)))
          CFI (cfiCond236) V6 load(1, XDATA, add(CFA_XSP16, literal(-11)))
          CFI (cfiCond236) V7 load(1, XDATA, add(CFA_XSP16, literal(-10)))
          CFI (cfiCond236) V8 load(1, XDATA, add(CFA_XSP16, literal(-9)))
          CFI (cfiCond236) V9 load(1, XDATA, add(CFA_XSP16, literal(-8)))
          CFI (cfiCond236) V10 load(1, XDATA, add(CFA_XSP16, literal(-7)))
          CFI (cfiCond236) R7 load(1, XDATA, add(CFA_XSP16, literal(-6)))
          CFI (cfiCond236) ?RET_LOW load(1, XDATA, add(CFA_XSP16, literal(-5)))
          CFI (cfiCond236) ?RET_HIGH load(1, XDATA, add(CFA_XSP16, literal(-4)))
          CFI (cfiCond236) ?BRET_EXT load(1, XDATA, add(CFA_XSP16, literal(-3)))
          CFI (cfiCond236) DPL0 load(1, XDATA, add(CFA_XSP16, literal(-2)))
          CFI (cfiCond236) DPH0 load(1, XDATA, add(CFA_XSP16, literal(-1)))
          CFI (cfiCond236) CFA_SP SP+-4
          CFI (cfiCond236) CFA_XSP16 add(XSP16, 19)
          CFI Block cfiCond237 Using cfiCommon0
          CFI (cfiCond237) Function AF_DataRequest
          CFI (cfiCond237) Conditional ??CrossCallReturnLabel_122, ??CrossCallReturnLabel_91
          CFI (cfiCond237) R6 load(1, XDATA, add(CFA_XSP16, literal(-18)))
          CFI (cfiCond237) VB load(1, XDATA, add(CFA_XSP16, literal(-17)))
          CFI (cfiCond237) V0 load(1, XDATA, add(CFA_XSP16, literal(-16)))
          CFI (cfiCond237) V1 load(1, XDATA, add(CFA_XSP16, literal(-15)))
          CFI (cfiCond237) V2 load(1, XDATA, add(CFA_XSP16, literal(-14)))
          CFI (cfiCond237) V3 load(1, XDATA, add(CFA_XSP16, literal(-13)))
          CFI (cfiCond237) V4 load(1, XDATA, add(CFA_XSP16, literal(-12)))
          CFI (cfiCond237) V5 load(1, XDATA, add(CFA_XSP16, literal(-11)))
          CFI (cfiCond237) V6 load(1, XDATA, add(CFA_XSP16, literal(-10)))
          CFI (cfiCond237) V7 load(1, XDATA, add(CFA_XSP16, literal(-9)))
          CFI (cfiCond237) V8 load(1, XDATA, add(CFA_XSP16, literal(-8)))
          CFI (cfiCond237) V9 load(1, XDATA, add(CFA_XSP16, literal(-7)))
          CFI (cfiCond237) R7 load(1, XDATA, add(CFA_XSP16, literal(-6)))
          CFI (cfiCond237) ?RET_LOW load(1, XDATA, add(CFA_XSP16, literal(-5)))
          CFI (cfiCond237) ?RET_HIGH load(1, XDATA, add(CFA_XSP16, literal(-4)))
          CFI (cfiCond237) ?BRET_EXT load(1, XDATA, add(CFA_XSP16, literal(-3)))
          CFI (cfiCond237) DPL0 load(1, XDATA, add(CFA_XSP16, literal(-2)))
          CFI (cfiCond237) DPH0 load(1, XDATA, add(CFA_XSP16, literal(-1)))
          CFI (cfiCond237) CFA_SP SP+-4
          CFI (cfiCond237) CFA_XSP16 add(XSP16, 51)
          CFI Block cfiCond238 Using cfiCommon0
          CFI (cfiCond238) Function AF_DataRequest
          CFI (cfiCond238) Conditional ??CrossCallReturnLabel_122, ??CrossCallReturnLabel_95
          CFI (cfiCond238) R6 load(1, XDATA, add(CFA_XSP16, literal(-18)))
          CFI (cfiCond238) VB load(1, XDATA, add(CFA_XSP16, literal(-17)))
          CFI (cfiCond238) V0 load(1, XDATA, add(CFA_XSP16, literal(-16)))
          CFI (cfiCond238) V1 load(1, XDATA, add(CFA_XSP16, literal(-15)))
          CFI (cfiCond238) V2 load(1, XDATA, add(CFA_XSP16, literal(-14)))
          CFI (cfiCond238) V3 load(1, XDATA, add(CFA_XSP16, literal(-13)))
          CFI (cfiCond238) V4 load(1, XDATA, add(CFA_XSP16, literal(-12)))
          CFI (cfiCond238) V5 load(1, XDATA, add(CFA_XSP16, literal(-11)))
          CFI (cfiCond238) V6 load(1, XDATA, add(CFA_XSP16, literal(-10)))
          CFI (cfiCond238) V7 load(1, XDATA, add(CFA_XSP16, literal(-9)))
          CFI (cfiCond238) V8 load(1, XDATA, add(CFA_XSP16, literal(-8)))
          CFI (cfiCond238) V9 load(1, XDATA, add(CFA_XSP16, literal(-7)))
          CFI (cfiCond238) R7 load(1, XDATA, add(CFA_XSP16, literal(-6)))
          CFI (cfiCond238) ?RET_LOW load(1, XDATA, add(CFA_XSP16, literal(-5)))
          CFI (cfiCond238) ?RET_HIGH load(1, XDATA, add(CFA_XSP16, literal(-4)))
          CFI (cfiCond238) ?BRET_EXT load(1, XDATA, add(CFA_XSP16, literal(-3)))
          CFI (cfiCond238) DPL0 load(1, XDATA, add(CFA_XSP16, literal(-2)))
          CFI (cfiCond238) DPH0 load(1, XDATA, add(CFA_XSP16, literal(-1)))
          CFI (cfiCond238) CFA_SP SP+-4
          CFI (cfiCond238) CFA_XSP16 add(XSP16, 51)
          CFI Block cfiCond239 Using cfiCommon0
          CFI (cfiCond239) Function afNumEndPoints
          CFI (cfiCond239) Conditional ??CrossCallReturnLabel_117
          CFI (cfiCond239) DPL0 Frame(CFA_SP, 4)
          CFI (cfiCond239) DPH0 Frame(CFA_SP, 5)
          CFI (cfiCond239) CFA_SP SP+-7
          CFI Block cfiCond240 Using cfiCommon0
          CFI (cfiCond240) Function afDataConfirm
          CFI (cfiCond240) Conditional ??CrossCallReturnLabel_120, ??CrossCallReturnLabel_0
          CFI (cfiCond240) R6 load(1, XDATA, add(CFA_XSP16, literal(-14)))
          CFI (cfiCond240) VB load(1, XDATA, add(CFA_XSP16, literal(-13)))
          CFI (cfiCond240) V0 load(1, XDATA, add(CFA_XSP16, literal(-12)))
          CFI (cfiCond240) V1 load(1, XDATA, add(CFA_XSP16, literal(-11)))
          CFI (cfiCond240) V2 load(1, XDATA, add(CFA_XSP16, literal(-10)))
          CFI (cfiCond240) V3 load(1, XDATA, add(CFA_XSP16, literal(-9)))
          CFI (cfiCond240) V4 load(1, XDATA, add(CFA_XSP16, literal(-8)))
          CFI (cfiCond240) V5 load(1, XDATA, add(CFA_XSP16, literal(-7)))
          CFI (cfiCond240) R7 load(1, XDATA, add(CFA_XSP16, literal(-6)))
          CFI (cfiCond240) ?RET_LOW load(1, XDATA, add(CFA_XSP16, literal(-5)))
          CFI (cfiCond240) ?RET_HIGH load(1, XDATA, add(CFA_XSP16, literal(-4)))
          CFI (cfiCond240) ?BRET_EXT load(1, XDATA, add(CFA_XSP16, literal(-3)))
          CFI (cfiCond240) DPL0 load(1, XDATA, add(CFA_XSP16, literal(-2)))
          CFI (cfiCond240) DPH0 load(1, XDATA, add(CFA_XSP16, literal(-1)))
          CFI (cfiCond240) CFA_SP SP+-4
          CFI (cfiCond240) CFA_XSP16 add(XSP16, 14)
          CFI Block cfiCond241 Using cfiCommon0
          CFI (cfiCond241) Function afReflectError
          CFI (cfiCond241) Conditional ??CrossCallReturnLabel_120, ??CrossCallReturnLabel_1
          CFI (cfiCond241) R6 load(1, XDATA, add(CFA_XSP16, literal(-16)))
          CFI (cfiCond241) VB load(1, XDATA, add(CFA_XSP16, literal(-15)))
          CFI (cfiCond241) V0 load(1, XDATA, add(CFA_XSP16, literal(-14)))
          CFI (cfiCond241) V1 load(1, XDATA, add(CFA_XSP16, literal(-13)))
          CFI (cfiCond241) V2 load(1, XDATA, add(CFA_XSP16, literal(-12)))
          CFI (cfiCond241) V3 load(1, XDATA, add(CFA_XSP16, literal(-11)))
          CFI (cfiCond241) V4 load(1, XDATA, add(CFA_XSP16, literal(-10)))
          CFI (cfiCond241) V5 load(1, XDATA, add(CFA_XSP16, literal(-9)))
          CFI (cfiCond241) V6 load(1, XDATA, add(CFA_XSP16, literal(-8)))
          CFI (cfiCond241) V7 load(1, XDATA, add(CFA_XSP16, literal(-7)))
          CFI (cfiCond241) R7 load(1, XDATA, add(CFA_XSP16, literal(-6)))
          CFI (cfiCond241) ?RET_LOW load(1, XDATA, add(CFA_XSP16, literal(-5)))
          CFI (cfiCond241) ?RET_HIGH load(1, XDATA, add(CFA_XSP16, literal(-4)))
          CFI (cfiCond241) ?BRET_EXT load(1, XDATA, add(CFA_XSP16, literal(-3)))
          CFI (cfiCond241) DPL0 load(1, XDATA, add(CFA_XSP16, literal(-2)))
          CFI (cfiCond241) DPH0 load(1, XDATA, add(CFA_XSP16, literal(-1)))
          CFI (cfiCond241) CFA_SP SP+-4
          CFI (cfiCond241) CFA_XSP16 add(XSP16, 16)
          CFI Block cfiCond242 Using cfiCommon0
          CFI (cfiCond242) Function afBuildMSGIncoming
          CFI (cfiCond242) Conditional ??CrossCallReturnLabel_120, ??CrossCallReturnLabel_2
          CFI (cfiCond242) R6 load(1, XDATA, add(CFA_XSP16, literal(-19)))
          CFI (cfiCond242) VB load(1, XDATA, add(CFA_XSP16, literal(-18)))
          CFI (cfiCond242) V0 load(1, XDATA, add(CFA_XSP16, literal(-17)))
          CFI (cfiCond242) V1 load(1, XDATA, add(CFA_XSP16, literal(-16)))
          CFI (cfiCond242) V2 load(1, XDATA, add(CFA_XSP16, literal(-15)))
          CFI (cfiCond242) V3 load(1, XDATA, add(CFA_XSP16, literal(-14)))
          CFI (cfiCond242) V4 load(1, XDATA, add(CFA_XSP16, literal(-13)))
          CFI (cfiCond242) V5 load(1, XDATA, add(CFA_XSP16, literal(-12)))
          CFI (cfiCond242) V6 load(1, XDATA, add(CFA_XSP16, literal(-11)))
          CFI (cfiCond242) V7 load(1, XDATA, add(CFA_XSP16, literal(-10)))
          CFI (cfiCond242) V8 load(1, XDATA, add(CFA_XSP16, literal(-9)))
          CFI (cfiCond242) V9 load(1, XDATA, add(CFA_XSP16, literal(-8)))
          CFI (cfiCond242) V10 load(1, XDATA, add(CFA_XSP16, literal(-7)))
          CFI (cfiCond242) R7 load(1, XDATA, add(CFA_XSP16, literal(-6)))
          CFI (cfiCond242) ?RET_LOW load(1, XDATA, add(CFA_XSP16, literal(-5)))
          CFI (cfiCond242) ?RET_HIGH load(1, XDATA, add(CFA_XSP16, literal(-4)))
          CFI (cfiCond242) ?BRET_EXT load(1, XDATA, add(CFA_XSP16, literal(-3)))
          CFI (cfiCond242) DPL0 load(1, XDATA, add(CFA_XSP16, literal(-2)))
          CFI (cfiCond242) DPH0 load(1, XDATA, add(CFA_XSP16, literal(-1)))
          CFI (cfiCond242) CFA_SP SP+-4
          CFI (cfiCond242) CFA_XSP16 add(XSP16, 19)
          CFI Block cfiCond243 Using cfiCommon0
          CFI (cfiCond243) Function AF_DataRequest
          CFI (cfiCond243) Conditional ??CrossCallReturnLabel_119
          CFI (cfiCond243) R6 load(1, XDATA, add(CFA_XSP16, literal(-18)))
          CFI (cfiCond243) VB load(1, XDATA, add(CFA_XSP16, literal(-17)))
          CFI (cfiCond243) V0 load(1, XDATA, add(CFA_XSP16, literal(-16)))
          CFI (cfiCond243) V1 load(1, XDATA, add(CFA_XSP16, literal(-15)))
          CFI (cfiCond243) V2 load(1, XDATA, add(CFA_XSP16, literal(-14)))
          CFI (cfiCond243) V3 load(1, XDATA, add(CFA_XSP16, literal(-13)))
          CFI (cfiCond243) V4 load(1, XDATA, add(CFA_XSP16, literal(-12)))
          CFI (cfiCond243) V5 load(1, XDATA, add(CFA_XSP16, literal(-11)))
          CFI (cfiCond243) V6 load(1, XDATA, add(CFA_XSP16, literal(-10)))
          CFI (cfiCond243) V7 load(1, XDATA, add(CFA_XSP16, literal(-9)))
          CFI (cfiCond243) V8 load(1, XDATA, add(CFA_XSP16, literal(-8)))
          CFI (cfiCond243) V9 load(1, XDATA, add(CFA_XSP16, literal(-7)))
          CFI (cfiCond243) R7 load(1, XDATA, add(CFA_XSP16, literal(-6)))
          CFI (cfiCond243) ?RET_LOW load(1, XDATA, add(CFA_XSP16, literal(-5)))
          CFI (cfiCond243) ?RET_HIGH load(1, XDATA, add(CFA_XSP16, literal(-4)))
          CFI (cfiCond243) ?BRET_EXT load(1, XDATA, add(CFA_XSP16, literal(-3)))
          CFI (cfiCond243) DPL0 load(1, XDATA, add(CFA_XSP16, literal(-2)))
          CFI (cfiCond243) DPH0 load(1, XDATA, add(CFA_XSP16, literal(-1)))
          CFI (cfiCond243) CFA_SP SP+-2
          CFI (cfiCond243) CFA_XSP16 add(XSP16, 51)
          CFI Block cfiPicker244 Using cfiCommon1
          CFI (cfiPicker244) NoFunction
          CFI (cfiPicker244) Picker
        MOVX      A,@DPTR
        MOV       R0,A
        INC       DPTR
        MOVX      A,@DPTR
        RET
          CFI EndBlock cfiCond218
          CFI EndBlock cfiCond219
          CFI EndBlock cfiCond220
          CFI EndBlock cfiCond221
          CFI EndBlock cfiCond222
          CFI EndBlock cfiCond223
          CFI EndBlock cfiCond224
          CFI EndBlock cfiCond225
          CFI EndBlock cfiCond226
          CFI EndBlock cfiCond227
          CFI EndBlock cfiCond228
          CFI EndBlock cfiCond229
          CFI EndBlock cfiCond230
          CFI EndBlock cfiCond231
          CFI EndBlock cfiCond232
          CFI EndBlock cfiCond233
          CFI EndBlock cfiCond234
          CFI EndBlock cfiCond235
          CFI EndBlock cfiCond236
          CFI EndBlock cfiCond237
          CFI EndBlock cfiCond238
          CFI EndBlock cfiCond239
          CFI EndBlock cfiCond240
          CFI EndBlock cfiCond241
          CFI EndBlock cfiCond242
          CFI EndBlock cfiCond243
          CFI EndBlock cfiPicker244
// 1103 
// 1104 /*********************************************************************
// 1105  * @fn      afEndPoints
// 1106  *
// 1107  * @brief   Fills in the passed in buffer with the endpoint (numbers).
// 1108  *          Use afNumEndPoints to find out how big a buffer to supply.
// 1109  *
// 1110  * @param   epBuf - pointer to mem used
// 1111  *
// 1112  * @return  void
// 1113  */

        RSEG BANKED_CODE:HUGECODE:NOROOT(0)
// 1114 void afEndPoints( uint8 *epBuf, uint8 skipZDO )
afEndPoints:
          CFI Block cfiBlock245 Using cfiCommon0
          CFI Function afEndPoints
        CODE
// 1115 {
        PUSH      DPL
          CFI DPL0 Frame(CFA_SP, 4)
          CFI CFA_SP SP+-4
        PUSH      DPH
          CFI DPH0 Frame(CFA_SP, 5)
          CFI CFA_SP SP+-5
        ; Saved register size: 2
        ; Auto size: 0
// 1116   epList_t *epSearch;
// 1117   uint8 endPoint;
// 1118 
// 1119   // Start at the beginning
// 1120   epSearch = epList;
        MOV       DPTR,#epList
        SJMP      ??afEndPoints_0
// 1121 
// 1122   while ( epSearch )
// 1123   {
// 1124     endPoint = epSearch->epDesc->endPoint;
??afEndPoints_1:
        MOV       DPL,R4
        MOV       DPH,R5
        INC       DPTR
        INC       DPTR
        MOVX      A,@DPTR
        MOV       R0,A
        LCALL     ??Subroutine48_0 & 0xFFFF
??CrossCallReturnLabel_112:
        MOVX      A,@DPTR
        MOV       R0,A
// 1125 
// 1126     if ( !skipZDO || endPoint != 0 )
        MOV       A,R1
        JZ        ??afEndPoints_2
        MOV       A,R0
        JZ        ??afEndPoints_3
// 1127       *epBuf++ = endPoint;
??afEndPoints_2:
        MOV       A,R0
        MOV       DPL,R2
        MOV       DPH,R3
        MOVX      @DPTR,A
        INC       DPTR
        MOV       R2,DPL
        MOV       R3,DPH
// 1128 
// 1129     epSearch = epSearch->nextDesc;
??afEndPoints_3:
        MOV       DPL,R4
        MOV       DPH,R5
// 1130   }
??afEndPoints_0:
        LCALL     ?Subroutine12 & 0xFFFF
??CrossCallReturnLabel_16:
        MOV       A,R4
        ORL       A,R5
        JNZ       ??afEndPoints_1
// 1131 }
        LJMP      ?Subroutine3 & 0xFFFF
          CFI EndBlock cfiBlock245
// 1132 
// 1133 /*********************************************************************
// 1134  * @fn      afCopyAddress
// 1135  *
// 1136  * @brief   Fills in the passed in afAddrType_t parameter with the corresponding information
// 1137  *          from the zAddrType_t parameter.
// 1138  *
// 1139  * @param   epBuf - pointer to mem used
// 1140  *
// 1141  * @return  void
// 1142  */

        RSEG BANKED_CODE:HUGECODE:NOROOT(0)
// 1143 void afCopyAddress( afAddrType_t *afAddr, zAddrType_t *zAddr )
afCopyAddress:
          CFI Block cfiBlock246 Using cfiCommon0
          CFI Function afCopyAddress
        CODE
// 1144 {
        FUNCALL afCopyAddress, sAddrExtCpy
        LOCFRAME ISTACK, 0, STACK
        LOCFRAME PSTACK, 0, STACK
        LOCFRAME XSTACK, 9, STACK
        LOCFRAME IOVERLAY, 0, STATIC
        LOCFRAME DOVERLAY, 0, STATIC
        ARGFRAME ISTACK, 0, STACK
        ARGFRAME PSTACK, 0, STACK
        ARGFRAME XSTACK, 9, STACK
        ARGFRAME IOVERLAY, 0, STATIC
        ARGFRAME DOVERLAY, 0, STATIC
        MOV       A,#-0x9
        LCALL     ?BANKED_ENTER_XDATA
          CFI DPH0 load(1, XDATA, add(CFA_XSP16, literal(-1)))
          CFI DPL0 load(1, XDATA, add(CFA_XSP16, literal(-2)))
          CFI ?BRET_EXT load(1, XDATA, add(CFA_XSP16, literal(-3)))
          CFI ?RET_HIGH load(1, XDATA, add(CFA_XSP16, literal(-4)))
          CFI ?RET_LOW load(1, XDATA, add(CFA_XSP16, literal(-5)))
          CFI R7 load(1, XDATA, add(CFA_XSP16, literal(-6)))
          CFI V0 load(1, XDATA, add(CFA_XSP16, literal(-7)))
          CFI VB load(1, XDATA, add(CFA_XSP16, literal(-8)))
          CFI R6 load(1, XDATA, add(CFA_XSP16, literal(-9)))
          CFI CFA_SP SP+0
          CFI CFA_XSP16 add(XSP16, 9)
        ; Saved register size: 9
        ; Auto size: 0
        MOV       A,R2
        MOV       R6,A
        MOV       A,R3
        MOV       R7,A
// 1145   afAddr->addrMode = (afAddrMode_t)zAddr->addrMode;
        MOV       A,R4
        ADD       A,#0x8
        MOV       R0,A
        CLR       A
        ADDC      A,R5
        MOV       R1,A
        MOV       DPL,R0
        MOV       DPH,A
        LCALL     ?Subroutine17 & 0xFFFF
??CrossCallReturnLabel_25:
        INC       DPTR
        INC       DPTR
        INC       DPTR
        INC       DPTR
        INC       DPTR
        LCALL     ?Subroutine27 & 0xFFFF
// 1146   if ( zAddr->addrMode == Addr64Bit )
??CrossCallReturnLabel_46:
        JNZ       ??afCopyAddress_0
// 1147   {
// 1148     (void)osal_cpyExtAddr( afAddr->addr.extAddr, zAddr->addr.extAddr );
        ; Setup parameters for call to function sAddrExtCpy
        LCALL     `??sAddrExtCpy::?relay`; Banked call to: sAddrExtCpy
        SJMP      ??CrossCallReturnLabel_4
// 1149   }
// 1150   else
// 1151   {
// 1152     afAddr->addr.shortAddr = zAddr->addr.shortAddr;
??afCopyAddress_0:
        MOV       DPL,R4
        MOV       DPH,R5
        LCALL     ?Subroutine6 & 0xFFFF
// 1153   }
// 1154 
// 1155   // Since zAddrType_t has no INTER-PAN information, set the panId member to zero.
// 1156   afAddr->panId = 0;
??CrossCallReturnLabel_4:
        MOV       DPL,R6
        MOV       DPH,R7
        INC       DPTR
        INC       DPTR
        INC       DPTR
        INC       DPTR
        INC       DPTR
        INC       DPTR
        INC       DPTR
        INC       DPTR
        INC       DPTR
        INC       DPTR
        CLR       A
        MOVX      @DPTR,A
        INC       DPTR
        MOVX      @DPTR,A
// 1157 }
        LJMP      ?Subroutine2 & 0xFFFF
          CFI EndBlock cfiBlock246

        RSEG BANKED_CODE:HUGECODE:NOROOT(0)
?Subroutine27:
          CFI Block cfiCond247 Using cfiCommon0
          CFI Function AF_DataRequest
          CFI Conditional ??CrossCallReturnLabel_45
          CFI R6 load(1, XDATA, add(CFA_XSP16, literal(-18)))
          CFI VB load(1, XDATA, add(CFA_XSP16, literal(-17)))
          CFI V0 load(1, XDATA, add(CFA_XSP16, literal(-16)))
          CFI V1 load(1, XDATA, add(CFA_XSP16, literal(-15)))
          CFI V2 load(1, XDATA, add(CFA_XSP16, literal(-14)))
          CFI V3 load(1, XDATA, add(CFA_XSP16, literal(-13)))
          CFI V4 load(1, XDATA, add(CFA_XSP16, literal(-12)))
          CFI V5 load(1, XDATA, add(CFA_XSP16, literal(-11)))
          CFI V6 load(1, XDATA, add(CFA_XSP16, literal(-10)))
          CFI V7 load(1, XDATA, add(CFA_XSP16, literal(-9)))
          CFI V8 load(1, XDATA, add(CFA_XSP16, literal(-8)))
          CFI V9 load(1, XDATA, add(CFA_XSP16, literal(-7)))
          CFI R7 load(1, XDATA, add(CFA_XSP16, literal(-6)))
          CFI ?RET_LOW load(1, XDATA, add(CFA_XSP16, literal(-5)))
          CFI ?RET_HIGH load(1, XDATA, add(CFA_XSP16, literal(-4)))
          CFI ?BRET_EXT load(1, XDATA, add(CFA_XSP16, literal(-3)))
          CFI DPL0 load(1, XDATA, add(CFA_XSP16, literal(-2)))
          CFI DPH0 load(1, XDATA, add(CFA_XSP16, literal(-1)))
          CFI CFA_SP SP+-2
          CFI CFA_XSP16 add(XSP16, 51)
          CFI Block cfiCond248 Using cfiCommon0
          CFI (cfiCond248) Function afCopyAddress
          CFI (cfiCond248) Conditional ??CrossCallReturnLabel_46
          CFI (cfiCond248) R6 load(1, XDATA, add(CFA_XSP16, literal(-9)))
          CFI (cfiCond248) VB load(1, XDATA, add(CFA_XSP16, literal(-8)))
          CFI (cfiCond248) V0 load(1, XDATA, add(CFA_XSP16, literal(-7)))
          CFI (cfiCond248) R7 load(1, XDATA, add(CFA_XSP16, literal(-6)))
          CFI (cfiCond248) ?RET_LOW load(1, XDATA, add(CFA_XSP16, literal(-5)))
          CFI (cfiCond248) ?RET_HIGH load(1, XDATA, add(CFA_XSP16, literal(-4)))
          CFI (cfiCond248) ?BRET_EXT load(1, XDATA, add(CFA_XSP16, literal(-3)))
          CFI (cfiCond248) DPL0 load(1, XDATA, add(CFA_XSP16, literal(-2)))
          CFI (cfiCond248) DPH0 load(1, XDATA, add(CFA_XSP16, literal(-1)))
          CFI (cfiCond248) CFA_SP SP+-2
          CFI (cfiCond248) CFA_XSP16 add(XSP16, 9)
          CFI Block cfiPicker249 Using cfiCommon1
          CFI (cfiPicker249) NoFunction
          CFI (cfiPicker249) Picker
        LCALL     ?Subroutine34 & 0xFFFF
??CrossCallReturnLabel_64:
        MOVX      A,@DPTR
        XRL       A,#0x3
        RET
          CFI EndBlock cfiCond247
          CFI EndBlock cfiCond248
          CFI EndBlock cfiPicker249

        RSEG BANKED_CODE:HUGECODE:NOROOT(0)
?Subroutine34:
          CFI Block cfiCond250 Using cfiCommon0
          CFI Function afBuildMSGIncoming
          CFI Conditional ??CrossCallReturnLabel_61
          CFI R6 load(1, XDATA, add(CFA_XSP16, literal(-19)))
          CFI VB load(1, XDATA, add(CFA_XSP16, literal(-18)))
          CFI V0 load(1, XDATA, add(CFA_XSP16, literal(-17)))
          CFI V1 load(1, XDATA, add(CFA_XSP16, literal(-16)))
          CFI V2 load(1, XDATA, add(CFA_XSP16, literal(-15)))
          CFI V3 load(1, XDATA, add(CFA_XSP16, literal(-14)))
          CFI V4 load(1, XDATA, add(CFA_XSP16, literal(-13)))
          CFI V5 load(1, XDATA, add(CFA_XSP16, literal(-12)))
          CFI V6 load(1, XDATA, add(CFA_XSP16, literal(-11)))
          CFI V7 load(1, XDATA, add(CFA_XSP16, literal(-10)))
          CFI V8 load(1, XDATA, add(CFA_XSP16, literal(-9)))
          CFI V9 load(1, XDATA, add(CFA_XSP16, literal(-8)))
          CFI V10 load(1, XDATA, add(CFA_XSP16, literal(-7)))
          CFI R7 load(1, XDATA, add(CFA_XSP16, literal(-6)))
          CFI ?RET_LOW load(1, XDATA, add(CFA_XSP16, literal(-5)))
          CFI ?RET_HIGH load(1, XDATA, add(CFA_XSP16, literal(-4)))
          CFI ?BRET_EXT load(1, XDATA, add(CFA_XSP16, literal(-3)))
          CFI DPL0 load(1, XDATA, add(CFA_XSP16, literal(-2)))
          CFI DPH0 load(1, XDATA, add(CFA_XSP16, literal(-1)))
          CFI CFA_SP SP+-2
          CFI CFA_XSP16 add(XSP16, 19)
          CFI Block cfiCond251 Using cfiCommon0
          CFI (cfiCond251) Function afBuildMSGIncoming
          CFI (cfiCond251) Conditional ??CrossCallReturnLabel_62
          CFI (cfiCond251) R6 load(1, XDATA, add(CFA_XSP16, literal(-19)))
          CFI (cfiCond251) VB load(1, XDATA, add(CFA_XSP16, literal(-18)))
          CFI (cfiCond251) V0 load(1, XDATA, add(CFA_XSP16, literal(-17)))
          CFI (cfiCond251) V1 load(1, XDATA, add(CFA_XSP16, literal(-16)))
          CFI (cfiCond251) V2 load(1, XDATA, add(CFA_XSP16, literal(-15)))
          CFI (cfiCond251) V3 load(1, XDATA, add(CFA_XSP16, literal(-14)))
          CFI (cfiCond251) V4 load(1, XDATA, add(CFA_XSP16, literal(-13)))
          CFI (cfiCond251) V5 load(1, XDATA, add(CFA_XSP16, literal(-12)))
          CFI (cfiCond251) V6 load(1, XDATA, add(CFA_XSP16, literal(-11)))
          CFI (cfiCond251) V7 load(1, XDATA, add(CFA_XSP16, literal(-10)))
          CFI (cfiCond251) V8 load(1, XDATA, add(CFA_XSP16, literal(-9)))
          CFI (cfiCond251) V9 load(1, XDATA, add(CFA_XSP16, literal(-8)))
          CFI (cfiCond251) V10 load(1, XDATA, add(CFA_XSP16, literal(-7)))
          CFI (cfiCond251) R7 load(1, XDATA, add(CFA_XSP16, literal(-6)))
          CFI (cfiCond251) ?RET_LOW load(1, XDATA, add(CFA_XSP16, literal(-5)))
          CFI (cfiCond251) ?RET_HIGH load(1, XDATA, add(CFA_XSP16, literal(-4)))
          CFI (cfiCond251) ?BRET_EXT load(1, XDATA, add(CFA_XSP16, literal(-3)))
          CFI (cfiCond251) DPL0 load(1, XDATA, add(CFA_XSP16, literal(-2)))
          CFI (cfiCond251) DPH0 load(1, XDATA, add(CFA_XSP16, literal(-1)))
          CFI (cfiCond251) CFA_SP SP+-2
          CFI (cfiCond251) CFA_XSP16 add(XSP16, 19)
          CFI Block cfiCond252 Using cfiCommon0
          CFI (cfiCond252) Function afBuildMSGIncoming
          CFI (cfiCond252) Conditional ??CrossCallReturnLabel_63
          CFI (cfiCond252) R6 load(1, XDATA, add(CFA_XSP16, literal(-19)))
          CFI (cfiCond252) VB load(1, XDATA, add(CFA_XSP16, literal(-18)))
          CFI (cfiCond252) V0 load(1, XDATA, add(CFA_XSP16, literal(-17)))
          CFI (cfiCond252) V1 load(1, XDATA, add(CFA_XSP16, literal(-16)))
          CFI (cfiCond252) V2 load(1, XDATA, add(CFA_XSP16, literal(-15)))
          CFI (cfiCond252) V3 load(1, XDATA, add(CFA_XSP16, literal(-14)))
          CFI (cfiCond252) V4 load(1, XDATA, add(CFA_XSP16, literal(-13)))
          CFI (cfiCond252) V5 load(1, XDATA, add(CFA_XSP16, literal(-12)))
          CFI (cfiCond252) V6 load(1, XDATA, add(CFA_XSP16, literal(-11)))
          CFI (cfiCond252) V7 load(1, XDATA, add(CFA_XSP16, literal(-10)))
          CFI (cfiCond252) V8 load(1, XDATA, add(CFA_XSP16, literal(-9)))
          CFI (cfiCond252) V9 load(1, XDATA, add(CFA_XSP16, literal(-8)))
          CFI (cfiCond252) V10 load(1, XDATA, add(CFA_XSP16, literal(-7)))
          CFI (cfiCond252) R7 load(1, XDATA, add(CFA_XSP16, literal(-6)))
          CFI (cfiCond252) ?RET_LOW load(1, XDATA, add(CFA_XSP16, literal(-5)))
          CFI (cfiCond252) ?RET_HIGH load(1, XDATA, add(CFA_XSP16, literal(-4)))
          CFI (cfiCond252) ?BRET_EXT load(1, XDATA, add(CFA_XSP16, literal(-3)))
          CFI (cfiCond252) DPL0 load(1, XDATA, add(CFA_XSP16, literal(-2)))
          CFI (cfiCond252) DPH0 load(1, XDATA, add(CFA_XSP16, literal(-1)))
          CFI (cfiCond252) CFA_SP SP+-2
          CFI (cfiCond252) CFA_XSP16 add(XSP16, 19)
          CFI Block cfiCond253 Using cfiCommon0
          CFI (cfiCond253) Function AF_DataRequest
          CFI (cfiCond253) Conditional ??CrossCallReturnLabel_64, ??CrossCallReturnLabel_45
          CFI (cfiCond253) R6 load(1, XDATA, add(CFA_XSP16, literal(-18)))
          CFI (cfiCond253) VB load(1, XDATA, add(CFA_XSP16, literal(-17)))
          CFI (cfiCond253) V0 load(1, XDATA, add(CFA_XSP16, literal(-16)))
          CFI (cfiCond253) V1 load(1, XDATA, add(CFA_XSP16, literal(-15)))
          CFI (cfiCond253) V2 load(1, XDATA, add(CFA_XSP16, literal(-14)))
          CFI (cfiCond253) V3 load(1, XDATA, add(CFA_XSP16, literal(-13)))
          CFI (cfiCond253) V4 load(1, XDATA, add(CFA_XSP16, literal(-12)))
          CFI (cfiCond253) V5 load(1, XDATA, add(CFA_XSP16, literal(-11)))
          CFI (cfiCond253) V6 load(1, XDATA, add(CFA_XSP16, literal(-10)))
          CFI (cfiCond253) V7 load(1, XDATA, add(CFA_XSP16, literal(-9)))
          CFI (cfiCond253) V8 load(1, XDATA, add(CFA_XSP16, literal(-8)))
          CFI (cfiCond253) V9 load(1, XDATA, add(CFA_XSP16, literal(-7)))
          CFI (cfiCond253) R7 load(1, XDATA, add(CFA_XSP16, literal(-6)))
          CFI (cfiCond253) ?RET_LOW load(1, XDATA, add(CFA_XSP16, literal(-5)))
          CFI (cfiCond253) ?RET_HIGH load(1, XDATA, add(CFA_XSP16, literal(-4)))
          CFI (cfiCond253) ?BRET_EXT load(1, XDATA, add(CFA_XSP16, literal(-3)))
          CFI (cfiCond253) DPL0 load(1, XDATA, add(CFA_XSP16, literal(-2)))
          CFI (cfiCond253) DPH0 load(1, XDATA, add(CFA_XSP16, literal(-1)))
          CFI (cfiCond253) CFA_SP SP+-4
          CFI (cfiCond253) CFA_XSP16 add(XSP16, 51)
          CFI Block cfiCond254 Using cfiCommon0
          CFI (cfiCond254) Function afCopyAddress
          CFI (cfiCond254) Conditional ??CrossCallReturnLabel_64, ??CrossCallReturnLabel_46
          CFI (cfiCond254) R6 load(1, XDATA, add(CFA_XSP16, literal(-9)))
          CFI (cfiCond254) VB load(1, XDATA, add(CFA_XSP16, literal(-8)))
          CFI (cfiCond254) V0 load(1, XDATA, add(CFA_XSP16, literal(-7)))
          CFI (cfiCond254) R7 load(1, XDATA, add(CFA_XSP16, literal(-6)))
          CFI (cfiCond254) ?RET_LOW load(1, XDATA, add(CFA_XSP16, literal(-5)))
          CFI (cfiCond254) ?RET_HIGH load(1, XDATA, add(CFA_XSP16, literal(-4)))
          CFI (cfiCond254) ?BRET_EXT load(1, XDATA, add(CFA_XSP16, literal(-3)))
          CFI (cfiCond254) DPL0 load(1, XDATA, add(CFA_XSP16, literal(-2)))
          CFI (cfiCond254) DPH0 load(1, XDATA, add(CFA_XSP16, literal(-1)))
          CFI (cfiCond254) CFA_SP SP+-4
          CFI (cfiCond254) CFA_XSP16 add(XSP16, 9)
          CFI Block cfiPicker255 Using cfiCommon1
          CFI (cfiPicker255) NoFunction
          CFI (cfiPicker255) Picker
        MOVX      @DPTR,A
        MOV       DPL,R0
        MOV       DPH,R1
        RET
          CFI EndBlock cfiCond250
          CFI EndBlock cfiCond251
          CFI EndBlock cfiCond252
          CFI EndBlock cfiCond253
          CFI EndBlock cfiCond254
          CFI EndBlock cfiPicker255

        RSEG BANKED_CODE:HUGECODE:NOROOT(0)
?Subroutine17:
          CFI Block cfiCond256 Using cfiCommon0
          CFI Function afReflectError
          CFI Conditional ??CrossCallReturnLabel_24
          CFI R6 load(1, XDATA, add(CFA_XSP16, literal(-16)))
          CFI VB load(1, XDATA, add(CFA_XSP16, literal(-15)))
          CFI V0 load(1, XDATA, add(CFA_XSP16, literal(-14)))
          CFI V1 load(1, XDATA, add(CFA_XSP16, literal(-13)))
          CFI V2 load(1, XDATA, add(CFA_XSP16, literal(-12)))
          CFI V3 load(1, XDATA, add(CFA_XSP16, literal(-11)))
          CFI V4 load(1, XDATA, add(CFA_XSP16, literal(-10)))
          CFI V5 load(1, XDATA, add(CFA_XSP16, literal(-9)))
          CFI V6 load(1, XDATA, add(CFA_XSP16, literal(-8)))
          CFI V7 load(1, XDATA, add(CFA_XSP16, literal(-7)))
          CFI R7 load(1, XDATA, add(CFA_XSP16, literal(-6)))
          CFI ?RET_LOW load(1, XDATA, add(CFA_XSP16, literal(-5)))
          CFI ?RET_HIGH load(1, XDATA, add(CFA_XSP16, literal(-4)))
          CFI ?BRET_EXT load(1, XDATA, add(CFA_XSP16, literal(-3)))
          CFI DPL0 load(1, XDATA, add(CFA_XSP16, literal(-2)))
          CFI DPH0 load(1, XDATA, add(CFA_XSP16, literal(-1)))
          CFI CFA_SP SP+-2
          CFI CFA_XSP16 add(XSP16, 16)
          CFI Block cfiCond257 Using cfiCommon0
          CFI (cfiCond257) Function afCopyAddress
          CFI (cfiCond257) Conditional ??CrossCallReturnLabel_25
          CFI (cfiCond257) R6 load(1, XDATA, add(CFA_XSP16, literal(-9)))
          CFI (cfiCond257) VB load(1, XDATA, add(CFA_XSP16, literal(-8)))
          CFI (cfiCond257) V0 load(1, XDATA, add(CFA_XSP16, literal(-7)))
          CFI (cfiCond257) R7 load(1, XDATA, add(CFA_XSP16, literal(-6)))
          CFI (cfiCond257) ?RET_LOW load(1, XDATA, add(CFA_XSP16, literal(-5)))
          CFI (cfiCond257) ?RET_HIGH load(1, XDATA, add(CFA_XSP16, literal(-4)))
          CFI (cfiCond257) ?BRET_EXT load(1, XDATA, add(CFA_XSP16, literal(-3)))
          CFI (cfiCond257) DPL0 load(1, XDATA, add(CFA_XSP16, literal(-2)))
          CFI (cfiCond257) DPH0 load(1, XDATA, add(CFA_XSP16, literal(-1)))
          CFI (cfiCond257) CFA_SP SP+-2
          CFI (cfiCond257) CFA_XSP16 add(XSP16, 9)
          CFI Block cfiPicker258 Using cfiCommon1
          CFI (cfiPicker258) NoFunction
          CFI (cfiPicker258) Picker
        MOVX      A,@DPTR
        MOV       DPL,R2
        MOV       DPH,R3
        INC       DPTR
        INC       DPTR
        INC       DPTR
        RET
          CFI EndBlock cfiCond256
          CFI EndBlock cfiCond257
          CFI EndBlock cfiPicker258

        RSEG BANKED_CODE:HUGECODE:NOROOT(0)
?Subroutine6:
          CFI Block cfiCond259 Using cfiCommon0
          CFI Function afRegisterExtended
          CFI Conditional ??CrossCallReturnLabel_3
          CFI R6 load(1, XDATA, add(CFA_XSP16, literal(-12)))
          CFI VB load(1, XDATA, add(CFA_XSP16, literal(-11)))
          CFI V0 load(1, XDATA, add(CFA_XSP16, literal(-10)))
          CFI V1 load(1, XDATA, add(CFA_XSP16, literal(-9)))
          CFI V2 load(1, XDATA, add(CFA_XSP16, literal(-8)))
          CFI V3 load(1, XDATA, add(CFA_XSP16, literal(-7)))
          CFI R7 load(1, XDATA, add(CFA_XSP16, literal(-6)))
          CFI ?RET_LOW load(1, XDATA, add(CFA_XSP16, literal(-5)))
          CFI ?RET_HIGH load(1, XDATA, add(CFA_XSP16, literal(-4)))
          CFI ?BRET_EXT load(1, XDATA, add(CFA_XSP16, literal(-3)))
          CFI DPL0 load(1, XDATA, add(CFA_XSP16, literal(-2)))
          CFI DPH0 load(1, XDATA, add(CFA_XSP16, literal(-1)))
          CFI CFA_SP SP+-2
          CFI CFA_XSP16 add(XSP16, 12)
          CFI Block cfiCond260 Using cfiCommon0
          CFI (cfiCond260) Function afCopyAddress
          CFI (cfiCond260) Conditional ??CrossCallReturnLabel_4
          CFI (cfiCond260) R6 load(1, XDATA, add(CFA_XSP16, literal(-9)))
          CFI (cfiCond260) VB load(1, XDATA, add(CFA_XSP16, literal(-8)))
          CFI (cfiCond260) V0 load(1, XDATA, add(CFA_XSP16, literal(-7)))
          CFI (cfiCond260) R7 load(1, XDATA, add(CFA_XSP16, literal(-6)))
          CFI (cfiCond260) ?RET_LOW load(1, XDATA, add(CFA_XSP16, literal(-5)))
          CFI (cfiCond260) ?RET_HIGH load(1, XDATA, add(CFA_XSP16, literal(-4)))
          CFI (cfiCond260) ?BRET_EXT load(1, XDATA, add(CFA_XSP16, literal(-3)))
          CFI (cfiCond260) DPL0 load(1, XDATA, add(CFA_XSP16, literal(-2)))
          CFI (cfiCond260) DPH0 load(1, XDATA, add(CFA_XSP16, literal(-1)))
          CFI (cfiCond260) CFA_SP SP+-2
          CFI (cfiCond260) CFA_XSP16 add(XSP16, 9)
          CFI Block cfiPicker261 Using cfiCommon1
          CFI (cfiPicker261) NoFunction
          CFI (cfiPicker261) Picker
        LCALL     ?Subroutine35 & 0xFFFF
??CrossCallReturnLabel_89:
        MOV       A,R0
        MOVX      @DPTR,A
        INC       DPTR
        MOV       A,R1
        MOVX      @DPTR,A
        RET
          CFI EndBlock cfiCond259
          CFI EndBlock cfiCond260
          CFI EndBlock cfiPicker261
// 1158 
// 1159 /**************************************************************************************************
// 1160  * @fn          afAPSF_ConfigGet
// 1161  *
// 1162  * @brief       This function ascertains the fragmentation configuration that corresponds to
// 1163  *              the specified EndPoint.
// 1164  *
// 1165  * input parameters
// 1166  *
// 1167  * @param       endPoint - The source EP of a Tx or destination EP of a Rx fragmented message.
// 1168  *
// 1169  * output parameters
// 1170  *
// 1171  * @param       pCfg - A pointer to an APSF configuration structure to fill with values.
// 1172  *
// 1173  * @return      None.
// 1174  */

        RSEG BANKED_CODE:HUGECODE:NOROOT(0)
// 1175 void afAPSF_ConfigGet(uint8 endPoint, afAPSF_Config_t *pCfg)
afAPSF_ConfigGet:
          CFI Block cfiBlock262 Using cfiCommon0
          CFI Function afAPSF_ConfigGet
        CODE
// 1176 {
        FUNCALL afAPSF_ConfigGet, afFindEndPointDescList
        LOCFRAME ISTACK, 0, STACK
        LOCFRAME PSTACK, 0, STACK
        LOCFRAME XSTACK, 12, STACK
        LOCFRAME IOVERLAY, 0, STATIC
        LOCFRAME DOVERLAY, 0, STATIC
        ARGFRAME ISTACK, 0, STACK
        ARGFRAME PSTACK, 0, STACK
        ARGFRAME XSTACK, 12, STACK
        ARGFRAME IOVERLAY, 0, STATIC
        ARGFRAME DOVERLAY, 0, STATIC
        FUNCALL afAPSF_ConfigGet, osal_memcpy
        LOCFRAME ISTACK, 0, STACK
        LOCFRAME PSTACK, 0, STACK
        LOCFRAME XSTACK, 15, STACK
        LOCFRAME IOVERLAY, 0, STATIC
        LOCFRAME DOVERLAY, 0, STATIC
        ARGFRAME ISTACK, 0, STACK
        ARGFRAME PSTACK, 0, STACK
        ARGFRAME XSTACK, 15, STACK
        ARGFRAME IOVERLAY, 0, STATIC
        ARGFRAME DOVERLAY, 0, STATIC
        REQUIRE ?V0
        REQUIRE ?V1
        REQUIRE ?V2
        REQUIRE ?V3
        MOV       A,#-0xc
        LCALL     ?BANKED_ENTER_XDATA
          CFI DPH0 load(1, XDATA, add(CFA_XSP16, literal(-1)))
          CFI DPL0 load(1, XDATA, add(CFA_XSP16, literal(-2)))
          CFI ?BRET_EXT load(1, XDATA, add(CFA_XSP16, literal(-3)))
          CFI ?RET_HIGH load(1, XDATA, add(CFA_XSP16, literal(-4)))
          CFI ?RET_LOW load(1, XDATA, add(CFA_XSP16, literal(-5)))
          CFI R7 load(1, XDATA, add(CFA_XSP16, literal(-6)))
          CFI V3 load(1, XDATA, add(CFA_XSP16, literal(-7)))
          CFI V2 load(1, XDATA, add(CFA_XSP16, literal(-8)))
          CFI V1 load(1, XDATA, add(CFA_XSP16, literal(-9)))
          CFI V0 load(1, XDATA, add(CFA_XSP16, literal(-10)))
          CFI VB load(1, XDATA, add(CFA_XSP16, literal(-11)))
          CFI R6 load(1, XDATA, add(CFA_XSP16, literal(-12)))
          CFI CFA_SP SP+0
          CFI CFA_XSP16 add(XSP16, 12)
        ; Saved register size: 12
        ; Auto size: 0
        MOV       A,R2
        MOV       R6,A
        MOV       A,R3
        MOV       R7,A
// 1177   epList_t *pList = afFindEndPointDescList(endPoint);
        ; Setup parameters for call to function afFindEndPointDescList
        LCALL     `??afFindEndPointDescList::?relay`; Banked call to: afFindEndPointDescList
        MOV       ?V1,R3
        MOV       R1,?V1
// 1178 
// 1179   if (pList == NULL)
        MOV       A,R2
        ORL       A,R1
        JNZ       ??afAPSF_ConfigGet_0
// 1180   {
// 1181     pCfg->frameDelay = APSF_DEFAULT_INTERFRAME_DELAY;
        MOV       DPL,R6
        MOV       DPH,R7
        MOV       A,#0x32
        MOVX      @DPTR,A
// 1182     pCfg->windowSize = APSF_DEFAULT_WINDOW_SIZE;
        INC       DPTR
        MOV       A,#0x1
        MOVX      @DPTR,A
        SJMP      ??afAPSF_ConfigGet_1
// 1183   }
// 1184   else
// 1185   {
// 1186     (void)osal_memcpy(pCfg, &pList->apsfCfg, sizeof(afAPSF_Config_t));
??afAPSF_ConfigGet_0:
        ; Setup parameters for call to function osal_memcpy
        MOV       A,R2
        ADD       A,#0x6
        MOV       ?V0,A
        CLR       A
        ADDC      A,R1
        MOV       ?V1,A
        MOV       ?V2,#0x0
        MOV       R0,#?V0
        LCALL     ?PUSH_XSTACK_I_THREE
          CFI CFA_XSP16 add(XSP16, 15)
        MOV       R4,#0x2
        MOV       R5,#0x0
        MOV       A,R6
        MOV       R2,A
        MOV       A,R7
        MOV       R3,A
        LCALL     `??osal_memcpy::?relay`; Banked call to: osal_memcpy
        MOV       A,#0x3
        LCALL     ?DEALLOC_XSTACK8
          CFI CFA_XSP16 add(XSP16, 12)
// 1187   }
// 1188 }
??afAPSF_ConfigGet_1:
          CFI EndBlock cfiBlock262
        REQUIRE ?Subroutine0
        ; // Fall through to label ?Subroutine0

        RSEG BANKED_CODE:HUGECODE:NOROOT(0)
?Subroutine0:
          CFI Block cfiBlock263 Using cfiCommon0
          CFI NoFunction
          CFI CFA_SP SP+0
          CFI CFA_XSP16 add(XSP16, 12)
          CFI VB load(1, XDATA, add(CFA_XSP16, literal(-11)))
          CFI DPL0 load(1, XDATA, add(CFA_XSP16, literal(-2)))
          CFI DPH0 load(1, XDATA, add(CFA_XSP16, literal(-1)))
          CFI R6 load(1, XDATA, add(CFA_XSP16, literal(-12)))
          CFI R7 load(1, XDATA, add(CFA_XSP16, literal(-6)))
          CFI V0 load(1, XDATA, add(CFA_XSP16, literal(-10)))
          CFI V1 load(1, XDATA, add(CFA_XSP16, literal(-9)))
          CFI V2 load(1, XDATA, add(CFA_XSP16, literal(-8)))
          CFI V3 load(1, XDATA, add(CFA_XSP16, literal(-7)))
          CFI ?BRET_EXT load(1, XDATA, add(CFA_XSP16, literal(-3)))
          CFI ?RET_HIGH load(1, XDATA, add(CFA_XSP16, literal(-4)))
          CFI ?RET_LOW load(1, XDATA, add(CFA_XSP16, literal(-5)))
        MOV       R7,#0x4
        LJMP      ?BANKED_LEAVE_XDATA
          CFI EndBlock cfiBlock263
// 1189 
// 1190 /**************************************************************************************************
// 1191  * @fn          afAPSF_ConfigSet
// 1192  *
// 1193  * @brief       This function attempts to set the fragmentation configuration that corresponds to
// 1194  *              the specified EndPoint.
// 1195  *
// 1196  * input parameters
// 1197  *
// 1198  * @param       endPoint - The specific EndPoint for which to set the fragmentation configuration.
// 1199  * @param       pCfg - A pointer to an APSF configuration structure to fill with values.
// 1200  *
// 1201  * output parameters
// 1202  *
// 1203  * None.
// 1204  *
// 1205  * @return      afStatus_SUCCESS for success.
// 1206  *              afStatus_INVALID_PARAMETER if the specified EndPoint is not registered.
// 1207  */

        RSEG BANKED_CODE:HUGECODE:NOROOT(0)
// 1208 afStatus_t afAPSF_ConfigSet(uint8 endPoint, afAPSF_Config_t *pCfg)
afAPSF_ConfigSet:
          CFI Block cfiBlock264 Using cfiCommon0
          CFI Function afAPSF_ConfigSet
        CODE
// 1209 {
        FUNCALL afAPSF_ConfigSet, afFindEndPointDescList
        LOCFRAME ISTACK, 0, STACK
        LOCFRAME PSTACK, 0, STACK
        LOCFRAME XSTACK, 12, STACK
        LOCFRAME IOVERLAY, 0, STATIC
        LOCFRAME DOVERLAY, 0, STATIC
        ARGFRAME ISTACK, 0, STACK
        ARGFRAME PSTACK, 0, STACK
        ARGFRAME XSTACK, 12, STACK
        ARGFRAME IOVERLAY, 0, STATIC
        ARGFRAME DOVERLAY, 0, STATIC
        FUNCALL afAPSF_ConfigSet, osal_memcpy
        LOCFRAME ISTACK, 0, STACK
        LOCFRAME PSTACK, 0, STACK
        LOCFRAME XSTACK, 15, STACK
        LOCFRAME IOVERLAY, 0, STATIC
        LOCFRAME DOVERLAY, 0, STATIC
        ARGFRAME ISTACK, 0, STACK
        ARGFRAME PSTACK, 0, STACK
        ARGFRAME XSTACK, 15, STACK
        ARGFRAME IOVERLAY, 0, STATIC
        ARGFRAME DOVERLAY, 0, STATIC
        REQUIRE ?V0
        REQUIRE ?V1
        REQUIRE ?V2
        REQUIRE ?V3
        MOV       A,#-0xc
        LCALL     ?BANKED_ENTER_XDATA
          CFI DPH0 load(1, XDATA, add(CFA_XSP16, literal(-1)))
          CFI DPL0 load(1, XDATA, add(CFA_XSP16, literal(-2)))
          CFI ?BRET_EXT load(1, XDATA, add(CFA_XSP16, literal(-3)))
          CFI ?RET_HIGH load(1, XDATA, add(CFA_XSP16, literal(-4)))
          CFI ?RET_LOW load(1, XDATA, add(CFA_XSP16, literal(-5)))
          CFI R7 load(1, XDATA, add(CFA_XSP16, literal(-6)))
          CFI V3 load(1, XDATA, add(CFA_XSP16, literal(-7)))
          CFI V2 load(1, XDATA, add(CFA_XSP16, literal(-8)))
          CFI V1 load(1, XDATA, add(CFA_XSP16, literal(-9)))
          CFI V0 load(1, XDATA, add(CFA_XSP16, literal(-10)))
          CFI VB load(1, XDATA, add(CFA_XSP16, literal(-11)))
          CFI R6 load(1, XDATA, add(CFA_XSP16, literal(-12)))
          CFI CFA_SP SP+0
          CFI CFA_XSP16 add(XSP16, 12)
        ; Saved register size: 12
        ; Auto size: 0
        MOV       A,R2
        MOV       R6,A
        MOV       A,R3
        MOV       R7,A
// 1210   epList_t *pList = afFindEndPointDescList(endPoint);
        ; Setup parameters for call to function afFindEndPointDescList
        LCALL     `??afFindEndPointDescList::?relay`; Banked call to: afFindEndPointDescList
// 1211 
// 1212   if (pList == NULL)
        MOV       A,R2
        ORL       A,R3
        JNZ       ??afAPSF_ConfigSet_0
// 1213   {
// 1214     return afStatus_INVALID_PARAMETER;
        MOV       R1,#0x2
        SJMP      ??afAPSF_ConfigSet_1
// 1215   }
// 1216 
// 1217   (void)osal_memcpy(&pList->apsfCfg, pCfg, sizeof(afAPSF_Config_t));
??afAPSF_ConfigSet_0:
        ; Setup parameters for call to function osal_memcpy
        MOV       ?V0,R6
        MOV       ?V1,R7
        MOV       ?V2,#0x0
        MOV       R0,#?V0
        LCALL     ?PUSH_XSTACK_I_THREE
          CFI CFA_XSP16 add(XSP16, 15)
        MOV       R4,#0x2
        MOV       R5,#0x0
        MOV       A,R2
        ADD       A,#0x6
        MOV       R2,A
        JNC       ??afAPSF_ConfigSet_2
        INC       R3
??afAPSF_ConfigSet_2:
        LCALL     `??osal_memcpy::?relay`; Banked call to: osal_memcpy
        MOV       A,#0x3
        LCALL     ?DEALLOC_XSTACK8
          CFI CFA_XSP16 add(XSP16, 12)
// 1218   return afStatus_SUCCESS;
        MOV       R1,#0x0
??afAPSF_ConfigSet_1:
        SJMP      ?Subroutine0
// 1219 }
          CFI EndBlock cfiBlock264
// 1220 
// 1221 /**************************************************************************************************
// 1222  * @fn          afSetApplCB
// 1223  *
// 1224  * @brief       Sets the pointer to the Application Callback function for a
// 1225  *              specific EndPoint.
// 1226  *
// 1227  * input parameters
// 1228  *
// 1229  * @param       endPoint - The specific EndPoint for which to set Application Callback.
// 1230  * @param       pApplFn - A pointer to the Application Callback function.
// 1231  *
// 1232  * output parameters
// 1233  *
// 1234  * None.
// 1235  *
// 1236  * @return      TRUE if success, FALSE if endpoint not found
// 1237  */

        RSEG BANKED_CODE:HUGECODE:NOROOT(0)
// 1238 uint8 afSetApplCB( uint8 endPoint, pApplCB pApplFn )
afSetApplCB:
          CFI Block cfiBlock265 Using cfiCommon0
          CFI Function afSetApplCB
        CODE
// 1239 {
        FUNCALL afSetApplCB, afFindEndPointDescList
        LOCFRAME ISTACK, 0, STACK
        LOCFRAME PSTACK, 0, STACK
        LOCFRAME XSTACK, 12, STACK
        LOCFRAME IOVERLAY, 0, STATIC
        LOCFRAME DOVERLAY, 0, STATIC
        ARGFRAME ISTACK, 0, STACK
        ARGFRAME PSTACK, 0, STACK
        ARGFRAME XSTACK, 12, STACK
        ARGFRAME IOVERLAY, 0, STATIC
        ARGFRAME DOVERLAY, 0, STATIC
        REQUIRE ?V0
        REQUIRE ?V2
        REQUIRE ?V3
        MOV       A,#-0xc
        LCALL     ?BANKED_ENTER_XDATA
          CFI DPH0 load(1, XDATA, add(CFA_XSP16, literal(-1)))
          CFI DPL0 load(1, XDATA, add(CFA_XSP16, literal(-2)))
          CFI ?BRET_EXT load(1, XDATA, add(CFA_XSP16, literal(-3)))
          CFI ?RET_HIGH load(1, XDATA, add(CFA_XSP16, literal(-4)))
          CFI ?RET_LOW load(1, XDATA, add(CFA_XSP16, literal(-5)))
          CFI R7 load(1, XDATA, add(CFA_XSP16, literal(-6)))
          CFI V3 load(1, XDATA, add(CFA_XSP16, literal(-7)))
          CFI V2 load(1, XDATA, add(CFA_XSP16, literal(-8)))
          CFI V1 load(1, XDATA, add(CFA_XSP16, literal(-9)))
          CFI V0 load(1, XDATA, add(CFA_XSP16, literal(-10)))
          CFI VB load(1, XDATA, add(CFA_XSP16, literal(-11)))
          CFI R6 load(1, XDATA, add(CFA_XSP16, literal(-12)))
          CFI CFA_SP SP+0
          CFI CFA_XSP16 add(XSP16, 12)
        ; Saved register size: 12
        ; Auto size: 0
        MOV       A,R2
        MOV       R6,A
        MOV       A,R3
        MOV       R7,A
// 1240   if ( pApplFn != NULL )
        MOV       A,R2
        ORL       A,R7
        JZ        ??afSetApplCB_0
// 1241   {
// 1242     epList_t *epSearch;
// 1243 
// 1244     // Look for the endpoint
// 1245     epSearch = afFindEndPointDescList( endPoint );
        ; Setup parameters for call to function afFindEndPointDescList
        LCALL     ?Subroutine28 & 0xFFFF
// 1246 
// 1247     if ( epSearch )
??CrossCallReturnLabel_50:
        JZ        ??afSetApplCB_0
// 1248     {
// 1249       epSearch->pfnApplCB = pApplFn;
        INC       DPTR
        INC       DPTR
        INC       DPTR
        INC       DPTR
        INC       DPTR
        INC       DPTR
        INC       DPTR
        INC       DPTR
        INC       DPTR
        MOV       A,R6
        MOVX      @DPTR,A
        INC       DPTR
        MOV       A,R7
        MOVX      @DPTR,A
// 1250 
// 1251       return ( TRUE );
        MOV       R1,#0x1
        SJMP      ??afSetApplCB_1
// 1252     }
// 1253   }
// 1254 
// 1255   return ( FALSE );
??afSetApplCB_0:
        MOV       R1,#0x0
??afSetApplCB_1:
        SJMP      ?Subroutine0
// 1256 }
          CFI EndBlock cfiBlock265

        RSEG XDATA_ID:CODE:NOROOT(0)
`?<Initializer for AF_DataRequestDiscoverRoute>`:
        DATA8
        DB 1

        RSEG BANK_RELAYS:CODE:REORDER:NOROOT(0)
`??afRegisterExtended::?relay`:
        CODE
        LCALL   ?BDISPATCH
        DATA24
        DC24    afRegisterExtended

        RSEG BANK_RELAYS:CODE:REORDER:NOROOT(0)
`??afRegister::?relay`:
        CODE
        LCALL   ?BDISPATCH
        DATA24
        DC24    afRegister

        RSEG BANK_RELAYS:CODE:REORDER:NOROOT(0)
`??afDelete::?relay`:
        CODE
        LCALL   ?BDISPATCH
        DATA24
        DC24    afDelete

        RSEG BANK_RELAYS:CODE:REORDER:NOROOT(0)
`??afDataConfirm::?relay`:
        CODE
        LCALL   ?BDISPATCH
        DATA24
        DC24    afDataConfirm

        RSEG BANK_RELAYS:CODE:REORDER:NOROOT(0)
`??afReflectError::?relay`:
        CODE
        LCALL   ?BDISPATCH
        DATA24
        DC24    afReflectError

        RSEG BANK_RELAYS:CODE:REORDER:NOROOT(0)
`??afIncomingData::?relay`:
        CODE
        LCALL   ?BDISPATCH
        DATA24
        DC24    afIncomingData

        RSEG BANK_RELAYS:CODE:REORDER:NOROOT(0)
`??afBuildMSGIncoming::?relay`:
        CODE
        LCALL   ?BDISPATCH
        DATA24
        DC24    afBuildMSGIncoming

        RSEG BANK_RELAYS:CODE:REORDER:NOROOT(0)
`??AF_DataRequest::?relay`:
        CODE
        LCALL   ?BDISPATCH
        DATA24
        DC24    AF_DataRequest

        RSEG BANK_RELAYS:CODE:REORDER:NOROOT(0)
`??AF_DataRequestSrcRtg::?relay`:
        CODE
        LCALL   ?BDISPATCH
        DATA24
        DC24    AF_DataRequestSrcRtg

        RSEG BANK_RELAYS:CODE:REORDER:NOROOT(0)
`??afFindEndPointDescList::?relay`:
        CODE
        LCALL   ?BDISPATCH
        DATA24
        DC24    afFindEndPointDescList

        RSEG BANK_RELAYS:CODE:REORDER:NOROOT(0)
`??afFindEndPointDesc::?relay`:
        CODE
        LCALL   ?BDISPATCH
        DATA24
        DC24    afFindEndPointDesc

        RSEG BANK_RELAYS:CODE:REORDER:NOROOT(0)
`??afFindSimpleDesc::?relay`:
        CODE
        LCALL   ?BDISPATCH
        DATA24
        DC24    afFindSimpleDesc

        RSEG BANK_RELAYS:CODE:REORDER:NOROOT(0)
`??afDataReqMTU::?relay`:
        CODE
        LCALL   ?BDISPATCH
        DATA24
        DC24    afDataReqMTU

        RSEG BANK_RELAYS:CODE:REORDER:NOROOT(0)
`??afGetMatch::?relay`:
        CODE
        LCALL   ?BDISPATCH
        DATA24
        DC24    afGetMatch

        RSEG BANK_RELAYS:CODE:REORDER:NOROOT(0)
`??afSetMatch::?relay`:
        CODE
        LCALL   ?BDISPATCH
        DATA24
        DC24    afSetMatch

        RSEG BANK_RELAYS:CODE:REORDER:NOROOT(0)
`??afNumEndPoints::?relay`:
        CODE
        LCALL   ?BDISPATCH
        DATA24
        DC24    afNumEndPoints

        RSEG BANK_RELAYS:CODE:REORDER:NOROOT(0)
`??afEndPoints::?relay`:
        CODE
        LCALL   ?BDISPATCH
        DATA24
        DC24    afEndPoints

        RSEG BANK_RELAYS:CODE:REORDER:NOROOT(0)
`??afCopyAddress::?relay`:
        CODE
        LCALL   ?BDISPATCH
        DATA24
        DC24    afCopyAddress

        RSEG BANK_RELAYS:CODE:REORDER:NOROOT(0)
`??afAPSF_ConfigGet::?relay`:
        CODE
        LCALL   ?BDISPATCH
        DATA24
        DC24    afAPSF_ConfigGet

        RSEG BANK_RELAYS:CODE:REORDER:NOROOT(0)
`??afAPSF_ConfigSet::?relay`:
        CODE
        LCALL   ?BDISPATCH
        DATA24
        DC24    afAPSF_ConfigSet

        RSEG BANK_RELAYS:CODE:REORDER:NOROOT(0)
`??afSetApplCB::?relay`:
        CODE
        LCALL   ?BDISPATCH
        DATA24
        DC24    afSetApplCB

        END
// 1257 
// 1258 /**************************************************************************************************
// 1259 */
// 
// 3 381 bytes in segment BANKED_CODE
//   126 bytes in segment BANK_RELAYS
//     1 byte  in segment XDATA_I
//     1 byte  in segment XDATA_ID
//     2 bytes in segment XDATA_Z
// 
//   127 bytes of CODE     memory
// 3 381 bytes of HUGECODE memory
//     3 bytes of XDATA    memory
//
//Errors: none
//Warnings: none
