###############################################################################
#
# IAR C/C++ Compiler V10.40.1.7397 for 8051               01/May/2021  14:39:36
# Copyright 2004-2021 IAR Systems AB.
#
#    Core               =  plain
#    Code model         =  banked
#    Data model         =  large
#    Calling convention =  xdata reentrant
#    Constant location  =  data_rom
#    Dptr setup         =  1,16
#                          
#    Source file        =  
#        E:\Texas Instruments\Z-Stack 3.0.2\Components\mt\MT_AF.c
#    Command line       =  
#        -f C:\Users\asus\AppData\Local\Temp\EWC7C6.tmp ("E:\Texas
#        Instruments\Z-Stack 3.0.2\Components\mt\MT_AF.c" -D
#        BDB_FINDING_BINDING_CAPABILITY_ENABLED=0 -D HAL_UART_DMA_RX_MAX=128 -D
#        MAXMEMHEAP=2765 -D TC_LINKKEY_JOIN -D NWK_MAX_DEVICE_LIST=10 -D
#        ZDSECMGR_TC_DEVICE_MAX=30 -D DISABLE_GREENPOWER_BASIC_PROXY -D
#        POWER_SAVING -D FEATURE_SYSTEM_STATS -D MT_GP_CB_FUNC -lC "E:\Texas
#        Instruments\Z-Stack
#        3.0.2\Projects\zstack\ZNP\CC253x\CC2530-Debug\List" -lA "E:\Texas
#        Instruments\Z-Stack
#        3.0.2\Projects\zstack\ZNP\CC253x\CC2530-Debug\List" --diag_suppress
#        Pe001,Pa010 -o "E:\Texas Instruments\Z-Stack
#        3.0.2\Projects\zstack\ZNP\CC253x\CC2530-Debug\Obj" -e --debug
#        --core=plain --dptr=16,1 --data_model=large --code_model=banked
#        --calling_convention=xdata_reentrant --place_constants=data_rom
#        --nr_virtual_regs 16 -f "E:\Texas Instruments\Z-Stack
#        3.0.2\Projects\zstack\ZNP\CC253x\..\Source\znp.cfg"
#        (-DMAC_CFG_APP_PENDING_QUEUE=TRUE
#        "-DZSTACK_DEVICE_BUILD=(DEVICE_BUILD_COORDINATOR | DEVICE_BUILD_ROUTER
#        | DEVICE_BUILD_ENDDEVICE)" -DNWK_AUTO_POLL -DZNP_RUN_WDOG=FALSE
#        -DZNP_UART_BAUD=HAL_UART_BR_115200 -DZIGBEEPRO -DZIGBEE_FRAGMENTATION
#        -DINTER_PAN -DOSAL_CLOCK -DOSAL_SAPI=FALSE -DSAPI_CB_FUNC=FALSE
#        -DHOLD_AUTO_START -DNV_RESTORE -DNV_INIT -DNUM_DISC_ATTEMPTS=0
#        -DMT_UTIL_FUNC -DMT_SYS_FUNC -DMT_AF_FUNC -DMT_SAPI_FUNC
#        -DMT_SAPI_CB_FUNC -DMT_ZDO_CB_FUNC -DMT_ZDO_FUNC -DMT_ZDO_MGMT
#        -DMT_ZDO_EXTENSIONS -DMT_GP_CB_FUNC -DMT_APP_FUNC -DMT_APP_CNF_FUNC)
#        -f "E:\Texas Instruments\Z-Stack
#        3.0.2\Projects\zstack\ZNP\CC253x\..\..\Tools\CC2530DB\f8wConfig.cfg"
#        (-DZIGBEEPRO -DSECURE=1 -DZG_SECURE_DYNAMIC=0 -DREFLECTOR
#        -DDEFAULT_CHANLIST=0x00000800 -DZDAPP_CONFIG_PAN_ID=0xFFFF
#        -DNWK_START_DELAY=100 -DEXTENDED_JOINING_RANDOM_MASK=0x007F
#        -DBEACON_REQUEST_DELAY=100 -DBEACON_REQ_DELAY_MASK=0x00FF
#        -DLINK_STATUS_JITTER_MASK=0x007F -DROUTE_EXPIRY_TIME=30
#        -DAPSC_ACK_WAIT_DURATION_POLLED=3000 -DNWK_INDIRECT_MSG_TIMEOUT=7
#        -DMAX_RREQ_ENTRIES=8 -DAPSC_MAX_FRAME_RETRIES=3
#        -DNWK_MAX_DATA_RETRIES=2 -DMAX_POLL_FAILURE_RETRIES=2 -DMAX_BCAST=9
#        -DAPS_MAX_GROUPS=16 -DMAX_RTG_ENTRIES=40 -DNWK_MAX_BINDING_ENTRIES=4
#        -DMAX_BINDING_CLUSTER_IDS=4 -DDEFAULT_KEY={0} -DMAC_MAX_FRAME_SIZE=116
#        -DZDNWKMGR_MIN_TRANSMISSIONS=20 "-DCONST=const __code"
#        -DGENERIC=__generic -DRFD_RCVC_ALWAYS_ON=FALSE -DPOLL_RATE=1000
#        -DQUEUED_POLL_RATE=100 -DRESPONSE_POLL_RATE=100 -DREJOIN_POLL_RATE=440
#        -DREJOIN_BACKOFF=900000 -DREJOIN_SCAN=900000 -DENABLE_LED4_DISABLE_S1)
#        -f "E:\Texas Instruments\Z-Stack
#        3.0.2\Projects\zstack\ZNP\CC253x\..\..\Tools\CC2530DB\f8wZCL.cfg" -I
#        "E:\Texas Instruments\Z-Stack 3.0.2\Projects\zstack\ZNP\CC253x\" -I
#        "E:\Texas Instruments\Z-Stack
#        3.0.2\Projects\zstack\ZNP\CC253x\Source\" -I "E:\Texas
#        Instruments\Z-Stack 3.0.2\Projects\zstack\ZNP\CC253x\..\Source\" -I
#        "E:\Texas Instruments\Z-Stack
#        3.0.2\Projects\zstack\ZNP\CC253x\..\..\SE\Source\" -I "E:\Texas
#        Instruments\Z-Stack
#        3.0.2\Projects\zstack\ZNP\CC253x\..\..\ZMain\TI2530ZNP\" -I "E:\Texas
#        Instruments\Z-Stack
#        3.0.2\Projects\zstack\ZNP\CC253x\..\..\..\..\Components\hal\include\"
#        -I "E:\Texas Instruments\Z-Stack
#        3.0.2\Projects\zstack\ZNP\CC253x\..\..\..\..\Components\hal\target\CC2530ZNP\"
#        -I "E:\Texas Instruments\Z-Stack
#        3.0.2\Projects\zstack\ZNP\CC253x\..\..\..\..\Components\mac\include\"
#        -I "E:\Texas Instruments\Z-Stack
#        3.0.2\Projects\zstack\ZNP\CC253x\..\..\..\..\Components\mac\high_level\"
#        -I "E:\Texas Instruments\Z-Stack
#        3.0.2\Projects\zstack\ZNP\CC253x\..\..\..\..\Components\mac\low_level\srf04\"
#        -I "E:\Texas Instruments\Z-Stack
#        3.0.2\Projects\zstack\ZNP\CC253x\..\..\..\..\Components\mac\low_level\srf04\single_chip\"
#        -I "E:\Texas Instruments\Z-Stack
#        3.0.2\Projects\zstack\ZNP\CC253x\..\..\..\..\Components\mt\" -I
#        "E:\Texas Instruments\Z-Stack
#        3.0.2\Projects\zstack\ZNP\CC253x\..\..\..\..\Components\osal\include\"
#        -I "E:\Texas Instruments\Z-Stack
#        3.0.2\Projects\zstack\ZNP\CC253x\..\..\..\..\Components\services\ecc\binary163\"
#        -I "E:\Texas Instruments\Z-Stack
#        3.0.2\Projects\zstack\ZNP\CC253x\..\..\..\..\Components\services\ecc\binary283\"
#        -I "E:\Texas Instruments\Z-Stack
#        3.0.2\Projects\zstack\ZNP\CC253x\..\..\..\..\Components\services\saddr\"
#        -I "E:\Texas Instruments\Z-Stack
#        3.0.2\Projects\zstack\ZNP\CC253x\..\..\..\..\Components\services\sdata\"
#        -I "E:\Texas Instruments\Z-Stack
#        3.0.2\Projects\zstack\ZNP\CC253x\..\..\..\..\Components\stack\af\" -I
#        "E:\Texas Instruments\Z-Stack
#        3.0.2\Projects\zstack\ZNP\CC253x\..\..\..\..\Components\stack\gp\" -I
#        "E:\Texas Instruments\Z-Stack
#        3.0.2\Projects\zstack\ZNP\CC253x\..\..\..\..\Components\stack\bdb\" -I
#        "E:\Texas Instruments\Z-Stack
#        3.0.2\Projects\zstack\ZNP\CC253x\..\..\..\..\Components\stack\nwk\" -I
#        "E:\Texas Instruments\Z-Stack
#        3.0.2\Projects\zstack\ZNP\CC253x\..\..\..\..\Components\stack\sapi\"
#        -I "E:\Texas Instruments\Z-Stack
#        3.0.2\Projects\zstack\ZNP\CC253x\..\..\..\..\Components\stack\sec\" -I
#        "E:\Texas Instruments\Z-Stack
#        3.0.2\Projects\zstack\ZNP\CC253x\..\..\..\..\Components\stack\sys\" -I
#        "E:\Texas Instruments\Z-Stack
#        3.0.2\Projects\zstack\ZNP\CC253x\..\..\..\..\Components\stack\zcl\" -I
#        "E:\Texas Instruments\Z-Stack
#        3.0.2\Projects\zstack\ZNP\CC253x\..\..\..\..\Components\stack\zdo\" -I
#        "E:\Texas Instruments\Z-Stack
#        3.0.2\Projects\zstack\ZNP\CC253x\..\..\..\..\Components\zmac\" -I
#        "E:\Texas Instruments\Z-Stack
#        3.0.2\Projects\zstack\ZNP\CC253x\..\..\..\..\Components\zmac\f8w\"
#        -Ohz --require_prototypes --no_code_motion)
#    Locale             =  English_USA.1252
#    List file          =  
#        E:\Texas Instruments\Z-Stack
#        3.0.2\Projects\zstack\ZNP\CC253x\CC2530-Debug\List\MT_AF.lst
#    Object file        =  
#        E:\Texas Instruments\Z-Stack
#        3.0.2\Projects\zstack\ZNP\CC253x\CC2530-Debug\Obj\MT_AF.r51
#
###############################################################################

E:\Texas Instruments\Z-Stack 3.0.2\Components\mt\MT_AF.c
      1          /**************************************************************************************************
      2            Filename:       MT_AF.c
      3            Revised:        $Date: 2015-01-26 08:25:50 -0800 (Mon, 26 Jan 2015) $
      4            Revision:       $Revision: 42025 $
      5          
      6            Description:    MonitorTest functions for the AF layer.
      7          
      8            Copyright 2007-2015 Texas Instruments Incorporated. All rights reserved.
      9          
     10            IMPORTANT: Your use of this Software is limited to those specific rights
     11            granted under the terms of a software license agreement between the user
     12            who downloaded the software, his/her employer (which must be your employer)
     13            and Texas Instruments Incorporated (the "License"). You may not use this
     14            Software unless you agree to abide by the terms of the License. The License
     15            limits your use, and you acknowledge, that the Software may not be modified,
     16            copied or distributed unless embedded on a Texas Instruments microcontroller
     17            or used solely and exclusively in conjunction with a Texas Instruments radio
     18            frequency transceiver, which is integrated into your product. Other than for
     19            the foregoing purpose, you may not use, reproduce, copy, prepare derivative
     20            works of, modify, distribute, perform, display or sell this Software and/or
     21            its documentation for any purpose.
     22          
     23            YOU FURTHER ACKNOWLEDGE AND AGREE THAT THE SOFTWARE AND DOCUMENTATION ARE
     24            PROVIDED “AS IS” WITHOUT WARRANTY OF ANY KIND, EITHER EXPRESS OR IMPLIED,
     25            INCLUDING WITHOUT LIMITATION, ANY WARRANTY OF MERCHANTABILITY, TITLE,
     26            NON-INFRINGEMENT AND FITNESS FOR A PARTICULAR PURPOSE. IN NO EVENT SHALL
     27            TEXAS INSTRUMENTS OR ITS LICENSORS BE LIABLE OR OBLIGATED UNDER CONTRACT,
     28            NEGLIGENCE, STRICT LIABILITY, CONTRIBUTION, BREACH OF WARRANTY, OR OTHER
     29            LEGAL EQUITABLE THEORY ANY DIRECT OR INDIRECT DAMAGES OR EXPENSES
     30            INCLUDING BUT NOT LIMITED TO ANY INCIDENTAL, SPECIAL, INDIRECT, PUNITIVE
     31            OR CONSEQUENTIAL DAMAGES, LOST PROFITS OR LOST DATA, COST OF PROCUREMENT
     32            OF SUBSTITUTE GOODS, TECHNOLOGY, SERVICES, OR ANY CLAIMS BY THIRD PARTIES
     33            (INCLUDING BUT NOT LIMITED TO ANY DEFENSE THEREOF), OR OTHER SIMILAR COSTS.
     34          
     35            Should you have any questions regarding your right to use this Software,
     36            contact Texas Instruments Incorporated at www.TI.com.
     37          
     38          **************************************************************************************************/
     39          
     40          /* ------------------------------------------------------------------------------------------------
     41           *                                          Includes
     42           * ------------------------------------------------------------------------------------------------
     43           */
     44          #include "ZComDef.h"
     45          #include "OSAL.h"
     46          #include "MT.h"
     47          #include "MT_AF.h"
     48          #include "MT_ZDO.h"
     49          #include "nwk.h"
     50          #include "OnBoard.h"
     51          #include "MT_UART.h"
     52          
     53          #if defined INTER_PAN
     54          #include "stub_aps.h"
     55          #endif
     56          
     57          
     58          /* ------------------------------------------------------------------------------------------------
     59           *                                          Constants
     60           * ------------------------------------------------------------------------------------------------
     61           */
     62          
     63          #if !defined MT_AF_EXEC_CNT
     64          #define MT_AF_EXEC_CNT  15
     65          #endif
     66          
     67          #if !defined MT_AF_EXEC_DLY
     68          #define MT_AF_EXEC_DLY  1000
     69          #endif
     70          
     71          /* ------------------------------------------------------------------------------------------------
     72           *                                           Typedefs
     73           * ------------------------------------------------------------------------------------------------
     74           */
     75          
     76          typedef struct
     77          {
     78            uint8 *data;
     79            afAddrType_t dstAddr;
     80            endPointDesc_t *epDesc;
     81            uint16 cId;
     82            uint16 dataLen;
     83            uint8 transId;
     84            uint8 txOpts;
     85            uint8 radius;
     86            uint8 tick;
     87          } mtAfDataReq_t;
     88          
     89          typedef struct _mtAfInMsgList_t
     90          {
     91            struct _mtAfInMsgList_t *next;
     92            uint8 *data;
     93            uint32 timestamp;         // Receipt timestamp from MAC.
     94            uint8 tick;
     95          } mtAfInMsgList_t;
     96          
     97          /* ------------------------------------------------------------------------------------------------
     98           *                                        Local Variables
     99           * ------------------------------------------------------------------------------------------------
    100           */
    101          

   \                                 In  segment XDATA_Z, align 1, keep-with-next
    102          mtAfInMsgList_t *pMtAfInMsgList = NULL;
   \                     pMtAfInMsgList:
   \   000000                DS 2
   \   000002                REQUIRE __INIT_XDATA_Z

   \                                 In  segment XDATA_Z, align 1, keep-with-next
    103          mtAfDataReq_t *pMtAfDataReq = NULL;
   \                     pMtAfDataReq:
   \   000000                DS 2
   \   000002                REQUIRE __INIT_XDATA_Z
    104          
    105          /* ------------------------------------------------------------------------------------------------
    106           *                                        Global Variables
    107           * ------------------------------------------------------------------------------------------------
    108           */
    109          
    110          #if defined ( MT_AF_CB_FUNC )
    111          uint16 _afCallbackSub;
    112          #endif
    113          
    114          /* ------------------------------------------------------------------------------------------------
    115           *                                        Local Functions
    116           * ------------------------------------------------------------------------------------------------
    117           */
    118          
    119          static void MT_AfRegister(uint8 *pBuf);
    120          static void MT_AfDelete(uint8 *pBuf);
    121          static void MT_AfDataRequest(uint8 *pBuf);
    122          
    123          #if defined ( ZIGBEEPRO )
    124          static void MT_AfDataRequestSrcRtg(uint8 *pBuf);
    125          #endif
    126          
    127          #if defined INTER_PAN
    128          static void MT_AfInterPanCtl(uint8 *pBuf);
    129          #endif
    130          
    131          static void MT_AfDataRetrieve(uint8 *pBuf);
    132          static void MT_AfDataStore(uint8 *pBuf);
    133          static void MT_AfAPSF_ConfigSet(uint8 *pBuf);
    134          static void MT_AfAPSF_ConfigGet(uint8 *pBuf);
    135          
    136          
    137          /**************************************************************************************************
    138           * @fn          MT_AfExec
    139           *
    140           * @brief       This function is invoked by an MT timer event.
    141           *
    142           * input parameters
    143           *
    144           * None.
    145           *
    146           * output parameters
    147           *
    148           * None.
    149           *
    150           * @return      None.
    151           **************************************************************************************************
    152           */

   \                                 In  segment BANKED_CODE, align 1, keep-with-next
    153          void MT_AfExec(void)
   \                     MT_AfExec:
    154          {
   \   000000   74F7         MOV       A,#-0x9
   \   000002   12....       LCALL     ?BANKED_ENTER_XDATA
   \   000005                ; Saved register size: 9
   \   000005                ; Auto size: 0
    155            mtAfInMsgList_t *pPrev, *pItem = pMtAfInMsgList;
   \                     ??MT_AfExec_0:
   \   000005   90....       MOV       DPTR,#pMtAfInMsgList
   \   000008   8008         SJMP      ??MT_AfExec_1
    156          
    157            while (pItem != NULL)
    158            {
    159              if (--(pItem->tick) == 0)
    160              {
    161                if (pMtAfInMsgList == pItem)
    162                {
    163                  pMtAfInMsgList = pItem->next;
    164                  (void)osal_mem_free(pItem);
    165                  pItem = pMtAfInMsgList;
    166                }
    167                else
    168                {
    169                  pPrev->next = pItem->next;
    170                  (void)osal_mem_free(pItem);
    171                  pItem = pPrev->next;
    172                }
    173              }
    174              else
    175              {
    176                pPrev = pItem;
   \                     ??MT_AfExec_2:
   \   00000A   EA           MOV       A,R2
   \   00000B   FE           MOV       R6,A
   \   00000C   EB           MOV       A,R3
   \   00000D   FF           MOV       R7,A
    177                pItem = pItem->next;
   \   00000E   8A82         MOV       DPL,R2
   \   000010   8B83         MOV       DPH,R3
   \                     ??MT_AfExec_1:
   \   000012   E0           MOVX      A,@DPTR
   \   000013   FA           MOV       R2,A
   \   000014   A3           INC       DPTR
   \   000015   E0           MOVX      A,@DPTR
   \   000016   FB           MOV       R3,A
    178              }
   \   000017   EA           MOV       A,R2
   \   000018   4B           ORL       A,R3
   \   000019   6035         JZ        ??MT_AfExec_3
   \   00001B   EA           MOV       A,R2
   \   00001C   2408         ADD       A,#0x8
   \   00001E   F582         MOV       DPL,A
   \   000020   E4           CLR       A
   \   000021   3B           ADDC      A,R3
   \   000022   F583         MOV       DPH,A
   \   000024   E0           MOVX      A,@DPTR
   \   000025   14           DEC       A
   \   000026   F0           MOVX      @DPTR,A
   \   000027   70E1         JNZ       ??MT_AfExec_2
   \   000029   12....       LCALL     ?Subroutine20 & 0xFFFF
   \                     ??CrossCallReturnLabel_129:
   \   00002C   EA           MOV       A,R2
   \   00002D   68           XRL       A,R0
   \   00002E   7002         JNZ       ??MT_AfExec_4
   \   000030   EB           MOV       A,R3
   \   000031   69           XRL       A,R1
   \                     ??MT_AfExec_4:
   \   000032   8A82         MOV       DPL,R2
   \   000034   8B83         MOV       DPH,R3
   \   000036   7008         JNZ       ??MT_AfExec_5
   \   000038   12....       LCALL     ?Subroutine19 & 0xFFFF
   \                     ??CrossCallReturnLabel_30:
   \   00003B   12....       LCALL     ?Subroutine30 & 0xFFFF
   \                     ??CrossCallReturnLabel_53:
   \   00003E   80C5         SJMP      ??MT_AfExec_0
   \                     ??MT_AfExec_5:
   \   000040   12....       LCALL     ??Subroutine57_0 & 0xFFFF
   \                     ??CrossCallReturnLabel_127:
   \   000043   8E82         MOV       DPL,R6
   \   000045   8F83         MOV       DPH,R7
   \   000047   12....       LCALL     ?Subroutine30 & 0xFFFF
   \                     ??CrossCallReturnLabel_54:
   \   00004A   8E82         MOV       DPL,R6
   \   00004C   8F83         MOV       DPH,R7
   \   00004E   80C2         SJMP      ??MT_AfExec_1
    179            }
    180          
    181            if (pMtAfDataReq != NULL)
   \                     ??MT_AfExec_3:
   \   000050   12....       LCALL     ?Subroutine3 & 0xFFFF
   \                     ??CrossCallReturnLabel_108:
   \   000053   6015         JZ        ??MT_AfExec_6
    182            {
    183              if (--(pMtAfDataReq->tick) == 0)
   \   000055   E8           MOV       A,R0
   \   000056   2417         ADD       A,#0x17
   \   000058   F582         MOV       DPL,A
   \   00005A   E4           CLR       A
   \   00005B   39           ADDC      A,R1
   \   00005C   F583         MOV       DPH,A
   \   00005E   E0           MOVX      A,@DPTR
   \   00005F   14           DEC       A
   \   000060   12....       LCALL     ?Subroutine7 & 0xFFFF
   \                     ??CrossCallReturnLabel_9:
   \   000063   E0           MOVX      A,@DPTR
   \   000064   7004         JNZ       ??MT_AfExec_6
    184              {
    185                (void)osal_mem_free(pMtAfDataReq);
   \   000066                ; Setup parameters for call to function osal_mem_free
   \   000066   12....       LCALL     ?Subroutine6 & 0xFFFF
    186                pMtAfDataReq = NULL;
    187              }
    188            }
   \                     ??CrossCallReturnLabel_6:
   \   000069   F0           MOVX      @DPTR,A
    189          
    190            if ((pMtAfInMsgList != NULL) || (pMtAfDataReq != NULL))
   \                     ??MT_AfExec_6:
   \   00006A   90....       MOV       DPTR,#pMtAfInMsgList
   \   00006D   12....       LCALL     ??Subroutine53_0 & 0xFFFF
   \                     ??CrossCallReturnLabel_107:
   \   000070   7005         JNZ       ??MT_AfExec_7
   \   000072   12....       LCALL     ?Subroutine3 & 0xFFFF
   \                     ??CrossCallReturnLabel_109:
   \   000075   6012         JZ        ??CrossCallReturnLabel_32
    191            {
    192              if (ZSuccess != osal_start_timerEx(MT_TaskID, MT_AF_EXEC_EVT, MT_AF_EXEC_DLY))
   \                     ??MT_AfExec_7:
   \   000077                ; Setup parameters for call to function osal_start_timerEx
   \   000077   90....       MOV       DPTR,#__Constant_3e8
   \   00007A   12....       LCALL     ?PUSH_XSTACK8_X_FOUR
   \   00007D   12....       LCALL     ?Subroutine11 & 0xFFFF
   \                     ??CrossCallReturnLabel_15:
   \   000080   12....       LCALL     ?DEALLOC_XSTACK8
   \   000083   E9           MOV       A,R1
   \   000084   6003         JZ        ??CrossCallReturnLabel_32
    193              {
    194                osal_set_event(MT_TaskID, MT_AF_EXEC_EVT);
   \   000086                ; Setup parameters for call to function osal_set_event
   \   000086   12....       LCALL     ?Subroutine21 & 0xFFFF
    195              }
    196            }
    197          }
   \                     ??CrossCallReturnLabel_32:
   \   000089   7F01         MOV       R7,#0x1
   \   00008B   02....       LJMP      ?BANKED_LEAVE_XDATA

   \                                 In  segment BANKED_CODE, align 1, keep-with-next
   \                     ?Subroutine30:
   \   000000   E8           MOV       A,R0
   \   000001   F0           MOVX      @DPTR,A
   \   000002   A3           INC       DPTR
   \   000003   E9           MOV       A,R1
   \   000004   F0           MOVX      @DPTR,A
   \   000005                ; Setup parameters for call to function osal_mem_free
   \   000005                ; Setup parameters for call to function osal_mem_free
   \   000005   12....       LCALL     `??osal_mem_free::?relay`; Banked call to: osal_mem_free
   \   000008   22           RET

   \                                 In  segment BANKED_CODE, align 1, keep-with-next
   \                     ?Subroutine21:
   \   000000   7A08         MOV       R2,#0x8
   \   000002   7B00         MOV       R3,#0x0
   \   000004   90....       MOV       DPTR,#MT_TaskID
   \   000007   E0           MOVX      A,@DPTR
   \   000008   F9           MOV       R1,A
   \   000009   12....       LCALL     `??osal_set_event::?relay`; Banked call to: osal_set_event
   \   00000C   22           RET

   \                                 In  segment BANKED_CODE, align 1, keep-with-next
   \                     ?Subroutine11:
   \   000000   7A08         MOV       R2,#0x8
   \   000002   7B00         MOV       R3,#0x0
   \   000004   90....       MOV       DPTR,#MT_TaskID
   \   000007   E0           MOVX      A,@DPTR
   \   000008   F9           MOV       R1,A
   \   000009   12....       LCALL     `??osal_start_timerEx::?relay`; Banked call to: osal_start_timerEx
   \   00000C   7404         MOV       A,#0x4
   \   00000E   22           RET

   \                                 In  segment BANKED_CODE, align 1, keep-with-next
   \                     ?Subroutine41:
   \   000000   90....       MOV       DPTR,#pMtAfDataReq
   \   000003                REQUIRE ??Subroutine52_0
   \   000003                ; // Fall through to label ??Subroutine52_0

   \                                 In  segment BANKED_CODE, align 1, keep-with-next
   \                     ??Subroutine52_0:
   \   000000   E0           MOVX      A,@DPTR
   \   000001   F8           MOV       R0,A
   \   000002   A3           INC       DPTR
   \   000003   E0           MOVX      A,@DPTR
   \   000004   22           RET

   \                                 In  segment BANKED_CODE, align 1, keep-with-next
   \                     ?Subroutine7:
   \   000000   F0           MOVX      @DPTR,A
   \   000001   12....       LCALL     ?Subroutine41 & 0xFFFF
   \                     ??CrossCallReturnLabel_133:
   \   000004   C8           XCH       A,R0
   \   000005   2417         ADD       A,#0x17
   \   000007   F582         MOV       DPL,A
   \   000009   E4           CLR       A
   \   00000A   38           ADDC      A,R0
   \   00000B   F583         MOV       DPH,A
   \   00000D   22           RET

   \                                 In  segment BANKED_CODE, align 1, keep-with-next
   \                     ?Subroutine3:
   \   000000   90....       MOV       DPTR,#pMtAfDataReq
   \   000003                REQUIRE ??Subroutine53_0
   \   000003                ; // Fall through to label ??Subroutine53_0

   \                                 In  segment BANKED_CODE, align 1, keep-with-next
   \                     ??Subroutine53_0:
   \   000000   12....       LCALL     ??Subroutine52_0 & 0xFFFF
   \                     ??CrossCallReturnLabel_136:
   \   000003   F9           MOV       R1,A
   \   000004   E8           MOV       A,R0
   \   000005   49           ORL       A,R1
   \   000006   22           RET

   \                                 In  segment BANKED_CODE, align 1, keep-with-next
   \                     ?Subroutine20:
   \   000000   90....       MOV       DPTR,#pMtAfInMsgList
   \   000003                REQUIRE ??Subroutine57_0
   \   000003                ; // Fall through to label ??Subroutine57_0

   \                                 In  segment BANKED_CODE, align 1, keep-with-next
   \                     ??Subroutine57_0:
   \   000000   12....       LCALL     ??Subroutine52_0 & 0xFFFF
   \                     ??CrossCallReturnLabel_137:
   \   000003   F9           MOV       R1,A
   \   000004   22           RET

   \                                 In  segment BANKED_CODE, align 1, keep-with-next
   \                     ?Subroutine19:
   \   000000   12....       LCALL     ??Subroutine52_0 & 0xFFFF
   \                     ??CrossCallReturnLabel_132:
   \   000003   F9           MOV       R1,A
   \   000004   90....       MOV       DPTR,#pMtAfInMsgList
   \   000007   22           RET

   \                                 In  segment BANKED_CODE, align 1, keep-with-next
   \                     ?Subroutine6:
   \   000000   90....       MOV       DPTR,#pMtAfDataReq
   \   000003   E0           MOVX      A,@DPTR
   \   000004   FA           MOV       R2,A
   \   000005   A3           INC       DPTR
   \   000006   E0           MOVX      A,@DPTR
   \   000007   FB           MOV       R3,A
   \   000008   12....       LCALL     `??osal_mem_free::?relay`; Banked call to: osal_mem_free
   \   00000B   90....       MOV       DPTR,#pMtAfDataReq
   \   00000E   E4           CLR       A
   \   00000F   F0           MOVX      @DPTR,A
   \   000010   A3           INC       DPTR
   \   000011   22           RET
    198          
    199          /***************************************************************************************************
    200           * @fn      MT_AfCommandProcessing
    201           *
    202           * @brief   Process all the AF commands that are issued by test tool
    203           *
    204           * @param   pBuf - pointer to the received buffer
    205           *
    206           * @return  status
    207           ***************************************************************************************************/

   \                                 In  segment BANKED_CODE, align 1, keep-with-next
    208          uint8 MT_AfCommandProcessing(uint8 *pBuf)
   \                     MT_AfCommandProcessing:
    209          {
   \   000000                REQUIRE ?V0
   \   000000                REQUIRE ?V1
   \   000000                REQUIRE ?V2
   \   000000                REQUIRE ?V3
   \   000000                REQUIRE ?V4
   \   000000                REQUIRE ?V5
   \   000000   74F2         MOV       A,#-0xe
   \   000002   12....       LCALL     ?BANKED_ENTER_XDATA
   \   000005                ; Saved register size: 14
   \   000005                ; Auto size: 6
   \   000005   74FA         MOV       A,#-0x6
   \   000007   12....       LCALL     ?ALLOC_XSTACK8
   \   00000A   EA           MOV       A,R2
   \   00000B   FE           MOV       R6,A
   \   00000C   EB           MOV       A,R3
   \   00000D   FF           MOV       R7,A
    210            uint8 status = MT_RPC_SUCCESS;
   \   00000E   75..00       MOV       ?V0,#0x0
    211          
    212            switch (pBuf[MT_RPC_POS_CMD1])
   \   000011   8A82         MOV       DPL,R2
   \   000013   F583         MOV       DPH,A
   \   000015   A3           INC       DPTR
   \   000016   A3           INC       DPTR
   \   000017   E0           MOVX      A,@DPTR
   \   000018   6037         JZ        ??MT_AfCommandProcessing_0
   \   00001A   14           DEC       A
   \   00001B   7003         JNZ       $+5
   \   00001D   02....       LJMP      ??MT_AfCommandProcessing_1 & 0xFFFF
   \   000020   14           DEC       A
   \   000021   7003         JNZ       $+5
   \   000023   02....       LJMP      ??MT_AfCommandProcessing_1 & 0xFFFF
   \   000026   14           DEC       A
   \   000027   7003         JNZ       $+5
   \   000029   02....       LJMP      ??MT_AfCommandProcessing_2 & 0xFFFF
   \   00002C   14           DEC       A
   \   00002D   6074         JZ        ??MT_AfCommandProcessing_3
   \   00002F   24F4         ADD       A,#-0xc
   \   000031   7003         JNZ       $+5
   \   000033   02....       LJMP      ??MT_AfCommandProcessing_4 & 0xFFFF
   \   000036   14           DEC       A
   \   000037   7003         JNZ       $+5
   \   000039   02....       LJMP      ??MT_AfCommandProcessing_5 & 0xFFFF
   \   00003C   14           DEC       A
   \   00003D   7003         JNZ       $+5
   \   00003F   02....       LJMP      ??MT_AfCommandProcessing_6 & 0xFFFF
   \   000042   14           DEC       A
   \   000043   7003         JNZ       $+5
   \   000045   02....       LJMP      ??MT_AfCommandProcessing_7 & 0xFFFF
   \   000048   14           DEC       A
   \   000049   7003         JNZ       $+5
   \   00004B   02....       LJMP      ??MT_AfCommandProcessing_8 & 0xFFFF
   \   00004E   02....       LJMP      ??MT_AfCommandProcessing_9 & 0xFFFF
    213            {
    214              case MT_AF_REGISTER:
    215                MT_AfRegister(pBuf);
   \                     ??MT_AfCommandProcessing_0:
   \   000051   12....       LCALL     ?Subroutine25 & 0xFFFF
   \                     ??CrossCallReturnLabel_41:
   \   000054                ; Setup parameters for call to function osal_mem_alloc
   \   000054   7A07         MOV       R2,#0x7
   \   000056   7B00         MOV       R3,#0x0
   \   000058   12....       LCALL     `??osal_mem_alloc::?relay`; Banked call to: osal_mem_alloc
   \   00005B   8A..         MOV       ?V2,R2
   \   00005D   8B..         MOV       ?V3,R3
   \   00005F   EA           MOV       A,R2
   \   000060   4B           ORL       A,R3
   \   000061   6057         JZ        ??MT_AfCommandProcessing_10
   \   000063   8A82         MOV       DPL,R2
   \   000065   8B83         MOV       DPH,R3
   \   000067   A3           INC       DPTR
   \   000068   A3           INC       DPTR
   \   000069   74..         MOV       A,#MT_TaskID & 0xff
   \   00006B   F0           MOVX      @DPTR,A
   \   00006C   A3           INC       DPTR
   \   00006D   74..         MOV       A,#(MT_TaskID >> 8) & 0xff
   \   00006F   F0           MOVX      @DPTR,A
   \   000070                ; Setup parameters for call to function MT_BuildEndpointDesc
   \   000070   AC..         MOV       R4,?V2
   \   000072   AD..         MOV       R5,?V3
   \   000074   EE           MOV       A,R6
   \   000075   2403         ADD       A,#0x3
   \   000077   FA           MOV       R2,A
   \   000078   E4           CLR       A
   \   000079   3F           ADDC      A,R7
   \   00007A   FB           MOV       R3,A
   \   00007B   12....       LCALL     `??MT_BuildEndpointDesc::?relay`; Banked call to: MT_BuildEndpointDesc
   \   00007E   E9           MOV       A,R1
   \   00007F   85..82       MOV       DPL,?XSP + 0
   \   000082   85..83       MOV       DPH,?XSP + 1
   \   000085   F0           MOVX      @DPTR,A
   \   000086   700F         JNZ       ??MT_AfCommandProcessing_11
   \   000088                ; Setup parameters for call to function afRegister
   \   000088   AA..         MOV       R2,?V2
   \   00008A   AB..         MOV       R3,?V3
   \   00008C   12....       LCALL     `??afRegister::?relay`; Banked call to: afRegister
   \   00008F   E9           MOV       A,R1
   \   000090   85..82       MOV       DPL,?XSP + 0
   \   000093   85..83       MOV       DPH,?XSP + 1
   \   000096   F0           MOVX      @DPTR,A
   \                     ??MT_AfCommandProcessing_11:
   \   000097   E0           MOVX      A,@DPTR
   \   000098   6020         JZ        ??MT_AfCommandProcessing_10
   \   00009A                ; Setup parameters for call to function osal_mem_free
   \   00009A   AA..         MOV       R2,?V2
   \   00009C   AB..         MOV       R3,?V3
   \   00009E   12....       LCALL     `??osal_mem_free::?relay`; Banked call to: osal_mem_free
   \   0000A1                ; Setup parameters for call to function MT_BuildAndSendZToolResponse
   \   0000A1   8017         SJMP      ??MT_AfCommandProcessing_10
    216                break;
    217          
    218              case MT_AF_DELETE:
    219                MT_AfDelete( pBuf );
   \                     ??MT_AfCommandProcessing_3:
   \   0000A3   12....       LCALL     ?Subroutine25 & 0xFFFF
   \                     ??CrossCallReturnLabel_42:
   \   0000A6                ; Setup parameters for call to function afDelete
   \   0000A6   8A82         MOV       DPL,R2
   \   0000A8   8B83         MOV       DPH,R3
   \   0000AA   A3           INC       DPTR
   \   0000AB   A3           INC       DPTR
   \   0000AC   A3           INC       DPTR
   \   0000AD   E0           MOVX      A,@DPTR
   \   0000AE   F9           MOV       R1,A
   \   0000AF   12....       LCALL     `??afDelete::?relay`; Banked call to: afDelete
   \   0000B2   E9           MOV       A,R1
   \   0000B3   85..82       MOV       DPL,?XSP + 0
   \   0000B6   85..83       MOV       DPH,?XSP + 1
   \   0000B9   F0           MOVX      @DPTR,A
   \   0000BA                ; Setup parameters for call to function MT_BuildAndSendZToolResponse
   \                     ??MT_AfCommandProcessing_10:
   \   0000BA   AC..         MOV       R4,?XSP + 0
   \   0000BC   AD..         MOV       R5,?XSP + 1
   \   0000BE   02....       LJMP      ??MT_AfCommandProcessing_12 & 0xFFFF
    220                break;
    221          
    222              case MT_AF_DATA_REQUEST:
    223              case MT_AF_DATA_REQUEST_EXT:
    224                MT_AfDataRequest(pBuf);
   \                     ??MT_AfCommandProcessing_1:
   \   0000C1                ; Setup parameters for call to function MT_AfDataRequest
   \   0000C1   12....       LCALL     `??MT_AfDataRequest::?relay`; Banked call to: MT_AfDataRequest
    225                break;
   \   0000C4   02....       LJMP      ??MT_AfCommandProcessing_13 & 0xFFFF
    226          
    227          #if defined( ZIGBEEPRO )
    228              case MT_AF_DATA_REQUEST_SRCRTG:
    229                MT_AfDataRequestSrcRtg(pBuf);
   \                     ??MT_AfCommandProcessing_2:
   \   0000C7                ; Setup parameters for call to function MT_AfDataRequestSrcRtg
   \   0000C7   12....       LCALL     `??MT_AfDataRequestSrcRtg::?relay`; Banked call to: MT_AfDataRequestSrcRtg
    230                break;
   \   0000CA   02....       LJMP      ??MT_AfCommandProcessing_13 & 0xFFFF
    231          #endif
    232          
    233          #if defined INTER_PAN
    234              case MT_AF_INTER_PAN_CTL:
    235                MT_AfInterPanCtl(pBuf);
   \                     ??MT_AfCommandProcessing_4:
   \   0000CD   8A82         MOV       DPL,R2
   \   0000CF   8B83         MOV       DPH,R3
   \   0000D1   A3           INC       DPTR
   \   0000D2   A3           INC       DPTR
   \   0000D3   E0           MOVX      A,@DPTR
   \   0000D4   F5..         MOV       ?V1,A
   \   0000D6   EA           MOV       A,R2
   \   0000D7   2403         ADD       A,#0x3
   \   0000D9   F8           MOV       R0,A
   \   0000DA   E4           CLR       A
   \   0000DB   3F           ADDC      A,R7
   \   0000DC   8882         MOV       DPL,R0
   \   0000DE   F583         MOV       DPH,A
   \   0000E0   A3           INC       DPTR
   \   0000E1   8582..       MOV       ?V2,DPL
   \   0000E4   8583..       MOV       ?V3,DPH
   \   0000E7   8882         MOV       DPL,R0
   \   0000E9   F583         MOV       DPH,A
   \   0000EB   E0           MOVX      A,@DPTR
   \   0000EC   6068         JZ        ??MT_AfCommandProcessing_14
   \   0000EE   14           DEC       A
   \   0000EF   6058         JZ        ??MT_AfCommandProcessing_15
   \   0000F1   14           DEC       A
   \   0000F2   6032         JZ        ??MT_AfCommandProcessing_16
   \   0000F4   14           DEC       A
   \   0000F5   706A         JNZ       ??MT_AfCommandProcessing_17
   \   0000F7                ; Setup parameters for call to function osal_build_uint16
   \   0000F7   AA..         MOV       R2,?V2
   \   0000F9   AB..         MOV       R3,?V3
   \   0000FB   12....       LCALL     `??osal_build_uint16::?relay`; Banked call to: osal_build_uint16
   \   0000FE                ; Setup parameters for call to function StubAPS_InterPan
   \   0000FE   85..82       MOV       DPL,?V2
   \   000101   85..83       MOV       DPH,?V3
   \   000104   A3           INC       DPTR
   \   000105   A3           INC       DPTR
   \   000106   E0           MOVX      A,@DPTR
   \   000107   F9           MOV       R1,A
   \   000108   12....       LCALL     `??StubAPS_InterPan::?relay`; Banked call to: StubAPS_InterPan
   \   00010B   E9           MOV       A,R1
   \   00010C   85..82       MOV       DPL,?XSP + 0
   \   00010F   85..83       MOV       DPH,?XSP + 1
   \   000112   6003         JZ        ??MT_AfCommandProcessing_18
   \   000114   E4           CLR       A
   \   000115   8002         SJMP      ??MT_AfCommandProcessing_19
   \                     ??MT_AfCommandProcessing_18:
   \   000117   7401         MOV       A,#0x1
   \                     ??MT_AfCommandProcessing_19:
   \   000119   F0           MOVX      @DPTR,A
   \   00011A   E0           MOVX      A,@DPTR
   \   00011B   C0E0         PUSH      A
   \   00011D   7401         MOV       A,#0x1
   \   00011F   12....       LCALL     ?XSTACK_DISP0_8
   \   000122   D0E0         POP       A
   \   000124   8042         SJMP      ??MT_AfCommandProcessing_20
   \                     ??MT_AfCommandProcessing_16:
   \   000126                ; Setup parameters for call to function afFindEndPointDesc
   \   000126   85..82       MOV       DPL,?V2
   \   000129   85..83       MOV       DPH,?V3
   \   00012C   E0           MOVX      A,@DPTR
   \   00012D   F9           MOV       R1,A
   \   00012E   12....       LCALL     `??afFindEndPointDesc::?relay`; Banked call to: afFindEndPointDesc
   \   000131   EA           MOV       A,R2
   \   000132   4B           ORL       A,R3
   \   000133   600B         JZ        ??MT_AfCommandProcessing_21
   \   000135                ; Setup parameters for call to function StubAPS_RegisterApp
   \   000135   12....       LCALL     `??StubAPS_RegisterApp::?relay`; Banked call to: StubAPS_RegisterApp
   \   000138   7401         MOV       A,#0x1
   \   00013A   12....       LCALL     ?XSTACK_DISP0_8
   \   00013D   E4           CLR       A
   \   00013E   8028         SJMP      ??MT_AfCommandProcessing_20
   \                     ??MT_AfCommandProcessing_21:
   \   000140   7401         MOV       A,#0x1
   \   000142   12....       LCALL     ?XSTACK_DISP0_8
   \   000145   7401         MOV       A,#0x1
   \   000147   801F         SJMP      ??MT_AfCommandProcessing_20
   \                     ??MT_AfCommandProcessing_15:
   \   000149                ; Setup parameters for call to function StubAPS_SetInterPanChannel
   \   000149   85..82       MOV       DPL,?V2
   \   00014C   85..83       MOV       DPH,?V3
   \   00014F   E0           MOVX      A,@DPTR
   \   000150   F9           MOV       R1,A
   \   000151   12....       LCALL     `??StubAPS_SetInterPanChannel::?relay`; Banked call to: StubAPS_SetInterPanChannel
   \   000154   8003         SJMP      ??MT_AfCommandProcessing_22
   \                     ??MT_AfCommandProcessing_14:
   \   000156                ; Setup parameters for call to function StubAPS_SetIntraPanChannel
   \   000156   12....       LCALL     `??StubAPS_SetIntraPanChannel::?relay`; Banked call to: StubAPS_SetIntraPanChannel
   \                     ??MT_AfCommandProcessing_22:
   \   000159   7401         MOV       A,#0x1
   \   00015B   12....       LCALL     ?XSTACK_DISP0_8
   \   00015E   E9           MOV       A,R1
   \   00015F   8007         SJMP      ??MT_AfCommandProcessing_20
   \                     ??MT_AfCommandProcessing_17:
   \   000161   7401         MOV       A,#0x1
   \   000163   12....       LCALL     ?XSTACK_DISP0_8
   \   000166   7402         MOV       A,#0x2
   \                     ??MT_AfCommandProcessing_20:
   \   000168   F0           MOVX      @DPTR,A
   \   000169                ; Setup parameters for call to function MT_BuildAndSendZToolResponse
   \   000169   7401         MOV       A,#0x1
   \   00016B   12....       LCALL     ?XSTACK_DISP102_8
   \                     ??MT_AfCommandProcessing_12:
   \   00016E   7B01         MOV       R3,#0x1
   \   000170   AA..         MOV       R2,?V1
   \   000172   02....       LJMP      ??MT_AfCommandProcessing_23 & 0xFFFF
    236                break;
    237          #endif
    238          
    239              case MT_AF_DATA_RETRIEVE:
    240                MT_AfDataRetrieve(pBuf);
   \                     ??MT_AfCommandProcessing_6:
   \   000175                ; Setup parameters for call to function MT_AfDataRetrieve
   \   000175   12....       LCALL     `??MT_AfDataRetrieve::?relay`; Banked call to: MT_AfDataRetrieve
    241                break;
   \   000178   02....       LJMP      ??MT_AfCommandProcessing_13 & 0xFFFF
    242          
    243              case MT_AF_DATA_STORE:
    244                MT_AfDataStore(pBuf);
   \                     ??MT_AfCommandProcessing_5:
   \   00017B                ; Setup parameters for call to function MT_AfDataStore
   \   00017B   12....       LCALL     `??MT_AfDataStore::?relay`; Banked call to: MT_AfDataStore
    245                break;
   \   00017E   02....       LJMP      ??MT_AfCommandProcessing_13 & 0xFFFF
    246          
    247              case MT_AF_APSF_CONFIG_SET:
    248                MT_AfAPSF_ConfigSet(pBuf);
   \                     ??MT_AfCommandProcessing_7:
   \   000181   8A82         MOV       DPL,R2
   \   000183   8B83         MOV       DPH,R3
   \   000185   A3           INC       DPTR
   \   000186   A3           INC       DPTR
   \   000187   A3           INC       DPTR
   \   000188   A3           INC       DPTR
   \   000189   E0           MOVX      A,@DPTR
   \   00018A   C0E0         PUSH      A
   \   00018C   7402         MOV       A,#0x2
   \   00018E   12....       LCALL     ?XSTACK_DISP0_8
   \   000191   D0E0         POP       A
   \   000193   12....       LCALL     ?Subroutine26 & 0xFFFF
   \                     ??CrossCallReturnLabel_43:
   \   000196   A3           INC       DPTR
   \   000197   E0           MOVX      A,@DPTR
   \   000198   C0E0         PUSH      A
   \   00019A   7403         MOV       A,#0x3
   \   00019C   12....       LCALL     ?XSTACK_DISP0_8
   \   00019F   D0E0         POP       A
   \   0001A1   F0           MOVX      @DPTR,A
   \   0001A2                ; Setup parameters for call to function afAPSF_ConfigSet
   \   0001A2   7402         MOV       A,#0x2
   \   0001A4   12....       LCALL     ?XSTACK_DISP101_8
   \   0001A7   8E82         MOV       DPL,R6
   \   0001A9   8F83         MOV       DPH,R7
   \   0001AB   A3           INC       DPTR
   \   0001AC   A3           INC       DPTR
   \   0001AD   A3           INC       DPTR
   \   0001AE   E0           MOVX      A,@DPTR
   \   0001AF   F9           MOV       R1,A
   \   0001B0   12....       LCALL     `??afAPSF_ConfigSet::?relay`; Banked call to: afAPSF_ConfigSet
   \   0001B3   E9           MOV       A,R1
   \   0001B4   85..82       MOV       DPL,?XSP + 0
   \   0001B7   85..83       MOV       DPH,?XSP + 1
   \   0001BA   12....       LCALL     ?Subroutine27 & 0xFFFF
   \                     ??CrossCallReturnLabel_45:
   \   0001BD   7B01         MOV       R3,#0x1
   \   0001BF   7A13         MOV       R2,#0x13
   \   0001C1   8047         SJMP      ??MT_AfCommandProcessing_23
    249                break;
    250          
    251              case MT_AF_APSF_CONFIG_GET:
    252                MT_AfAPSF_ConfigGet(pBuf);
   \                     ??MT_AfCommandProcessing_8:
   \   0001C3   90....       MOV       DPTR,#`?<Constant {0, 0}>`
   \   0001C6   7402         MOV       A,#0x2
   \   0001C8   12....       LCALL     ?XSTACK_DISP102_8
   \   0001CB   7402         MOV       A,#0x2
   \   0001CD   12....       LCALL     ?MOVE_LONG8_XDATA_XDATA
   \   0001D0                ; Setup parameters for call to function afAPSF_ConfigGet
   \   0001D0   7402         MOV       A,#0x2
   \   0001D2   12....       LCALL     ?XSTACK_DISP101_8
   \   0001D5   8E82         MOV       DPL,R6
   \   0001D7   8F83         MOV       DPH,R7
   \   0001D9   A3           INC       DPTR
   \   0001DA   A3           INC       DPTR
   \   0001DB   A3           INC       DPTR
   \   0001DC   E0           MOVX      A,@DPTR
   \   0001DD   F9           MOV       R1,A
   \   0001DE   12....       LCALL     `??afAPSF_ConfigGet::?relay`; Banked call to: afAPSF_ConfigGet
   \   0001E1   7402         MOV       A,#0x2
   \   0001E3   12....       LCALL     ?XSTACK_DISP0_8
   \   0001E6   E0           MOVX      A,@DPTR
   \   0001E7   C0E0         PUSH      A
   \   0001E9   7404         MOV       A,#0x4
   \   0001EB   12....       LCALL     ?XSTACK_DISP0_8
   \   0001EE   D0E0         POP       A
   \   0001F0   F0           MOVX      @DPTR,A
   \   0001F1   7403         MOV       A,#0x3
   \   0001F3   12....       LCALL     ?XSTACK_DISP0_8
   \   0001F6   E0           MOVX      A,@DPTR
   \   0001F7   C0E0         PUSH      A
   \   0001F9   7405         MOV       A,#0x5
   \   0001FB   12....       LCALL     ?XSTACK_DISP0_8
   \   0001FE   D0E0         POP       A
   \   000200   F0           MOVX      @DPTR,A
   \   000201                ; Setup parameters for call to function MT_BuildAndSendZToolResponse
   \   000201   7404         MOV       A,#0x4
   \   000203   12....       LCALL     ?XSTACK_DISP102_8
   \   000206   7B03         MOV       R3,#0x3
   \   000208   7A14         MOV       R2,#0x14
   \                     ??MT_AfCommandProcessing_23:
   \   00020A   7964         MOV       R1,#0x64
   \   00020C   12....       LCALL     `??MT_BuildAndSendZToolResponse::?relay`; Banked call to: MT_BuildAndSendZToolResponse
    253                break;
   \   00020F   8003         SJMP      ??MT_AfCommandProcessing_13
    254          
    255              default:
    256                status = MT_RPC_ERR_COMMAND_ID;
   \                     ??MT_AfCommandProcessing_9:
   \   000211   75..02       MOV       ?V0,#0x2
    257                break;
    258            }
    259          
    260            return status;
   \                     ??MT_AfCommandProcessing_13:
   \   000214   A9..         MOV       R1,?V0
   \   000216   7406         MOV       A,#0x6
   \   000218                REQUIRE ?Subroutine0
   \   000218                ; // Fall through to label ?Subroutine0
    261          }

   \                                 In  segment BANKED_CODE, align 1, keep-with-next
   \                     ?Subroutine0:
   \   000000   12....       LCALL     ?DEALLOC_XSTACK8
   \   000003   7F06         MOV       R7,#0x6
   \   000005   02....       LJMP      ?BANKED_LEAVE_XDATA
    262          
    263          /***************************************************************************************************
    264           * @fn      MT_AfRegister
    265           *
    266           * @brief   Process AF Register command
    267           *
    268           * @param   pBuf - pointer to the received buffer
    269           *
    270           * @return  none
    271           ***************************************************************************************************/
    272          static void MT_AfRegister(uint8 *pBuf)
    273          {
    274            uint8 cmdId;
    275            uint8 retValue = ZMemError;
    276            endPointDesc_t *epDesc;
    277          
    278            /* parse header */
    279            cmdId = pBuf[MT_RPC_POS_CMD1];
    280            pBuf += MT_RPC_FRAME_HDR_SZ;
    281          
    282            epDesc = (endPointDesc_t *)osal_mem_alloc(sizeof(endPointDesc_t));
    283            if ( epDesc )
    284            {
    285              epDesc->task_id = &MT_TaskID;
    286              retValue = MT_BuildEndpointDesc( pBuf, epDesc );
    287              if ( retValue == ZSuccess )
    288              {
    289                retValue = afRegister( epDesc );
    290              }
    291          
    292              if ( retValue != ZSuccess )
    293              {
    294                osal_mem_free( epDesc );
    295              }
    296            }
    297          
    298            /* Build and send back the response */
    299            MT_BuildAndSendZToolResponse(((uint8)MT_RPC_CMD_SRSP | (uint8)MT_RPC_SYS_AF), cmdId, 1, &retValue);
    300          }
    301          
    302          /***************************************************************************************************
    303           * @fn      MT_AfDelete
    304           *
    305           * @brief   Process AF Delete Endpoint command
    306           *
    307           * @param   pBuf - pointer to the received buffer
    308           *
    309           * @return  none
    310           ***************************************************************************************************/
    311          static void MT_AfDelete(uint8 *pBuf)
    312          {
    313            uint8 cmdId;
    314            uint8 retValue = ZMemError;
    315          
    316            /* parse header */
    317            cmdId = pBuf[MT_RPC_POS_CMD1];
    318            pBuf += MT_RPC_FRAME_HDR_SZ;
    319          
    320            retValue = afDelete( *pBuf );
    321          
    322            /* Build and send back the response */
    323            MT_BuildAndSendZToolResponse(((uint8)MT_RPC_CMD_SRSP | (uint8)MT_RPC_SYS_AF), cmdId, 1, &retValue);
    324          }
    325          
    326          /***************************************************************************************************
    327           * @fn      MT_AfDataRequest
    328           *
    329           * @brief   Process AF Register command
    330           *
    331           * @param   pBuf - pointer to the received buffer
    332           *
    333           * @return  none
    334           ***************************************************************************************************/

   \                                 In  segment BANKED_CODE, align 1, keep-with-next
    335          static void MT_AfDataRequest(uint8 *pBuf)
   \                     MT_AfDataRequest:
    336          {
   \   000000                REQUIRE ?V0
   \   000000                REQUIRE ?V1
   \   000000                REQUIRE ?V2
   \   000000                REQUIRE ?V3
   \   000000                REQUIRE ?V4
   \   000000                REQUIRE ?V5
   \   000000                REQUIRE ?V6
   \   000000                REQUIRE ?V7
   \   000000                REQUIRE ?V8
   \   000000                REQUIRE ?V9
   \   000000                REQUIRE ?V10
   \   000000                REQUIRE ?V11
   \   000000                REQUIRE ?V12
   \   000000   74EB         MOV       A,#-0x15
   \   000002   12....       LCALL     ?BANKED_ENTER_XDATA
   \   000005                ; Saved register size: 21
   \   000005                ; Auto size: 14
   \   000005   74F2         MOV       A,#-0xe
   \   000007   12....       LCALL     ?ALLOC_XSTACK8
   \   00000A   EB           MOV       A,R3
   \   00000B   FF           MOV       R7,A
    337            #define MT_AF_REQ_MSG_LEN  10
    338            #define MT_AF_REQ_MSG_EXT  10
    339          
    340            endPointDesc_t *epDesc;
    341            afAddrType_t dstAddr;
    342            cId_t cId;
    343            uint8 transId, txOpts, radius;
    344            uint8 cmd0, cmd1;
    345            uint8 retValue = ZFailure;
   \   00000C   85..82       MOV       DPL,?XSP + 0
   \   00000F   85..83       MOV       DPH,?XSP + 1
   \   000012   7401         MOV       A,#0x1
   \   000014   12....       LCALL     ?Subroutine49 & 0xFFFF
    346            uint16 dataLen, tempLen;
    347          
    348            /* Parse header */
    349            cmd0 = pBuf[MT_RPC_POS_CMD0];
   \                     ??CrossCallReturnLabel_92:
   \   000017   E0           MOVX      A,@DPTR
   \   000018   F5..         MOV       ?V12,A
    350            cmd1 = pBuf[MT_RPC_POS_CMD1];
   \   00001A   8A82         MOV       DPL,R2
   \   00001C   8B83         MOV       DPH,R3
   \   00001E   A3           INC       DPTR
   \   00001F   A3           INC       DPTR
   \   000020   E0           MOVX      A,@DPTR
   \   000021   F5..         MOV       ?V9,A
    351            pBuf += MT_RPC_FRAME_HDR_SZ;
   \   000023   EA           MOV       A,R2
   \   000024   2403         ADD       A,#0x3
   \   000026   FE           MOV       R6,A
   \   000027   5001         JNC       ??MT_AfDataRequest_0
   \   000029   0F           INC       R7
    352          
    353            if (cmd1 == MT_AF_DATA_REQUEST_EXT)
   \                     ??MT_AfDataRequest_0:
   \   00002A   7402         MOV       A,#0x2
   \   00002C   65..         XRL       A,?V9
   \   00002E   7077         JNZ       ??MT_AfDataRequest_1
    354            {
    355              dstAddr.addrMode = (afAddrMode_t)*pBuf++;
   \   000030   8E82         MOV       DPL,R6
   \   000032   8F83         MOV       DPH,R7
   \   000034   E0           MOVX      A,@DPTR
   \   000035   F8           MOV       R0,A
   \   000036   740A         MOV       A,#0xa
   \   000038   12....       LCALL     ?XSTACK_DISP0_8
   \   00003B   E8           MOV       A,R0
   \   00003C   12....       LCALL     ?Subroutine44 & 0xFFFF
   \                     ??CrossCallReturnLabel_84:
   \   00003F   AE82         MOV       R6,DPL
   \   000041   AF83         MOV       R7,DPH
    356          
    357              if (dstAddr.addrMode == afAddr64Bit)
   \   000043   7403         MOV       A,#0x3
   \   000045   68           XRL       A,R0
   \   000046   701D         JNZ       ??MT_AfDataRequest_2
    358              {
    359                (void)osal_memcpy(dstAddr.addr.extAddr, pBuf, Z_EXTADDR_LEN);
   \   000048                ; Setup parameters for call to function osal_memcpy
   \   000048   8E..         MOV       ?V0,R6
   \   00004A   8F..         MOV       ?V1,R7
   \   00004C   75..00       MOV       ?V2,#0x0
   \   00004F   78..         MOV       R0,#?V0
   \   000051   12....       LCALL     ?PUSH_XSTACK_I_THREE
   \   000054   7C08         MOV       R4,#0x8
   \   000056   7D00         MOV       R5,#0x0
   \   000058   7405         MOV       A,#0x5
   \   00005A   12....       LCALL     ?XSTACK_DISP101_8
   \   00005D   12....       LCALL     ??Subroutine56_0 & 0xFFFF
    360              }
   \                     ??CrossCallReturnLabel_122:
   \   000060   12....       LCALL     ?DEALLOC_XSTACK8
   \   000063   8011         SJMP      ??MT_AfDataRequest_3
    361              else
    362              {
    363                dstAddr.addr.shortAddr = osal_build_uint16( pBuf );
   \                     ??MT_AfDataRequest_2:
   \   000065                ; Setup parameters for call to function osal_build_uint16
   \   000065   EE           MOV       A,R6
   \   000066   FA           MOV       R2,A
   \   000067   EF           MOV       A,R7
   \   000068   FB           MOV       R3,A
   \   000069   12....       LCALL     `??osal_build_uint16::?relay`; Banked call to: osal_build_uint16
   \   00006C   7402         MOV       A,#0x2
   \   00006E   12....       LCALL     ?XSTACK_DISP0_8
   \   000071   EA           MOV       A,R2
   \   000072   F0           MOVX      @DPTR,A
   \   000073   A3           INC       DPTR
   \   000074   EB           MOV       A,R3
   \   000075   F0           MOVX      @DPTR,A
    364              }
    365              pBuf += Z_EXTADDR_LEN;
    366          
    367              dstAddr.endPoint = *pBuf++;
   \                     ??MT_AfDataRequest_3:
   \   000076   8E82         MOV       DPL,R6
   \   000078   8F83         MOV       DPH,R7
   \   00007A   A3           INC       DPTR
   \   00007B   A3           INC       DPTR
   \   00007C   A3           INC       DPTR
   \   00007D   A3           INC       DPTR
   \   00007E   A3           INC       DPTR
   \   00007F   A3           INC       DPTR
   \   000080   A3           INC       DPTR
   \   000081   A3           INC       DPTR
   \   000082   E0           MOVX      A,@DPTR
   \   000083   C0E0         PUSH      A
   \   000085   740B         MOV       A,#0xb
   \   000087   12....       LCALL     ?XSTACK_DISP0_8
   \   00008A   D0E0         POP       A
   \   00008C   F0           MOVX      @DPTR,A
   \   00008D   EE           MOV       A,R6
   \   00008E   2409         ADD       A,#0x9
   \   000090   FE           MOV       R6,A
   \   000091   5001         JNC       ??MT_AfDataRequest_4
   \   000093   0F           INC       R7
    368              dstAddr.panId = osal_build_uint16( pBuf );
   \                     ??MT_AfDataRequest_4:
   \   000094                ; Setup parameters for call to function osal_build_uint16
   \   000094   FA           MOV       R2,A
   \   000095   EF           MOV       A,R7
   \   000096   FB           MOV       R3,A
   \   000097   12....       LCALL     `??osal_build_uint16::?relay`; Banked call to: osal_build_uint16
   \   00009A   740C         MOV       A,#0xc
   \   00009C   12....       LCALL     ?XSTACK_DISP0_8
   \   00009F   12....       LCALL     ?Subroutine31 & 0xFFFF
    369              pBuf += 2;
    370            }
   \                     ??CrossCallReturnLabel_55:
   \   0000A2   5035         JNC       ??MT_AfDataRequest_5
   \   0000A4   0F           INC       R7
   \   0000A5   8032         SJMP      ??MT_AfDataRequest_5
    371            else
    372            {
    373              /* Destination address */
    374              dstAddr.addrMode = afAddr16Bit;
   \                     ??MT_AfDataRequest_1:
   \   0000A7   740A         MOV       A,#0xa
   \   0000A9   12....       LCALL     ?XSTACK_DISP0_8
   \   0000AC   7402         MOV       A,#0x2
   \   0000AE   F0           MOVX      @DPTR,A
    375              dstAddr.addr.shortAddr = osal_build_uint16( pBuf );
   \   0000AF                ; Setup parameters for call to function osal_build_uint16
   \   0000AF   0A           INC       R2
   \   0000B0   0A           INC       R2
   \   0000B1   0A           INC       R2
   \   0000B2   EF           MOV       A,R7
   \   0000B3   FB           MOV       R3,A
   \   0000B4   12....       LCALL     `??osal_build_uint16::?relay`; Banked call to: osal_build_uint16
   \   0000B7   7402         MOV       A,#0x2
   \   0000B9   12....       LCALL     ?XSTACK_DISP0_8
   \   0000BC   12....       LCALL     ?Subroutine24 & 0xFFFF
    376              pBuf += 2;
    377          
    378              /* Destination endpoint */
    379              dstAddr.endPoint = *pBuf++;
   \                     ??CrossCallReturnLabel_39:
   \   0000BF   C0E0         PUSH      A
   \   0000C1   740B         MOV       A,#0xb
   \   0000C3   12....       LCALL     ?XSTACK_DISP0_8
   \   0000C6   D0E0         POP       A
   \   0000C8   F0           MOVX      @DPTR,A
   \   0000C9   EE           MOV       A,R6
   \   0000CA   2403         ADD       A,#0x3
   \   0000CC   FE           MOV       R6,A
   \   0000CD   5001         JNC       ??MT_AfDataRequest_6
   \   0000CF   0F           INC       R7
    380              dstAddr.panId = 0;
   \                     ??MT_AfDataRequest_6:
   \   0000D0   740C         MOV       A,#0xc
   \   0000D2   12....       LCALL     ?XSTACK_DISP0_8
   \   0000D5   E4           CLR       A
   \   0000D6   F0           MOVX      @DPTR,A
   \   0000D7   A3           INC       DPTR
   \   0000D8   F0           MOVX      @DPTR,A
    381            }
    382          
    383            /* Source endpoint */
    384            epDesc = afFindEndPointDesc(*pBuf++);
   \                     ??MT_AfDataRequest_5:
   \   0000D9                ; Setup parameters for call to function afFindEndPointDesc
   \   0000D9   8E82         MOV       DPL,R6
   \   0000DB   8F83         MOV       DPH,R7
   \   0000DD   E0           MOVX      A,@DPTR
   \   0000DE   F9           MOV       R1,A
   \   0000DF   12....       LCALL     `??afFindEndPointDesc::?relay`; Banked call to: afFindEndPointDesc
   \   0000E2   8A..         MOV       ?V10,R2
   \   0000E4   8B..         MOV       ?V11,R3
   \   0000E6   8E82         MOV       DPL,R6
   \   0000E8   8F83         MOV       DPH,R7
   \   0000EA   A3           INC       DPTR
   \   0000EB   AE82         MOV       R6,DPL
   \   0000ED   AF83         MOV       R7,DPH
    385          
    386            /* ClusterId */
    387            cId = osal_build_uint16( pBuf );
   \   0000EF                ; Setup parameters for call to function osal_build_uint16
   \   0000EF   EE           MOV       A,R6
   \   0000F0   FA           MOV       R2,A
   \   0000F1   EF           MOV       A,R7
   \   0000F2   FB           MOV       R3,A
   \   0000F3   12....       LCALL     `??osal_build_uint16::?relay`; Banked call to: osal_build_uint16
   \   0000F6   8A..         MOV       ?V2,R2
   \   0000F8   8B..         MOV       ?V3,R3
    388            pBuf +=2;
    389          
    390            /* TransId */
    391            transId = *pBuf++;
   \   0000FA   8E82         MOV       DPL,R6
   \   0000FC   8F83         MOV       DPH,R7
   \   0000FE   A3           INC       DPTR
   \   0000FF   A3           INC       DPTR
   \   000100   E0           MOVX      A,@DPTR
   \   000101   C0E0         PUSH      A
   \   000103   7401         MOV       A,#0x1
   \   000105   12....       LCALL     ?XSTACK_DISP0_8
   \   000108   D0E0         POP       A
   \   00010A   F0           MOVX      @DPTR,A
    392          
    393            /* TxOption */
    394            txOpts = *pBuf++;
   \   00010B   8E82         MOV       DPL,R6
   \   00010D   8F83         MOV       DPH,R7
   \   00010F   12....       LCALL     ?Subroutine12 & 0xFFFF
    395          
    396            /* Radius */
    397            radius = *pBuf++;
   \                     ??CrossCallReturnLabel_18:
   \   000112   E0           MOVX      A,@DPTR
   \   000113   F5..         MOV       ?V7,A
   \   000115   EE           MOV       A,R6
   \   000116   2405         ADD       A,#0x5
   \   000118   FE           MOV       R6,A
   \   000119   5001         JNC       ??MT_AfDataRequest_7
   \   00011B   0F           INC       R7
    398          
    399            /* Length */
    400            if (cmd1 == MT_AF_DATA_REQUEST_EXT)
   \                     ??MT_AfDataRequest_7:
   \   00011C   7402         MOV       A,#0x2
   \   00011E   65..         XRL       A,?V9
   \   000120   701C         JNZ       ??MT_AfDataRequest_8
    401            {
    402              dataLen = osal_build_uint16( pBuf );
   \   000122                ; Setup parameters for call to function osal_build_uint16
   \   000122   EE           MOV       A,R6
   \   000123   FA           MOV       R2,A
   \   000124   EF           MOV       A,R7
   \   000125   FB           MOV       R3,A
   \   000126   12....       LCALL     `??osal_build_uint16::?relay`; Banked call to: osal_build_uint16
   \   000129   8A..         MOV       ?V0,R2
   \   00012B   8B..         MOV       ?V1,R3
    403              tempLen = dataLen + MT_AF_REQ_MSG_LEN + MT_AF_REQ_MSG_EXT;
   \   00012D   EA           MOV       A,R2
   \   00012E   2414         ADD       A,#0x14
   \   000130   F8           MOV       R0,A
   \   000131   E4           CLR       A
   \   000132   35..         ADDC      A,?V1
   \   000134   F9           MOV       R1,A
    404              pBuf += 2;
   \   000135   EE           MOV       A,R6
   \   000136   2402         ADD       A,#0x2
   \   000138   FE           MOV       R6,A
   \   000139   5018         JNC       ??MT_AfDataRequest_9
   \   00013B   0F           INC       R7
   \   00013C   8015         SJMP      ??MT_AfDataRequest_9
    405            }
    406            else
    407            {
    408              dataLen = *pBuf++;
   \                     ??MT_AfDataRequest_8:
   \   00013E   8E82         MOV       DPL,R6
   \   000140   8F83         MOV       DPH,R7
   \   000142   E0           MOVX      A,@DPTR
   \   000143   F5..         MOV       ?V0,A
   \   000145   75..00       MOV       ?V1,#0x0
   \   000148   A3           INC       DPTR
   \   000149   0E           INC       R6
   \   00014A   AF83         MOV       R7,DPH
    409              tempLen = dataLen + MT_AF_REQ_MSG_LEN;
   \   00014C   240A         ADD       A,#0xa
   \   00014E   F8           MOV       R0,A
   \   00014F   E4           CLR       A
   \   000150   3400         ADDC      A,#0x0
   \   000152   F9           MOV       R1,A
    410            }
    411          
    412            if ( epDesc == NULL )
   \                     ??MT_AfDataRequest_9:
   \   000153   E5..         MOV       A,?V10
   \   000155   45..         ORL       A,?V11
   \   000157   6011         JZ        ??MT_AfDataRequest_10
    413            {
    414              retValue = afStatus_INVALID_PARAMETER;
    415            }
    416            else if (tempLen > (uint16)MT_RPC_DATA_MAX)
   \   000159   C3           CLR       C
   \   00015A   E8           MOV       A,R0
   \   00015B   94FB         SUBB      A,#-0x5
   \   00015D   E9           MOV       A,R1
   \   00015E   9400         SUBB      A,#0x0
   \   000160   5003         JNC       $+5
   \   000162   02....       LJMP      ??MT_AfDataRequest_11 & 0xFFFF
    417            {
    418              if (pMtAfDataReq != NULL)
   \   000165   12....       LCALL     ?Subroutine3 & 0xFFFF
   \                     ??CrossCallReturnLabel_110:
   \   000168   600B         JZ        ??MT_AfDataRequest_12
    419              {
    420                retValue = afStatus_INVALID_PARAMETER;
   \                     ??MT_AfDataRequest_10:
   \   00016A   85..82       MOV       DPL,?XSP + 0
   \   00016D   85..83       MOV       DPH,?XSP + 1
   \   000170   7402         MOV       A,#0x2
   \   000172   02....       LJMP      ??MT_AfDataRequest_13 & 0xFFFF
    421              }
    422              else if ((pMtAfDataReq = osal_mem_alloc(sizeof(mtAfDataReq_t) + dataLen)) == NULL)
   \                     ??MT_AfDataRequest_12:
   \   000175                ; Setup parameters for call to function osal_mem_alloc
   \   000175   E5..         MOV       A,?V0
   \   000177   2418         ADD       A,#0x18
   \   000179   FA           MOV       R2,A
   \   00017A   E4           CLR       A
   \   00017B   35..         ADDC      A,?V1
   \   00017D   FB           MOV       R3,A
   \   00017E   12....       LCALL     `??osal_mem_alloc::?relay`; Banked call to: osal_mem_alloc
   \   000181   90....       MOV       DPTR,#pMtAfDataReq
   \   000184   EA           MOV       A,R2
   \   000185   F0           MOVX      @DPTR,A
   \   000186   A3           INC       DPTR
   \   000187   EB           MOV       A,R3
   \   000188   F0           MOVX      @DPTR,A
   \   000189   F9           MOV       R1,A
   \   00018A   EA           MOV       A,R2
   \   00018B   49           ORL       A,R1
   \   00018C   85..82       MOV       DPL,?XSP + 0
   \   00018F   85..83       MOV       DPH,?XSP + 1
   \   000192   7005         JNZ       ??MT_AfDataRequest_14
    423              {
    424                retValue = afStatus_MEM_FAIL;
   \   000194   7410         MOV       A,#0x10
   \   000196   02....       LJMP      ??MT_AfDataRequest_13 & 0xFFFF
    425              }
    426              else
    427              {
    428                retValue = afStatus_SUCCESS;
   \                     ??MT_AfDataRequest_14:
   \   000199   E4           CLR       A
   \   00019A   F0           MOVX      @DPTR,A
    429          
    430                pMtAfDataReq->data = (uint8 *)(pMtAfDataReq+1);
   \   00019B   90....       MOV       DPTR,#pMtAfDataReq
   \   00019E   E0           MOVX      A,@DPTR
   \   00019F   2418         ADD       A,#0x18
   \   0001A1   FA           MOV       R2,A
   \   0001A2   A3           INC       DPTR
   \   0001A3   E0           MOVX      A,@DPTR
   \   0001A4   3400         ADDC      A,#0x0
   \   0001A6   FB           MOV       R3,A
   \   0001A7   12....       LCALL     ?Subroutine8 & 0xFFFF
   \                     ??CrossCallReturnLabel_10:
   \   0001AA   EA           MOV       A,R2
   \   0001AB   F0           MOVX      @DPTR,A
   \   0001AC   A3           INC       DPTR
   \   0001AD   EB           MOV       A,R3
   \   0001AE   F0           MOVX      @DPTR,A
    431                (void)osal_memcpy(&(pMtAfDataReq->dstAddr), &dstAddr, sizeof(afAddrType_t));
   \   0001AF                ; Setup parameters for call to function osal_memcpy
   \   0001AF   7402         MOV       A,#0x2
   \   0001B1   12....       LCALL     ?XSTACK_DISP100_8
   \   0001B4   88..         MOV       ?V4,R0
   \   0001B6   89..         MOV       ?V5,R1
   \   0001B8   75..00       MOV       ?V6,#0x0
   \   0001BB   78..         MOV       R0,#?V4
   \   0001BD   12....       LCALL     ?PUSH_XSTACK_I_THREE
   \   0001C0   7C0C         MOV       R4,#0xc
   \   0001C2   7D00         MOV       R5,#0x0
   \   0001C4   12....       LCALL     ?Subroutine17 & 0xFFFF
   \                     ??CrossCallReturnLabel_28:
   \   0001C7   12....       LCALL     ??Subroutine56_0 & 0xFFFF
   \                     ??CrossCallReturnLabel_123:
   \   0001CA   12....       LCALL     ?DEALLOC_XSTACK8
    432                pMtAfDataReq->epDesc = epDesc;
   \   0001CD   12....       LCALL     ??Subroutine51_0 & 0xFFFF
   \                     ??CrossCallReturnLabel_105:
   \   0001D0   12....       LCALL     ?Subroutine36 & 0xFFFF
   \                     ??CrossCallReturnLabel_67:
   \   0001D3   E5..         MOV       A,?V10
   \   0001D5   F0           MOVX      @DPTR,A
   \   0001D6   A3           INC       DPTR
   \   0001D7   E5..         MOV       A,?V11
   \   0001D9   12....       LCALL     ?Subroutine9 & 0xFFFF
    433                pMtAfDataReq->cId = cId;
   \                     ??CrossCallReturnLabel_101:
   \   0001DC   2410         ADD       A,#0x10
   \   0001DE   F582         MOV       DPL,A
   \   0001E0   E4           CLR       A
   \   0001E1   38           ADDC      A,R0
   \   0001E2   F583         MOV       DPH,A
   \   0001E4   E5..         MOV       A,?V2
   \   0001E6   F0           MOVX      @DPTR,A
   \   0001E7   A3           INC       DPTR
   \   0001E8   E5..         MOV       A,?V3
   \   0001EA   12....       LCALL     ?Subroutine9 & 0xFFFF
    434                pMtAfDataReq->dataLen = dataLen;
   \                     ??CrossCallReturnLabel_102:
   \   0001ED   2412         ADD       A,#0x12
   \   0001EF   F582         MOV       DPL,A
   \   0001F1   E4           CLR       A
   \   0001F2   38           ADDC      A,R0
   \   0001F3   F583         MOV       DPH,A
   \   0001F5   E5..         MOV       A,?V0
   \   0001F7   F0           MOVX      @DPTR,A
   \   0001F8   A3           INC       DPTR
   \   0001F9   E5..         MOV       A,?V1
   \   0001FB   F0           MOVX      @DPTR,A
    435                pMtAfDataReq->transId = transId;
   \   0001FC   7401         MOV       A,#0x1
   \   0001FE   12....       LCALL     ?XSTACK_DISP0_8
   \   000201   E0           MOVX      A,@DPTR
   \   000202   C0E0         PUSH      A
   \   000204   12....       LCALL     ??Subroutine51_0 & 0xFFFF
   \                     ??CrossCallReturnLabel_106:
   \   000207   2414         ADD       A,#0x14
   \   000209   F582         MOV       DPL,A
   \   00020B   E4           CLR       A
   \   00020C   38           ADDC      A,R0
   \   00020D   F583         MOV       DPH,A
   \   00020F   D0E0         POP       A
   \   000211   12....       LCALL     ?Subroutine9 & 0xFFFF
    436                pMtAfDataReq->txOpts = txOpts;
   \                     ??CrossCallReturnLabel_103:
   \   000214   2415         ADD       A,#0x15
   \   000216   F582         MOV       DPL,A
   \   000218   E4           CLR       A
   \   000219   38           ADDC      A,R0
   \   00021A   F583         MOV       DPH,A
   \   00021C   E5..         MOV       A,?V8
   \   00021E   12....       LCALL     ?Subroutine9 & 0xFFFF
    437                pMtAfDataReq->radius = radius;
   \                     ??CrossCallReturnLabel_104:
   \   000221   2416         ADD       A,#0x16
   \   000223   F582         MOV       DPL,A
   \   000225   E4           CLR       A
   \   000226   38           ADDC      A,R0
   \   000227   F583         MOV       DPH,A
   \   000229   E5..         MOV       A,?V7
   \   00022B   12....       LCALL     ?Subroutine7 & 0xFFFF
    438          
    439                // Setup to time-out the huge outgoing item if host does not MT_AF_DATA_STORE it.
    440                pMtAfDataReq->tick = MT_AF_EXEC_CNT;
   \                     ??CrossCallReturnLabel_8:
   \   00022E   740F         MOV       A,#0xf
   \   000230   F0           MOVX      @DPTR,A
    441                if (ZSuccess != osal_start_timerEx(MT_TaskID, MT_AF_EXEC_EVT, MT_AF_EXEC_DLY))
   \   000231                ; Setup parameters for call to function osal_start_timerEx
   \   000231   90....       MOV       DPTR,#__Constant_3e8
   \   000234   12....       LCALL     ?PUSH_XSTACK8_X_FOUR
   \   000237   12....       LCALL     ?Subroutine11 & 0xFFFF
   \                     ??CrossCallReturnLabel_16:
   \   00023A   12....       LCALL     ?DEALLOC_XSTACK8
   \   00023D   E9           MOV       A,R1
   \   00023E   604A         JZ        ??MT_AfDataRequest_15
    442                {
    443                  (void)osal_set_event(MT_TaskID, MT_AF_EXEC_EVT);
   \   000240                ; Setup parameters for call to function osal_set_event
   \   000240   12....       LCALL     ?Subroutine21 & 0xFFFF
    444                }
    445              }
    446            }
   \                     ??CrossCallReturnLabel_33:
   \   000243   8045         SJMP      ??MT_AfDataRequest_15
    447            else
    448            {
    449              retValue = AF_DataRequest(&dstAddr, epDesc, cId, dataLen, pBuf, &transId, txOpts, radius);
   \                     ??MT_AfDataRequest_11:
   \   000245                ; Setup parameters for call to function AF_DataRequest
   \   000245   E5..         MOV       A,?V7
   \   000247   F5..         MOV       ?V4,A
   \   000249   78..         MOV       R0,#?V4
   \   00024B   12....       LCALL     ?PUSH_XSTACK_I_ONE
   \   00024E   7402         MOV       A,#0x2
   \   000250   12....       LCALL     ?XSTACK_DISP100_8
   \   000253   88..         MOV       ?V4,R0
   \   000255   89..         MOV       ?V5,R1
   \   000257   78..         MOV       R0,#?V4
   \   000259   12....       LCALL     ?PUSH_XSTACK_I_TWO
   \   00025C   8E..         MOV       ?V4,R6
   \   00025E   8F..         MOV       ?V5,R7
   \   000260   78..         MOV       R0,#?V4
   \   000262   12....       LCALL     ?PUSH_XSTACK_I_TWO
   \   000265   78..         MOV       R0,#?V0
   \   000267   12....       LCALL     ?PUSH_XSTACK_I_TWO
   \   00026A   78..         MOV       R0,#?V2
   \   00026C   12....       LCALL     ?PUSH_XSTACK_I_TWO
   \   00026F   A9..         MOV       R1,?V8
   \   000271   AC..         MOV       R4,?V10
   \   000273   AD..         MOV       R5,?V11
   \   000275   740B         MOV       A,#0xb
   \   000277   12....       LCALL     ?XSTACK_DISP101_8
   \   00027A   12....       LCALL     `??AF_DataRequest::?relay`; Banked call to: AF_DataRequest
   \   00027D   7409         MOV       A,#0x9
   \   00027F   12....       LCALL     ?DEALLOC_XSTACK8
   \   000282   E9           MOV       A,R1
   \   000283   85..82       MOV       DPL,?XSP + 0
   \   000286   85..83       MOV       DPH,?XSP + 1
   \                     ??MT_AfDataRequest_13:
   \   000289   F0           MOVX      @DPTR,A
    450            }
    451          
    452            if (MT_RPC_CMD_SREQ == (cmd0 & MT_RPC_CMD_TYPE_MASK))
   \                     ??MT_AfDataRequest_15:
   \   00028A   74E0         MOV       A,#-0x20
   \   00028C   55..         ANL       A,?V12
   \   00028E   6420         XRL       A,#0x20
   \   000290   700D         JNZ       ??MT_AfDataRequest_16
    453            {
    454              MT_BuildAndSendZToolResponse(((uint8)MT_RPC_CMD_SRSP|(uint8)MT_RPC_SYS_AF), cmd1, 1, &retValue);
   \   000292                ; Setup parameters for call to function MT_BuildAndSendZToolResponse
   \   000292   AC..         MOV       R4,?XSP + 0
   \   000294   AD..         MOV       R5,?XSP + 1
   \   000296   7B01         MOV       R3,#0x1
   \   000298   AA..         MOV       R2,?V9
   \   00029A   7964         MOV       R1,#0x64
   \   00029C   12....       LCALL     `??MT_BuildAndSendZToolResponse::?relay`; Banked call to: MT_BuildAndSendZToolResponse
    455            }
    456          }
   \                     ??MT_AfDataRequest_16:
   \   00029F   740E         MOV       A,#0xe
   \   0002A1   12....       LCALL     ?DEALLOC_XSTACK8
   \   0002A4   7F0D         MOV       R7,#0xd
   \   0002A6   02....       LJMP      ?BANKED_LEAVE_XDATA

   \                                 In  segment BANKED_CODE, align 1, keep-with-next
   \                     ?Subroutine9:
   \   000000   F0           MOVX      @DPTR,A
   \   000001                REQUIRE ??Subroutine51_0
   \   000001                ; // Fall through to label ??Subroutine51_0

   \                                 In  segment BANKED_CODE, align 1, keep-with-next
   \                     ??Subroutine51_0:
   \   000000   12....       LCALL     ?Subroutine41 & 0xFFFF
   \                     ??CrossCallReturnLabel_135:
   \   000003   C8           XCH       A,R0
   \   000004   22           RET

   \                                 In  segment BANKED_CODE, align 1, keep-with-next
   \                     ?Subroutine31:
   \   000000   EA           MOV       A,R2
   \   000001   F0           MOVX      @DPTR,A
   \   000002   A3           INC       DPTR
   \   000003   EB           MOV       A,R3
   \   000004   F0           MOVX      @DPTR,A
   \   000005   EE           MOV       A,R6
   \   000006   2402         ADD       A,#0x2
   \   000008   FE           MOV       R6,A
   \   000009   22           RET

   \                                 In  segment BANKED_CODE, align 1, keep-with-next
   \                     ?Subroutine44:
   \   000000   F0           MOVX      @DPTR,A
   \   000001   8E82         MOV       DPL,R6
   \   000003   8F83         MOV       DPH,R7
   \   000005   A3           INC       DPTR
   \   000006   22           RET

   \                                 In  segment BANKED_CODE, align 1, keep-with-next
   \                     ?Subroutine24:
   \   000000   EA           MOV       A,R2
   \   000001   F0           MOVX      @DPTR,A
   \   000002   A3           INC       DPTR
   \   000003   EB           MOV       A,R3
   \   000004   12....       LCALL     ?Subroutine44 & 0xFFFF
   \                     ??CrossCallReturnLabel_83:
   \   000007   A3           INC       DPTR
   \   000008   E0           MOVX      A,@DPTR
   \   000009   22           RET

   \                                 In  segment BANKED_CODE, align 1, keep-with-next
   \                     ?Subroutine12:
   \   000000   A3           INC       DPTR
   \   000001   A3           INC       DPTR
   \   000002   A3           INC       DPTR
   \   000003   E0           MOVX      A,@DPTR
   \   000004   F5..         MOV       ?V8,A
   \   000006   8E82         MOV       DPL,R6
   \   000008   8F83         MOV       DPH,R7
   \   00000A   A3           INC       DPTR
   \   00000B   A3           INC       DPTR
   \   00000C   A3           INC       DPTR
   \   00000D   A3           INC       DPTR
   \   00000E   22           RET

   \                                 In  segment BANKED_CODE, align 1, keep-with-next
   \                     ?Subroutine49:
   \   000000   F0           MOVX      @DPTR,A
   \   000001   8A82         MOV       DPL,R2
   \   000003   8B83         MOV       DPH,R3
   \   000005   A3           INC       DPTR
   \   000006   22           RET

   \                                 In  segment BANKED_CODE, align 1, keep-with-next
   \                     ??Subroutine56_0:
   \   000000   12....       LCALL     `??osal_memcpy::?relay`; Banked call to: osal_memcpy
   \   000003   7403         MOV       A,#0x3
   \   000005   22           RET

   \                                 In  segment BANKED_CODE, align 1, keep-with-next
   \                     ?Subroutine36:
   \   000000   240E         ADD       A,#0xe
   \   000002   F582         MOV       DPL,A
   \   000004   E4           CLR       A
   \   000005   38           ADDC      A,R0
   \   000006   F583         MOV       DPH,A
   \   000008   22           RET

   \                                 In  segment BANKED_CODE, align 1, keep-with-next
   \                     ?Subroutine17:
   \   000000   90....       MOV       DPTR,#pMtAfDataReq
   \   000003   E0           MOVX      A,@DPTR
   \   000004   2402         ADD       A,#0x2
   \   000006   FA           MOV       R2,A
   \   000007   A3           INC       DPTR
   \   000008   E0           MOVX      A,@DPTR
   \   000009   3400         ADDC      A,#0x0
   \   00000B   FB           MOV       R3,A
   \   00000C   22           RET

   \                                 In  segment BANKED_CODE, align 1, keep-with-next
   \                     ?Subroutine8:
   \   000000   12....       LCALL     ?Subroutine41 & 0xFFFF
   \                     ??CrossCallReturnLabel_134:
   \   000003   F583         MOV       DPH,A
   \   000005   8882         MOV       DPL,R0
   \   000007   22           RET
    457          
    458          #if defined( ZIGBEEPRO )
    459          /***************************************************************************************************
    460           * @fn      MT_AfDataRequestSrcRtg
    461           *
    462           * @brief   Process AF Register command
    463           *
    464           * @param   pBuf - pointer to the received buffer
    465           *
    466           * @return  none
    467           ***************************************************************************************************/

   \                                 In  segment BANKED_CODE, align 1, keep-with-next
    468          static void MT_AfDataRequestSrcRtg(uint8 *pBuf)
   \                     MT_AfDataRequestSrcRtg:
    469          {
   \   000000                REQUIRE ?V0
   \   000000                REQUIRE ?V1
   \   000000                REQUIRE ?V2
   \   000000                REQUIRE ?V3
   \   000000                REQUIRE ?V4
   \   000000                REQUIRE ?V5
   \   000000                REQUIRE ?V6
   \   000000                REQUIRE ?V7
   \   000000                REQUIRE ?V8
   \   000000                REQUIRE ?V9
   \   000000                REQUIRE ?V10
   \   000000                REQUIRE ?V11
   \   000000   74EC         MOV       A,#-0x14
   \   000002   12....       LCALL     ?BANKED_ENTER_XDATA
   \   000005                ; Saved register size: 20
   \   000005                ; Auto size: 14
   \   000005   74F2         MOV       A,#-0xe
   \   000007   12....       LCALL     ?ALLOC_XSTACK8
   \   00000A   EB           MOV       A,R3
   \   00000B   FF           MOV       R7,A
    470            uint8 cmdId, dataLen = 0;
    471            uint8 retValue = ZFailure;
   \   00000C   85..82       MOV       DPL,?XSP + 0
   \   00000F   85..83       MOV       DPH,?XSP + 1
   \   000012   7401         MOV       A,#0x1
   \   000014   12....       LCALL     ?Subroutine42 & 0xFFFF
    472            endPointDesc_t *epDesc;
    473            byte transId;
    474            afAddrType_t dstAddr;
    475            cId_t cId;
    476            byte txOpts, radius, srcEP, relayCnt;
    477            uint16 *pRelayList;
    478            uint8 i;
    479          
    480            /* parse header */
    481            cmdId = pBuf[MT_RPC_POS_CMD1];
   \                     ??CrossCallReturnLabel_76:
   \   000017   F5..         MOV       ?V6,A
    482            pBuf += MT_RPC_FRAME_HDR_SZ;
   \   000019   EA           MOV       A,R2
   \   00001A   2403         ADD       A,#0x3
   \   00001C   FE           MOV       R6,A
   \   00001D   5001         JNC       ??MT_AfDataRequestSrcRtg_0
   \   00001F   0F           INC       R7
    483          
    484            /* Destination address */
    485            /* Initialize the panID field to zero to avoid inter-pan */
    486            osal_memset( &dstAddr, 0, sizeof(afAddrType_t) );
   \                     ??MT_AfDataRequestSrcRtg_0:
   \   000020                ; Setup parameters for call to function osal_memset
   \   000020   7C0C         MOV       R4,#0xc
   \   000022   7D00         MOV       R5,#0x0
   \   000024   7900         MOV       R1,#0x0
   \   000026   7402         MOV       A,#0x2
   \   000028   12....       LCALL     ?XSTACK_DISP101_8
   \   00002B   12....       LCALL     `??osal_memset::?relay`; Banked call to: osal_memset
    487            dstAddr.addrMode = afAddr16Bit;
   \   00002E   740A         MOV       A,#0xa
   \   000030   12....       LCALL     ?XSTACK_DISP0_8
   \   000033   7402         MOV       A,#0x2
   \   000035   F0           MOVX      @DPTR,A
    488            dstAddr.addr.shortAddr = osal_build_uint16( pBuf );
   \   000036                ; Setup parameters for call to function osal_build_uint16
   \   000036   EE           MOV       A,R6
   \   000037   FA           MOV       R2,A
   \   000038   EF           MOV       A,R7
   \   000039   FB           MOV       R3,A
   \   00003A   12....       LCALL     `??osal_build_uint16::?relay`; Banked call to: osal_build_uint16
   \   00003D   7402         MOV       A,#0x2
   \   00003F   12....       LCALL     ?XSTACK_DISP0_8
   \   000042   12....       LCALL     ?Subroutine24 & 0xFFFF
    489            pBuf += 2;
    490          
    491            /* Destination endpoint */
    492            dstAddr.endPoint = *pBuf++;
   \                     ??CrossCallReturnLabel_40:
   \   000045   C0E0         PUSH      A
   \   000047   740B         MOV       A,#0xb
   \   000049   12....       LCALL     ?XSTACK_DISP0_8
   \   00004C   D0E0         POP       A
   \   00004E   12....       LCALL     ?Subroutine29 & 0xFFFF
    493          
    494            /* Source endpoint */
    495            srcEP = *pBuf++;
   \                     ??CrossCallReturnLabel_51:
   \   000051   F9           MOV       R1,A
   \   000052   EE           MOV       A,R6
   \   000053   2404         ADD       A,#0x4
   \   000055   FE           MOV       R6,A
   \   000056   5001         JNC       ??MT_AfDataRequestSrcRtg_1
   \   000058   0F           INC       R7
    496            epDesc = afFindEndPointDesc( srcEP );
   \                     ??MT_AfDataRequestSrcRtg_1:
   \   000059                ; Setup parameters for call to function afFindEndPointDesc
   \   000059   12....       LCALL     `??afFindEndPointDesc::?relay`; Banked call to: afFindEndPointDesc
   \   00005C   8A..         MOV       ?V2,R2
   \   00005E   8B..         MOV       ?V3,R3
    497          
    498            /* ClusterId */
    499            cId = osal_build_uint16( pBuf );
   \   000060                ; Setup parameters for call to function osal_build_uint16
   \   000060   EE           MOV       A,R6
   \   000061   12....       LCALL     ?Subroutine33 & 0xFFFF
    500            pBuf +=2;
    501          
    502            /* TransId */
    503            transId = *pBuf++;
   \                     ??CrossCallReturnLabel_57:
   \   000064   C0E0         PUSH      A
   \   000066   7401         MOV       A,#0x1
   \   000068   12....       LCALL     ?XSTACK_DISP0_8
   \   00006B   D0E0         POP       A
   \   00006D   12....       LCALL     ?Subroutine29 & 0xFFFF
    504          
    505            /* TxOption */
    506            txOpts = *pBuf++;
   \                     ??CrossCallReturnLabel_52:
   \   000070   F5..         MOV       ?V7,A
    507          
    508            /* Radius */
    509            radius = *pBuf++;
   \   000072   8E82         MOV       DPL,R6
   \   000074   8F83         MOV       DPH,R7
   \   000076   A3           INC       DPTR
   \   000077   12....       LCALL     ?Subroutine12 & 0xFFFF
    510          
    511            /* Source route relay count */
    512            relayCnt = *pBuf++;
   \                     ??CrossCallReturnLabel_19:
   \   00007A   A3           INC       DPTR
   \   00007B   E0           MOVX      A,@DPTR
   \   00007C   F5..         MOV       ?V9,A
   \   00007E   EE           MOV       A,R6
   \   00007F   2406         ADD       A,#0x6
   \   000081   FE           MOV       R6,A
   \   000082   5001         JNC       ??MT_AfDataRequestSrcRtg_2
   \   000084   0F           INC       R7
    513          
    514            /* Convert the source route relay list */
    515            if( (pRelayList = osal_mem_alloc( relayCnt * sizeof( uint16 ))) != NULL )
   \                     ??MT_AfDataRequestSrcRtg_2:
   \   000085                ; Setup parameters for call to function osal_mem_alloc
   \   000085   AA..         MOV       R2,?V9
   \   000087   EA           MOV       A,R2
   \   000088   2A           ADD       A,R2
   \   000089   FA           MOV       R2,A
   \   00008A   E4           CLR       A
   \   00008B   33           RLC       A
   \   00008C   FB           MOV       R3,A
   \   00008D   12....       LCALL     `??osal_mem_alloc::?relay`; Banked call to: osal_mem_alloc
   \   000090   8A..         MOV       ?V0,R2
   \   000092   8B..         MOV       ?V1,R3
   \   000094   EA           MOV       A,R2
   \   000095   4B           ORL       A,R3
   \   000096   7003         JNZ       $+5
   \   000098   02....       LJMP      ??MT_AfDataRequestSrcRtg_3 & 0xFFFF
    516            {
    517              for( i = 0; i < relayCnt; i++ )
   \   00009B   75..00       MOV       ?V10,#0x0
   \   00009E   8021         SJMP      ??MT_AfDataRequestSrcRtg_4
    518              {
    519                pRelayList[i] = osal_build_uint16( pBuf );
   \                     ??MT_AfDataRequestSrcRtg_5:
   \   0000A0                ; Setup parameters for call to function osal_build_uint16
   \   0000A0   EE           MOV       A,R6
   \   0000A1   FA           MOV       R2,A
   \   0000A2   EF           MOV       A,R7
   \   0000A3   FB           MOV       R3,A
   \   0000A4   12....       LCALL     `??osal_build_uint16::?relay`; Banked call to: osal_build_uint16
   \   0000A7   A8..         MOV       R0,?V10
   \   0000A9   E8           MOV       A,R0
   \   0000AA   28           ADD       A,R0
   \   0000AB   F8           MOV       R0,A
   \   0000AC   E4           CLR       A
   \   0000AD   33           RLC       A
   \   0000AE   F9           MOV       R1,A
   \   0000AF   E5..         MOV       A,?V0
   \   0000B1   28           ADD       A,R0
   \   0000B2   F582         MOV       DPL,A
   \   0000B4   E5..         MOV       A,?V1
   \   0000B6   39           ADDC      A,R1
   \   0000B7   F583         MOV       DPH,A
   \   0000B9   12....       LCALL     ?Subroutine31 & 0xFFFF
    520                pBuf += 2;
    521              }
   \                     ??CrossCallReturnLabel_56:
   \   0000BC   5001         JNC       ??MT_AfDataRequestSrcRtg_6
   \   0000BE   0F           INC       R7
   \                     ??MT_AfDataRequestSrcRtg_6:
   \   0000BF   05..         INC       ?V10
   \                     ??MT_AfDataRequestSrcRtg_4:
   \   0000C1   E5..         MOV       A,?V10
   \   0000C3   C3           CLR       C
   \   0000C4   95..         SUBB      A,?V9
   \   0000C6   40D8         JC        ??MT_AfDataRequestSrcRtg_5
    522          
    523              /* Data payload Length */
    524              dataLen = *pBuf++;
   \   0000C8   8E82         MOV       DPL,R6
   \   0000CA   8F83         MOV       DPH,R7
   \   0000CC   E0           MOVX      A,@DPTR
   \   0000CD   FA           MOV       R2,A
   \   0000CE   A3           INC       DPTR
   \   0000CF   AE82         MOV       R6,DPL
   \   0000D1   AF83         MOV       R7,DPH
    525          
    526              if ( epDesc == NULL )
   \   0000D3   E5..         MOV       A,?V2
   \   0000D5   45..         ORL       A,?V3
   \   0000D7   700A         JNZ       ??MT_AfDataRequestSrcRtg_7
    527              {
    528                retValue = afStatus_INVALID_PARAMETER;
   \   0000D9   85..82       MOV       DPL,?XSP + 0
   \   0000DC   85..83       MOV       DPH,?XSP + 1
   \   0000DF   7402         MOV       A,#0x2
   \   0000E1   8050         SJMP      ??MT_AfDataRequestSrcRtg_8
    529              }
    530              else
    531              {
    532                retValue = AF_DataRequestSrcRtg( &dstAddr, epDesc, cId, dataLen, pBuf,
    533                                               &transId, txOpts, radius, relayCnt, pRelayList );
   \                     ??MT_AfDataRequestSrcRtg_7:
   \   0000E3                ; Setup parameters for call to function AF_DataRequestSrcRtg
   \   0000E3   78..         MOV       R0,#?V0
   \   0000E5   12....       LCALL     ?PUSH_XSTACK_I_TWO
   \   0000E8   78..         MOV       R0,#?V9
   \   0000EA   12....       LCALL     ?PUSH_XSTACK_I_ONE
   \   0000ED   78..         MOV       R0,#?V8
   \   0000EF   12....       LCALL     ?PUSH_XSTACK_I_ONE
   \   0000F2   7405         MOV       A,#0x5
   \   0000F4   12....       LCALL     ?XSTACK_DISP100_8
   \   0000F7   88..         MOV       ?V8,R0
   \   0000F9   89..         MOV       ?V9,R1
   \   0000FB   78..         MOV       R0,#?V8
   \   0000FD   12....       LCALL     ?PUSH_XSTACK_I_TWO
   \   000100   8E..         MOV       ?V8,R6
   \   000102   8F..         MOV       ?V9,R7
   \   000104   78..         MOV       R0,#?V8
   \   000106   12....       LCALL     ?PUSH_XSTACK_I_TWO
   \   000109   EA           MOV       A,R2
   \   00010A   F5..         MOV       ?V8,A
   \   00010C   75..00       MOV       ?V9,#0x0
   \   00010F   78..         MOV       R0,#?V8
   \   000111   12....       LCALL     ?PUSH_XSTACK_I_TWO
   \   000114   78..         MOV       R0,#?V4
   \   000116   12....       LCALL     ?PUSH_XSTACK_I_TWO
   \   000119   A9..         MOV       R1,?V7
   \   00011B   AC..         MOV       R4,?V2
   \   00011D   AD..         MOV       R5,?V3
   \   00011F   740E         MOV       A,#0xe
   \   000121   12....       LCALL     ?XSTACK_DISP101_8
   \   000124   12....       LCALL     `??AF_DataRequestSrcRtg::?relay`; Banked call to: AF_DataRequestSrcRtg
   \   000127   740C         MOV       A,#0xc
   \   000129   12....       LCALL     ?DEALLOC_XSTACK8
   \   00012C   E9           MOV       A,R1
   \   00012D   85..82       MOV       DPL,?XSP + 0
   \   000130   85..83       MOV       DPH,?XSP + 1
   \                     ??MT_AfDataRequestSrcRtg_8:
   \   000133   F0           MOVX      @DPTR,A
    534              }
    535          
    536              /* Free the memory allocated */
    537              osal_mem_free( pRelayList );
   \   000134                ; Setup parameters for call to function osal_mem_free
   \   000134   AA..         MOV       R2,?V0
   \   000136   AB..         MOV       R3,?V1
   \   000138   12....       LCALL     `??osal_mem_free::?relay`; Banked call to: osal_mem_free
   \   00013B   8009         SJMP      ??MT_AfDataRequestSrcRtg_9
    538            }
    539            else
    540            {
    541              retValue = afStatus_MEM_FAIL;
   \                     ??MT_AfDataRequestSrcRtg_3:
   \   00013D   85..82       MOV       DPL,?XSP + 0
   \   000140   85..83       MOV       DPH,?XSP + 1
   \   000143   7410         MOV       A,#0x10
   \   000145   F0           MOVX      @DPTR,A
    542            }
    543          
    544          
    545            /* Build and send back the response */
    546            MT_BuildAndSendZToolResponse(((uint8)MT_RPC_CMD_SRSP | (uint8)MT_RPC_SYS_AF), cmdId, 1, &retValue);
   \                     ??MT_AfDataRequestSrcRtg_9:
   \   000146                ; Setup parameters for call to function MT_BuildAndSendZToolResponse
   \   000146   AC..         MOV       R4,?XSP + 0
   \   000148   AD..         MOV       R5,?XSP + 1
   \   00014A   7B01         MOV       R3,#0x1
   \   00014C   AA..         MOV       R2,?V6
   \   00014E   7964         MOV       R1,#0x64
   \   000150   12....       LCALL     `??MT_BuildAndSendZToolResponse::?relay`; Banked call to: MT_BuildAndSendZToolResponse
    547          }
   \   000153   740E         MOV       A,#0xe
   \   000155   12....       LCALL     ?DEALLOC_XSTACK8
   \   000158   7F0C         MOV       R7,#0xc
   \   00015A   02....       LJMP      ?BANKED_LEAVE_XDATA

   \                                 In  segment BANKED_CODE, align 1, keep-with-next
   \                     ?Subroutine29:
   \   000000   12....       LCALL     ?Subroutine44 & 0xFFFF
   \                     ??CrossCallReturnLabel_82:
   \   000003   A3           INC       DPTR
   \   000004   A3           INC       DPTR
   \   000005   E0           MOVX      A,@DPTR
   \   000006   22           RET

   \                                 In  segment BANKED_CODE, align 1, keep-with-next
   \                     ?Subroutine42:
   \   000000   12....       LCALL     ?Subroutine49 & 0xFFFF
   \                     ??CrossCallReturnLabel_94:
   \   000003   A3           INC       DPTR
   \   000004   E0           MOVX      A,@DPTR
   \   000005   22           RET

   \                                 In  segment BANKED_CODE, align 1, keep-with-next
   \                     ?Subroutine33:
   \   000000   FA           MOV       R2,A
   \   000001   EF           MOV       A,R7
   \   000002   FB           MOV       R3,A
   \   000003   12....       LCALL     `??osal_build_uint16::?relay`; Banked call to: osal_build_uint16
   \   000006   8A..         MOV       ?V4,R2
   \   000008   8B..         MOV       ?V5,R3
   \   00000A   8E82         MOV       DPL,R6
   \   00000C   8F83         MOV       DPH,R7
   \   00000E   A3           INC       DPTR
   \   00000F   A3           INC       DPTR
   \   000010   E0           MOVX      A,@DPTR
   \   000011   22           RET
    548          #endif
    549          
    550          #if defined INTER_PAN
    551          /***************************************************************************************************
    552           * @fn      MT_AfInterPanCtl
    553           *
    554           * @brief   Process the AF Inter Pan control command.
    555           *
    556           * @param   pBuf - pointer to the received buffer
    557           *
    558           * @return  none
    559           ***************************************************************************************************/
    560          static void MT_AfInterPanCtl(uint8 *pBuf)
    561          {
    562            uint8 cmd, rtrn;
    563            uint16 panId;
    564            endPointDesc_t *pEP;
    565          
    566            cmd = pBuf[MT_RPC_POS_CMD1];
    567            pBuf += MT_RPC_FRAME_HDR_SZ;
    568          
    569            switch (*pBuf++)  // Inter-pan request parameter.
    570            {
    571            case InterPanClr:
    572              rtrn = StubAPS_SetIntraPanChannel();           // Switch channel back to the NIB channel.
    573              break;
    574          
    575            case InterPanSet:
    576              rtrn = StubAPS_SetInterPanChannel(*pBuf);      // Set channel for inter-pan communication.
    577              break;
    578          
    579            case InterPanReg:
    580              if ((pEP = afFindEndPointDesc(*pBuf)))
    581              {
    582                StubAPS_RegisterApp(pEP);
    583                rtrn = SUCCESS;
    584              }
    585              else
    586              {
    587                rtrn = FAILURE;
    588              }
    589              break;
    590          
    591            case InterPanChk:
    592              panId = osal_build_uint16( pBuf );
    593              rtrn = (StubAPS_InterPan(panId, pBuf[2])) ? ZSuccess : ZFailure;
    594              break;
    595          
    596            default:
    597              rtrn = afStatus_INVALID_PARAMETER;
    598              break;
    599            }
    600          
    601            MT_BuildAndSendZToolResponse(((uint8)MT_RPC_CMD_SRSP | (uint8)MT_RPC_SYS_AF), cmd, 1, &rtrn);
    602          }
    603          #endif
    604          
    605          /***************************************************************************************************
    606           * @fn      MT_AfDataConfirm
    607           *
    608           * @brief   Process
    609           *
    610           * @param   pBuf - pointer to the received buffer
    611           *
    612           * @return  none
    613           ***************************************************************************************************/

   \                                 In  segment BANKED_CODE, align 1, keep-with-next
    614          void MT_AfDataConfirm(afDataConfirm_t *pMsg)
   \                     MT_AfDataConfirm:
    615          {
   \   000000   C082         PUSH      DPL
   \   000002   C083         PUSH      DPH
   \   000004                ; Saved register size: 2
   \   000004                ; Auto size: 3
   \   000004   74FD         MOV       A,#-0x3
   \   000006   12....       LCALL     ?ALLOC_XSTACK8
    616            uint8 retArray[3];
    617          
    618            retArray[0] = pMsg->hdr.status;
   \   000009   12....       LCALL     ?Subroutine5 & 0xFFFF
    619            retArray[1] = pMsg->endpoint;
   \                     ??CrossCallReturnLabel_4:
   \   00000C   C0E0         PUSH      A
   \   00000E   7401         MOV       A,#0x1
   \   000010   12....       LCALL     ?XSTACK_DISP0_8
   \   000013   D0E0         POP       A
   \   000015   12....       LCALL     ?Subroutine28 & 0xFFFF
    620            retArray[2] = pMsg->transID;
   \                     ??CrossCallReturnLabel_49:
   \   000018   C0E0         PUSH      A
   \   00001A   7402         MOV       A,#0x2
   \   00001C   12....       LCALL     ?XSTACK_DISP0_8
   \   00001F   D0E0         POP       A
   \   000021   12....       LCALL     ?Subroutine27 & 0xFFFF
    621          
    622            /* Build and send back the response */
    623            MT_BuildAndSendZToolResponse(((uint8)MT_RPC_CMD_AREQ | (uint8)MT_RPC_SYS_AF), MT_AF_DATA_CONFIRM, 3, retArray);
   \                     ??CrossCallReturnLabel_46:
   \   000024   7B03         MOV       R3,#0x3
   \   000026   7A80         MOV       R2,#-0x80
   \   000028   7944         MOV       R1,#0x44
   \   00002A   12....       LCALL     `??MT_BuildAndSendZToolResponse::?relay`; Banked call to: MT_BuildAndSendZToolResponse
    624          }
   \   00002D   7403         MOV       A,#0x3
   \   00002F                REQUIRE ?Subroutine1
   \   00002F                ; // Fall through to label ?Subroutine1

   \                                 In  segment BANKED_CODE, align 1, keep-with-next
   \                     ?Subroutine1:
   \   000000   12....       LCALL     ?DEALLOC_XSTACK8
   \   000003   D083         POP       DPH
   \   000005   D082         POP       DPL
   \   000007   02....       LJMP      ?BRET

   \                                 In  segment BANKED_CODE, align 1, keep-with-next
   \                     ?Subroutine28:
   \   000000   12....       LCALL     ?Subroutine46 & 0xFFFF
   \                     ??CrossCallReturnLabel_87:
   \   000003   E0           MOVX      A,@DPTR
   \   000004   22           RET

   \                                 In  segment BANKED_CODE, align 1, keep-with-next
   \                     ?Subroutine27:
   \   000000   F0           MOVX      @DPTR,A
   \   000001                ; Setup parameters for call to function MT_BuildAndSendZToolResponse
   \   000001                ; Setup parameters for call to function MT_BuildAndSendZToolResponse
   \   000001                ; Setup parameters for call to function MT_BuildAndSendZToolResponse
   \   000001                ; Setup parameters for call to function MT_BuildAndSendZToolResponse
   \   000001   AC..         MOV       R4,?XSP + 0
   \   000003   AD..         MOV       R5,?XSP + 1
   \   000005   22           RET

   \                                 In  segment BANKED_CODE, align 1, keep-with-next
   \                     ?Subroutine46:
   \   000000   12....       LCALL     ?Subroutine49 & 0xFFFF
   \                     ??CrossCallReturnLabel_93:
   \   000003   A3           INC       DPTR
   \   000004   A3           INC       DPTR
   \   000005   22           RET

   \                                 In  segment BANKED_CODE, align 1, keep-with-next
   \                     ?Subroutine5:
   \   000000   8A82         MOV       DPL,R2
   \   000002   8B83         MOV       DPH,R3
   \   000004   A3           INC       DPTR
   \   000005   E0           MOVX      A,@DPTR
   \   000006   85..82       MOV       DPL,?XSP + 0
   \   000009   85..83       MOV       DPH,?XSP + 1
   \   00000C   12....       LCALL     ?Subroutine42 & 0xFFFF
   \                     ??CrossCallReturnLabel_77:
   \   00000F   22           RET
    625          
    626          /***************************************************************************************************
    627           * @fn      MT_AfReflectError
    628           *
    629           * @brief   Process
    630           *
    631           * @param   pBuf - pointer to the received buffer
    632           *
    633           * @return  none
    634           ***************************************************************************************************/

   \                                 In  segment BANKED_CODE, align 1, keep-with-next
    635          void MT_AfReflectError(afReflectError_t *pMsg)
   \                     MT_AfReflectError:
    636          {
   \   000000   C082         PUSH      DPL
   \   000002   C083         PUSH      DPH
   \   000004                ; Saved register size: 2
   \   000004                ; Auto size: 6
   \   000004   74FA         MOV       A,#-0x6
   \   000006   12....       LCALL     ?ALLOC_XSTACK8
    637            uint8 retArray[6];
    638          
    639            retArray[0] = pMsg->hdr.status;
   \   000009   12....       LCALL     ?Subroutine5 & 0xFFFF
    640            retArray[1] = pMsg->endpoint;
   \                     ??CrossCallReturnLabel_5:
   \   00000C   C0E0         PUSH      A
   \   00000E   7401         MOV       A,#0x1
   \   000010   12....       LCALL     ?XSTACK_DISP0_8
   \   000013   D0E0         POP       A
   \   000015   12....       LCALL     ?Subroutine28 & 0xFFFF
    641            retArray[2] = pMsg->transID;
   \                     ??CrossCallReturnLabel_50:
   \   000018   C0E0         PUSH      A
   \   00001A   7402         MOV       A,#0x2
   \   00001C   12....       LCALL     ?XSTACK_DISP0_8
   \   00001F   D0E0         POP       A
   \   000021   12....       LCALL     ?Subroutine26 & 0xFFFF
    642            retArray[3] = pMsg->dstAddrMode;
   \                     ??CrossCallReturnLabel_44:
   \   000024   E0           MOVX      A,@DPTR
   \   000025   C0E0         PUSH      A
   \   000027   7403         MOV       A,#0x3
   \   000029   12....       LCALL     ?XSTACK_DISP0_8
   \   00002C   D0E0         POP       A
   \   00002E   F0           MOVX      @DPTR,A
    643            retArray[4] = LO_UINT16( pMsg->dstAddr );
   \   00002F   EA           MOV       A,R2
   \   000030   2405         ADD       A,#0x5
   \   000032   F8           MOV       R0,A
   \   000033   E4           CLR       A
   \   000034   3B           ADDC      A,R3
   \   000035   F9           MOV       R1,A
   \   000036   8882         MOV       DPL,R0
   \   000038   F583         MOV       DPH,A
   \   00003A   E0           MOVX      A,@DPTR
   \   00003B   C0E0         PUSH      A
   \   00003D   7404         MOV       A,#0x4
   \   00003F   12....       LCALL     ?XSTACK_DISP0_8
   \   000042   D0E0         POP       A
   \   000044   12....       LCALL     ?Subroutine43 & 0xFFFF
    644            retArray[5] = HI_UINT16( pMsg->dstAddr );
   \                     ??CrossCallReturnLabel_78:
   \   000047   E0           MOVX      A,@DPTR
   \   000048   C0E0         PUSH      A
   \   00004A   7405         MOV       A,#0x5
   \   00004C   12....       LCALL     ?XSTACK_DISP0_8
   \   00004F   D0E0         POP       A
   \   000051   12....       LCALL     ?Subroutine27 & 0xFFFF
    645          
    646            /* Build and send back the response */
    647            MT_BuildAndSendZToolResponse(((uint8)MT_RPC_CMD_AREQ | (uint8)MT_RPC_SYS_AF), MT_AF_REFLECT_ERROR, 6, retArray);
   \                     ??CrossCallReturnLabel_47:
   \   000054   7B06         MOV       R3,#0x6
   \   000056   7A83         MOV       R2,#-0x7d
   \   000058   7944         MOV       R1,#0x44
   \   00005A   12....       LCALL     `??MT_BuildAndSendZToolResponse::?relay`; Banked call to: MT_BuildAndSendZToolResponse
    648          }
   \   00005D   7406         MOV       A,#0x6
   \   00005F   80..         SJMP      ?Subroutine1

   \                                 In  segment BANKED_CODE, align 1, keep-with-next
   \                     ?Subroutine26:
   \   000000   12....       LCALL     ?Subroutine46 & 0xFFFF
   \                     ??CrossCallReturnLabel_88:
   \   000003   A3           INC       DPTR
   \   000004   22           RET

   \                                 In  segment BANKED_CODE, align 1, keep-with-next
   \                     ?Subroutine43:
   \   000000   F0           MOVX      @DPTR,A
   \   000001   8882         MOV       DPL,R0
   \   000003   8983         MOV       DPH,R1
   \   000005   A3           INC       DPTR
   \   000006   22           RET
    649          
    650          /***************************************************************************************************
    651           * @fn          MT_AfIncomingMsg
    652           *
    653           * @brief       Process the callback subscription for AF Incoming data.
    654           *
    655           * @param       pkt - Incoming AF data.
    656           *
    657           * @return      none
    658           ***************************************************************************************************/

   \                                 In  segment BANKED_CODE, align 1, keep-with-next
    659          void MT_AfIncomingMsg(afIncomingMSGPacket_t *pMsg)
   \                     MT_AfIncomingMsg:
    660          {
   \   000000                REQUIRE ?V0
   \   000000                REQUIRE ?V1
   \   000000                REQUIRE ?V2
   \   000000                REQUIRE ?V3
   \   000000                REQUIRE ?V4
   \   000000                REQUIRE ?V5
   \   000000                REQUIRE ?V6
   \   000000                REQUIRE ?V7
   \   000000                REQUIRE ?V8
   \   000000                REQUIRE ?V9
   \   000000                REQUIRE ?V10
   \   000000                REQUIRE ?V11
   \   000000                REQUIRE ?V12
   \   000000                REQUIRE ?V13
   \   000000   74EA         MOV       A,#-0x16
   \   000002   12....       LCALL     ?BANKED_ENTER_XDATA
   \   000005                ; Saved register size: 22
   \   000005                ; Auto size: 0
   \   000005   8A..         MOV       ?V8,R2
   \   000007   8B..         MOV       ?V9,R3
    661            #define MT_AF_INC_MSG_LEN  20
    662            #define MT_AF_INC_MSG_EXT  10
    663          
    664            uint16 dataLen = pMsg->cmd.DataLength;  // Length of the data section in the response packet.
   \   000009   EA           MOV       A,R2
   \   00000A   2420         ADD       A,#0x20
   \   00000C   12....       LCALL     ?Subroutine34 & 0xFFFF
   \                     ??CrossCallReturnLabel_59:
   \   00000F   F5..         MOV       ?V0,A
   \   000011   A3           INC       DPTR
   \   000012   E0           MOVX      A,@DPTR
   \   000013   F5..         MOV       ?V1,A
    665            uint16 respLen = MT_AF_INC_MSG_LEN + dataLen;
   \   000015   E5..         MOV       A,?V0
   \   000017   2414         ADD       A,#0x14
   \   000019   FE           MOV       R6,A
   \   00001A   E4           CLR       A
   \   00001B   35..         ADDC      A,?V1
   \   00001D   FF           MOV       R7,A
    666            uint8 cmd = MT_AF_INCOMING_MSG;
   \   00001E   75..81       MOV       ?V7,#-0x7f
    667            uint8 *pRsp, *pTmp;
    668            mtAfInMsgList_t *pItem = NULL;
   \   000021   75..00       MOV       ?V10,#0x0
   \   000024   75..00       MOV       ?V11,#0x0
    669          
    670          #if defined INTER_PAN
    671            if (StubAPS_InterPan(pMsg->srcAddr.panId, pMsg->srcAddr.endPoint))
   \   000027                ; Setup parameters for call to function StubAPS_InterPan
   \   000027   EA           MOV       A,R2
   \   000028   240F         ADD       A,#0xf
   \   00002A   12....       LCALL     ?Subroutine34 & 0xFFFF
   \                     ??CrossCallReturnLabel_60:
   \   00002D   F9           MOV       R1,A
   \   00002E   EA           MOV       A,R2
   \   00002F   2410         ADD       A,#0x10
   \   000031   12....       LCALL     ?Subroutine34 & 0xFFFF
   \                     ??CrossCallReturnLabel_61:
   \   000034   FA           MOV       R2,A
   \   000035   A3           INC       DPTR
   \   000036   E0           MOVX      A,@DPTR
   \   000037   FB           MOV       R3,A
   \   000038   12....       LCALL     `??StubAPS_InterPan::?relay`; Banked call to: StubAPS_InterPan
   \   00003B   E9           MOV       A,R1
   \   00003C   7014         JNZ       ??MT_AfIncomingMsg_0
    672            {
    673              cmd = MT_AF_INCOMING_MSG_EXT;
    674            }
    675            else
    676          #endif
    677            if ((pMsg->srcAddr.addrMode == afAddr64Bit) ||
    678                (respLen > (uint16)(MT_RPC_DATA_MAX - MT_AF_INC_MSG_EXT)))
   \   00003E   E5..         MOV       A,?V8
   \   000040   240E         ADD       A,#0xe
   \   000042   12....       LCALL     ?Subroutine34 & 0xFFFF
   \                     ??CrossCallReturnLabel_62:
   \   000045   6403         XRL       A,#0x3
   \   000047   6009         JZ        ??MT_AfIncomingMsg_0
   \   000049   C3           CLR       C
   \   00004A   EE           MOV       A,R6
   \   00004B   94F1         SUBB      A,#-0xf
   \   00004D   EF           MOV       A,R7
   \   00004E   9400         SUBB      A,#0x0
   \   000050   400A         JC        ??MT_AfIncomingMsg_1
    679            {
    680              cmd = MT_AF_INCOMING_MSG_EXT;
   \                     ??MT_AfIncomingMsg_0:
   \   000052   75..82       MOV       ?V7,#-0x7e
    681            }
    682          
    683            if (cmd == MT_AF_INCOMING_MSG_EXT)
    684            {
    685              respLen += MT_AF_INC_MSG_EXT;
   \   000055   EE           MOV       A,R6
   \   000056   240A         ADD       A,#0xa
   \   000058   FE           MOV       R6,A
   \   000059   E4           CLR       A
   \   00005A   3F           ADDC      A,R7
   \   00005B   FF           MOV       R7,A
    686            }
    687          
    688            if (respLen > (uint16)MT_RPC_DATA_MAX)
   \                     ??MT_AfIncomingMsg_1:
   \   00005C   C3           CLR       C
   \   00005D   EE           MOV       A,R6
   \   00005E   94FB         SUBB      A,#-0x5
   \   000060   EF           MOV       A,R7
   \   000061   9400         SUBB      A,#0x0
   \   000063   4033         JC        ??MT_AfIncomingMsg_2
    689            {
    690              if ((pItem = (mtAfInMsgList_t *)osal_mem_alloc(sizeof(mtAfInMsgList_t) + dataLen)) == NULL)
   \   000065                ; Setup parameters for call to function osal_mem_alloc
   \   000065   E5..         MOV       A,?V0
   \   000067   2409         ADD       A,#0x9
   \   000069   FA           MOV       R2,A
   \   00006A   E4           CLR       A
   \   00006B   35..         ADDC      A,?V1
   \   00006D   FB           MOV       R3,A
   \   00006E   12....       LCALL     `??osal_mem_alloc::?relay`; Banked call to: osal_mem_alloc
   \   000071   8A..         MOV       ?V10,R2
   \   000073   8B..         MOV       ?V11,R3
   \   000075   EA           MOV       A,R2
   \   000076   4B           ORL       A,R3
   \   000077   7003         JNZ       $+5
   \   000079   02....       LJMP      ??MT_AfIncomingMsg_3 & 0xFFFF
    691              {
    692                return;  // If cannot hold a huge message, cannot give indication at all.
    693              }
    694          
    695              pItem->data = (uint8 *)(pItem+1);
   \   00007C   EA           MOV       A,R2
   \   00007D   2409         ADD       A,#0x9
   \   00007F   F8           MOV       R0,A
   \   000080   E4           CLR       A
   \   000081   35..         ADDC      A,?V11
   \   000083   F9           MOV       R1,A
   \   000084   8A82         MOV       DPL,R2
   \   000086   8B83         MOV       DPH,R3
   \   000088   A3           INC       DPTR
   \   000089   A3           INC       DPTR
   \   00008A   E8           MOV       A,R0
   \   00008B   F0           MOVX      @DPTR,A
   \   00008C   A3           INC       DPTR
   \   00008D   E9           MOV       A,R1
   \   00008E   F0           MOVX      @DPTR,A
    696              respLen -= dataLen;  // Zero data bytes are sent with an over-sized incoming indication.
   \   00008F   C3           CLR       C
   \   000090   EE           MOV       A,R6
   \   000091   95..         SUBB      A,?V0
   \   000093   FE           MOV       R6,A
   \   000094   EF           MOV       A,R7
   \   000095   95..         SUBB      A,?V1
   \   000097   FF           MOV       R7,A
    697            }
    698          
    699            // Attempt to allocate memory for the response packet.
    700            if ((pRsp = osal_mem_alloc(respLen)) == NULL)
   \                     ??MT_AfIncomingMsg_2:
   \   000098                ; Setup parameters for call to function osal_mem_alloc
   \   000098   EE           MOV       A,R6
   \   000099   FA           MOV       R2,A
   \   00009A   EF           MOV       A,R7
   \   00009B   FB           MOV       R3,A
   \   00009C   12....       LCALL     `??osal_mem_alloc::?relay`; Banked call to: osal_mem_alloc
   \   00009F   8A..         MOV       ?V12,R2
   \   0000A1   8B..         MOV       ?V13,R3
   \   0000A3   EA           MOV       A,R2
   \   0000A4   4B           ORL       A,R3
   \   0000A5   7010         JNZ       ??MT_AfIncomingMsg_4
    701            {
    702              if (pItem != NULL)
   \   0000A7   E5..         MOV       A,?V10
   \   0000A9   45..         ORL       A,?V11
   \   0000AB   6007         JZ        ??MT_AfIncomingMsg_5
    703              {
    704                (void)osal_mem_free(pItem);
   \   0000AD                ; Setup parameters for call to function osal_mem_free
   \   0000AD   AA..         MOV       R2,?V10
   \   0000AF   AB..         MOV       R3,?V11
   \   0000B1   12....       LCALL     `??osal_mem_free::?relay`; Banked call to: osal_mem_free
    705              }
    706              return;
   \                     ??MT_AfIncomingMsg_5:
   \   0000B4   02....       LJMP      ??MT_AfIncomingMsg_3 & 0xFFFF
    707            }
    708            pTmp = pRsp;
    709          
    710            /* Group ID */
    711            *pTmp++ = LO_UINT16(pMsg->groupId);
   \                     ??MT_AfIncomingMsg_4:
   \   0000B7   E5..         MOV       A,?V8
   \   0000B9   2402         ADD       A,#0x2
   \   0000BB   12....       LCALL     ?Subroutine35 & 0xFFFF
   \                     ??CrossCallReturnLabel_64:
   \   0000BE   E0           MOVX      A,@DPTR
   \   0000BF   8A82         MOV       DPL,R2
   \   0000C1   8B83         MOV       DPH,R3
   \   0000C3   12....       LCALL     ?Subroutine18 & 0xFFFF
    712            *pTmp++ = HI_UINT16(pMsg->groupId);
   \                     ??CrossCallReturnLabel_117:
   \   0000C6   F0           MOVX      @DPTR,A
    713          
    714            /* Cluster ID */
    715            *pTmp++ = LO_UINT16(pMsg->clusterId);
   \   0000C7   E5..         MOV       A,?V8
   \   0000C9   2404         ADD       A,#0x4
   \   0000CB   12....       LCALL     ?Subroutine35 & 0xFFFF
   \                     ??CrossCallReturnLabel_65:
   \   0000CE   12....       LCALL     ??Subroutine55_0 & 0xFFFF
   \                     ??CrossCallReturnLabel_119:
   \   0000D1   A3           INC       DPTR
   \   0000D2   12....       LCALL     ?Subroutine18 & 0xFFFF
    716            *pTmp++ = HI_UINT16(pMsg->clusterId);
   \                     ??CrossCallReturnLabel_118:
   \   0000D5   A3           INC       DPTR
   \   0000D6   A3           INC       DPTR
   \   0000D7   F0           MOVX      @DPTR,A
    717          
    718            if (cmd == MT_AF_INCOMING_MSG_EXT)
   \   0000D8   7482         MOV       A,#-0x7e
   \   0000DA   65..         XRL       A,?V7
   \   0000DC   706A         JNZ       ??MT_AfIncomingMsg_6
    719            {
    720              *pTmp++ = pMsg->srcAddr.addrMode;
   \   0000DE   E5..         MOV       A,?V8
   \   0000E0   240E         ADD       A,#0xe
   \   0000E2   12....       LCALL     ?Subroutine14 & 0xFFFF
   \                     ??CrossCallReturnLabel_22:
   \   0000E5   EA           MOV       A,R2
   \   0000E6   2405         ADD       A,#0x5
   \   0000E8   F5..         MOV       ?V2,A
   \   0000EA   E4           CLR       A
   \   0000EB   35..         ADDC      A,?V13
   \   0000ED   F5..         MOV       ?V3,A
    721          
    722              if (pMsg->srcAddr.addrMode == afAddr64Bit)
   \   0000EF   8882         MOV       DPL,R0
   \   0000F1   8983         MOV       DPH,R1
   \   0000F3   E0           MOVX      A,@DPTR
   \   0000F4   6403         XRL       A,#0x3
   \   0000F6   701F         JNZ       ??MT_AfIncomingMsg_7
    723              {
    724                (void)osal_memcpy(pTmp, pMsg->srcAddr.addr.extAddr, Z_EXTADDR_LEN);
   \   0000F8                ; Setup parameters for call to function osal_memcpy
   \   0000F8   E5..         MOV       A,?V8
   \   0000FA   2406         ADD       A,#0x6
   \   0000FC   F5..         MOV       ?V4,A
   \   0000FE   E4           CLR       A
   \   0000FF   35..         ADDC      A,?V9
   \   000101   F5..         MOV       ?V5,A
   \   000103   75..00       MOV       ?V6,#0x0
   \   000106   78..         MOV       R0,#?V4
   \   000108   12....       LCALL     ?PUSH_XSTACK_I_THREE
   \   00010B   7C08         MOV       R4,#0x8
   \   00010D   7D00         MOV       R5,#0x0
   \   00010F   12....       LCALL     ?Subroutine32 & 0xFFFF
    725              }
   \                     ??CrossCallReturnLabel_120:
   \   000112   12....       LCALL     ?DEALLOC_XSTACK8
   \   000115   8007         SJMP      ??CrossCallReturnLabel_0
    726              else
    727              {
    728                pTmp[0] = LO_UINT16(pMsg->srcAddr.addr.shortAddr);
   \                     ??MT_AfIncomingMsg_7:
   \   000117   E5..         MOV       A,?V8
   \   000119   2406         ADD       A,#0x6
   \   00011B   12....       LCALL     ?Subroutine2 & 0xFFFF
    729                pTmp[1] = HI_UINT16(pMsg->srcAddr.addr.shortAddr);
    730              }
    731              pTmp += Z_EXTADDR_LEN;
    732          
    733              *pTmp++ = pMsg->srcAddr.endPoint;
   \                     ??CrossCallReturnLabel_0:
   \   00011E   E5..         MOV       A,?V8
   \   000120   240F         ADD       A,#0xf
   \   000122   12....       LCALL     ?Subroutine13 & 0xFFFF
   \                     ??CrossCallReturnLabel_20:
   \   000125   A3           INC       DPTR
   \   000126   A3           INC       DPTR
   \   000127   A3           INC       DPTR
   \   000128   A3           INC       DPTR
   \   000129   F0           MOVX      @DPTR,A
    734          #if defined INTER_PAN
    735              *pTmp++ = LO_UINT16(pMsg->srcAddr.panId);
   \   00012A   E5..         MOV       A,?V8
   \   00012C   2410         ADD       A,#0x10
   \   00012E   12....       LCALL     ?Subroutine35 & 0xFFFF
    736              *pTmp++ = HI_UINT16(pMsg->srcAddr.panId);
    737          #else
    738              *pTmp++ = 0;
    739              *pTmp++ = 0;
    740          #endif
    741            }
   \                     ??CrossCallReturnLabel_66:
   \   000131   12....       LCALL     ?Subroutine4 & 0xFFFF
   \                     ??CrossCallReturnLabel_2:
   \   000134   12....       LCALL     ?Subroutine43 & 0xFFFF
   \                     ??CrossCallReturnLabel_79:
   \   000137   12....       LCALL     ?Subroutine4 & 0xFFFF
   \                     ??CrossCallReturnLabel_3:
   \   00013A   A3           INC       DPTR
   \   00013B   F0           MOVX      @DPTR,A
   \   00013C   E5..         MOV       A,?V2
   \   00013E   240B         ADD       A,#0xb
   \   000140   F5..         MOV       ?V2,A
   \   000142   502A         JNC       ??MT_AfIncomingMsg_8
   \   000144   05..         INC       ?V3
   \   000146   8026         SJMP      ??MT_AfIncomingMsg_8
    742            else
    743            {
    744              /* Source Address */
    745              *pTmp++ = LO_UINT16(pMsg->srcAddr.addr.shortAddr);
   \                     ??MT_AfIncomingMsg_6:
   \   000148   E5..         MOV       A,?V8
   \   00014A   2406         ADD       A,#0x6
   \   00014C   12....       LCALL     ?Subroutine14 & 0xFFFF
    746              *pTmp++ = HI_UINT16(pMsg->srcAddr.addr.shortAddr);
   \                     ??CrossCallReturnLabel_23:
   \   00014F   8882         MOV       DPL,R0
   \   000151   8983         MOV       DPH,R1
   \   000153   A3           INC       DPTR
   \   000154   12....       LCALL     ?Subroutine15 & 0xFFFF
   \                     ??CrossCallReturnLabel_24:
   \   000157   F0           MOVX      @DPTR,A
    747          
    748              /* Source EP */
    749              *pTmp++ = pMsg->srcAddr.endPoint;
   \   000158   E5..         MOV       A,?V8
   \   00015A   240F         ADD       A,#0xf
   \   00015C   12....       LCALL     ?Subroutine50 & 0xFFFF
    750            }
   \                     ??CrossCallReturnLabel_95:
   \   00015F   12....       LCALL     ?Subroutine15 & 0xFFFF
   \                     ??CrossCallReturnLabel_25:
   \   000162   A3           INC       DPTR
   \   000163   F0           MOVX      @DPTR,A
   \   000164   EA           MOV       A,R2
   \   000165   2407         ADD       A,#0x7
   \   000167   F5..         MOV       ?V2,A
   \   000169   E4           CLR       A
   \   00016A   35..         ADDC      A,?V13
   \   00016C   F5..         MOV       ?V3,A
    751          
    752            /* Destination EP */
    753            *pTmp++ = pMsg->endPoint;
   \                     ??MT_AfIncomingMsg_8:
   \   00016E   E5..         MOV       A,?V8
   \   000170   2414         ADD       A,#0x14
   \   000172   12....       LCALL     ?Subroutine34 & 0xFFFF
   \                     ??CrossCallReturnLabel_63:
   \   000175   85..82       MOV       DPL,?V2
   \   000178   85..83       MOV       DPH,?V3
   \   00017B   F0           MOVX      @DPTR,A
    754          
    755            /* WasBroadCast */
    756            *pTmp++ = pMsg->wasBroadcast;
   \   00017C   E5..         MOV       A,?V8
   \   00017E   2415         ADD       A,#0x15
   \   000180   12....       LCALL     ?Subroutine22 & 0xFFFF
   \                     ??CrossCallReturnLabel_35:
   \   000183   F0           MOVX      @DPTR,A
    757          
    758            /* LinkQuality */
    759            *pTmp++ = pMsg->LinkQuality;
   \   000184   E5..         MOV       A,?V8
   \   000186   2416         ADD       A,#0x16
   \   000188   12....       LCALL     ?Subroutine16 & 0xFFFF
    760          
    761            /* SecurityUse */
    762            *pTmp++ = pMsg->SecurityUse;
   \                     ??CrossCallReturnLabel_26:
   \   00018B   E5..         MOV       A,?V8
   \   00018D   2419         ADD       A,#0x19
   \   00018F   12....       LCALL     ?Subroutine22 & 0xFFFF
   \                     ??CrossCallReturnLabel_36:
   \   000192   A3           INC       DPTR
   \   000193   A3           INC       DPTR
   \   000194   F0           MOVX      @DPTR,A
   \   000195   E5..         MOV       A,?V2
   \   000197   2404         ADD       A,#0x4
   \   000199   F5..         MOV       ?V2,A
   \   00019B   5002         JNC       ??MT_AfIncomingMsg_9
   \   00019D   05..         INC       ?V3
    763          
    764            /* Timestamp */
    765            osal_buffer_uint32( pTmp, pMsg->timestamp );
   \                     ??MT_AfIncomingMsg_9:
   \   00019F                ; Setup parameters for call to function osal_buffer_uint32
   \   00019F   12....       LCALL     ?Subroutine37 & 0xFFFF
   \                     ??CrossCallReturnLabel_69:
   \   0001A2   12....       LCALL     ?PUSH_XSTACK8_X_FOUR
   \   0001A5   AA..         MOV       R2,?V2
   \   0001A7   AB..         MOV       R3,?V3
   \   0001A9   12....       LCALL     `??osal_buffer_uint32::?relay`; Banked call to: osal_buffer_uint32
   \   0001AC   7404         MOV       A,#0x4
   \   0001AE   12....       LCALL     ?DEALLOC_XSTACK8
    766            pTmp += 4;
    767          
    768            /* Data Length */
    769            if (cmd == MT_AF_INCOMING_MSG_EXT)
   \   0001B1   7482         MOV       A,#-0x7e
   \   0001B3   65..         XRL       A,?V7
   \   0001B5   7023         JNZ       ??MT_AfIncomingMsg_10
    770            {
    771              /* Z-Tool apparently takes the last Byte before the data buffer as the dynamic length and
    772               * ignores the bigger UInt16 length of an EXT incoming message. But no data bytes will be sent
    773               * with a huge message, so it's necessary to work-around and fake-out Z-Tool with a zero here.
    774               */
    775              *pTmp++ = 0;  // TODO - workaround Z-Tool shortcoming; should be: = pMsg->cmd.TransSeqNumber;
   \   0001B7   85..82       MOV       DPL,?V2
   \   0001BA   85..83       MOV       DPH,?V3
   \   0001BD   A3           INC       DPTR
   \   0001BE   A3           INC       DPTR
   \   0001BF   A3           INC       DPTR
   \   0001C0   A3           INC       DPTR
   \   0001C1   E4           CLR       A
   \   0001C2   12....       LCALL     ?Subroutine23 & 0xFFFF
    776              *pTmp++ = LO_UINT16(dataLen);
    777              *pTmp++ = HI_UINT16(dataLen);
   \                     ??CrossCallReturnLabel_37:
   \   0001C5   85..82       MOV       DPL,?V2
   \   0001C8   85..83       MOV       DPH,?V3
   \   0001CB   A3           INC       DPTR
   \   0001CC   A3           INC       DPTR
   \   0001CD   A3           INC       DPTR
   \   0001CE   A3           INC       DPTR
   \   0001CF   A3           INC       DPTR
   \   0001D0   A3           INC       DPTR
   \   0001D1   E5..         MOV       A,?V1
   \   0001D3   F0           MOVX      @DPTR,A
   \   0001D4   E5..         MOV       A,?V2
   \   0001D6   2407         ADD       A,#0x7
   \   0001D8   800E         SJMP      ??MT_AfIncomingMsg_11
    778            }
    779            else
    780            {
    781              *pTmp++ = pMsg->cmd.TransSeqNumber;
   \                     ??MT_AfIncomingMsg_10:
   \   0001DA   E5..         MOV       A,?V8
   \   0001DC   241F         ADD       A,#0x1f
   \   0001DE   12....       LCALL     ?Subroutine13 & 0xFFFF
    782              *pTmp++ = dataLen;
    783            }
   \                     ??CrossCallReturnLabel_21:
   \   0001E1   12....       LCALL     ?Subroutine23 & 0xFFFF
   \                     ??CrossCallReturnLabel_38:
   \   0001E4   E5..         MOV       A,?V2
   \   0001E6   2406         ADD       A,#0x6
   \                     ??MT_AfIncomingMsg_11:
   \   0001E8   F5..         MOV       ?V2,A
   \   0001EA   5002         JNC       ??MT_AfIncomingMsg_12
   \   0001EC   05..         INC       ?V3
    784          
    785            /* Data */
    786            if (pItem != NULL)
   \                     ??MT_AfIncomingMsg_12:
   \   0001EE   E5..         MOV       A,?V10
   \   0001F0   45..         ORL       A,?V11
   \   0001F2   606C         JZ        ??MT_AfIncomingMsg_13
    787            {
    788              // Enqueue the new huge incoming item.
    789              pItem->next = pMtAfInMsgList;
   \   0001F4   12....       LCALL     ?Subroutine20 & 0xFFFF
   \                     ??CrossCallReturnLabel_130:
   \   0001F7   85..82       MOV       DPL,?V10
   \   0001FA   85..83       MOV       DPH,?V11
   \   0001FD   E8           MOV       A,R0
   \   0001FE   F0           MOVX      @DPTR,A
   \   0001FF   A3           INC       DPTR
   \   000200   E9           MOV       A,R1
   \   000201   F0           MOVX      @DPTR,A
    790              pMtAfInMsgList = pItem;
   \   000202   90....       MOV       DPTR,#pMtAfInMsgList
   \   000205   E5..         MOV       A,?V10
   \   000207   F0           MOVX      @DPTR,A
   \   000208   A3           INC       DPTR
   \   000209   E5..         MOV       A,?V11
   \   00020B   F0           MOVX      @DPTR,A
    791          
    792              // Setup to time-out the huge incoming item if host does not MT_AF_DATA_RETRIEVE it.
    793              pItem->tick = MT_AF_EXEC_CNT;
   \   00020C   85..82       MOV       DPL,?V10
   \   00020F   F583         MOV       DPH,A
   \   000211   A3           INC       DPTR
   \   000212   A3           INC       DPTR
   \   000213   A3           INC       DPTR
   \   000214   A3           INC       DPTR
   \   000215   A3           INC       DPTR
   \   000216   A3           INC       DPTR
   \   000217   A3           INC       DPTR
   \   000218   A3           INC       DPTR
   \   000219   740F         MOV       A,#0xf
   \   00021B   F0           MOVX      @DPTR,A
    794              if (ZSuccess != osal_start_timerEx(MT_TaskID, MT_AF_EXEC_EVT, MT_AF_EXEC_DLY))
   \   00021C                ; Setup parameters for call to function osal_start_timerEx
   \   00021C   90....       MOV       DPTR,#__Constant_3e8
   \   00021F   12....       LCALL     ?PUSH_XSTACK8_X_FOUR
   \   000222   12....       LCALL     ?Subroutine11 & 0xFFFF
   \                     ??CrossCallReturnLabel_17:
   \   000225   12....       LCALL     ?DEALLOC_XSTACK8
   \   000228   E9           MOV       A,R1
   \   000229   6003         JZ        ??CrossCallReturnLabel_34
    795              {
    796                (void)osal_set_event(MT_TaskID, MT_AF_EXEC_EVT);
   \   00022B                ; Setup parameters for call to function osal_set_event
   \   00022B   12....       LCALL     ?Subroutine21 & 0xFFFF
    797              }
    798          
    799              pItem->timestamp = pMsg->timestamp;
   \                     ??CrossCallReturnLabel_34:
   \   00022E   12....       LCALL     ?Subroutine37 & 0xFFFF
   \                     ??CrossCallReturnLabel_70:
   \   000231   12....       LCALL     ?XLOAD_R0123
   \   000234   85..82       MOV       DPL,?V10
   \   000237   85..83       MOV       DPH,?V11
   \   00023A   A3           INC       DPTR
   \   00023B   A3           INC       DPTR
   \   00023C   A3           INC       DPTR
   \   00023D   A3           INC       DPTR
   \   00023E   12....       LCALL     ?XSTORE_R0123
    800              (void)osal_memcpy(pItem->data, pMsg->cmd.Data, dataLen);
   \   000241                ; Setup parameters for call to function osal_memcpy
   \   000241   12....       LCALL     ?Subroutine10 & 0xFFFF
    801            }
   \                     ??CrossCallReturnLabel_13:
   \   000244   12....       LCALL     ?PUSH_XSTACK_I_THREE
   \   000247   AC..         MOV       R4,?V0
   \   000249   AD..         MOV       R5,?V1
   \   00024B   85..82       MOV       DPL,?V10
   \   00024E   85..83       MOV       DPH,?V11
   \   000251   A3           INC       DPTR
   \   000252   A3           INC       DPTR
   \   000253   E0           MOVX      A,@DPTR
   \   000254   FA           MOV       R2,A
   \   000255   A3           INC       DPTR
   \   000256   E0           MOVX      A,@DPTR
   \   000257   FB           MOV       R3,A
   \   000258   12....       LCALL     ??Subroutine56_0 & 0xFFFF
   \                     ??CrossCallReturnLabel_124:
   \   00025B   12....       LCALL     ?DEALLOC_XSTACK8
   \   00025E   801C         SJMP      ??MT_AfIncomingMsg_14
    802            else
    803            {
    804              (void)osal_memcpy(pTmp, pMsg->cmd.Data, dataLen);
   \                     ??MT_AfIncomingMsg_13:
   \   000260                ; Setup parameters for call to function osal_memcpy
   \   000260   12....       LCALL     ?Subroutine10 & 0xFFFF
   \                     ??CrossCallReturnLabel_14:
   \   000263   12....       LCALL     ?PUSH_XSTACK_I_THREE
   \   000266   AC..         MOV       R4,?V0
   \   000268   AD..         MOV       R5,?V1
   \   00026A   12....       LCALL     ?Subroutine32 & 0xFFFF
   \                     ??CrossCallReturnLabel_121:
   \   00026D   12....       LCALL     ?DEALLOC_XSTACK8
    805              pTmp += dataLen;
   \   000270   E5..         MOV       A,?V2
   \   000272   25..         ADD       A,?V0
   \   000274   F5..         MOV       ?V2,A
   \   000276   E5..         MOV       A,?V3
   \   000278   35..         ADDC      A,?V1
   \   00027A   F5..         MOV       ?V3,A
    806            }
    807          
    808            // MAC Source address
    809            *pTmp++ = LO_UINT16(pMsg->macSrcAddr);
   \                     ??MT_AfIncomingMsg_14:
   \   00027C   E5..         MOV       A,?V8
   \   00027E   2424         ADD       A,#0x24
   \   000280   12....       LCALL     ?Subroutine2 & 0xFFFF
    810            *pTmp++ = HI_UINT16(pMsg->macSrcAddr);
    811          
    812            // messages result radius
    813            *pTmp = pMsg->radius;
   \                     ??CrossCallReturnLabel_1:
   \   000283   E5..         MOV       A,?V8
   \   000285   2426         ADD       A,#0x26
   \   000287   12....       LCALL     ?Subroutine16 & 0xFFFF
    814          
    815            /* Build and send back the response */
    816            MT_BuildAndSendZToolResponse(((uint8)MT_RPC_CMD_AREQ|(uint8)MT_RPC_SYS_AF), cmd, respLen, pRsp);
   \                     ??CrossCallReturnLabel_27:
   \   00028A                ; Setup parameters for call to function MT_BuildAndSendZToolResponse
   \   00028A   AC..         MOV       R4,?V12
   \   00028C   AD..         MOV       R5,?V13
   \   00028E   EE           MOV       A,R6
   \   00028F   FB           MOV       R3,A
   \   000290   AA..         MOV       R2,?V7
   \   000292   7944         MOV       R1,#0x44
   \   000294   12....       LCALL     `??MT_BuildAndSendZToolResponse::?relay`; Banked call to: MT_BuildAndSendZToolResponse
    817          
    818            (void)osal_mem_free(pRsp);
   \   000297                ; Setup parameters for call to function osal_mem_free
   \   000297   AA..         MOV       R2,?V12
   \   000299   AB..         MOV       R3,?V13
   \   00029B   12....       LCALL     `??osal_mem_free::?relay`; Banked call to: osal_mem_free
    819          }
   \                     ??MT_AfIncomingMsg_3:
   \   00029E   7F0E         MOV       R7,#0xe
   \   0002A0   02....       LJMP      ?BANKED_LEAVE_XDATA

   \                                 In  segment BANKED_CODE, align 1, keep-with-next
   \                     ?Subroutine37:
   \   000000   E5..         MOV       A,?V8
   \   000002   241A         ADD       A,#0x1a
   \   000004   12....       LCALL     ?Subroutine50 & 0xFFFF
   \                     ??CrossCallReturnLabel_99:
   \   000007   22           RET

   \                                 In  segment BANKED_CODE, align 1, keep-with-next
   \                     ?Subroutine50:
   \   000000   F582         MOV       DPL,A
   \   000002   E4           CLR       A
   \   000003   35..         ADDC      A,?V9
   \   000005   F583         MOV       DPH,A
   \   000007   22           RET

   \                                 In  segment BANKED_CODE, align 1, keep-with-next
   \                     ?Subroutine35:
   \   000000   12....       LCALL     ?Subroutine47 & 0xFFFF
   \                     ??CrossCallReturnLabel_91:
   \   000003   22           RET

   \                                 In  segment BANKED_CODE, align 1, keep-with-next
   \                     ?Subroutine47:
   \   000000   F8           MOV       R0,A
   \   000001   E4           CLR       A
   \   000002   35..         ADDC      A,?V9
   \   000004   F9           MOV       R1,A
   \   000005   8882         MOV       DPL,R0
   \   000007   F583         MOV       DPH,A
   \   000009   22           RET

   \                                 In  segment BANKED_CODE, align 1, keep-with-next
   \                     ?Subroutine34:
   \   000000   12....       LCALL     ?Subroutine50 & 0xFFFF
   \                     ??CrossCallReturnLabel_98:
   \   000003   E0           MOVX      A,@DPTR
   \   000004   22           RET

   \                                 In  segment BANKED_CODE, align 1, keep-with-next
   \                     ?Subroutine23:
   \   000000   12....       LCALL     ?Subroutine45 & 0xFFFF
   \                     ??CrossCallReturnLabel_85:
   \   000003   A3           INC       DPTR
   \   000004   A3           INC       DPTR
   \   000005   A3           INC       DPTR
   \   000006   E5..         MOV       A,?V0
   \   000008   F0           MOVX      @DPTR,A
   \   000009   22           RET

   \                                 In  segment BANKED_CODE, align 1, keep-with-next
   \                     ?Subroutine22:
   \   000000   12....       LCALL     ?Subroutine39 & 0xFFFF
   \                     ??CrossCallReturnLabel_114:
   \   000003   22           RET

   \                                 In  segment BANKED_CODE, align 1, keep-with-next
   \                     ?Subroutine39:
   \   000000   12....       LCALL     ?Subroutine50 & 0xFFFF
   \                     ??CrossCallReturnLabel_100:
   \   000003                REQUIRE ??Subroutine54_0
   \   000003                ; // Fall through to label ??Subroutine54_0

   \                                 In  segment BANKED_CODE, align 1, keep-with-next
   \                     ??Subroutine54_0:
   \   000000   12....       LCALL     ?Subroutine48 & 0xFFFF
   \                     ??CrossCallReturnLabel_116:
   \   000003   22           RET

   \                                 In  segment BANKED_CODE, align 1, keep-with-next
   \                     ?Subroutine48:
   \   000000   E0           MOVX      A,@DPTR
   \   000001   85..82       MOV       DPL,?V2
   \   000004   85..83       MOV       DPH,?V3
   \   000007   A3           INC       DPTR
   \   000008   22           RET

   \                                 In  segment BANKED_CODE, align 1, keep-with-next
   \                     ?Subroutine18:
   \   000000   12....       LCALL     ?Subroutine43 & 0xFFFF
   \                     ??CrossCallReturnLabel_80:
   \   000003                REQUIRE ??Subroutine55_0
   \   000003                ; // Fall through to label ??Subroutine55_0

   \                                 In  segment BANKED_CODE, align 1, keep-with-next
   \                     ??Subroutine55_0:
   \   000000   E0           MOVX      A,@DPTR
   \   000001   8A82         MOV       DPL,R2
   \   000003   8B83         MOV       DPH,R3
   \   000005   A3           INC       DPTR
   \   000006   22           RET

   \                                 In  segment BANKED_CODE, align 1, keep-with-next
   \                     ?Subroutine16:
   \   000000   12....       LCALL     ?Subroutine39 & 0xFFFF
   \                     ??CrossCallReturnLabel_113:
   \   000003   A3           INC       DPTR
   \   000004   F0           MOVX      @DPTR,A
   \   000005   22           RET

   \                                 In  segment BANKED_CODE, align 1, keep-with-next
   \                     ?Subroutine15:
   \   000000   12....       LCALL     ?Subroutine40 & 0xFFFF
   \                     ??CrossCallReturnLabel_74:
   \   000003   A3           INC       DPTR
   \   000004   22           RET

   \                                 In  segment BANKED_CODE, align 1, keep-with-next
   \                     ?Subroutine14:
   \   000000   12....       LCALL     ?Subroutine47 & 0xFFFF
   \                     ??CrossCallReturnLabel_90:
   \   000003   12....       LCALL     ?Subroutine40 & 0xFFFF
   \                     ??CrossCallReturnLabel_73:
   \   000006   F0           MOVX      @DPTR,A
   \   000007   22           RET

   \                                 In  segment BANKED_CODE, align 1, keep-with-next
   \                     ?Subroutine40:
   \   000000   E0           MOVX      A,@DPTR
   \   000001   8A82         MOV       DPL,R2
   \   000003   8B83         MOV       DPH,R3
   \   000005   A3           INC       DPTR
   \   000006   A3           INC       DPTR
   \   000007   A3           INC       DPTR
   \   000008   A3           INC       DPTR
   \   000009   22           RET

   \                                 In  segment BANKED_CODE, align 1, keep-with-next
   \                     ?Subroutine13:
   \   000000   12....       LCALL     ?Subroutine50 & 0xFFFF
   \                     ??CrossCallReturnLabel_97:
   \   000003   12....       LCALL     ?Subroutine38 & 0xFFFF
   \                     ??CrossCallReturnLabel_72:
   \   000006   22           RET

   \                                 In  segment BANKED_CODE, align 1, keep-with-next
   \                     ?Subroutine38:
   \   000000   12....       LCALL     ?Subroutine48 & 0xFFFF
   \                     ??CrossCallReturnLabel_115:
   \   000003   A3           INC       DPTR
   \   000004   A3           INC       DPTR
   \   000005   A3           INC       DPTR
   \   000006   22           RET

   \                                 In  segment BANKED_CODE, align 1, keep-with-next
   \                     ?Subroutine10:
   \   000000   E5..         MOV       A,?V8
   \   000002   2422         ADD       A,#0x22
   \   000004   12....       LCALL     ?Subroutine50 & 0xFFFF
   \                     ??CrossCallReturnLabel_96:
   \   000007   E0           MOVX      A,@DPTR
   \   000008   F5..         MOV       ?V4,A
   \   00000A   A3           INC       DPTR
   \   00000B   E0           MOVX      A,@DPTR
   \   00000C   F5..         MOV       ?V5,A
   \   00000E   75..00       MOV       ?V6,#0x0
   \   000011   78..         MOV       R0,#?V4
   \   000013   22           RET

   \                                 In  segment BANKED_CODE, align 1, keep-with-next
   \                     ?Subroutine4:
   \   000000   12....       LCALL     ?Subroutine38 & 0xFFFF
   \                     ??CrossCallReturnLabel_71:
   \   000003   A3           INC       DPTR
   \   000004   A3           INC       DPTR
   \   000005   A3           INC       DPTR
   \   000006   A3           INC       DPTR
   \   000007   A3           INC       DPTR
   \   000008   22           RET

   \                                 In  segment BANKED_CODE, align 1, keep-with-next
   \                     ?Subroutine2:
   \   000000   12....       LCALL     ?Subroutine47 & 0xFFFF
   \                     ??CrossCallReturnLabel_89:
   \   000003   E0           MOVX      A,@DPTR
   \   000004   85..82       MOV       DPL,?V2
   \   000007   85..83       MOV       DPH,?V3
   \   00000A   12....       LCALL     ?Subroutine43 & 0xFFFF
   \                     ??CrossCallReturnLabel_81:
   \   00000D   12....       LCALL     ??Subroutine54_0 & 0xFFFF
   \                     ??CrossCallReturnLabel_112:
   \   000010   F0           MOVX      @DPTR,A
   \   000011   22           RET

   \                                 In  segment BANKED_CODE, align 1, keep-with-next
   \                     ?Subroutine45:
   \   000000   F0           MOVX      @DPTR,A
   \   000001                ; Setup parameters for call to function osal_memcpy
   \   000001   85..82       MOV       DPL,?V2
   \   000004   85..83       MOV       DPH,?V3
   \   000007   A3           INC       DPTR
   \   000008   A3           INC       DPTR
   \   000009   22           RET

   \                                 In  segment BANKED_CODE, align 1, keep-with-next
   \                     ?Subroutine32:
   \   000000   AA..         MOV       R2,?V2
   \   000002   AB..         MOV       R3,?V3
   \   000004                REQUIRE ??Subroutine56_0
   \   000004                ; // Fall through to label ??Subroutine56_0
    820          
    821          /**************************************************************************************************
    822           * @fn          MT_AfDataRetrieve
    823           *
    824           * @brief   Process AF Data Retrieve command to incrementally read out a very large
    825           *          incoming AF message.
    826           *
    827           * input parameters
    828           *
    829           * @param pBuf - pointer to the received buffer
    830           *
    831           * output parameters
    832           *
    833           * @param rtrn - AF-Status of the operation.
    834           *
    835           * @return      None.
    836           **************************************************************************************************
    837           */

   \                                 In  segment BANKED_CODE, align 1, keep-with-next
    838          static void MT_AfDataRetrieve(uint8 *pBuf)
   \                     MT_AfDataRetrieve:
    839          {
   \   000000                REQUIRE ?V0
   \   000000                REQUIRE ?V1
   \   000000                REQUIRE ?V2
   \   000000                REQUIRE ?V3
   \   000000                REQUIRE ?V4
   \   000000                REQUIRE ?V5
   \   000000                REQUIRE ?V6
   \   000000                REQUIRE ?V7
   \   000000                REQUIRE ?V8
   \   000000                REQUIRE ?V9
   \   000000                REQUIRE ?V10
   \   000000   74ED         MOV       A,#-0x13
   \   000002   12....       LCALL     ?BANKED_ENTER_XDATA
   \   000005                ; Saved register size: 19
   \   000005                ; Auto size: 0
   \   000005   EB           MOV       A,R3
   \   000006   FF           MOV       R7,A
    840            #define MT_AF_RTV_HDR_SZ  2
    841          
    842            uint32 timestamp;
    843            mtAfInMsgList_t *pPrev, *pItem = pMtAfInMsgList;
   \   000007   90....       MOV       DPTR,#pMtAfInMsgList
   \   00000A   E0           MOVX      A,@DPTR
   \   00000B   F5..         MOV       ?V2,A
   \   00000D   A3           INC       DPTR
   \   00000E   E0           MOVX      A,@DPTR
   \   00000F   F5..         MOV       ?V3,A
    844            uint8 rtrn = afStatus_FAILED;
   \   000011   75..01       MOV       ?V1,#0x1
    845            uint8 len = 0;
   \   000014   75..00       MOV       ?V0,#0x0
    846          
    847            pBuf += MT_RPC_FRAME_HDR_SZ;
   \   000017   EA           MOV       A,R2
   \   000018   2403         ADD       A,#0x3
   \   00001A   FE           MOV       R6,A
   \   00001B   5001         JNC       ??MT_AfDataRetrieve_0
   \   00001D   0F           INC       R7
    848            timestamp = osal_build_uint32( pBuf, 4 );
   \                     ??MT_AfDataRetrieve_0:
   \   00001E                ; Setup parameters for call to function osal_build_uint32
   \   00001E   7904         MOV       R1,#0x4
   \   000020   FA           MOV       R2,A
   \   000021   EF           MOV       A,R7
   \   000022   FB           MOV       R3,A
   \   000023   12....       LCALL     `??osal_build_uint32::?relay`; Banked call to: osal_build_uint32
   \   000026   8A..         MOV       ?V4,R2
   \   000028   8B..         MOV       ?V5,R3
   \   00002A   8C..         MOV       ?V6,R4
   \   00002C   8D..         MOV       ?V7,R5
   \   00002E   800D         SJMP      ??MT_AfDataRetrieve_1
    849          
    850            while (pItem != NULL)
    851            {
    852              pPrev = pItem;
    853              if (pItem->timestamp == timestamp)
    854              {
    855                break;
    856              }
    857              pItem = pItem->next;
   \                     ??MT_AfDataRetrieve_2:
   \   000030   85..82       MOV       DPL,?V2
   \   000033   85..83       MOV       DPH,?V3
   \   000036   E0           MOVX      A,@DPTR
   \   000037   F5..         MOV       ?V2,A
   \   000039   A3           INC       DPTR
   \   00003A   E0           MOVX      A,@DPTR
   \   00003B   F5..         MOV       ?V3,A
   \                     ??MT_AfDataRetrieve_1:
   \   00003D   E5..         MOV       A,?V2
   \   00003F   45..         ORL       A,?V3
   \   000041   6063         JZ        ??MT_AfDataRetrieve_3
   \   000043   85....       MOV       ?V8,?V2
   \   000046   85....       MOV       ?V9,?V3
   \   000049   85..82       MOV       DPL,?V2
   \   00004C   85..83       MOV       DPH,?V3
   \   00004F   A3           INC       DPTR
   \   000050   A3           INC       DPTR
   \   000051   A3           INC       DPTR
   \   000052   A3           INC       DPTR
   \   000053   78..         MOV       R0,#?V4
   \   000055   12....       LCALL     ?L_EQ_X
   \   000058   70D6         JNZ       ??MT_AfDataRetrieve_2
    858            }
    859          
    860            if (pItem != NULL)
    861            {
    862              uint16 idx;
    863              uint8 *pRsp;
    864          
    865              pBuf += 4;
   \   00005A   EE           MOV       A,R6
   \   00005B   2404         ADD       A,#0x4
   \   00005D   FE           MOV       R6,A
   \   00005E   5001         JNC       ??MT_AfDataRetrieve_4
   \   000060   0F           INC       R7
    866              idx = osal_build_uint16( pBuf );
   \                     ??MT_AfDataRetrieve_4:
   \   000061                ; Setup parameters for call to function osal_build_uint16
   \   000061   FA           MOV       R2,A
   \   000062   EF           MOV       A,R7
   \   000063   FB           MOV       R3,A
   \   000064   12....       LCALL     `??osal_build_uint16::?relay`; Banked call to: osal_build_uint16
   \   000067   8A..         MOV       ?V6,R2
   \   000069   8B..         MOV       ?V7,R3
    867              len = pBuf[2];
   \   00006B   8E82         MOV       DPL,R6
   \   00006D   8F83         MOV       DPH,R7
   \   00006F   A3           INC       DPTR
   \   000070   A3           INC       DPTR
   \   000071   E0           MOVX      A,@DPTR
   \   000072   F5..         MOV       ?V0,A
    868          
    869              if (len == 0)  // Indication to delete the afIncomingMSGPacket.
   \   000074   704D         JNZ       ??MT_AfDataRetrieve_5
    870              {
    871                if (pMtAfInMsgList == pItem)
   \   000076   12....       LCALL     ?Subroutine20 & 0xFFFF
   \                     ??CrossCallReturnLabel_131:
   \   000079   E5..         MOV       A,?V2
   \   00007B   68           XRL       A,R0
   \   00007C   7003         JNZ       ??MT_AfDataRetrieve_6
   \   00007E   E5..         MOV       A,?V3
   \   000080   69           XRL       A,R1
   \                     ??MT_AfDataRetrieve_6:
   \   000081   85..82       MOV       DPL,?V2
   \   000084   85..83       MOV       DPH,?V3
   \   000087   7005         JNZ       ??MT_AfDataRetrieve_7
    872                {
    873                  pMtAfInMsgList = pItem->next;
   \   000089   12....       LCALL     ?Subroutine19 & 0xFFFF
    874                }
   \                     ??CrossCallReturnLabel_31:
   \   00008C   8009         SJMP      ??MT_AfDataRetrieve_8
    875                else
    876                {
    877                  pPrev->next = pItem->next;
   \                     ??MT_AfDataRetrieve_7:
   \   00008E   12....       LCALL     ??Subroutine57_0 & 0xFFFF
    878                }
   \                     ??CrossCallReturnLabel_128:
   \   000091   85..82       MOV       DPL,?V8
   \   000094   85..83       MOV       DPH,?V9
   \                     ??MT_AfDataRetrieve_8:
   \   000097   E8           MOV       A,R0
   \   000098   F0           MOVX      @DPTR,A
   \   000099   A3           INC       DPTR
   \   00009A   E9           MOV       A,R1
   \   00009B   F0           MOVX      @DPTR,A
    879                (void)osal_mem_free(pItem);
   \   00009C                ; Setup parameters for call to function osal_mem_free
   \   00009C   AA..         MOV       R2,?V2
   \   00009E   AB..         MOV       R3,?V3
   \   0000A0   12....       LCALL     `??osal_mem_free::?relay`; Banked call to: osal_mem_free
    880                rtrn = afStatus_SUCCESS;
   \   0000A3   75..00       MOV       ?V1,#0x0
    881              }
    882              else if ((pRsp = osal_mem_alloc(len + MT_AF_RTV_HDR_SZ)) == NULL)
    883              {
    884                rtrn = afStatus_MEM_FAIL;
    885                len = 0;
    886              }
    887              else
    888              {
    889                pRsp[0] = ZSuccess;
    890                pRsp[1] = len;
    891                (void)osal_memcpy(pRsp + MT_AF_RTV_HDR_SZ, pItem->data+idx, len);
    892                MT_BuildAndSendZToolResponse(((uint8)MT_RPC_CMD_SRSP | (uint8)MT_RPC_SYS_AF),
    893                                                     MT_AF_DATA_RETRIEVE, len + MT_AF_RTV_HDR_SZ, pRsp);
    894                (void)osal_mem_free(pRsp);
    895                return;
    896              }
    897            }
    898          
    899            pBuf[0] = rtrn;
   \                     ??MT_AfDataRetrieve_3:
   \   0000A6   8E82         MOV       DPL,R6
   \   0000A8   8F83         MOV       DPH,R7
   \   0000AA   E5..         MOV       A,?V1
   \   0000AC   F0           MOVX      @DPTR,A
    900            pBuf[1] = len;
   \   0000AD   A3           INC       DPTR
   \   0000AE   E5..         MOV       A,?V0
   \   0000B0   F0           MOVX      @DPTR,A
    901            MT_BuildAndSendZToolResponse(((uint8)MT_RPC_CMD_SRSP | (uint8)MT_RPC_SYS_AF),
    902                                                 MT_AF_DATA_RETRIEVE, MT_AF_RTV_HDR_SZ, pBuf);
   \   0000B1                ; Setup parameters for call to function MT_BuildAndSendZToolResponse
   \   0000B1   EE           MOV       A,R6
   \   0000B2   FC           MOV       R4,A
   \   0000B3   EF           MOV       A,R7
   \   0000B4   FD           MOV       R5,A
   \   0000B5   7B02         MOV       R3,#0x2
   \   0000B7   7A12         MOV       R2,#0x12
   \   0000B9   7964         MOV       R1,#0x64
   \   0000BB   12....       LCALL     `??MT_BuildAndSendZToolResponse::?relay`; Banked call to: MT_BuildAndSendZToolResponse
    903          }
   \                     ??MT_AfDataRetrieve_9:
   \   0000BE   7F0B         MOV       R7,#0xb
   \   0000C0   02....       LJMP      ?BANKED_LEAVE_XDATA
   \                     ??MT_AfDataRetrieve_5:
   \   0000C3                ; Setup parameters for call to function osal_mem_alloc
   \   0000C3   2402         ADD       A,#0x2
   \   0000C5   FA           MOV       R2,A
   \   0000C6   E4           CLR       A
   \   0000C7   3400         ADDC      A,#0x0
   \   0000C9   FB           MOV       R3,A
   \   0000CA   12....       LCALL     `??osal_mem_alloc::?relay`; Banked call to: osal_mem_alloc
   \   0000CD   8A..         MOV       ?V4,R2
   \   0000CF   8B..         MOV       ?V5,R3
   \   0000D1   EA           MOV       A,R2
   \   0000D2   4B           ORL       A,R3
   \   0000D3   7008         JNZ       ??MT_AfDataRetrieve_10
   \   0000D5   75..10       MOV       ?V1,#0x10
   \   0000D8   75..00       MOV       ?V0,#0x0
   \   0000DB   80C9         SJMP      ??MT_AfDataRetrieve_3
   \                     ??MT_AfDataRetrieve_10:
   \   0000DD   8A82         MOV       DPL,R2
   \   0000DF   8B83         MOV       DPH,R3
   \   0000E1   E4           CLR       A
   \   0000E2   F0           MOVX      @DPTR,A
   \   0000E3   A3           INC       DPTR
   \   0000E4   E5..         MOV       A,?V0
   \   0000E6   12....       LCALL     ?Subroutine45 & 0xFFFF
   \                     ??CrossCallReturnLabel_86:
   \   0000E9   E0           MOVX      A,@DPTR
   \   0000EA   25..         ADD       A,?V6
   \   0000EC   F5..         MOV       ?V8,A
   \   0000EE   A3           INC       DPTR
   \   0000EF   E0           MOVX      A,@DPTR
   \   0000F0   35..         ADDC      A,?V7
   \   0000F2   F5..         MOV       ?V9,A
   \   0000F4   75..00       MOV       ?V10,#0x0
   \   0000F7   78..         MOV       R0,#?V8
   \   0000F9   12....       LCALL     ?PUSH_XSTACK_I_THREE
   \   0000FC   AC..         MOV       R4,?V0
   \   0000FE   7D00         MOV       R5,#0x0
   \   000100   EA           MOV       A,R2
   \   000101   2402         ADD       A,#0x2
   \   000103   FA           MOV       R2,A
   \   000104   E4           CLR       A
   \   000105   35..         ADDC      A,?V5
   \   000107   FB           MOV       R3,A
   \   000108   12....       LCALL     ??Subroutine56_0 & 0xFFFF
   \                     ??CrossCallReturnLabel_125:
   \   00010B   12....       LCALL     ?DEALLOC_XSTACK8
   \   00010E                ; Setup parameters for call to function MT_BuildAndSendZToolResponse
   \   00010E   AC..         MOV       R4,?V4
   \   000110   AD..         MOV       R5,?V5
   \   000112   7402         MOV       A,#0x2
   \   000114   25..         ADD       A,?V0
   \   000116   FB           MOV       R3,A
   \   000117   7A12         MOV       R2,#0x12
   \   000119   7964         MOV       R1,#0x64
   \   00011B   12....       LCALL     `??MT_BuildAndSendZToolResponse::?relay`; Banked call to: MT_BuildAndSendZToolResponse
   \   00011E                ; Setup parameters for call to function osal_mem_free
   \   00011E   AA..         MOV       R2,?V4
   \   000120   AB..         MOV       R3,?V5
   \   000122   12....       LCALL     `??osal_mem_free::?relay`; Banked call to: osal_mem_free
   \   000125   8097         SJMP      ??MT_AfDataRetrieve_9
    904          
    905          /**************************************************************************************************
    906           * @fn          MT_AfDataStore
    907           *
    908           * @brief   Process AF Data Store command to incrementally store the data buffer for very large
    909           *          outgoing AF message.
    910           *
    911           * input parameters
    912           *
    913           * @param pBuf - pointer to the received buffer
    914           *
    915           * output parameters
    916           *
    917           * @param rtrn - AF-Status of the operation.
    918           *
    919           * @return      None.
    920           **************************************************************************************************
    921           */

   \                                 In  segment BANKED_CODE, align 1, keep-with-next
    922          static void MT_AfDataStore(uint8 *pBuf)
   \                     MT_AfDataStore:
    923          {
   \   000000                REQUIRE ?V0
   \   000000                REQUIRE ?V1
   \   000000                REQUIRE ?V2
   \   000000                REQUIRE ?V4
   \   000000                REQUIRE ?V5
   \   000000   74F2         MOV       A,#-0xe
   \   000002   12....       LCALL     ?BANKED_ENTER_XDATA
   \   000005                ; Saved register size: 14
   \   000005                ; Auto size: 1
   \   000005   74FF         MOV       A,#-0x1
   \   000007   12....       LCALL     ?ALLOC_XSTACK8
   \   00000A   EB           MOV       A,R3
   \   00000B   FF           MOV       R7,A
    924            uint16 idx;
    925            uint8 len, rtrn = afStatus_FAILED;
   \   00000C   85..82       MOV       DPL,?XSP + 0
   \   00000F   85..83       MOV       DPH,?XSP + 1
   \   000012   7401         MOV       A,#0x1
   \   000014   F0           MOVX      @DPTR,A
    926          
    927            pBuf += MT_RPC_FRAME_HDR_SZ;
   \   000015   EA           MOV       A,R2
   \   000016   2403         ADD       A,#0x3
   \   000018   FE           MOV       R6,A
   \   000019   5001         JNC       ??MT_AfDataStore_0
   \   00001B   0F           INC       R7
    928            idx = osal_build_uint16( pBuf );
   \                     ??MT_AfDataStore_0:
   \   00001C                ; Setup parameters for call to function osal_build_uint16
   \   00001C   12....       LCALL     ?Subroutine33 & 0xFFFF
    929            len = pBuf[2];
   \                     ??CrossCallReturnLabel_58:
   \   00001F   FA           MOV       R2,A
    930            pBuf += 3;
   \   000020   EE           MOV       A,R6
   \   000021   2403         ADD       A,#0x3
   \   000023   FE           MOV       R6,A
   \   000024   5001         JNC       ??MT_AfDataStore_1
   \   000026   0F           INC       R7
    931          
    932            if (pMtAfDataReq == NULL)
   \                     ??MT_AfDataStore_1:
   \   000027   12....       LCALL     ?Subroutine3 & 0xFFFF
   \                     ??CrossCallReturnLabel_111:
   \   00002A   700B         JNZ       ??MT_AfDataStore_2
    933            {
    934              rtrn = afStatus_MEM_FAIL;
   \   00002C   85..82       MOV       DPL,?XSP + 0
   \   00002F   85..83       MOV       DPH,?XSP + 1
   \   000032   7410         MOV       A,#0x10
   \   000034   02....       LJMP      ??MT_AfDataStore_3 & 0xFFFF
    935            }
    936            else if (len == 0)  // Indication to send the message.
   \                     ??MT_AfDataStore_2:
   \   000037   EA           MOV       A,R2
   \   000038   7078         JNZ       ??MT_AfDataStore_4
    937            {
    938              rtrn = AF_DataRequest(&(pMtAfDataReq->dstAddr), pMtAfDataReq->epDesc, pMtAfDataReq->cId,
    939                                      pMtAfDataReq->dataLen,  pMtAfDataReq->data,
    940                                    &(pMtAfDataReq->transId), pMtAfDataReq->txOpts, pMtAfDataReq->radius);
   \   00003A                ; Setup parameters for call to function AF_DataRequest
   \   00003A   E8           MOV       A,R0
   \   00003B   2416         ADD       A,#0x16
   \   00003D   F582         MOV       DPL,A
   \   00003F   E4           CLR       A
   \   000040   39           ADDC      A,R1
   \   000041   F583         MOV       DPH,A
   \   000043   E0           MOVX      A,@DPTR
   \   000044   F5..         MOV       ?V0,A
   \   000046   78..         MOV       R0,#?V0
   \   000048   12....       LCALL     ?PUSH_XSTACK_I_ONE
   \   00004B   90....       MOV       DPTR,#pMtAfDataReq
   \   00004E   E0           MOVX      A,@DPTR
   \   00004F   2414         ADD       A,#0x14
   \   000051   F5..         MOV       ?V0,A
   \   000053   A3           INC       DPTR
   \   000054   E0           MOVX      A,@DPTR
   \   000055   3400         ADDC      A,#0x0
   \   000057   F5..         MOV       ?V1,A
   \   000059   78..         MOV       R0,#?V0
   \   00005B   12....       LCALL     ?PUSH_XSTACK_I_TWO
   \   00005E   12....       LCALL     ?Subroutine8 & 0xFFFF
   \                     ??CrossCallReturnLabel_11:
   \   000061   12....       LCALL     ?PUSH_XSTACK8_X_TWO
   \   000064   E8           MOV       A,R0
   \   000065   2412         ADD       A,#0x12
   \   000067   F582         MOV       DPL,A
   \   000069   E4           CLR       A
   \   00006A   39           ADDC      A,R1
   \   00006B   F583         MOV       DPH,A
   \   00006D   12....       LCALL     ?PUSH_XSTACK8_X_TWO
   \   000070   90....       MOV       DPTR,#pMtAfDataReq
   \   000073   E0           MOVX      A,@DPTR
   \   000074   2410         ADD       A,#0x10
   \   000076   F582         MOV       DPL,A
   \   000078   E4           CLR       A
   \   000079   39           ADDC      A,R1
   \   00007A   F583         MOV       DPH,A
   \   00007C   12....       LCALL     ?PUSH_XSTACK8_X_TWO
   \   00007F   90....       MOV       DPTR,#pMtAfDataReq
   \   000082   E0           MOVX      A,@DPTR
   \   000083   2415         ADD       A,#0x15
   \   000085   F582         MOV       DPL,A
   \   000087   E4           CLR       A
   \   000088   39           ADDC      A,R1
   \   000089   F583         MOV       DPH,A
   \   00008B   E0           MOVX      A,@DPTR
   \   00008C   F9           MOV       R1,A
   \   00008D   90....       MOV       DPTR,#pMtAfDataReq + 1
   \   000090   E0           MOVX      A,@DPTR
   \   000091   C8           XCH       A,R0
   \   000092   12....       LCALL     ?Subroutine36 & 0xFFFF
   \                     ??CrossCallReturnLabel_68:
   \   000095   E0           MOVX      A,@DPTR
   \   000096   FC           MOV       R4,A
   \   000097   A3           INC       DPTR
   \   000098   E0           MOVX      A,@DPTR
   \   000099   FD           MOV       R5,A
   \   00009A   12....       LCALL     ?Subroutine17 & 0xFFFF
   \                     ??CrossCallReturnLabel_29:
   \   00009D   12....       LCALL     `??AF_DataRequest::?relay`; Banked call to: AF_DataRequest
   \   0000A0   7409         MOV       A,#0x9
   \   0000A2   12....       LCALL     ?DEALLOC_XSTACK8
   \   0000A5   E9           MOV       A,R1
   \   0000A6   85..82       MOV       DPL,?XSP + 0
   \   0000A9   85..83       MOV       DPH,?XSP + 1
   \   0000AC   F0           MOVX      @DPTR,A
    941              (void)osal_mem_free(pMtAfDataReq);
   \   0000AD                ; Setup parameters for call to function osal_mem_free
   \   0000AD   12....       LCALL     ?Subroutine6 & 0xFFFF
    942              pMtAfDataReq = NULL;
    943            }
   \                     ??CrossCallReturnLabel_7:
   \   0000B0   8029         SJMP      ??MT_AfDataStore_3
    944            else
    945            {
    946              (void)osal_memcpy(pMtAfDataReq->data+idx, pBuf, len);
   \                     ??MT_AfDataStore_4:
   \   0000B2                ; Setup parameters for call to function osal_memcpy
   \   0000B2   8E..         MOV       ?V0,R6
   \   0000B4   8F..         MOV       ?V1,R7
   \   0000B6   75..00       MOV       ?V2,#0x0
   \   0000B9   78..         MOV       R0,#?V0
   \   0000BB   12....       LCALL     ?PUSH_XSTACK_I_THREE
   \   0000BE   EA           MOV       A,R2
   \   0000BF   FC           MOV       R4,A
   \   0000C0   7D00         MOV       R5,#0x0
   \   0000C2   12....       LCALL     ?Subroutine8 & 0xFFFF
   \                     ??CrossCallReturnLabel_12:
   \   0000C5   E0           MOVX      A,@DPTR
   \   0000C6   25..         ADD       A,?V4
   \   0000C8   FA           MOV       R2,A
   \   0000C9   A3           INC       DPTR
   \   0000CA   E0           MOVX      A,@DPTR
   \   0000CB   35..         ADDC      A,?V5
   \   0000CD   FB           MOV       R3,A
   \   0000CE   12....       LCALL     ??Subroutine56_0 & 0xFFFF
   \                     ??CrossCallReturnLabel_126:
   \   0000D1   12....       LCALL     ?DEALLOC_XSTACK8
    947              rtrn = afStatus_SUCCESS;
   \   0000D4   85..82       MOV       DPL,?XSP + 0
   \   0000D7   85..83       MOV       DPH,?XSP + 1
   \   0000DA   E4           CLR       A
    948            }
   \                     ??MT_AfDataStore_3:
   \   0000DB   12....       LCALL     ?Subroutine27 & 0xFFFF
    949          
    950            MT_BuildAndSendZToolResponse(((uint8)MT_RPC_CMD_SRSP | (uint8)MT_RPC_SYS_AF),
    951                                                                          MT_AF_DATA_STORE, 1, &rtrn);
   \                     ??CrossCallReturnLabel_48:
   \   0000DE   7B01         MOV       R3,#0x1
   \   0000E0   7A11         MOV       R2,#0x11
   \   0000E2   7964         MOV       R1,#0x64
   \   0000E4   12....       LCALL     `??MT_BuildAndSendZToolResponse::?relay`; Banked call to: MT_BuildAndSendZToolResponse
    952          }
   \   0000E7   7401         MOV       A,#0x1
   \   0000E9   02....       LJMP      ?Subroutine0 & 0xFFFF

   \                                 In  segment BANKED_CODE, align 1, keep-with-next
   \                     ?Subroutine25:
   \   000000   85..82       MOV       DPL,?XSP + 0
   \   000003   85..83       MOV       DPH,?XSP + 1
   \   000006   7410         MOV       A,#0x10
   \   000008   12....       LCALL     ?Subroutine42 & 0xFFFF
   \                     ??CrossCallReturnLabel_75:
   \   00000B   F5..         MOV       ?V1,A
   \   00000D   22           RET

   \                                 In  segment XDATA_ROM_C, align 1
   \                     `?<Constant {0, 0}>`:
   \   000000   00           DB 0
   \   000001   00           DB 0

   \                                 In  segment XDATA_ROM_C, align 1
   \                     __Constant_3e8:
   \   000000   E8030000     DD 1000
    953          
    954          /**************************************************************************************************
    955           * @fn          MT_AfAPSF_ConfigSet
    956           *
    957           * @brief       This function is the MT proxy for afAPSF_ConfigSet().
    958           *
    959           * input parameters
    960           *
    961           * @param       pBuf - Pointer to the received buffer.
    962           *
    963           * output parameters
    964           *
    965           * None.
    966           *
    967           * @return      None.
    968           */
    969          static void MT_AfAPSF_ConfigSet(uint8 *pBuf)
    970          {
    971            afAPSF_Config_t cfg = { pBuf[MT_RPC_POS_DAT0+1], pBuf[MT_RPC_POS_DAT0+2] };
    972            afStatus_t rtrn = afAPSF_ConfigSet(pBuf[MT_RPC_POS_DAT0], &cfg);
    973          
    974            MT_BuildAndSendZToolResponse(((uint8)MT_RPC_CMD_SRSP | (uint8)MT_RPC_SYS_AF),
    975                                                 MT_AF_APSF_CONFIG_SET, 1, (uint8 *)&rtrn);
    976          }
    977          
    978          /**************************************************************************************************
    979           * @fn          MT_AfAPSF_ConfigGet
    980           *
    981           * @brief       This function is the MT proxy for afAPSF_ConfigGet().
    982           *
    983           * input parameters
    984           *
    985           * @param       pBuf - Pointer to the received buffer.
    986           *
    987           * output parameters
    988           *
    989           * None.
    990           *
    991           * @return      None.
    992           */
    993          static void MT_AfAPSF_ConfigGet(uint8 *pBuf)
    994          {
    995            afAPSF_Config_t cfg = { 0, 0 };
    996            uint8 buf[2];
    997          
    998            afAPSF_ConfigGet( pBuf[MT_RPC_POS_DAT0], &cfg );
    999          
   1000            buf[0] = cfg.frameDelay;
   1001            buf[1] = cfg.windowSize;
   1002          
   1003            MT_BuildAndSendZToolResponse(((uint8)MT_RPC_CMD_SRSP | (uint8)MT_RPC_SYS_AF),
   1004                                                 MT_AF_APSF_CONFIG_GET, 3, buf );
   1005          }
   1006          
   1007          /***************************************************************************************************
   1008          ***************************************************************************************************/

   Maximum stack usage in bytes:

   ISTACK XSTACK Function
   ------ ------ --------
      1     20   MT_AfCommandProcessing
        0     20   -> MT_AfDataRequest
        0     20   -> MT_AfDataRequestSrcRtg
        0     20   -> MT_AfDataRetrieve
        0     20   -> MT_AfDataStore
        0     20   -> MT_BuildAndSendZToolResponse
        0     20   -> MT_BuildEndpointDesc
        0     20   -> StubAPS_InterPan
        0     20   -> StubAPS_RegisterApp
        0     20   -> StubAPS_SetInterPanChannel
        0     20   -> StubAPS_SetIntraPanChannel
        0     20   -> afAPSF_ConfigGet
        0     20   -> afAPSF_ConfigSet
        0     20   -> afDelete
        0     20   -> afFindEndPointDesc
        0     20   -> afRegister
        0     20   -> osal_build_uint16
        0     20   -> osal_mem_alloc
        0     20   -> osal_mem_free
      3      3   MT_AfDataConfirm
        2      3   -> MT_BuildAndSendZToolResponse
      1     64   MT_AfDataRequest
        0     44   -> AF_DataRequest
        0     35   -> MT_BuildAndSendZToolResponse
        0     35   -> afFindEndPointDesc
        0     35   -> osal_build_uint16
        0     35   -> osal_mem_alloc
        0     38   -> osal_memcpy
        0     35   -> osal_set_event
        0     39   -> osal_start_timerEx
      1     66   MT_AfDataRequestSrcRtg
        0     46   -> AF_DataRequestSrcRtg
        0     34   -> MT_BuildAndSendZToolResponse
        0     34   -> afFindEndPointDesc
        0     34   -> osal_build_uint16
        0     34   -> osal_mem_alloc
        0     34   -> osal_mem_free
        0     34   -> osal_memset
      1     42   MT_AfDataRetrieve
        0     19   -> MT_BuildAndSendZToolResponse
        0     19   -> osal_build_uint16
        0     19   -> osal_build_uint32
        0     19   -> osal_mem_alloc
        0     19   -> osal_mem_free
        0     22   -> osal_memcpy
      1     44   MT_AfDataStore
        0     24   -> AF_DataRequest
        0     15   -> MT_BuildAndSendZToolResponse
        0     15   -> osal_build_uint16
        0     15   -> osal_mem_free
        0     18   -> osal_memcpy
      0     13   MT_AfExec
        0      9   -> osal_mem_free
        0      9   -> osal_set_event
        0     13   -> osal_start_timerEx
      1     26   MT_AfIncomingMsg
        0     22   -> MT_BuildAndSendZToolResponse
        0     22   -> StubAPS_InterPan
        0     26   -> osal_buffer_uint32
        0     22   -> osal_mem_alloc
        0     22   -> osal_mem_free
        0     25   -> osal_memcpy
        0     22   -> osal_set_event
        0     26   -> osal_start_timerEx
      3      6   MT_AfReflectError
        2      6   -> MT_BuildAndSendZToolResponse


   Segment part sizes:

   Bytes  Function/Label
   -----  --------------
       2  ?<Constant {0, 0}>
       5  ??Subroutine51_0
       5  ??Subroutine52_0
       7  ??Subroutine53_0
       4  ??Subroutine54_0
       7  ??Subroutine55_0
       6  ??Subroutine56_0
       5  ??Subroutine57_0
       8  ?Subroutine0
      10  ?Subroutine1
      20  ?Subroutine10
      15  ?Subroutine11
      15  ?Subroutine12
       7  ?Subroutine13
       8  ?Subroutine14
       5  ?Subroutine15
       6  ?Subroutine16
      13  ?Subroutine17
       3  ?Subroutine18
       8  ?Subroutine19
      18  ?Subroutine2
       3  ?Subroutine20
      13  ?Subroutine21
       4  ?Subroutine22
      10  ?Subroutine23
      10  ?Subroutine24
      14  ?Subroutine25
       5  ?Subroutine26
       6  ?Subroutine27
       5  ?Subroutine28
       7  ?Subroutine29
       3  ?Subroutine3
       9  ?Subroutine30
      10  ?Subroutine31
       4  ?Subroutine32
      18  ?Subroutine33
       5  ?Subroutine34
       4  ?Subroutine35
       9  ?Subroutine36
       8  ?Subroutine37
       7  ?Subroutine38
       3  ?Subroutine39
       9  ?Subroutine4
      10  ?Subroutine40
       3  ?Subroutine41
       6  ?Subroutine42
       7  ?Subroutine43
       7  ?Subroutine44
      10  ?Subroutine45
       6  ?Subroutine46
      10  ?Subroutine47
       9  ?Subroutine48
       7  ?Subroutine49
      16  ?Subroutine5
       8  ?Subroutine50
      18  ?Subroutine6
      14  ?Subroutine7
       8  ?Subroutine8
       1  ?Subroutine9
     536  MT_AfCommandProcessing
      47  MT_AfDataConfirm
     681  MT_AfDataRequest
     349  MT_AfDataRequestSrcRtg
     295  MT_AfDataRetrieve
     236  MT_AfDataStore
     142  MT_AfExec
     675  MT_AfIncomingMsg
      97  MT_AfReflectError
       4  __Constant_3e8
       2  pMtAfDataReq
       2  pMtAfInMsgList
      54  -- Other

 
 3 539 bytes in segment BANKED_CODE
    54 bytes in segment BANK_RELAYS
     6 bytes in segment XDATA_ROM_C
     4 bytes in segment XDATA_Z
 
    54 bytes of CODE     memory
     2 bytes of CONST    memory (+ 4 bytes shared)
 3 539 bytes of HUGECODE memory
     4 bytes of XDATA    memory

Errors: none
Warnings: none
