///////////////////////////////////////////////////////////////////////////////
//
// IAR C/C++ Compiler V10.40.1.7397 for 8051              01/May/2021  14:39:37
// Copyright 2004-2021 IAR Systems AB.
//
//    Core               =  plain
//    Code model         =  banked
//    Data model         =  large
//    Calling convention =  xdata reentrant
//    Constant location  =  data_rom
//    Dptr setup         =  1,16
//                          
//    Source file        =  
//        E:\Texas Instruments\Z-Stack 3.0.2\Components\mt\MT_GP.c
//    Command line       =  
//        -f C:\Users\asus\AppData\Local\Temp\EWCD19.tmp ("E:\Texas
//        Instruments\Z-Stack 3.0.2\Components\mt\MT_GP.c" -D
//        BDB_FINDING_BINDING_CAPABILITY_ENABLED=0 -D HAL_UART_DMA_RX_MAX=128
//        -D MAXMEMHEAP=2765 -D TC_LINKKEY_JOIN -D NWK_MAX_DEVICE_LIST=10 -D
//        ZDSECMGR_TC_DEVICE_MAX=30 -D DISABLE_GREENPOWER_BASIC_PROXY -D
//        POWER_SAVING -D FEATURE_SYSTEM_STATS -D MT_GP_CB_FUNC -lC "E:\Texas
//        Instruments\Z-Stack
//        3.0.2\Projects\zstack\ZNP\CC253x\CC2530-Debug\List" -lA "E:\Texas
//        Instruments\Z-Stack
//        3.0.2\Projects\zstack\ZNP\CC253x\CC2530-Debug\List" --diag_suppress
//        Pe001,Pa010 -o "E:\Texas Instruments\Z-Stack
//        3.0.2\Projects\zstack\ZNP\CC253x\CC2530-Debug\Obj" -e --debug
//        --core=plain --dptr=16,1 --data_model=large --code_model=banked
//        --calling_convention=xdata_reentrant --place_constants=data_rom
//        --nr_virtual_regs 16 -f "E:\Texas Instruments\Z-Stack
//        3.0.2\Projects\zstack\ZNP\CC253x\..\Source\znp.cfg"
//        (-DMAC_CFG_APP_PENDING_QUEUE=TRUE
//        "-DZSTACK_DEVICE_BUILD=(DEVICE_BUILD_COORDINATOR |
//        DEVICE_BUILD_ROUTER | DEVICE_BUILD_ENDDEVICE)" -DNWK_AUTO_POLL
//        -DZNP_RUN_WDOG=FALSE -DZNP_UART_BAUD=HAL_UART_BR_115200 -DZIGBEEPRO
//        -DZIGBEE_FRAGMENTATION -DINTER_PAN -DOSAL_CLOCK -DOSAL_SAPI=FALSE
//        -DSAPI_CB_FUNC=FALSE -DHOLD_AUTO_START -DNV_RESTORE -DNV_INIT
//        -DNUM_DISC_ATTEMPTS=0 -DMT_UTIL_FUNC -DMT_SYS_FUNC -DMT_AF_FUNC
//        -DMT_SAPI_FUNC -DMT_SAPI_CB_FUNC -DMT_ZDO_CB_FUNC -DMT_ZDO_FUNC
//        -DMT_ZDO_MGMT -DMT_ZDO_EXTENSIONS -DMT_GP_CB_FUNC -DMT_APP_FUNC
//        -DMT_APP_CNF_FUNC) -f "E:\Texas Instruments\Z-Stack
//        3.0.2\Projects\zstack\ZNP\CC253x\..\..\Tools\CC2530DB\f8wConfig.cfg"
//        (-DZIGBEEPRO -DSECURE=1 -DZG_SECURE_DYNAMIC=0 -DREFLECTOR
//        -DDEFAULT_CHANLIST=0x00000800 -DZDAPP_CONFIG_PAN_ID=0xFFFF
//        -DNWK_START_DELAY=100 -DEXTENDED_JOINING_RANDOM_MASK=0x007F
//        -DBEACON_REQUEST_DELAY=100 -DBEACON_REQ_DELAY_MASK=0x00FF
//        -DLINK_STATUS_JITTER_MASK=0x007F -DROUTE_EXPIRY_TIME=30
//        -DAPSC_ACK_WAIT_DURATION_POLLED=3000 -DNWK_INDIRECT_MSG_TIMEOUT=7
//        -DMAX_RREQ_ENTRIES=8 -DAPSC_MAX_FRAME_RETRIES=3
//        -DNWK_MAX_DATA_RETRIES=2 -DMAX_POLL_FAILURE_RETRIES=2 -DMAX_BCAST=9
//        -DAPS_MAX_GROUPS=16 -DMAX_RTG_ENTRIES=40 -DNWK_MAX_BINDING_ENTRIES=4
//        -DMAX_BINDING_CLUSTER_IDS=4 -DDEFAULT_KEY={0}
//        -DMAC_MAX_FRAME_SIZE=116 -DZDNWKMGR_MIN_TRANSMISSIONS=20
//        "-DCONST=const __code" -DGENERIC=__generic -DRFD_RCVC_ALWAYS_ON=FALSE
//        -DPOLL_RATE=1000 -DQUEUED_POLL_RATE=100 -DRESPONSE_POLL_RATE=100
//        -DREJOIN_POLL_RATE=440 -DREJOIN_BACKOFF=900000 -DREJOIN_SCAN=900000
//        -DENABLE_LED4_DISABLE_S1) -f "E:\Texas Instruments\Z-Stack
//        3.0.2\Projects\zstack\ZNP\CC253x\..\..\Tools\CC2530DB\f8wZCL.cfg" -I
//        "E:\Texas Instruments\Z-Stack 3.0.2\Projects\zstack\ZNP\CC253x\" -I
//        "E:\Texas Instruments\Z-Stack
//        3.0.2\Projects\zstack\ZNP\CC253x\Source\" -I "E:\Texas
//        Instruments\Z-Stack 3.0.2\Projects\zstack\ZNP\CC253x\..\Source\" -I
//        "E:\Texas Instruments\Z-Stack
//        3.0.2\Projects\zstack\ZNP\CC253x\..\..\SE\Source\" -I "E:\Texas
//        Instruments\Z-Stack
//        3.0.2\Projects\zstack\ZNP\CC253x\..\..\ZMain\TI2530ZNP\" -I "E:\Texas
//        Instruments\Z-Stack
//        3.0.2\Projects\zstack\ZNP\CC253x\..\..\..\..\Components\hal\include\"
//        -I "E:\Texas Instruments\Z-Stack
//        3.0.2\Projects\zstack\ZNP\CC253x\..\..\..\..\Components\hal\target\CC2530ZNP\"
//        -I "E:\Texas Instruments\Z-Stack
//        3.0.2\Projects\zstack\ZNP\CC253x\..\..\..\..\Components\mac\include\"
//        -I "E:\Texas Instruments\Z-Stack
//        3.0.2\Projects\zstack\ZNP\CC253x\..\..\..\..\Components\mac\high_level\"
//        -I "E:\Texas Instruments\Z-Stack
//        3.0.2\Projects\zstack\ZNP\CC253x\..\..\..\..\Components\mac\low_level\srf04\"
//        -I "E:\Texas Instruments\Z-Stack
//        3.0.2\Projects\zstack\ZNP\CC253x\..\..\..\..\Components\mac\low_level\srf04\single_chip\"
//        -I "E:\Texas Instruments\Z-Stack
//        3.0.2\Projects\zstack\ZNP\CC253x\..\..\..\..\Components\mt\" -I
//        "E:\Texas Instruments\Z-Stack
//        3.0.2\Projects\zstack\ZNP\CC253x\..\..\..\..\Components\osal\include\"
//        -I "E:\Texas Instruments\Z-Stack
//        3.0.2\Projects\zstack\ZNP\CC253x\..\..\..\..\Components\services\ecc\binary163\"
//        -I "E:\Texas Instruments\Z-Stack
//        3.0.2\Projects\zstack\ZNP\CC253x\..\..\..\..\Components\services\ecc\binary283\"
//        -I "E:\Texas Instruments\Z-Stack
//        3.0.2\Projects\zstack\ZNP\CC253x\..\..\..\..\Components\services\saddr\"
//        -I "E:\Texas Instruments\Z-Stack
//        3.0.2\Projects\zstack\ZNP\CC253x\..\..\..\..\Components\services\sdata\"
//        -I "E:\Texas Instruments\Z-Stack
//        3.0.2\Projects\zstack\ZNP\CC253x\..\..\..\..\Components\stack\af\" -I
//        "E:\Texas Instruments\Z-Stack
//        3.0.2\Projects\zstack\ZNP\CC253x\..\..\..\..\Components\stack\gp\" -I
//        "E:\Texas Instruments\Z-Stack
//        3.0.2\Projects\zstack\ZNP\CC253x\..\..\..\..\Components\stack\bdb\"
//        -I "E:\Texas Instruments\Z-Stack
//        3.0.2\Projects\zstack\ZNP\CC253x\..\..\..\..\Components\stack\nwk\"
//        -I "E:\Texas Instruments\Z-Stack
//        3.0.2\Projects\zstack\ZNP\CC253x\..\..\..\..\Components\stack\sapi\"
//        -I "E:\Texas Instruments\Z-Stack
//        3.0.2\Projects\zstack\ZNP\CC253x\..\..\..\..\Components\stack\sec\"
//        -I "E:\Texas Instruments\Z-Stack
//        3.0.2\Projects\zstack\ZNP\CC253x\..\..\..\..\Components\stack\sys\"
//        -I "E:\Texas Instruments\Z-Stack
//        3.0.2\Projects\zstack\ZNP\CC253x\..\..\..\..\Components\stack\zcl\"
//        -I "E:\Texas Instruments\Z-Stack
//        3.0.2\Projects\zstack\ZNP\CC253x\..\..\..\..\Components\stack\zdo\"
//        -I "E:\Texas Instruments\Z-Stack
//        3.0.2\Projects\zstack\ZNP\CC253x\..\..\..\..\Components\zmac\" -I
//        "E:\Texas Instruments\Z-Stack
//        3.0.2\Projects\zstack\ZNP\CC253x\..\..\..\..\Components\zmac\f8w\"
//        -Ohz --require_prototypes --no_code_motion)
//    Locale             =  English_USA.1252
//    List file          =  
//        E:\Texas Instruments\Z-Stack
//        3.0.2\Projects\zstack\ZNP\CC253x\CC2530-Debug\List\MT_GP.s51
//
///////////////////////////////////////////////////////////////////////////////

        NAME MT_GP

        RTMODEL "__SystemLibrary", "CLib"
        RTMODEL "__calling_convention", "xdata_reentrant"
        RTMODEL "__code_model", "banked"
        RTMODEL "__core", "plain"
        RTMODEL "__data_model", "large"
        RTMODEL "__dptr_size", "16"
        RTMODEL "__extended_stack", "disabled"
        RTMODEL "__location_for_constants", "data"
        RTMODEL "__number_of_dptrs", "1"
        RTMODEL "__register_banks", "*"
        RTMODEL "__rt_version", "1"

        RSEG DOVERLAY:DATA:NOROOT(0)
        RSEG IOVERLAY:IDATA:NOROOT(0)
        RSEG ISTACK:IDATA:NOROOT(0)
        RSEG PSTACK:XDATA:NOROOT(0)
        RSEG XSTACK:XDATA:NOROOT(0)

        EXTERN ?V0
        EXTERN ?V1
        EXTERN ?V2
        EXTERN ?V3
        EXTERN ?V4
        EXTERN ?V5
        EXTERN ?V6
        EXTERN ?V7
        EXTERN ?V8
        EXTERN ?V9
        EXTERN ?ALLOC_XSTACK8
        EXTERN ?BANKED_ENTER_XDATA
        EXTERN ?BANKED_LEAVE_XDATA
        EXTERN ?BDISPATCH
        EXTERN ?BRET
        EXTERN ?DEALLOC_XSTACK8
        EXTERN ?L_MOV_X
        EXTERN ?PUSH_XSTACK_I_ONE
        EXTERN ?PUSH_XSTACK_I_THREE
        EXTERN ?UL_SHR
        EXTERN ?XSP
        EXTERN ?XSTACK_DISP0_8
        EXTERN ?XSTORE_R0123
        EXTERN ?XSTORE_R2345

        PUBLIC `??MT_GPAddressConflict::?relay`
        FUNCTION `??MT_GPAddressConflict::?relay`,0203H
        PUBLIC `??MT_GPDataCnf::?relay`
        FUNCTION `??MT_GPDataCnf::?relay`,0203H
        PUBLIC `??MT_GPDataInd::?relay`
        FUNCTION `??MT_GPDataInd::?relay`,0203H
        PUBLIC `??MT_GPSecReq::?relay`
        FUNCTION `??MT_GPSecReq::?relay`,0203H
        PUBLIC `??MT_GpCommandProcessing::?relay`
        FUNCTION `??MT_GpCommandProcessing::?relay`,0203H
        FUNCTION `??MT_GpDataReq::?relay`,0203H
        FUNCTION `??MT_GpSecRsp::?relay`,0203H
        PUBLIC MT_GPAddressConflict
        FUNCTION MT_GPAddressConflict,0a1203H
        ARGFRAME XSTACK, 0, STACK
        ARGFRAME IOVERLAY, 0, STATIC
        ARGFRAME DOVERLAY, 0, STATIC
        LOCFRAME XSTACK, 10, STACK
        PUBLIC MT_GPDataCnf
        FUNCTION MT_GPDataCnf,021203H
        ARGFRAME XSTACK, 0, STACK
        LOCFRAME ISTACK, 3, STACK
        LOCFRAME XSTACK, 2, STACK
        PUBLIC MT_GPDataInd
        FUNCTION MT_GPDataInd,0a1203H
        ARGFRAME XSTACK, 0, STACK
        LOCFRAME ISTACK, 1, STACK
        LOCFRAME XSTACK, 21, STACK
        PUBLIC MT_GPSecReq
        FUNCTION MT_GPSecReq,0a1203H
        ARGFRAME XSTACK, 0, STACK
        LOCFRAME ISTACK, 1, STACK
        LOCFRAME XSTACK, 33, STACK
        PUBLIC MT_GpCommandProcessing
        FUNCTION MT_GpCommandProcessing,021203H
        ARGFRAME XSTACK, 0, STACK
        LOCFRAME ISTACK, 2, STACK
        FUNCTION MT_GpDataReq,0a1203H
        ARGFRAME XSTACK, 0, STACK
        ARGFRAME IOVERLAY, 0, STATIC
        ARGFRAME DOVERLAY, 0, STATIC
        LOCFRAME ISTACK, 1, STACK
        LOCFRAME XSTACK, 19, STACK
        FUNCTION MT_GpSecRsp,0a1203H
        ARGFRAME XSTACK, 0, STACK
        ARGFRAME IOVERLAY, 0, STATIC
        ARGFRAME DOVERLAY, 0, STATIC
        LOCFRAME ISTACK, 1, STACK
        LOCFRAME XSTACK, 19, STACK
        
          CFI Names cfiNames0
          CFI StackFrame CFA_SP SP IDATA
          CFI StackFrame CFA_PSP16 PSP16 XDATA
          CFI StackFrame CFA_XSP16 XSP16 XDATA
          CFI StaticOverlayFrame CFA_IOVERLAY IOVERLAY
          CFI StaticOverlayFrame CFA_DOVERLAY DOVERLAY
          CFI Resource `PSW.CY`:1, `B.BR0`:1, `B.BR1`:1, `B.BR2`:1, `B.BR3`:1
          CFI Resource `B.BR4`:1, `B.BR5`:1, `B.BR6`:1, `B.BR7`:1, `VB.BR8`:1
          CFI Resource `VB.BR9`:1, `VB.BR10`:1, `VB.BR11`:1, `VB.BR12`:1
          CFI Resource `VB.BR13`:1, `VB.BR14`:1, `VB.BR15`:1, VB:8, B:8, A:8
          CFI Resource PSW:8, DPL0:8, DPH0:8, R0:8, R1:8, R2:8, R3:8, R4:8, R5:8
          CFI Resource R6:8, R7:8, V0:8, V1:8, V2:8, V3:8, V4:8, V5:8, V6:8, V7:8
          CFI Resource V8:8, V9:8, V10:8, V11:8, V12:8, V13:8, V14:8, V15:8, SP:8
          CFI Resource PSPH:8, PSPL:8, PSP16:16, XSPH:8, XSPL:8, XSP16:16
          CFI VirtualResource ?RET:24
          CFI Resource ?BRET_EXT:8
          CFI VirtualResource ?RET_HIGH:8, ?RET_LOW:8
          CFI ResourceParts PSP16 PSPH, PSPL
          CFI ResourceParts XSP16 XSPH, XSPL
          CFI ResourceParts ?RET ?BRET_EXT, ?RET_HIGH, ?RET_LOW
          CFI EndNames cfiNames0
        
          CFI Common cfiCommon0 Using cfiNames0
          CFI CodeAlign 1
          CFI DataAlign -1
          CFI ReturnAddress ?RET CODE
          CFI CFA_DOVERLAY Used
          CFI CFA_IOVERLAY Used
          CFI CFA_SP SP+-3
          CFI CFA_PSP16 PSP16+0
          CFI CFA_XSP16 XSP16+0
          CFI `PSW.CY` SameValue
          CFI `B.BR0` SameValue
          CFI `B.BR1` SameValue
          CFI `B.BR2` SameValue
          CFI `B.BR3` SameValue
          CFI `B.BR4` SameValue
          CFI `B.BR5` SameValue
          CFI `B.BR6` SameValue
          CFI `B.BR7` SameValue
          CFI `VB.BR8` SameValue
          CFI `VB.BR9` SameValue
          CFI `VB.BR10` SameValue
          CFI `VB.BR11` SameValue
          CFI `VB.BR12` SameValue
          CFI `VB.BR13` SameValue
          CFI `VB.BR14` SameValue
          CFI `VB.BR15` SameValue
          CFI VB SameValue
          CFI B Undefined
          CFI A Undefined
          CFI PSW SameValue
          CFI DPL0 SameValue
          CFI DPH0 SameValue
          CFI R0 Undefined
          CFI R1 Undefined
          CFI R2 Undefined
          CFI R3 Undefined
          CFI R4 Undefined
          CFI R5 Undefined
          CFI R6 SameValue
          CFI R7 SameValue
          CFI V0 SameValue
          CFI V1 SameValue
          CFI V2 SameValue
          CFI V3 SameValue
          CFI V4 SameValue
          CFI V5 SameValue
          CFI V6 SameValue
          CFI V7 SameValue
          CFI V8 SameValue
          CFI V9 SameValue
          CFI V10 SameValue
          CFI V11 SameValue
          CFI V12 SameValue
          CFI V13 SameValue
          CFI V14 SameValue
          CFI V15 SameValue
          CFI PSPH Undefined
          CFI PSPL Undefined
          CFI XSPH Undefined
          CFI XSPL Undefined
          CFI ?RET Concat
          CFI ?BRET_EXT Frame(CFA_SP, 3)
          CFI ?RET_HIGH Frame(CFA_SP, 2)
          CFI ?RET_LOW Frame(CFA_SP, 1)
          CFI EndCommon cfiCommon0
        
        
          CFI Common cfiCommon1 Using cfiNames0
          CFI CodeAlign 1
          CFI DataAlign -1
          CFI ReturnAddress ?RET CODE
          CFI CFA_DOVERLAY Used
          CFI CFA_IOVERLAY Used
          CFI CFA_SP SP+-2
          CFI CFA_PSP16 PSP16+0
          CFI CFA_XSP16 XSP16+0
          CFI `PSW.CY` SameValue
          CFI `B.BR0` SameValue
          CFI `B.BR1` SameValue
          CFI `B.BR2` SameValue
          CFI `B.BR3` SameValue
          CFI `B.BR4` SameValue
          CFI `B.BR5` SameValue
          CFI `B.BR6` SameValue
          CFI `B.BR7` SameValue
          CFI `VB.BR8` SameValue
          CFI `VB.BR9` SameValue
          CFI `VB.BR10` SameValue
          CFI `VB.BR11` SameValue
          CFI `VB.BR12` SameValue
          CFI `VB.BR13` SameValue
          CFI `VB.BR14` SameValue
          CFI `VB.BR15` SameValue
          CFI VB SameValue
          CFI B SameValue
          CFI A SameValue
          CFI PSW SameValue
          CFI DPL0 SameValue
          CFI DPH0 SameValue
          CFI R0 SameValue
          CFI R1 SameValue
          CFI R2 SameValue
          CFI R3 SameValue
          CFI R4 SameValue
          CFI R5 SameValue
          CFI R6 SameValue
          CFI R7 SameValue
          CFI V0 SameValue
          CFI V1 SameValue
          CFI V2 SameValue
          CFI V3 SameValue
          CFI V4 SameValue
          CFI V5 SameValue
          CFI V6 SameValue
          CFI V7 SameValue
          CFI V8 SameValue
          CFI V9 SameValue
          CFI V10 SameValue
          CFI V11 SameValue
          CFI V12 SameValue
          CFI V13 SameValue
          CFI V14 SameValue
          CFI V15 SameValue
          CFI PSPH Undefined
          CFI PSPL Undefined
          CFI XSPH Undefined
          CFI XSPL Undefined
          CFI ?RET Concat
          CFI ?BRET_EXT SameValue
          CFI ?RET_HIGH Frame(CFA_SP, 2)
          CFI ?RET_LOW Frame(CFA_SP, 1)
          CFI EndCommon cfiCommon1
        
MT_BuildAndSendZToolResponse SYMBOL "MT_BuildAndSendZToolResponse"
`??MT_BuildAndSendZToolResponse::?relay` SYMBOL "?relay", MT_BuildAndSendZToolResponse
NLME_SendNetworkStatus SYMBOL "NLME_SendNetworkStatus"
`??NLME_SendNetworkStatus::?relay` SYMBOL "?relay", NLME_SendNetworkStatus
osal_build_uint16   SYMBOL "osal_build_uint16"
`??osal_build_uint16::?relay` SYMBOL "?relay", osal_build_uint16
osal_build_uint32   SYMBOL "osal_build_uint32"
`??osal_build_uint32::?relay` SYMBOL "?relay", osal_build_uint32
osal_mem_alloc      SYMBOL "osal_mem_alloc"
`??osal_mem_alloc::?relay` SYMBOL "?relay", osal_mem_alloc
osal_mem_free       SYMBOL "osal_mem_free"
`??osal_mem_free::?relay` SYMBOL "?relay", osal_mem_free
osal_memcpy         SYMBOL "osal_memcpy"
`??osal_memcpy::?relay` SYMBOL "?relay", osal_memcpy
osal_msg_allocate   SYMBOL "osal_msg_allocate"
`??osal_msg_allocate::?relay` SYMBOL "?relay", osal_msg_allocate
osal_msg_send       SYMBOL "osal_msg_send"
`??osal_msg_send::?relay` SYMBOL "?relay", osal_msg_send
sAddrExtCpy         SYMBOL "sAddrExtCpy"
`??sAddrExtCpy::?relay` SYMBOL "?relay", sAddrExtCpy
MT_GPAddressConflict SYMBOL "MT_GPAddressConflict"
`??MT_GPAddressConflict::?relay` SYMBOL "?relay", MT_GPAddressConflict
MT_GPDataCnf        SYMBOL "MT_GPDataCnf"
`??MT_GPDataCnf::?relay` SYMBOL "?relay", MT_GPDataCnf
MT_GPDataInd        SYMBOL "MT_GPDataInd"
`??MT_GPDataInd::?relay` SYMBOL "?relay", MT_GPDataInd
MT_GPSecReq         SYMBOL "MT_GPSecReq"
`??MT_GPSecReq::?relay` SYMBOL "?relay", MT_GPSecReq
MT_GpCommandProcessing SYMBOL "MT_GpCommandProcessing"
`??MT_GpCommandProcessing::?relay` SYMBOL "?relay", MT_GpCommandProcessing

        EXTERN `??MT_BuildAndSendZToolResponse::?relay`
        FUNCTION `??MT_BuildAndSendZToolResponse::?relay`,00H
        EXTERN `??NLME_SendNetworkStatus::?relay`
        FUNCTION `??NLME_SendNetworkStatus::?relay`,00H
        EXTERN `??osal_build_uint16::?relay`
        FUNCTION `??osal_build_uint16::?relay`,00H
        EXTERN `??osal_build_uint32::?relay`
        FUNCTION `??osal_build_uint32::?relay`,00H
        EXTERN `??osal_mem_alloc::?relay`
        FUNCTION `??osal_mem_alloc::?relay`,00H
        EXTERN `??osal_mem_free::?relay`
        FUNCTION `??osal_mem_free::?relay`,00H
        EXTERN `??osal_memcpy::?relay`
        FUNCTION `??osal_memcpy::?relay`,00H
        EXTERN `??osal_msg_allocate::?relay`
        FUNCTION `??osal_msg_allocate::?relay`,00H
        EXTERN `??osal_msg_send::?relay`
        FUNCTION `??osal_msg_send::?relay`,00H
        EXTERN `??sAddrExtCpy::?relay`
        FUNCTION `??sAddrExtCpy::?relay`,00H
        EXTERN MT_BuildAndSendZToolResponse
        FUNCTION MT_BuildAndSendZToolResponse,0202H
        ARGFRAME ISTACK, 2, STACK
        ARGFRAME PSTACK, 0, STACK
        ARGFRAME XSTACK, 33, STACK
        ARGFRAME IOVERLAY, 0, STATIC
        ARGFRAME DOVERLAY, 0, STATIC
        EXTERN NLME_SendNetworkStatus
        FUNCTION NLME_SendNetworkStatus,0202H
        ARGFRAME ISTACK, 0, STACK
        ARGFRAME PSTACK, 0, STACK
        ARGFRAME XSTACK, 10, STACK
        ARGFRAME IOVERLAY, 0, STATIC
        ARGFRAME DOVERLAY, 0, STATIC
        EXTERN gp_TaskID
        EXTERN osal_build_uint16
        FUNCTION osal_build_uint16,0202H
        ARGFRAME ISTACK, 0, STACK
        ARGFRAME PSTACK, 0, STACK
        ARGFRAME XSTACK, 10, STACK
        ARGFRAME IOVERLAY, 0, STATIC
        ARGFRAME DOVERLAY, 0, STATIC
        EXTERN osal_build_uint32
        FUNCTION osal_build_uint32,0202H
        ARGFRAME ISTACK, 0, STACK
        ARGFRAME PSTACK, 0, STACK
        ARGFRAME XSTACK, 16, STACK
        ARGFRAME IOVERLAY, 0, STATIC
        ARGFRAME DOVERLAY, 0, STATIC
        EXTERN osal_mem_alloc
        FUNCTION osal_mem_alloc,0202H
        ARGFRAME ISTACK, 0, STACK
        ARGFRAME PSTACK, 0, STACK
        ARGFRAME XSTACK, 18, STACK
        ARGFRAME IOVERLAY, 0, STATIC
        ARGFRAME DOVERLAY, 0, STATIC
        EXTERN osal_mem_free
        FUNCTION osal_mem_free,0202H
        ARGFRAME ISTACK, 0, STACK
        ARGFRAME PSTACK, 0, STACK
        ARGFRAME XSTACK, 18, STACK
        ARGFRAME IOVERLAY, 0, STATIC
        ARGFRAME DOVERLAY, 0, STATIC
        EXTERN osal_memcpy
        FUNCTION osal_memcpy,0202H
        ARGFRAME ISTACK, 0, STACK
        ARGFRAME PSTACK, 0, STACK
        ARGFRAME XSTACK, 21, STACK
        ARGFRAME IOVERLAY, 0, STATIC
        ARGFRAME DOVERLAY, 0, STATIC
        EXTERN osal_msg_allocate
        FUNCTION osal_msg_allocate,0202H
        ARGFRAME ISTACK, 0, STACK
        ARGFRAME PSTACK, 0, STACK
        ARGFRAME XSTACK, 16, STACK
        ARGFRAME IOVERLAY, 0, STATIC
        ARGFRAME DOVERLAY, 0, STATIC
        EXTERN osal_msg_send
        FUNCTION osal_msg_send,0202H
        ARGFRAME ISTACK, 0, STACK
        ARGFRAME PSTACK, 0, STACK
        ARGFRAME XSTACK, 16, STACK
        ARGFRAME IOVERLAY, 0, STATIC
        ARGFRAME DOVERLAY, 0, STATIC
        EXTERN sAddrExtCpy
        FUNCTION sAddrExtCpy,0202H
        ARGFRAME ISTACK, 0, STACK
        ARGFRAME PSTACK, 0, STACK
        ARGFRAME XSTACK, 33, STACK
        ARGFRAME IOVERLAY, 0, STATIC
        ARGFRAME DOVERLAY, 0, STATIC

// E:\Texas Instruments\Z-Stack 3.0.2\Components\mt\MT_GP.c
//    1 /***************************************************************************************************
//    2   Filename:       MT_GP.c
//    3   Revised:        $Date: 2016-06-21 01:06:52 -0700 (Thu, 21 July 2016) $
//    4   Revision:       $Revision:  $
//    5 
//    6   Description:    MonitorTest functions GP interface.
//    7 
//    8   Copyright 2007-2013 Texas Instruments Incorporated. All rights reserved.
//    9 
//   10   IMPORTANT: Your use of this Software is limited to those specific rights
//   11   granted under the terms of a software license agreement between the user
//   12   who downloaded the software, his/her employer (which must be your employer)
//   13   and Texas Instruments Incorporated (the "License"). You may not use this
//   14   Software unless you agree to abide by the terms of the License. The License
//   15   limits your use, and you acknowledge, that the Software may not be modified,
//   16   copied or distributed unless embedded on a Texas Instruments microcontroller
//   17   or used solely and exclusively in conjunction with a Texas Instruments radio
//   18   frequency transceiver, which is integrated into your product. Other than for
//   19   the foregoing purpose, you may not use, reproduce, copy, prepare derivative
//   20   works of, modify, distribute, perform, display or sell this Software and/or
//   21   its documentation for any purpose.
//   22 
//   23   YOU FURTHER ACKNOWLEDGE AND AGREE THAT THE SOFTWARE AND DOCUMENTATION ARE
//   24   PROVIDED ?AS IS? WITHOUT WARRANTY OF ANY KIND, EITHER EXPRESS OR IMPLIED,
//   25   INCLUDING WITHOUT LIMITATION, ANY WARRANTY OF MERCHANTABILITY, TITLE,
//   26   NON-INFRINGEMENT AND FITNESS FOR A PARTICULAR PURPOSE. IN NO EVENT SHALL
//   27   TEXAS INSTRUMENTS OR ITS LICENSORS BE LIABLE OR OBLIGATED UNDER CONTRACT,
//   28   NEGLIGENCE, STRICT LIABILITY, CONTRIBUTION, BREACH OF WARRANTY, OR OTHER
//   29   LEGAL EQUITABLE THEORY ANY DIRECT OR INDIRECT DAMAGES OR EXPENSES
//   30   INCLUDING BUT NOT LIMITED TO ANY INCIDENTAL, SPECIAL, INDIRECT, PUNITIVE
//   31   OR CONSEQUENTIAL DAMAGES, LOST PROFITS OR LOST DATA, COST OF PROCUREMENT
//   32   OF SUBSTITUTE GOODS, TECHNOLOGY, SERVICES, OR ANY CLAIMS BY THIRD PARTIES
//   33   (INCLUDING BUT NOT LIMITED TO ANY DEFENSE THEREOF), OR OTHER SIMILAR COSTS.
//   34 
//   35   Should you have any questions regarding your right to use this Software,
//   36   contact Texas Instruments Incorporated at www.TI.com.
//   37 
//   38  ***************************************************************************************************/
//   39 
//   40 /***************************************************************************************************
//   41  * INCLUDES
//   42  ***************************************************************************************************/
//   43  
//   44  
//   45 #include "ZComDef.h"
//   46 #include "MT.h"
//   47 #include "MT_GP.h"
//   48 #include "MT_UART.h"
//   49 #include "nwk_util.h"   
//   50 
//   51 
//   52 /***************************************************************************************************
//   53 * CONST
//   54 ***************************************************************************************************/
//   55 #define GP_DATA_REQ_PAYLOAD_LEN_POS   17   
//   56 #define GP_DATA_REQ_APP_ID_POS         2
//   57 
//   58 #define SEC_KEY_LEN                   16
//   59  
//   60 /***************************************************************************************************
//   61 * LOCAL FUNCTIONs
//   62 ***************************************************************************************************/
//   63 
//   64 #ifdef MT_GP_CB_FUNC
//   65 static void MT_GpDataReq(uint8* pBuf);
//   66 static void MT_GpSecRsp(uint8* pBuf);
//   67 #endif
//   68 
//   69 void MT_GPDataCnf(gp_DataCnf_t* gp_DataCnf);
//   70 void MT_GPSecReq(gp_SecReq_t* gp_SecReq);
//   71 void MT_GPDataInd(gp_DataInd_t* gp_DataInd);
//   72 
//   73 
//   74 /***************************************************************************************************
//   75 * External variables
//   76 ***************************************************************************************************/
//   77 
//   78 #ifdef MT_GP_CB_FUNC  

        RSEG BANKED_CODE:HUGECODE:NOROOT(0)
//   79 uint8 MT_GpCommandProcessing(uint8 *pBuf)
MT_GpCommandProcessing:
          CFI Block cfiBlock0 Using cfiCommon0
          CFI Function MT_GpCommandProcessing
        CODE
//   80 {
        FUNCALL MT_GpCommandProcessing, MT_GpDataReq
        LOCFRAME ISTACK, 2, STACK
        LOCFRAME PSTACK, 0, STACK
        LOCFRAME XSTACK, 0, STACK
        LOCFRAME IOVERLAY, 0, STATIC
        LOCFRAME DOVERLAY, 0, STATIC
        ARGFRAME ISTACK, 2, STACK
        ARGFRAME PSTACK, 0, STACK
        ARGFRAME XSTACK, 0, STACK
        ARGFRAME IOVERLAY, 0, STATIC
        ARGFRAME DOVERLAY, 0, STATIC
        FUNCALL MT_GpCommandProcessing, MT_GpSecRsp
        LOCFRAME ISTACK, 2, STACK
        LOCFRAME PSTACK, 0, STACK
        LOCFRAME XSTACK, 0, STACK
        LOCFRAME IOVERLAY, 0, STATIC
        LOCFRAME DOVERLAY, 0, STATIC
        ARGFRAME ISTACK, 2, STACK
        ARGFRAME PSTACK, 0, STACK
        ARGFRAME XSTACK, 0, STACK
        ARGFRAME IOVERLAY, 0, STATIC
        ARGFRAME DOVERLAY, 0, STATIC
        FUNCALL MT_GpCommandProcessing, MT_GPAddressConflict
        LOCFRAME ISTACK, 2, STACK
        LOCFRAME PSTACK, 0, STACK
        LOCFRAME XSTACK, 0, STACK
        LOCFRAME IOVERLAY, 0, STATIC
        LOCFRAME DOVERLAY, 0, STATIC
        ARGFRAME ISTACK, 2, STACK
        ARGFRAME PSTACK, 0, STACK
        ARGFRAME XSTACK, 0, STACK
        ARGFRAME IOVERLAY, 0, STATIC
        ARGFRAME DOVERLAY, 0, STATIC
        PUSH      DPL
          CFI DPL0 Frame(CFA_SP, 4)
          CFI CFA_SP SP+-4
        PUSH      DPH
          CFI DPH0 Frame(CFA_SP, 5)
          CFI CFA_SP SP+-5
        ; Saved register size: 2
        ; Auto size: 0
//   81   uint8 status = MT_RPC_SUCCESS;
//   82 
//   83   switch (pBuf[MT_RPC_POS_CMD1])
        MOV       DPL,R2
        MOV       DPH,R3
        INC       DPTR
        INC       DPTR
        MOVX      A,@DPTR
        DEC       A
        JZ        ??MT_GpCommandProcessing_0
        DEC       A
        JZ        ??MT_GpCommandProcessing_1
        ADD       A,#0x62
        JZ        ??MT_GpCommandProcessing_2
        SJMP      ??MT_GpCommandProcessing_3
//   84   {
//   85     case MT_GP_DATA_REQ:
//   86       MT_GpDataReq(pBuf);
??MT_GpCommandProcessing_0:
        ; Setup parameters for call to function MT_GpDataReq
        LCALL     `??MT_GpDataReq::?relay`; Banked call to: MT_GpDataReq
//   87     break;
        SJMP      ??MT_GpCommandProcessing_3
//   88     case MT_GP_SEC_RSP:
//   89       MT_GpSecRsp(pBuf);
??MT_GpCommandProcessing_1:
        ; Setup parameters for call to function MT_GpSecRsp
        LCALL     `??MT_GpSecRsp::?relay`; Banked call to: MT_GpSecRsp
//   90     break;
        SJMP      ??MT_GpCommandProcessing_3
//   91     case MT_GP_ADDRESS_CONFLICT:
//   92       MT_GPAddressConflict(pBuf);
??MT_GpCommandProcessing_2:
        ; Setup parameters for call to function MT_GPAddressConflict
        LCALL     `??MT_GPAddressConflict::?relay`; Banked call to: MT_GPAddressConflict
//   93     break;
//   94   }
//   95   return status;
??MT_GpCommandProcessing_3:
        MOV       R1,#0x0
          CFI EndBlock cfiBlock0
        REQUIRE ?Subroutine0
        ; // Fall through to label ?Subroutine0
//   96 }

        RSEG BANKED_CODE:HUGECODE:NOROOT(0)
?Subroutine0:
          CFI Block cfiBlock1 Using cfiCommon0
          CFI NoFunction
          CFI CFA_SP SP+-5
          CFI DPL0 Frame(CFA_SP, 4)
          CFI DPH0 Frame(CFA_SP, 5)
        POP       DPH
          CFI CFA_SP SP+-4
          CFI DPH0 SameValue
        POP       DPL
          CFI CFA_SP SP+-3
          CFI DPL0 SameValue
        LJMP      ?BRET
          CFI EndBlock cfiBlock1
//   97 
//   98 
//   99  /***************************************************************************************************
//  100  * @fn      MT_GpDataReq
//  101  *
//  102  * @brief   GP data request interface
//  103  *
//  104  * @param   pBuf - gp data request
//  105  *
//  106  * @return  void
//  107  ***************************************************************************************************/

        RSEG BANKED_CODE:HUGECODE:NOROOT(0)
//  108  static void MT_GpDataReq(uint8* pBuf)
MT_GpDataReq:
          CFI Block cfiBlock2 Using cfiCommon0
          CFI Function MT_GpDataReq
        CODE
//  109 {
        FUNCALL MT_GpDataReq, osal_msg_allocate
        LOCFRAME ISTACK, 0, STACK
        LOCFRAME PSTACK, 0, STACK
        LOCFRAME XSTACK, 16, STACK
        LOCFRAME IOVERLAY, 0, STATIC
        LOCFRAME DOVERLAY, 0, STATIC
        ARGFRAME ISTACK, 0, STACK
        ARGFRAME PSTACK, 0, STACK
        ARGFRAME XSTACK, 16, STACK
        ARGFRAME IOVERLAY, 0, STATIC
        ARGFRAME DOVERLAY, 0, STATIC
        FUNCALL MT_GpDataReq, MT_BuildAndSendZToolResponse
        LOCFRAME ISTACK, 0, STACK
        LOCFRAME PSTACK, 0, STACK
        LOCFRAME XSTACK, 16, STACK
        LOCFRAME IOVERLAY, 0, STATIC
        LOCFRAME DOVERLAY, 0, STATIC
        ARGFRAME ISTACK, 0, STACK
        ARGFRAME PSTACK, 0, STACK
        ARGFRAME XSTACK, 16, STACK
        ARGFRAME IOVERLAY, 0, STATIC
        ARGFRAME DOVERLAY, 0, STATIC
        FUNCALL MT_GpDataReq, osal_build_uint32
        LOCFRAME ISTACK, 0, STACK
        LOCFRAME PSTACK, 0, STACK
        LOCFRAME XSTACK, 16, STACK
        LOCFRAME IOVERLAY, 0, STATIC
        LOCFRAME DOVERLAY, 0, STATIC
        ARGFRAME ISTACK, 0, STACK
        ARGFRAME PSTACK, 0, STACK
        ARGFRAME XSTACK, 16, STACK
        ARGFRAME IOVERLAY, 0, STATIC
        ARGFRAME DOVERLAY, 0, STATIC
        FUNCALL MT_GpDataReq, osal_memcpy
        LOCFRAME ISTACK, 0, STACK
        LOCFRAME PSTACK, 0, STACK
        LOCFRAME XSTACK, 19, STACK
        LOCFRAME IOVERLAY, 0, STATIC
        LOCFRAME DOVERLAY, 0, STATIC
        ARGFRAME ISTACK, 0, STACK
        ARGFRAME PSTACK, 0, STACK
        ARGFRAME XSTACK, 19, STACK
        ARGFRAME IOVERLAY, 0, STATIC
        ARGFRAME DOVERLAY, 0, STATIC
        FUNCALL MT_GpDataReq, osal_memcpy
        LOCFRAME ISTACK, 0, STACK
        LOCFRAME PSTACK, 0, STACK
        LOCFRAME XSTACK, 19, STACK
        LOCFRAME IOVERLAY, 0, STATIC
        LOCFRAME DOVERLAY, 0, STATIC
        ARGFRAME ISTACK, 0, STACK
        ARGFRAME PSTACK, 0, STACK
        ARGFRAME XSTACK, 19, STACK
        ARGFRAME IOVERLAY, 0, STATIC
        ARGFRAME DOVERLAY, 0, STATIC
        FUNCALL MT_GpDataReq, osal_msg_send
        LOCFRAME ISTACK, 0, STACK
        LOCFRAME PSTACK, 0, STACK
        LOCFRAME XSTACK, 16, STACK
        LOCFRAME IOVERLAY, 0, STATIC
        LOCFRAME DOVERLAY, 0, STATIC
        ARGFRAME ISTACK, 0, STACK
        ARGFRAME PSTACK, 0, STACK
        ARGFRAME XSTACK, 16, STACK
        ARGFRAME IOVERLAY, 0, STATIC
        ARGFRAME DOVERLAY, 0, STATIC
        FUNCALL MT_GpDataReq, MT_BuildAndSendZToolResponse
        LOCFRAME ISTACK, 0, STACK
        LOCFRAME PSTACK, 0, STACK
        LOCFRAME XSTACK, 16, STACK
        LOCFRAME IOVERLAY, 0, STATIC
        LOCFRAME DOVERLAY, 0, STATIC
        ARGFRAME ISTACK, 0, STACK
        ARGFRAME PSTACK, 0, STACK
        ARGFRAME XSTACK, 16, STACK
        ARGFRAME IOVERLAY, 0, STATIC
        ARGFRAME DOVERLAY, 0, STATIC
        REQUIRE ?V0
        REQUIRE ?V1
        REQUIRE ?V2
        REQUIRE ?V3
        REQUIRE ?V4
        REQUIRE ?V5
        REQUIRE ?V6
        MOV       A,#-0xf
        LCALL     ?BANKED_ENTER_XDATA
          CFI DPH0 load(1, XDATA, add(CFA_XSP16, literal(-1)))
          CFI DPL0 load(1, XDATA, add(CFA_XSP16, literal(-2)))
          CFI ?BRET_EXT load(1, XDATA, add(CFA_XSP16, literal(-3)))
          CFI ?RET_HIGH load(1, XDATA, add(CFA_XSP16, literal(-4)))
          CFI ?RET_LOW load(1, XDATA, add(CFA_XSP16, literal(-5)))
          CFI R7 load(1, XDATA, add(CFA_XSP16, literal(-6)))
          CFI V6 load(1, XDATA, add(CFA_XSP16, literal(-7)))
          CFI V5 load(1, XDATA, add(CFA_XSP16, literal(-8)))
          CFI V4 load(1, XDATA, add(CFA_XSP16, literal(-9)))
          CFI V3 load(1, XDATA, add(CFA_XSP16, literal(-10)))
          CFI V2 load(1, XDATA, add(CFA_XSP16, literal(-11)))
          CFI V1 load(1, XDATA, add(CFA_XSP16, literal(-12)))
          CFI V0 load(1, XDATA, add(CFA_XSP16, literal(-13)))
          CFI VB load(1, XDATA, add(CFA_XSP16, literal(-14)))
          CFI R6 load(1, XDATA, add(CFA_XSP16, literal(-15)))
          CFI CFA_SP SP+0
          CFI CFA_XSP16 add(XSP16, 15)
        ; Saved register size: 15
        ; Auto size: 1
        MOV       A,#-0x1
        LCALL     ?ALLOC_XSTACK8
          CFI CFA_XSP16 add(XSP16, 16)
        LCALL     ?Subroutine17 & 0xFFFF
//  110   uint8 retValue = ZSuccess;
//  111   uint8 cmdId;
//  112   gp_DataReq_t *gp_DataReq;
//  113   uint8  payloadLen;
//  114 
//  115   /* parse header */
//  116   cmdId = pBuf[MT_RPC_POS_CMD1];
??CrossCallReturnLabel_28:
        MOV       ?V3,A
//  117   pBuf += MT_RPC_FRAME_HDR_SZ;
        MOV       A,R2
        ADD       A,#0x3
        MOV       R6,A
        JNC       ??MT_GpDataReq_0
        INC       R7
//  118 
//  119   //Get the payload length
//  120   payloadLen = pBuf[GP_DATA_REQ_PAYLOAD_LEN_POS];
??MT_GpDataReq_0:
        ADD       A,#0x11
        LCALL     ?Subroutine31 & 0xFFFF
??CrossCallReturnLabel_53:
        MOV       ?V2,A
//  121   
//  122   gp_DataReq = (gp_DataReq_t*)osal_msg_allocate(sizeof(gp_DataReq_t) + payloadLen);  
        ; Setup parameters for call to function osal_msg_allocate
        ADD       A,#0x15
        MOV       R2,A
        CLR       A
        ADDC      A,#0x0
        MOV       R3,A
        LCALL     ?Subroutine24 & 0xFFFF
//  123 
//  124   //No memory
//  125   if(gp_DataReq == NULL)
??CrossCallReturnLabel_38:
        JNZ       ??MT_GpDataReq_1
//  126   {
//  127     retValue = FAILURE;
        MOV       DPL,?XSP + 0
        MOV       DPH,?XSP + 1
        MOV       A,#0x1
        MOVX      @DPTR,A
//  128   }
//  129   //Invalid application ID
//  130   if( (pBuf[GP_DATA_REQ_APP_ID_POS] != GP_APP_ID_DEFAULT) && (pBuf[GP_DATA_REQ_APP_ID_POS] != GP_APP_ID_GP ) )
??MT_GpDataReq_1:
        MOV       DPL,R6
        MOV       DPH,R7
        INC       DPTR
        INC       DPTR
        MOVX      A,@DPTR
        JZ        ??MT_GpDataReq_2
        XRL       A,#0x2
        JZ        ??MT_GpDataReq_2
//  131   {
//  132     retValue = INVALIDPARAMETER;
        MOV       DPL,?XSP + 0
        MOV       DPH,?XSP + 1
        MOV       A,#0x2
        MOVX      @DPTR,A
        SJMP      ??MT_GpDataReq_3
//  133   }
//  134   //Return fail/InvalidParameter
//  135   if(retValue)
??MT_GpDataReq_2:
        MOV       DPL,?XSP + 0
        MOV       DPH,?XSP + 1
        MOVX      A,@DPTR
        JZ        ??MT_GpDataReq_4
//  136   {
//  137     /* Build and send back the response */
//  138     MT_BuildAndSendZToolResponse(((uint8)MT_RPC_CMD_SRSP | (uint8)MT_RPC_SYS_GP), cmdId, 1, &retValue);
??MT_GpDataReq_3:
        ; Setup parameters for call to function MT_BuildAndSendZToolResponse
        LJMP      ??CrossCallReturnLabel_17 & 0xFFFF
//  139     return;
//  140   }
//  141 
//  142   gp_DataReq->Action = *pBuf++;
??MT_GpDataReq_4:
        LCALL     ?Subroutine2 & 0xFFFF
//  143   gp_DataReq->TxOptions = *pBuf++;
??CrossCallReturnLabel_0:
        JNC       ??MT_GpDataReq_5
        INC       R7
//  144   gp_DataReq->gpd_ID.AppID = *pBuf++;
//  145   if(gp_DataReq->gpd_ID.AppID == GP_APP_ID_DEFAULT)
??MT_GpDataReq_5:
        MOV       A,R0
        JNZ       ??MT_GpDataReq_6
//  146   {
//  147     gp_DataReq->gpd_ID.GPDId.SrcID = osal_build_uint32(pBuf,4);
        ; Setup parameters for call to function osal_build_uint32
        LCALL     ?Subroutine18 & 0xFFFF
??CrossCallReturnLabel_30:
        LCALL     ?XSTORE_R0123
//  148     pBuf += sizeof(uint32) + Z_EXTADDR_LEN;
        MOV       A,R6
        ADD       A,#0xc
        SJMP      ??MT_GpDataReq_7
//  149   }
//  150   else
//  151   {
//  152     pBuf += sizeof(uint32);
??MT_GpDataReq_6:
        MOV       A,R6
        ADD       A,#0x4
        MOV       R6,A
        JNC       ??MT_GpDataReq_8
        INC       R7
//  153     osal_memcpy(gp_DataReq->gpd_ID.GPDId.GPDExtAddr,pBuf,Z_EXTADDR_LEN);
??MT_GpDataReq_8:
        ; Setup parameters for call to function osal_memcpy
        MOV       ?V4,A
        MOV       ?V5,R7
        MOV       ?V6,#0x0
        MOV       R0,#?V4
        LCALL     ?PUSH_XSTACK_I_THREE
          CFI CFA_XSP16 add(XSP16, 19)
        LCALL     ?Subroutine19 & 0xFFFF
??CrossCallReturnLabel_73:
        LCALL     ?DEALLOC_XSTACK8
          CFI CFA_XSP16 add(XSP16, 16)
//  154     pBuf += Z_EXTADDR_LEN;
        MOV       A,R6
        ADD       A,#0x8
??MT_GpDataReq_7:
        MOV       R6,A
        JNC       ??MT_GpDataReq_9
        INC       R7
//  155   }
//  156 
//  157   gp_DataReq->EndPoint = *pBuf++;
??MT_GpDataReq_9:
        MOV       DPL,R6
        MOV       DPH,R7
        MOVX      A,@DPTR
        PUSH      A
          CFI CFA_SP SP+-1
        LCALL     ?Subroutine20 & 0xFFFF
??CrossCallReturnLabel_71:
        POP       A
          CFI CFA_SP SP+0
        LCALL     ?Subroutine15 & 0xFFFF
//  158   gp_DataReq->GPDCmmdId = *pBuf++;
??CrossCallReturnLabel_22:
        PUSH      A
          CFI CFA_SP SP+-1
        MOV       A,?V0
        ADD       A,#0xe
        LCALL     ??Subroutine33_0 & 0xFFFF
??CrossCallReturnLabel_62:
        POP       A
          CFI CFA_SP SP+0
        LCALL     ?Subroutine12 & 0xFFFF
//  159   gp_DataReq->GPDasduLength = *pBuf++;
??CrossCallReturnLabel_19:
        PUSH      A
          CFI CFA_SP SP+-1
        MOV       A,?V0
        ADD       A,#0x13
        LCALL     ??Subroutine33_0 & 0xFFFF
??CrossCallReturnLabel_63:
        POP       A
          CFI CFA_SP SP+0
        MOVX      @DPTR,A
        MOV       A,R6
        ADD       A,#0x3
        MOV       R6,A
        JNC       ??MT_GpDataReq_10
        INC       R7
//  160   osal_memcpy(gp_DataReq->GPDasdu,pBuf,payloadLen);
??MT_GpDataReq_10:
        ; Setup parameters for call to function osal_memcpy
        MOV       ?V4,A
        MOV       ?V5,R7
        MOV       ?V6,#0x0
        MOV       R0,#?V4
        LCALL     ?PUSH_XSTACK_I_THREE
          CFI CFA_XSP16 add(XSP16, 19)
        MOV       R4,?V2
        MOV       R5,#0x0
        MOV       A,?V0
        ADD       A,#0x14
        LCALL     ??Subroutine34_0 & 0xFFFF
??CrossCallReturnLabel_75:
        LCALL     ?DEALLOC_XSTACK8
          CFI CFA_XSP16 add(XSP16, 16)
//  161   pBuf += payloadLen;
        MOV       R0,?V2
        MOV       A,R6
        ADD       A,R0
        MOV       R6,A
        CLR       A
        ADDC      A,R7
        MOV       R7,A
//  162   gp_DataReq->GPEPhandle = *pBuf++;
        MOV       DPL,R6
        MOV       DPH,A
        MOVX      A,@DPTR
        PUSH      A
          CFI CFA_SP SP+-1
        MOV       A,?V0
        ADD       A,#0xf
        LCALL     ??Subroutine33_0 & 0xFFFF
??CrossCallReturnLabel_64:
        POP       A
          CFI CFA_SP SP+0
        LCALL     ?Subroutine15 & 0xFFFF
//  163   gp_DataReq->gpTxQueueEntryLifeTime[2] = *pBuf++;
??CrossCallReturnLabel_23:
        PUSH      A
          CFI CFA_SP SP+-1
        MOV       A,?V0
        ADD       A,#0x12
        LCALL     ??Subroutine33_0 & 0xFFFF
??CrossCallReturnLabel_65:
        POP       A
          CFI CFA_SP SP+0
        LCALL     ?Subroutine12 & 0xFFFF
//  164   gp_DataReq->gpTxQueueEntryLifeTime[1] = *pBuf++;
??CrossCallReturnLabel_20:
        PUSH      A
          CFI CFA_SP SP+-1
        MOV       A,?V0
        ADD       A,#0x11
        LCALL     ??Subroutine33_0 & 0xFFFF
??CrossCallReturnLabel_66:
        POP       A
          CFI CFA_SP SP+0
        LCALL     ?Subroutine29 & 0xFFFF
//  165   gp_DataReq->gpTxQueueEntryLifeTime[0] = *pBuf++;
??CrossCallReturnLabel_48:
        INC       DPTR
        INC       DPTR
        MOVX      A,@DPTR
        PUSH      A
          CFI CFA_SP SP+-1
        MOV       A,?V0
        ADD       A,#0x10
        LCALL     ??Subroutine33_0 & 0xFFFF
??CrossCallReturnLabel_67:
        POP       A
          CFI CFA_SP SP+0
        MOVX      @DPTR,A
        MOV       A,R6
        ADD       A,#0x4
//  166   
//  167   gp_DataReq->hdr.event = GP_DATA_REQ;
        MOV       DPL,?V0
        MOV       DPH,?V1
        MOV       A,#0x5
        LCALL     ?Subroutine11 & 0xFFFF
//  168   gp_DataReq->hdr.status = 0;
//  169 
//  170   osal_msg_send(gp_TaskID,(uint8*)gp_DataReq);
//  171 
//  172   /* Build and send back the response */
//  173   MT_BuildAndSendZToolResponse(((uint8)MT_RPC_CMD_SRSP | (uint8)MT_RPC_SYS_GP), cmdId, 1, &retValue);
        ; Setup parameters for call to function MT_BuildAndSendZToolResponse
??CrossCallReturnLabel_17:
        MOV       R4,?XSP + 0
        MOV       R5,?XSP + 1
        MOV       R3,#0x1
        MOV       R2,?V3
          CFI EndBlock cfiBlock2
        REQUIRE ?Subroutine1
        ; // Fall through to label ?Subroutine1
//  174 }

        RSEG BANKED_CODE:HUGECODE:NOROOT(0)
?Subroutine1:
          CFI Block cfiBlock3 Using cfiCommon0
          CFI NoFunction
          CFI CFA_SP SP+0
          CFI CFA_XSP16 add(XSP16, 16)
          CFI VB load(1, XDATA, add(CFA_XSP16, literal(-14)))
          CFI DPL0 load(1, XDATA, add(CFA_XSP16, literal(-2)))
          CFI DPH0 load(1, XDATA, add(CFA_XSP16, literal(-1)))
          CFI R6 load(1, XDATA, add(CFA_XSP16, literal(-15)))
          CFI R7 load(1, XDATA, add(CFA_XSP16, literal(-6)))
          CFI V0 load(1, XDATA, add(CFA_XSP16, literal(-13)))
          CFI V1 load(1, XDATA, add(CFA_XSP16, literal(-12)))
          CFI V2 load(1, XDATA, add(CFA_XSP16, literal(-11)))
          CFI V3 load(1, XDATA, add(CFA_XSP16, literal(-10)))
          CFI V4 load(1, XDATA, add(CFA_XSP16, literal(-9)))
          CFI V5 load(1, XDATA, add(CFA_XSP16, literal(-8)))
          CFI V6 load(1, XDATA, add(CFA_XSP16, literal(-7)))
          CFI ?BRET_EXT load(1, XDATA, add(CFA_XSP16, literal(-3)))
          CFI ?RET_HIGH load(1, XDATA, add(CFA_XSP16, literal(-4)))
          CFI ?RET_LOW load(1, XDATA, add(CFA_XSP16, literal(-5)))
        MOV       R1,#0x75
        LCALL     `??MT_BuildAndSendZToolResponse::?relay`; Banked call to: MT_BuildAndSendZToolResponse
        MOV       A,#0x1
        LCALL     ?DEALLOC_XSTACK8
          CFI CFA_XSP16 add(XSP16, 15)
        MOV       R7,#0x7
        LJMP      ?BANKED_LEAVE_XDATA
          CFI EndBlock cfiBlock3
//  175 
//  176 
//  177 
//  178 /***************************************************************************************************
//  179 * @fn      MT_GpSecRsp
//  180 *
//  181 * @brief   GP Sec Response interface
//  182 *
//  183 * @param   pBuf - gp sec rsp
//  184 *
//  185 * @return  void
//  186 ***************************************************************************************************/
//  187 

        RSEG BANKED_CODE:HUGECODE:NOROOT(0)
//  188 void MT_GpSecRsp(uint8 *pBuf)
MT_GpSecRsp:
          CFI Block cfiBlock4 Using cfiCommon0
          CFI Function MT_GpSecRsp
        CODE
//  189 {
        FUNCALL MT_GpSecRsp, osal_msg_allocate
        LOCFRAME ISTACK, 0, STACK
        LOCFRAME PSTACK, 0, STACK
        LOCFRAME XSTACK, 16, STACK
        LOCFRAME IOVERLAY, 0, STATIC
        LOCFRAME DOVERLAY, 0, STATIC
        ARGFRAME ISTACK, 0, STACK
        ARGFRAME PSTACK, 0, STACK
        ARGFRAME XSTACK, 16, STACK
        ARGFRAME IOVERLAY, 0, STATIC
        ARGFRAME DOVERLAY, 0, STATIC
        FUNCALL MT_GpSecRsp, MT_BuildAndSendZToolResponse
        LOCFRAME ISTACK, 0, STACK
        LOCFRAME PSTACK, 0, STACK
        LOCFRAME XSTACK, 16, STACK
        LOCFRAME IOVERLAY, 0, STATIC
        LOCFRAME DOVERLAY, 0, STATIC
        ARGFRAME ISTACK, 0, STACK
        ARGFRAME PSTACK, 0, STACK
        ARGFRAME XSTACK, 16, STACK
        ARGFRAME IOVERLAY, 0, STATIC
        ARGFRAME DOVERLAY, 0, STATIC
        FUNCALL MT_GpSecRsp, osal_build_uint32
        LOCFRAME ISTACK, 0, STACK
        LOCFRAME PSTACK, 0, STACK
        LOCFRAME XSTACK, 16, STACK
        LOCFRAME IOVERLAY, 0, STATIC
        LOCFRAME DOVERLAY, 0, STATIC
        ARGFRAME ISTACK, 0, STACK
        ARGFRAME PSTACK, 0, STACK
        ARGFRAME XSTACK, 16, STACK
        ARGFRAME IOVERLAY, 0, STATIC
        ARGFRAME DOVERLAY, 0, STATIC
        FUNCALL MT_GpSecRsp, osal_memcpy
        LOCFRAME ISTACK, 0, STACK
        LOCFRAME PSTACK, 0, STACK
        LOCFRAME XSTACK, 19, STACK
        LOCFRAME IOVERLAY, 0, STATIC
        LOCFRAME DOVERLAY, 0, STATIC
        ARGFRAME ISTACK, 0, STACK
        ARGFRAME PSTACK, 0, STACK
        ARGFRAME XSTACK, 19, STACK
        ARGFRAME IOVERLAY, 0, STATIC
        ARGFRAME DOVERLAY, 0, STATIC
        FUNCALL MT_GpSecRsp, osal_memcpy
        LOCFRAME ISTACK, 0, STACK
        LOCFRAME PSTACK, 0, STACK
        LOCFRAME XSTACK, 19, STACK
        LOCFRAME IOVERLAY, 0, STATIC
        LOCFRAME DOVERLAY, 0, STATIC
        ARGFRAME ISTACK, 0, STACK
        ARGFRAME PSTACK, 0, STACK
        ARGFRAME XSTACK, 19, STACK
        ARGFRAME IOVERLAY, 0, STATIC
        ARGFRAME DOVERLAY, 0, STATIC
        FUNCALL MT_GpSecRsp, osal_build_uint32
        LOCFRAME ISTACK, 0, STACK
        LOCFRAME PSTACK, 0, STACK
        LOCFRAME XSTACK, 16, STACK
        LOCFRAME IOVERLAY, 0, STATIC
        LOCFRAME DOVERLAY, 0, STATIC
        ARGFRAME ISTACK, 0, STACK
        ARGFRAME PSTACK, 0, STACK
        ARGFRAME XSTACK, 16, STACK
        ARGFRAME IOVERLAY, 0, STATIC
        ARGFRAME DOVERLAY, 0, STATIC
        FUNCALL MT_GpSecRsp, osal_msg_send
        LOCFRAME ISTACK, 0, STACK
        LOCFRAME PSTACK, 0, STACK
        LOCFRAME XSTACK, 16, STACK
        LOCFRAME IOVERLAY, 0, STATIC
        LOCFRAME DOVERLAY, 0, STATIC
        ARGFRAME ISTACK, 0, STACK
        ARGFRAME PSTACK, 0, STACK
        ARGFRAME XSTACK, 16, STACK
        ARGFRAME IOVERLAY, 0, STATIC
        ARGFRAME DOVERLAY, 0, STATIC
        FUNCALL MT_GpSecRsp, MT_BuildAndSendZToolResponse
        LOCFRAME ISTACK, 0, STACK
        LOCFRAME PSTACK, 0, STACK
        LOCFRAME XSTACK, 16, STACK
        LOCFRAME IOVERLAY, 0, STATIC
        LOCFRAME DOVERLAY, 0, STATIC
        ARGFRAME ISTACK, 0, STACK
        ARGFRAME PSTACK, 0, STACK
        ARGFRAME XSTACK, 16, STACK
        ARGFRAME IOVERLAY, 0, STATIC
        ARGFRAME DOVERLAY, 0, STATIC
        REQUIRE ?V0
        REQUIRE ?V1
        REQUIRE ?V2
        REQUIRE ?V4
        REQUIRE ?V5
        REQUIRE ?V6
        MOV       A,#-0xf
        LCALL     ?BANKED_ENTER_XDATA
          CFI DPH0 load(1, XDATA, add(CFA_XSP16, literal(-1)))
          CFI DPL0 load(1, XDATA, add(CFA_XSP16, literal(-2)))
          CFI ?BRET_EXT load(1, XDATA, add(CFA_XSP16, literal(-3)))
          CFI ?RET_HIGH load(1, XDATA, add(CFA_XSP16, literal(-4)))
          CFI ?RET_LOW load(1, XDATA, add(CFA_XSP16, literal(-5)))
          CFI R7 load(1, XDATA, add(CFA_XSP16, literal(-6)))
          CFI V6 load(1, XDATA, add(CFA_XSP16, literal(-7)))
          CFI V5 load(1, XDATA, add(CFA_XSP16, literal(-8)))
          CFI V4 load(1, XDATA, add(CFA_XSP16, literal(-9)))
          CFI V3 load(1, XDATA, add(CFA_XSP16, literal(-10)))
          CFI V2 load(1, XDATA, add(CFA_XSP16, literal(-11)))
          CFI V1 load(1, XDATA, add(CFA_XSP16, literal(-12)))
          CFI V0 load(1, XDATA, add(CFA_XSP16, literal(-13)))
          CFI VB load(1, XDATA, add(CFA_XSP16, literal(-14)))
          CFI R6 load(1, XDATA, add(CFA_XSP16, literal(-15)))
          CFI CFA_SP SP+0
          CFI CFA_XSP16 add(XSP16, 15)
        ; Saved register size: 15
        ; Auto size: 1
        MOV       A,#-0x1
        LCALL     ?ALLOC_XSTACK8
          CFI CFA_XSP16 add(XSP16, 16)
        LCALL     ?Subroutine17 & 0xFFFF
//  190   uint8 retValue = ZSuccess;
//  191   uint8 cmdId;
//  192   gp_SecRsp_t *gp_SecRsp;
//  193   
//  194   /* parse header */
//  195   cmdId = pBuf[MT_RPC_POS_CMD1];
??CrossCallReturnLabel_29:
        MOV       ?V2,A
//  196   pBuf += MT_RPC_FRAME_HDR_SZ;
        MOV       A,R2
        ADD       A,#0x3
        MOV       R6,A
        JNC       ??MT_GpSecRsp_0
        INC       R7
//  197   
//  198   gp_SecRsp = (gp_SecRsp_t*)osal_msg_allocate(sizeof(gp_SecRsp_t));
??MT_GpSecRsp_0:
        ; Setup parameters for call to function osal_msg_allocate
        MOV       R2,#0x24
        MOV       R3,#0x0
        LCALL     ?Subroutine24 & 0xFFFF
//  199   
//  200     //No memory
//  201   if(gp_SecRsp == NULL)
??CrossCallReturnLabel_39:
        JNZ       ??MT_GpSecRsp_1
//  202   {
//  203     retValue = FAILURE;
        MOV       DPL,?XSP + 0
        MOV       DPH,?XSP + 1
        MOV       A,#0x1
        MOVX      @DPTR,A
//  204   }
//  205   //Invalid application ID
//  206   if( (pBuf[GP_DATA_REQ_APP_ID_POS] != GP_APP_ID_DEFAULT) && (pBuf[GP_DATA_REQ_APP_ID_POS] != GP_APP_ID_GP ) )
??MT_GpSecRsp_1:
        MOV       DPL,R6
        MOV       DPH,R7
        INC       DPTR
        INC       DPTR
        MOVX      A,@DPTR
        JZ        ??MT_GpSecRsp_2
        XRL       A,#0x2
        JZ        ??MT_GpSecRsp_2
//  207   {
//  208     retValue = INVALIDPARAMETER;
        MOV       DPL,?XSP + 0
        MOV       DPH,?XSP + 1
        MOV       A,#0x2
        MOVX      @DPTR,A
        SJMP      ??MT_GpSecRsp_3
//  209   }
//  210   //Return fail/InvalidParameter
//  211   if(retValue)
??MT_GpSecRsp_2:
        MOV       DPL,?XSP + 0
        MOV       DPH,?XSP + 1
        MOVX      A,@DPTR
        JZ        ??MT_GpSecRsp_4
//  212   {
//  213     /* Build and send back the response */
//  214     MT_BuildAndSendZToolResponse(((uint8)MT_RPC_CMD_SRSP | (uint8)MT_RPC_SYS_GP), cmdId, 1, &retValue);
??MT_GpSecRsp_3:
        ; Setup parameters for call to function MT_BuildAndSendZToolResponse
        LJMP      ??CrossCallReturnLabel_18 & 0xFFFF
//  215     return;
//  216   }
//  217   
//  218   gp_SecRsp->Status = *pBuf++;
??MT_GpSecRsp_4:
        LCALL     ?Subroutine2 & 0xFFFF
//  219   gp_SecRsp->dGPStubHandle = *pBuf++;
??CrossCallReturnLabel_1:
        JNC       ??MT_GpSecRsp_5
        INC       R7
//  220   gp_SecRsp->gpd_ID.AppID = *pBuf++;
//  221   if(gp_SecRsp->gpd_ID.AppID == GP_APP_ID_DEFAULT)
??MT_GpSecRsp_5:
        MOV       A,R0
        JNZ       ??MT_GpSecRsp_6
//  222   {
//  223     gp_SecRsp->gpd_ID.GPDId.SrcID = osal_build_uint32(pBuf,4);
        ; Setup parameters for call to function osal_build_uint32
        LCALL     ?Subroutine18 & 0xFFFF
??CrossCallReturnLabel_31:
        LCALL     ?XSTORE_R0123
//  224     pBuf += sizeof(uint32) + Z_EXTADDR_LEN;
        MOV       A,R6
        ADD       A,#0xc
        SJMP      ??MT_GpSecRsp_7
//  225   }
//  226   else
//  227   {
//  228     pBuf += sizeof(uint32);
??MT_GpSecRsp_6:
        MOV       A,R6
        ADD       A,#0x4
        MOV       R6,A
        JNC       ??MT_GpSecRsp_8
        INC       R7
//  229     osal_memcpy(gp_SecRsp->gpd_ID.GPDId.GPDExtAddr,pBuf,Z_EXTADDR_LEN);
??MT_GpSecRsp_8:
        ; Setup parameters for call to function osal_memcpy
        MOV       ?V4,A
        MOV       ?V5,R7
        MOV       ?V6,#0x0
        MOV       R0,#?V4
        LCALL     ?PUSH_XSTACK_I_THREE
          CFI CFA_XSP16 add(XSP16, 19)
        LCALL     ?Subroutine19 & 0xFFFF
??CrossCallReturnLabel_74:
        LCALL     ?DEALLOC_XSTACK8
          CFI CFA_XSP16 add(XSP16, 16)
//  230     pBuf += Z_EXTADDR_LEN;
        MOV       A,R6
        ADD       A,#0x8
??MT_GpSecRsp_7:
        MOV       R6,A
        JNC       ??MT_GpSecRsp_9
        INC       R7
//  231   }
//  232   gp_SecRsp->EndPoint = *pBuf++;
??MT_GpSecRsp_9:
        MOV       DPL,R6
        MOV       DPH,R7
        MOVX      A,@DPTR
        PUSH      A
          CFI CFA_SP SP+-1
        LCALL     ?Subroutine20 & 0xFFFF
??CrossCallReturnLabel_72:
        POP       A
          CFI CFA_SP SP+0
        LCALL     ?Subroutine15 & 0xFFFF
//  233   gp_SecRsp->gp_SecData.GPDFSecLvl = *pBuf++;
??CrossCallReturnLabel_24:
        PUSH      A
          CFI CFA_SP SP+-1
        MOV       A,?V0
        ADD       A,#0xe
        LCALL     ??Subroutine33_0 & 0xFFFF
??CrossCallReturnLabel_68:
        POP       A
          CFI CFA_SP SP+0
        LCALL     ?Subroutine12 & 0xFFFF
//  234   gp_SecRsp->gp_SecData.GPDFKeyType = *pBuf++; 
??CrossCallReturnLabel_21:
        PUSH      A
          CFI CFA_SP SP+-1
        MOV       A,?V0
        ADD       A,#0xf
        LCALL     ??Subroutine33_0 & 0xFFFF
??CrossCallReturnLabel_69:
        POP       A
          CFI CFA_SP SP+0
        MOVX      @DPTR,A
        MOV       A,R6
        ADD       A,#0x3
        MOV       R6,A
        JNC       ??MT_GpSecRsp_10
        INC       R7
//  235   osal_memcpy(gp_SecRsp->GPDKey,pBuf,SEC_KEY_LEN);
??MT_GpSecRsp_10:
        ; Setup parameters for call to function osal_memcpy
        MOV       ?V4,A
        MOV       ?V5,R7
        MOV       ?V6,#0x0
        MOV       R0,#?V4
        LCALL     ?PUSH_XSTACK_I_THREE
          CFI CFA_XSP16 add(XSP16, 19)
        MOV       R4,#0x10
        MOV       R5,#0x0
        MOV       A,?V0
        ADD       A,#0x14
        LCALL     ??Subroutine34_0 & 0xFFFF
??CrossCallReturnLabel_76:
        LCALL     ?DEALLOC_XSTACK8
          CFI CFA_XSP16 add(XSP16, 16)
//  236   pBuf += SEC_KEY_LEN;
//  237   gp_SecRsp->gp_SecData.GPDSecFrameCounter = osal_build_uint32(pBuf,4);
        ; Setup parameters for call to function osal_build_uint32
        MOV       R1,#0x4
        MOV       A,R6
        ADD       A,#0x10
        MOV       R2,A
        CLR       A
        ADDC      A,R7
        MOV       R3,A
        LCALL     `??osal_build_uint32::?relay`; Banked call to: osal_build_uint32
        MOV       A,?V0
        ADD       A,#0x10
        LCALL     ??Subroutine33_0 & 0xFFFF
??CrossCallReturnLabel_70:
        LCALL     ?XSTORE_R2345
//  238   
//  239   gp_SecRsp->hdr.event = GP_SEC_RSP;
        MOV       DPL,?V0
        MOV       DPH,?V1
        MOV       A,#0x8
        LCALL     ?Subroutine11 & 0xFFFF
//  240   gp_SecRsp->hdr.status = 0;
//  241   
//  242   osal_msg_send(gp_TaskID,(uint8*)gp_SecRsp);
//  243 
//  244   /* Build and send back the response */
//  245   MT_BuildAndSendZToolResponse(((uint8)MT_RPC_CMD_SRSP | (uint8)MT_RPC_SYS_GP), cmdId, 1, &retValue);
        ; Setup parameters for call to function MT_BuildAndSendZToolResponse
??CrossCallReturnLabel_18:
        MOV       R4,?XSP + 0
        MOV       R5,?XSP + 1
        MOV       R3,#0x1
        MOV       R2,?V2
        LJMP      ?Subroutine1 & 0xFFFF
//  246 }
          CFI EndBlock cfiBlock4

        RSEG BANKED_CODE:HUGECODE:NOROOT(0)
?Subroutine24:
          CFI Block cfiCond5 Using cfiCommon0
          CFI Function MT_GpDataReq
          CFI Conditional ??CrossCallReturnLabel_38
          CFI R6 load(1, XDATA, add(CFA_XSP16, literal(-15)))
          CFI VB load(1, XDATA, add(CFA_XSP16, literal(-14)))
          CFI V0 load(1, XDATA, add(CFA_XSP16, literal(-13)))
          CFI V1 load(1, XDATA, add(CFA_XSP16, literal(-12)))
          CFI V2 load(1, XDATA, add(CFA_XSP16, literal(-11)))
          CFI V3 load(1, XDATA, add(CFA_XSP16, literal(-10)))
          CFI V4 load(1, XDATA, add(CFA_XSP16, literal(-9)))
          CFI V5 load(1, XDATA, add(CFA_XSP16, literal(-8)))
          CFI V6 load(1, XDATA, add(CFA_XSP16, literal(-7)))
          CFI R7 load(1, XDATA, add(CFA_XSP16, literal(-6)))
          CFI ?RET_LOW load(1, XDATA, add(CFA_XSP16, literal(-5)))
          CFI ?RET_HIGH load(1, XDATA, add(CFA_XSP16, literal(-4)))
          CFI ?BRET_EXT load(1, XDATA, add(CFA_XSP16, literal(-3)))
          CFI DPL0 load(1, XDATA, add(CFA_XSP16, literal(-2)))
          CFI DPH0 load(1, XDATA, add(CFA_XSP16, literal(-1)))
          CFI CFA_SP SP+-2
          CFI CFA_XSP16 add(XSP16, 16)
          CFI Block cfiCond6 Using cfiCommon0
          CFI (cfiCond6) Function MT_GpSecRsp
          CFI (cfiCond6) Conditional ??CrossCallReturnLabel_39
          CFI (cfiCond6) R6 load(1, XDATA, add(CFA_XSP16, literal(-15)))
          CFI (cfiCond6) VB load(1, XDATA, add(CFA_XSP16, literal(-14)))
          CFI (cfiCond6) V0 load(1, XDATA, add(CFA_XSP16, literal(-13)))
          CFI (cfiCond6) V1 load(1, XDATA, add(CFA_XSP16, literal(-12)))
          CFI (cfiCond6) V2 load(1, XDATA, add(CFA_XSP16, literal(-11)))
          CFI (cfiCond6) V3 load(1, XDATA, add(CFA_XSP16, literal(-10)))
          CFI (cfiCond6) V4 load(1, XDATA, add(CFA_XSP16, literal(-9)))
          CFI (cfiCond6) V5 load(1, XDATA, add(CFA_XSP16, literal(-8)))
          CFI (cfiCond6) V6 load(1, XDATA, add(CFA_XSP16, literal(-7)))
          CFI (cfiCond6) R7 load(1, XDATA, add(CFA_XSP16, literal(-6)))
          CFI (cfiCond6) ?RET_LOW load(1, XDATA, add(CFA_XSP16, literal(-5)))
          CFI (cfiCond6) ?RET_HIGH load(1, XDATA, add(CFA_XSP16, literal(-4)))
          CFI (cfiCond6) ?BRET_EXT load(1, XDATA, add(CFA_XSP16, literal(-3)))
          CFI (cfiCond6) DPL0 load(1, XDATA, add(CFA_XSP16, literal(-2)))
          CFI (cfiCond6) DPH0 load(1, XDATA, add(CFA_XSP16, literal(-1)))
          CFI (cfiCond6) CFA_SP SP+-2
          CFI (cfiCond6) CFA_XSP16 add(XSP16, 16)
          CFI Block cfiPicker7 Using cfiCommon1
          CFI (cfiPicker7) NoFunction
          CFI (cfiPicker7) Picker
        LCALL     `??osal_msg_allocate::?relay`; Banked call to: osal_msg_allocate
        MOV       ?V0,R2
        MOV       ?V1,R3
        MOV       A,R2
        ORL       A,R3
        RET
          CFI EndBlock cfiCond5
          CFI EndBlock cfiCond6
          CFI EndBlock cfiPicker7

        RSEG BANKED_CODE:HUGECODE:NOROOT(0)
?Subroutine20:
          CFI Block cfiCond8 Using cfiCommon0
          CFI Function MT_GpDataReq
          CFI Conditional ??CrossCallReturnLabel_71
          CFI R6 load(1, XDATA, add(CFA_XSP16, literal(-15)))
          CFI VB load(1, XDATA, add(CFA_XSP16, literal(-14)))
          CFI V0 load(1, XDATA, add(CFA_XSP16, literal(-13)))
          CFI V1 load(1, XDATA, add(CFA_XSP16, literal(-12)))
          CFI V2 load(1, XDATA, add(CFA_XSP16, literal(-11)))
          CFI V3 load(1, XDATA, add(CFA_XSP16, literal(-10)))
          CFI V4 load(1, XDATA, add(CFA_XSP16, literal(-9)))
          CFI V5 load(1, XDATA, add(CFA_XSP16, literal(-8)))
          CFI V6 load(1, XDATA, add(CFA_XSP16, literal(-7)))
          CFI R7 load(1, XDATA, add(CFA_XSP16, literal(-6)))
          CFI ?RET_LOW load(1, XDATA, add(CFA_XSP16, literal(-5)))
          CFI ?RET_HIGH load(1, XDATA, add(CFA_XSP16, literal(-4)))
          CFI ?BRET_EXT load(1, XDATA, add(CFA_XSP16, literal(-3)))
          CFI DPL0 load(1, XDATA, add(CFA_XSP16, literal(-2)))
          CFI DPH0 load(1, XDATA, add(CFA_XSP16, literal(-1)))
          CFI CFA_XSP16 add(XSP16, 16)
          CFI Block cfiCond9 Using cfiCommon0
          CFI (cfiCond9) Function MT_GpSecRsp
          CFI (cfiCond9) Conditional ??CrossCallReturnLabel_72
          CFI (cfiCond9) R6 load(1, XDATA, add(CFA_XSP16, literal(-15)))
          CFI (cfiCond9) VB load(1, XDATA, add(CFA_XSP16, literal(-14)))
          CFI (cfiCond9) V0 load(1, XDATA, add(CFA_XSP16, literal(-13)))
          CFI (cfiCond9) V1 load(1, XDATA, add(CFA_XSP16, literal(-12)))
          CFI (cfiCond9) V2 load(1, XDATA, add(CFA_XSP16, literal(-11)))
          CFI (cfiCond9) V3 load(1, XDATA, add(CFA_XSP16, literal(-10)))
          CFI (cfiCond9) V4 load(1, XDATA, add(CFA_XSP16, literal(-9)))
          CFI (cfiCond9) V5 load(1, XDATA, add(CFA_XSP16, literal(-8)))
          CFI (cfiCond9) V6 load(1, XDATA, add(CFA_XSP16, literal(-7)))
          CFI (cfiCond9) R7 load(1, XDATA, add(CFA_XSP16, literal(-6)))
          CFI (cfiCond9) ?RET_LOW load(1, XDATA, add(CFA_XSP16, literal(-5)))
          CFI (cfiCond9) ?RET_HIGH load(1, XDATA, add(CFA_XSP16, literal(-4)))
          CFI (cfiCond9) ?BRET_EXT load(1, XDATA, add(CFA_XSP16, literal(-3)))
          CFI (cfiCond9) DPL0 load(1, XDATA, add(CFA_XSP16, literal(-2)))
          CFI (cfiCond9) DPH0 load(1, XDATA, add(CFA_XSP16, literal(-1)))
          CFI (cfiCond9) CFA_XSP16 add(XSP16, 16)
          CFI Block cfiPicker10 Using cfiCommon1
          CFI (cfiPicker10) NoFunction
          CFI (cfiPicker10) Picker
        MOV       A,?V0
        ADD       A,#0xd
          CFI EndBlock cfiCond8
          CFI EndBlock cfiCond9
          CFI EndBlock cfiPicker10
        REQUIRE ??Subroutine33_0
        ; // Fall through to label ??Subroutine33_0

        RSEG BANKED_CODE:HUGECODE:NOROOT(0)
??Subroutine33_0:
          CFI Block cfiCond11 Using cfiCommon0
          CFI Function MT_GpDataReq
          CFI Conditional ??CrossCallReturnLabel_62
          CFI R6 load(1, XDATA, add(CFA_XSP16, literal(-15)))
          CFI VB load(1, XDATA, add(CFA_XSP16, literal(-14)))
          CFI V0 load(1, XDATA, add(CFA_XSP16, literal(-13)))
          CFI V1 load(1, XDATA, add(CFA_XSP16, literal(-12)))
          CFI V2 load(1, XDATA, add(CFA_XSP16, literal(-11)))
          CFI V3 load(1, XDATA, add(CFA_XSP16, literal(-10)))
          CFI V4 load(1, XDATA, add(CFA_XSP16, literal(-9)))
          CFI V5 load(1, XDATA, add(CFA_XSP16, literal(-8)))
          CFI V6 load(1, XDATA, add(CFA_XSP16, literal(-7)))
          CFI R7 load(1, XDATA, add(CFA_XSP16, literal(-6)))
          CFI ?RET_LOW load(1, XDATA, add(CFA_XSP16, literal(-5)))
          CFI ?RET_HIGH load(1, XDATA, add(CFA_XSP16, literal(-4)))
          CFI ?BRET_EXT load(1, XDATA, add(CFA_XSP16, literal(-3)))
          CFI DPL0 load(1, XDATA, add(CFA_XSP16, literal(-2)))
          CFI DPH0 load(1, XDATA, add(CFA_XSP16, literal(-1)))
          CFI CFA_XSP16 add(XSP16, 16)
          CFI Block cfiCond12 Using cfiCommon0
          CFI (cfiCond12) Function MT_GpDataReq
          CFI (cfiCond12) Conditional ??CrossCallReturnLabel_63
          CFI (cfiCond12) R6 load(1, XDATA, add(CFA_XSP16, literal(-15)))
          CFI (cfiCond12) VB load(1, XDATA, add(CFA_XSP16, literal(-14)))
          CFI (cfiCond12) V0 load(1, XDATA, add(CFA_XSP16, literal(-13)))
          CFI (cfiCond12) V1 load(1, XDATA, add(CFA_XSP16, literal(-12)))
          CFI (cfiCond12) V2 load(1, XDATA, add(CFA_XSP16, literal(-11)))
          CFI (cfiCond12) V3 load(1, XDATA, add(CFA_XSP16, literal(-10)))
          CFI (cfiCond12) V4 load(1, XDATA, add(CFA_XSP16, literal(-9)))
          CFI (cfiCond12) V5 load(1, XDATA, add(CFA_XSP16, literal(-8)))
          CFI (cfiCond12) V6 load(1, XDATA, add(CFA_XSP16, literal(-7)))
          CFI (cfiCond12) R7 load(1, XDATA, add(CFA_XSP16, literal(-6)))
          CFI (cfiCond12) ?RET_LOW load(1, XDATA, add(CFA_XSP16, literal(-5)))
          CFI (cfiCond12) ?RET_HIGH load(1, XDATA, add(CFA_XSP16, literal(-4)))
          CFI (cfiCond12) ?BRET_EXT load(1, XDATA, add(CFA_XSP16, literal(-3)))
          CFI (cfiCond12) DPL0 load(1, XDATA, add(CFA_XSP16, literal(-2)))
          CFI (cfiCond12) DPH0 load(1, XDATA, add(CFA_XSP16, literal(-1)))
          CFI (cfiCond12) CFA_XSP16 add(XSP16, 16)
          CFI Block cfiCond13 Using cfiCommon0
          CFI (cfiCond13) Function MT_GpDataReq
          CFI (cfiCond13) Conditional ??CrossCallReturnLabel_64
          CFI (cfiCond13) R6 load(1, XDATA, add(CFA_XSP16, literal(-15)))
          CFI (cfiCond13) VB load(1, XDATA, add(CFA_XSP16, literal(-14)))
          CFI (cfiCond13) V0 load(1, XDATA, add(CFA_XSP16, literal(-13)))
          CFI (cfiCond13) V1 load(1, XDATA, add(CFA_XSP16, literal(-12)))
          CFI (cfiCond13) V2 load(1, XDATA, add(CFA_XSP16, literal(-11)))
          CFI (cfiCond13) V3 load(1, XDATA, add(CFA_XSP16, literal(-10)))
          CFI (cfiCond13) V4 load(1, XDATA, add(CFA_XSP16, literal(-9)))
          CFI (cfiCond13) V5 load(1, XDATA, add(CFA_XSP16, literal(-8)))
          CFI (cfiCond13) V6 load(1, XDATA, add(CFA_XSP16, literal(-7)))
          CFI (cfiCond13) R7 load(1, XDATA, add(CFA_XSP16, literal(-6)))
          CFI (cfiCond13) ?RET_LOW load(1, XDATA, add(CFA_XSP16, literal(-5)))
          CFI (cfiCond13) ?RET_HIGH load(1, XDATA, add(CFA_XSP16, literal(-4)))
          CFI (cfiCond13) ?BRET_EXT load(1, XDATA, add(CFA_XSP16, literal(-3)))
          CFI (cfiCond13) DPL0 load(1, XDATA, add(CFA_XSP16, literal(-2)))
          CFI (cfiCond13) DPH0 load(1, XDATA, add(CFA_XSP16, literal(-1)))
          CFI (cfiCond13) CFA_XSP16 add(XSP16, 16)
          CFI Block cfiCond14 Using cfiCommon0
          CFI (cfiCond14) Function MT_GpDataReq
          CFI (cfiCond14) Conditional ??CrossCallReturnLabel_65
          CFI (cfiCond14) R6 load(1, XDATA, add(CFA_XSP16, literal(-15)))
          CFI (cfiCond14) VB load(1, XDATA, add(CFA_XSP16, literal(-14)))
          CFI (cfiCond14) V0 load(1, XDATA, add(CFA_XSP16, literal(-13)))
          CFI (cfiCond14) V1 load(1, XDATA, add(CFA_XSP16, literal(-12)))
          CFI (cfiCond14) V2 load(1, XDATA, add(CFA_XSP16, literal(-11)))
          CFI (cfiCond14) V3 load(1, XDATA, add(CFA_XSP16, literal(-10)))
          CFI (cfiCond14) V4 load(1, XDATA, add(CFA_XSP16, literal(-9)))
          CFI (cfiCond14) V5 load(1, XDATA, add(CFA_XSP16, literal(-8)))
          CFI (cfiCond14) V6 load(1, XDATA, add(CFA_XSP16, literal(-7)))
          CFI (cfiCond14) R7 load(1, XDATA, add(CFA_XSP16, literal(-6)))
          CFI (cfiCond14) ?RET_LOW load(1, XDATA, add(CFA_XSP16, literal(-5)))
          CFI (cfiCond14) ?RET_HIGH load(1, XDATA, add(CFA_XSP16, literal(-4)))
          CFI (cfiCond14) ?BRET_EXT load(1, XDATA, add(CFA_XSP16, literal(-3)))
          CFI (cfiCond14) DPL0 load(1, XDATA, add(CFA_XSP16, literal(-2)))
          CFI (cfiCond14) DPH0 load(1, XDATA, add(CFA_XSP16, literal(-1)))
          CFI (cfiCond14) CFA_XSP16 add(XSP16, 16)
          CFI Block cfiCond15 Using cfiCommon0
          CFI (cfiCond15) Function MT_GpDataReq
          CFI (cfiCond15) Conditional ??CrossCallReturnLabel_66
          CFI (cfiCond15) R6 load(1, XDATA, add(CFA_XSP16, literal(-15)))
          CFI (cfiCond15) VB load(1, XDATA, add(CFA_XSP16, literal(-14)))
          CFI (cfiCond15) V0 load(1, XDATA, add(CFA_XSP16, literal(-13)))
          CFI (cfiCond15) V1 load(1, XDATA, add(CFA_XSP16, literal(-12)))
          CFI (cfiCond15) V2 load(1, XDATA, add(CFA_XSP16, literal(-11)))
          CFI (cfiCond15) V3 load(1, XDATA, add(CFA_XSP16, literal(-10)))
          CFI (cfiCond15) V4 load(1, XDATA, add(CFA_XSP16, literal(-9)))
          CFI (cfiCond15) V5 load(1, XDATA, add(CFA_XSP16, literal(-8)))
          CFI (cfiCond15) V6 load(1, XDATA, add(CFA_XSP16, literal(-7)))
          CFI (cfiCond15) R7 load(1, XDATA, add(CFA_XSP16, literal(-6)))
          CFI (cfiCond15) ?RET_LOW load(1, XDATA, add(CFA_XSP16, literal(-5)))
          CFI (cfiCond15) ?RET_HIGH load(1, XDATA, add(CFA_XSP16, literal(-4)))
          CFI (cfiCond15) ?BRET_EXT load(1, XDATA, add(CFA_XSP16, literal(-3)))
          CFI (cfiCond15) DPL0 load(1, XDATA, add(CFA_XSP16, literal(-2)))
          CFI (cfiCond15) DPH0 load(1, XDATA, add(CFA_XSP16, literal(-1)))
          CFI (cfiCond15) CFA_XSP16 add(XSP16, 16)
          CFI Block cfiCond16 Using cfiCommon0
          CFI (cfiCond16) Function MT_GpDataReq
          CFI (cfiCond16) Conditional ??CrossCallReturnLabel_67
          CFI (cfiCond16) R6 load(1, XDATA, add(CFA_XSP16, literal(-15)))
          CFI (cfiCond16) VB load(1, XDATA, add(CFA_XSP16, literal(-14)))
          CFI (cfiCond16) V0 load(1, XDATA, add(CFA_XSP16, literal(-13)))
          CFI (cfiCond16) V1 load(1, XDATA, add(CFA_XSP16, literal(-12)))
          CFI (cfiCond16) V2 load(1, XDATA, add(CFA_XSP16, literal(-11)))
          CFI (cfiCond16) V3 load(1, XDATA, add(CFA_XSP16, literal(-10)))
          CFI (cfiCond16) V4 load(1, XDATA, add(CFA_XSP16, literal(-9)))
          CFI (cfiCond16) V5 load(1, XDATA, add(CFA_XSP16, literal(-8)))
          CFI (cfiCond16) V6 load(1, XDATA, add(CFA_XSP16, literal(-7)))
          CFI (cfiCond16) R7 load(1, XDATA, add(CFA_XSP16, literal(-6)))
          CFI (cfiCond16) ?RET_LOW load(1, XDATA, add(CFA_XSP16, literal(-5)))
          CFI (cfiCond16) ?RET_HIGH load(1, XDATA, add(CFA_XSP16, literal(-4)))
          CFI (cfiCond16) ?BRET_EXT load(1, XDATA, add(CFA_XSP16, literal(-3)))
          CFI (cfiCond16) DPL0 load(1, XDATA, add(CFA_XSP16, literal(-2)))
          CFI (cfiCond16) DPH0 load(1, XDATA, add(CFA_XSP16, literal(-1)))
          CFI (cfiCond16) CFA_XSP16 add(XSP16, 16)
          CFI Block cfiCond17 Using cfiCommon0
          CFI (cfiCond17) Function MT_GpSecRsp
          CFI (cfiCond17) Conditional ??CrossCallReturnLabel_68
          CFI (cfiCond17) R6 load(1, XDATA, add(CFA_XSP16, literal(-15)))
          CFI (cfiCond17) VB load(1, XDATA, add(CFA_XSP16, literal(-14)))
          CFI (cfiCond17) V0 load(1, XDATA, add(CFA_XSP16, literal(-13)))
          CFI (cfiCond17) V1 load(1, XDATA, add(CFA_XSP16, literal(-12)))
          CFI (cfiCond17) V2 load(1, XDATA, add(CFA_XSP16, literal(-11)))
          CFI (cfiCond17) V3 load(1, XDATA, add(CFA_XSP16, literal(-10)))
          CFI (cfiCond17) V4 load(1, XDATA, add(CFA_XSP16, literal(-9)))
          CFI (cfiCond17) V5 load(1, XDATA, add(CFA_XSP16, literal(-8)))
          CFI (cfiCond17) V6 load(1, XDATA, add(CFA_XSP16, literal(-7)))
          CFI (cfiCond17) R7 load(1, XDATA, add(CFA_XSP16, literal(-6)))
          CFI (cfiCond17) ?RET_LOW load(1, XDATA, add(CFA_XSP16, literal(-5)))
          CFI (cfiCond17) ?RET_HIGH load(1, XDATA, add(CFA_XSP16, literal(-4)))
          CFI (cfiCond17) ?BRET_EXT load(1, XDATA, add(CFA_XSP16, literal(-3)))
          CFI (cfiCond17) DPL0 load(1, XDATA, add(CFA_XSP16, literal(-2)))
          CFI (cfiCond17) DPH0 load(1, XDATA, add(CFA_XSP16, literal(-1)))
          CFI (cfiCond17) CFA_XSP16 add(XSP16, 16)
          CFI Block cfiCond18 Using cfiCommon0
          CFI (cfiCond18) Function MT_GpSecRsp
          CFI (cfiCond18) Conditional ??CrossCallReturnLabel_69
          CFI (cfiCond18) R6 load(1, XDATA, add(CFA_XSP16, literal(-15)))
          CFI (cfiCond18) VB load(1, XDATA, add(CFA_XSP16, literal(-14)))
          CFI (cfiCond18) V0 load(1, XDATA, add(CFA_XSP16, literal(-13)))
          CFI (cfiCond18) V1 load(1, XDATA, add(CFA_XSP16, literal(-12)))
          CFI (cfiCond18) V2 load(1, XDATA, add(CFA_XSP16, literal(-11)))
          CFI (cfiCond18) V3 load(1, XDATA, add(CFA_XSP16, literal(-10)))
          CFI (cfiCond18) V4 load(1, XDATA, add(CFA_XSP16, literal(-9)))
          CFI (cfiCond18) V5 load(1, XDATA, add(CFA_XSP16, literal(-8)))
          CFI (cfiCond18) V6 load(1, XDATA, add(CFA_XSP16, literal(-7)))
          CFI (cfiCond18) R7 load(1, XDATA, add(CFA_XSP16, literal(-6)))
          CFI (cfiCond18) ?RET_LOW load(1, XDATA, add(CFA_XSP16, literal(-5)))
          CFI (cfiCond18) ?RET_HIGH load(1, XDATA, add(CFA_XSP16, literal(-4)))
          CFI (cfiCond18) ?BRET_EXT load(1, XDATA, add(CFA_XSP16, literal(-3)))
          CFI (cfiCond18) DPL0 load(1, XDATA, add(CFA_XSP16, literal(-2)))
          CFI (cfiCond18) DPH0 load(1, XDATA, add(CFA_XSP16, literal(-1)))
          CFI (cfiCond18) CFA_XSP16 add(XSP16, 16)
          CFI Block cfiCond19 Using cfiCommon0
          CFI (cfiCond19) Function MT_GpSecRsp
          CFI (cfiCond19) Conditional ??CrossCallReturnLabel_70
          CFI (cfiCond19) R6 load(1, XDATA, add(CFA_XSP16, literal(-15)))
          CFI (cfiCond19) VB load(1, XDATA, add(CFA_XSP16, literal(-14)))
          CFI (cfiCond19) V0 load(1, XDATA, add(CFA_XSP16, literal(-13)))
          CFI (cfiCond19) V1 load(1, XDATA, add(CFA_XSP16, literal(-12)))
          CFI (cfiCond19) V2 load(1, XDATA, add(CFA_XSP16, literal(-11)))
          CFI (cfiCond19) V3 load(1, XDATA, add(CFA_XSP16, literal(-10)))
          CFI (cfiCond19) V4 load(1, XDATA, add(CFA_XSP16, literal(-9)))
          CFI (cfiCond19) V5 load(1, XDATA, add(CFA_XSP16, literal(-8)))
          CFI (cfiCond19) V6 load(1, XDATA, add(CFA_XSP16, literal(-7)))
          CFI (cfiCond19) R7 load(1, XDATA, add(CFA_XSP16, literal(-6)))
          CFI (cfiCond19) ?RET_LOW load(1, XDATA, add(CFA_XSP16, literal(-5)))
          CFI (cfiCond19) ?RET_HIGH load(1, XDATA, add(CFA_XSP16, literal(-4)))
          CFI (cfiCond19) ?BRET_EXT load(1, XDATA, add(CFA_XSP16, literal(-3)))
          CFI (cfiCond19) DPL0 load(1, XDATA, add(CFA_XSP16, literal(-2)))
          CFI (cfiCond19) DPH0 load(1, XDATA, add(CFA_XSP16, literal(-1)))
          CFI (cfiCond19) CFA_SP SP+-2
          CFI (cfiCond19) CFA_XSP16 add(XSP16, 16)
          CFI Block cfiCond20 Using cfiCommon0
          CFI (cfiCond20) Function MT_GpDataReq
          CFI (cfiCond20) Conditional ??CrossCallReturnLabel_71
          CFI (cfiCond20) R6 load(1, XDATA, add(CFA_XSP16, literal(-15)))
          CFI (cfiCond20) VB load(1, XDATA, add(CFA_XSP16, literal(-14)))
          CFI (cfiCond20) V0 load(1, XDATA, add(CFA_XSP16, literal(-13)))
          CFI (cfiCond20) V1 load(1, XDATA, add(CFA_XSP16, literal(-12)))
          CFI (cfiCond20) V2 load(1, XDATA, add(CFA_XSP16, literal(-11)))
          CFI (cfiCond20) V3 load(1, XDATA, add(CFA_XSP16, literal(-10)))
          CFI (cfiCond20) V4 load(1, XDATA, add(CFA_XSP16, literal(-9)))
          CFI (cfiCond20) V5 load(1, XDATA, add(CFA_XSP16, literal(-8)))
          CFI (cfiCond20) V6 load(1, XDATA, add(CFA_XSP16, literal(-7)))
          CFI (cfiCond20) R7 load(1, XDATA, add(CFA_XSP16, literal(-6)))
          CFI (cfiCond20) ?RET_LOW load(1, XDATA, add(CFA_XSP16, literal(-5)))
          CFI (cfiCond20) ?RET_HIGH load(1, XDATA, add(CFA_XSP16, literal(-4)))
          CFI (cfiCond20) ?BRET_EXT load(1, XDATA, add(CFA_XSP16, literal(-3)))
          CFI (cfiCond20) DPL0 load(1, XDATA, add(CFA_XSP16, literal(-2)))
          CFI (cfiCond20) DPH0 load(1, XDATA, add(CFA_XSP16, literal(-1)))
          CFI (cfiCond20) CFA_XSP16 add(XSP16, 16)
          CFI Block cfiCond21 Using cfiCommon0
          CFI (cfiCond21) Function MT_GpSecRsp
          CFI (cfiCond21) Conditional ??CrossCallReturnLabel_72
          CFI (cfiCond21) R6 load(1, XDATA, add(CFA_XSP16, literal(-15)))
          CFI (cfiCond21) VB load(1, XDATA, add(CFA_XSP16, literal(-14)))
          CFI (cfiCond21) V0 load(1, XDATA, add(CFA_XSP16, literal(-13)))
          CFI (cfiCond21) V1 load(1, XDATA, add(CFA_XSP16, literal(-12)))
          CFI (cfiCond21) V2 load(1, XDATA, add(CFA_XSP16, literal(-11)))
          CFI (cfiCond21) V3 load(1, XDATA, add(CFA_XSP16, literal(-10)))
          CFI (cfiCond21) V4 load(1, XDATA, add(CFA_XSP16, literal(-9)))
          CFI (cfiCond21) V5 load(1, XDATA, add(CFA_XSP16, literal(-8)))
          CFI (cfiCond21) V6 load(1, XDATA, add(CFA_XSP16, literal(-7)))
          CFI (cfiCond21) R7 load(1, XDATA, add(CFA_XSP16, literal(-6)))
          CFI (cfiCond21) ?RET_LOW load(1, XDATA, add(CFA_XSP16, literal(-5)))
          CFI (cfiCond21) ?RET_HIGH load(1, XDATA, add(CFA_XSP16, literal(-4)))
          CFI (cfiCond21) ?BRET_EXT load(1, XDATA, add(CFA_XSP16, literal(-3)))
          CFI (cfiCond21) DPL0 load(1, XDATA, add(CFA_XSP16, literal(-2)))
          CFI (cfiCond21) DPH0 load(1, XDATA, add(CFA_XSP16, literal(-1)))
          CFI (cfiCond21) CFA_XSP16 add(XSP16, 16)
          CFI Block cfiPicker22 Using cfiCommon1
          CFI (cfiPicker22) NoFunction
          CFI (cfiPicker22) Picker
        MOV       DPL,A
        CLR       A
        ADDC      A,?V1
        MOV       DPH,A
        RET
          CFI EndBlock cfiCond11
          CFI EndBlock cfiCond12
          CFI EndBlock cfiCond13
          CFI EndBlock cfiCond14
          CFI EndBlock cfiCond15
          CFI EndBlock cfiCond16
          CFI EndBlock cfiCond17
          CFI EndBlock cfiCond18
          CFI EndBlock cfiCond19
          CFI EndBlock cfiCond20
          CFI EndBlock cfiCond21
          CFI EndBlock cfiPicker22

        RSEG BANKED_CODE:HUGECODE:NOROOT(0)
?Subroutine19:
          CFI Block cfiCond23 Using cfiCommon0
          CFI Function MT_GpDataReq
          CFI Conditional ??CrossCallReturnLabel_73
          CFI R6 load(1, XDATA, add(CFA_XSP16, literal(-15)))
          CFI VB load(1, XDATA, add(CFA_XSP16, literal(-14)))
          CFI V0 load(1, XDATA, add(CFA_XSP16, literal(-13)))
          CFI V1 load(1, XDATA, add(CFA_XSP16, literal(-12)))
          CFI V2 load(1, XDATA, add(CFA_XSP16, literal(-11)))
          CFI V3 load(1, XDATA, add(CFA_XSP16, literal(-10)))
          CFI V4 load(1, XDATA, add(CFA_XSP16, literal(-9)))
          CFI V5 load(1, XDATA, add(CFA_XSP16, literal(-8)))
          CFI V6 load(1, XDATA, add(CFA_XSP16, literal(-7)))
          CFI R7 load(1, XDATA, add(CFA_XSP16, literal(-6)))
          CFI ?RET_LOW load(1, XDATA, add(CFA_XSP16, literal(-5)))
          CFI ?RET_HIGH load(1, XDATA, add(CFA_XSP16, literal(-4)))
          CFI ?BRET_EXT load(1, XDATA, add(CFA_XSP16, literal(-3)))
          CFI DPL0 load(1, XDATA, add(CFA_XSP16, literal(-2)))
          CFI DPH0 load(1, XDATA, add(CFA_XSP16, literal(-1)))
          CFI CFA_SP SP+-2
          CFI CFA_XSP16 add(XSP16, 19)
          CFI Block cfiCond24 Using cfiCommon0
          CFI (cfiCond24) Function MT_GpSecRsp
          CFI (cfiCond24) Conditional ??CrossCallReturnLabel_74
          CFI (cfiCond24) R6 load(1, XDATA, add(CFA_XSP16, literal(-15)))
          CFI (cfiCond24) VB load(1, XDATA, add(CFA_XSP16, literal(-14)))
          CFI (cfiCond24) V0 load(1, XDATA, add(CFA_XSP16, literal(-13)))
          CFI (cfiCond24) V1 load(1, XDATA, add(CFA_XSP16, literal(-12)))
          CFI (cfiCond24) V2 load(1, XDATA, add(CFA_XSP16, literal(-11)))
          CFI (cfiCond24) V3 load(1, XDATA, add(CFA_XSP16, literal(-10)))
          CFI (cfiCond24) V4 load(1, XDATA, add(CFA_XSP16, literal(-9)))
          CFI (cfiCond24) V5 load(1, XDATA, add(CFA_XSP16, literal(-8)))
          CFI (cfiCond24) V6 load(1, XDATA, add(CFA_XSP16, literal(-7)))
          CFI (cfiCond24) R7 load(1, XDATA, add(CFA_XSP16, literal(-6)))
          CFI (cfiCond24) ?RET_LOW load(1, XDATA, add(CFA_XSP16, literal(-5)))
          CFI (cfiCond24) ?RET_HIGH load(1, XDATA, add(CFA_XSP16, literal(-4)))
          CFI (cfiCond24) ?BRET_EXT load(1, XDATA, add(CFA_XSP16, literal(-3)))
          CFI (cfiCond24) DPL0 load(1, XDATA, add(CFA_XSP16, literal(-2)))
          CFI (cfiCond24) DPH0 load(1, XDATA, add(CFA_XSP16, literal(-1)))
          CFI (cfiCond24) CFA_SP SP+-2
          CFI (cfiCond24) CFA_XSP16 add(XSP16, 19)
          CFI Block cfiPicker25 Using cfiCommon1
          CFI (cfiPicker25) NoFunction
          CFI (cfiPicker25) Picker
        MOV       R4,#0x8
        MOV       R5,#0x0
        MOV       A,R2
        ADD       A,#0x5
          CFI EndBlock cfiCond23
          CFI EndBlock cfiCond24
          CFI EndBlock cfiPicker25
        REQUIRE ??Subroutine34_0
        ; // Fall through to label ??Subroutine34_0

        RSEG BANKED_CODE:HUGECODE:NOROOT(0)
??Subroutine34_0:
          CFI Block cfiCond26 Using cfiCommon0
          CFI Function MT_GpDataReq
          CFI Conditional ??CrossCallReturnLabel_75
          CFI R6 load(1, XDATA, add(CFA_XSP16, literal(-15)))
          CFI VB load(1, XDATA, add(CFA_XSP16, literal(-14)))
          CFI V0 load(1, XDATA, add(CFA_XSP16, literal(-13)))
          CFI V1 load(1, XDATA, add(CFA_XSP16, literal(-12)))
          CFI V2 load(1, XDATA, add(CFA_XSP16, literal(-11)))
          CFI V3 load(1, XDATA, add(CFA_XSP16, literal(-10)))
          CFI V4 load(1, XDATA, add(CFA_XSP16, literal(-9)))
          CFI V5 load(1, XDATA, add(CFA_XSP16, literal(-8)))
          CFI V6 load(1, XDATA, add(CFA_XSP16, literal(-7)))
          CFI R7 load(1, XDATA, add(CFA_XSP16, literal(-6)))
          CFI ?RET_LOW load(1, XDATA, add(CFA_XSP16, literal(-5)))
          CFI ?RET_HIGH load(1, XDATA, add(CFA_XSP16, literal(-4)))
          CFI ?BRET_EXT load(1, XDATA, add(CFA_XSP16, literal(-3)))
          CFI DPL0 load(1, XDATA, add(CFA_XSP16, literal(-2)))
          CFI DPH0 load(1, XDATA, add(CFA_XSP16, literal(-1)))
          CFI CFA_SP SP+-2
          CFI CFA_XSP16 add(XSP16, 19)
          CFI Block cfiCond27 Using cfiCommon0
          CFI (cfiCond27) Function MT_GpSecRsp
          CFI (cfiCond27) Conditional ??CrossCallReturnLabel_76
          CFI (cfiCond27) R6 load(1, XDATA, add(CFA_XSP16, literal(-15)))
          CFI (cfiCond27) VB load(1, XDATA, add(CFA_XSP16, literal(-14)))
          CFI (cfiCond27) V0 load(1, XDATA, add(CFA_XSP16, literal(-13)))
          CFI (cfiCond27) V1 load(1, XDATA, add(CFA_XSP16, literal(-12)))
          CFI (cfiCond27) V2 load(1, XDATA, add(CFA_XSP16, literal(-11)))
          CFI (cfiCond27) V3 load(1, XDATA, add(CFA_XSP16, literal(-10)))
          CFI (cfiCond27) V4 load(1, XDATA, add(CFA_XSP16, literal(-9)))
          CFI (cfiCond27) V5 load(1, XDATA, add(CFA_XSP16, literal(-8)))
          CFI (cfiCond27) V6 load(1, XDATA, add(CFA_XSP16, literal(-7)))
          CFI (cfiCond27) R7 load(1, XDATA, add(CFA_XSP16, literal(-6)))
          CFI (cfiCond27) ?RET_LOW load(1, XDATA, add(CFA_XSP16, literal(-5)))
          CFI (cfiCond27) ?RET_HIGH load(1, XDATA, add(CFA_XSP16, literal(-4)))
          CFI (cfiCond27) ?BRET_EXT load(1, XDATA, add(CFA_XSP16, literal(-3)))
          CFI (cfiCond27) DPL0 load(1, XDATA, add(CFA_XSP16, literal(-2)))
          CFI (cfiCond27) DPH0 load(1, XDATA, add(CFA_XSP16, literal(-1)))
          CFI (cfiCond27) CFA_SP SP+-2
          CFI (cfiCond27) CFA_XSP16 add(XSP16, 19)
          CFI Block cfiCond28 Using cfiCommon0
          CFI (cfiCond28) Function MT_GpDataReq
          CFI (cfiCond28) Conditional ??CrossCallReturnLabel_73
          CFI (cfiCond28) R6 load(1, XDATA, add(CFA_XSP16, literal(-15)))
          CFI (cfiCond28) VB load(1, XDATA, add(CFA_XSP16, literal(-14)))
          CFI (cfiCond28) V0 load(1, XDATA, add(CFA_XSP16, literal(-13)))
          CFI (cfiCond28) V1 load(1, XDATA, add(CFA_XSP16, literal(-12)))
          CFI (cfiCond28) V2 load(1, XDATA, add(CFA_XSP16, literal(-11)))
          CFI (cfiCond28) V3 load(1, XDATA, add(CFA_XSP16, literal(-10)))
          CFI (cfiCond28) V4 load(1, XDATA, add(CFA_XSP16, literal(-9)))
          CFI (cfiCond28) V5 load(1, XDATA, add(CFA_XSP16, literal(-8)))
          CFI (cfiCond28) V6 load(1, XDATA, add(CFA_XSP16, literal(-7)))
          CFI (cfiCond28) R7 load(1, XDATA, add(CFA_XSP16, literal(-6)))
          CFI (cfiCond28) ?RET_LOW load(1, XDATA, add(CFA_XSP16, literal(-5)))
          CFI (cfiCond28) ?RET_HIGH load(1, XDATA, add(CFA_XSP16, literal(-4)))
          CFI (cfiCond28) ?BRET_EXT load(1, XDATA, add(CFA_XSP16, literal(-3)))
          CFI (cfiCond28) DPL0 load(1, XDATA, add(CFA_XSP16, literal(-2)))
          CFI (cfiCond28) DPH0 load(1, XDATA, add(CFA_XSP16, literal(-1)))
          CFI (cfiCond28) CFA_SP SP+-2
          CFI (cfiCond28) CFA_XSP16 add(XSP16, 19)
          CFI Block cfiCond29 Using cfiCommon0
          CFI (cfiCond29) Function MT_GpSecRsp
          CFI (cfiCond29) Conditional ??CrossCallReturnLabel_74
          CFI (cfiCond29) R6 load(1, XDATA, add(CFA_XSP16, literal(-15)))
          CFI (cfiCond29) VB load(1, XDATA, add(CFA_XSP16, literal(-14)))
          CFI (cfiCond29) V0 load(1, XDATA, add(CFA_XSP16, literal(-13)))
          CFI (cfiCond29) V1 load(1, XDATA, add(CFA_XSP16, literal(-12)))
          CFI (cfiCond29) V2 load(1, XDATA, add(CFA_XSP16, literal(-11)))
          CFI (cfiCond29) V3 load(1, XDATA, add(CFA_XSP16, literal(-10)))
          CFI (cfiCond29) V4 load(1, XDATA, add(CFA_XSP16, literal(-9)))
          CFI (cfiCond29) V5 load(1, XDATA, add(CFA_XSP16, literal(-8)))
          CFI (cfiCond29) V6 load(1, XDATA, add(CFA_XSP16, literal(-7)))
          CFI (cfiCond29) R7 load(1, XDATA, add(CFA_XSP16, literal(-6)))
          CFI (cfiCond29) ?RET_LOW load(1, XDATA, add(CFA_XSP16, literal(-5)))
          CFI (cfiCond29) ?RET_HIGH load(1, XDATA, add(CFA_XSP16, literal(-4)))
          CFI (cfiCond29) ?BRET_EXT load(1, XDATA, add(CFA_XSP16, literal(-3)))
          CFI (cfiCond29) DPL0 load(1, XDATA, add(CFA_XSP16, literal(-2)))
          CFI (cfiCond29) DPH0 load(1, XDATA, add(CFA_XSP16, literal(-1)))
          CFI (cfiCond29) CFA_SP SP+-2
          CFI (cfiCond29) CFA_XSP16 add(XSP16, 19)
          CFI Block cfiPicker30 Using cfiCommon1
          CFI (cfiPicker30) NoFunction
          CFI (cfiPicker30) Picker
        MOV       R2,A
        CLR       A
        ADDC      A,?V1
        MOV       R3,A
        LCALL     `??osal_memcpy::?relay`; Banked call to: osal_memcpy
        MOV       A,#0x3
        RET
          CFI EndBlock cfiCond26
          CFI EndBlock cfiCond27
          CFI EndBlock cfiCond28
          CFI EndBlock cfiCond29
          CFI EndBlock cfiPicker30

        RSEG BANKED_CODE:HUGECODE:NOROOT(0)
?Subroutine18:
          CFI Block cfiCond31 Using cfiCommon0
          CFI Function MT_GpDataReq
          CFI Conditional ??CrossCallReturnLabel_30
          CFI R6 load(1, XDATA, add(CFA_XSP16, literal(-15)))
          CFI VB load(1, XDATA, add(CFA_XSP16, literal(-14)))
          CFI V0 load(1, XDATA, add(CFA_XSP16, literal(-13)))
          CFI V1 load(1, XDATA, add(CFA_XSP16, literal(-12)))
          CFI V2 load(1, XDATA, add(CFA_XSP16, literal(-11)))
          CFI V3 load(1, XDATA, add(CFA_XSP16, literal(-10)))
          CFI V4 load(1, XDATA, add(CFA_XSP16, literal(-9)))
          CFI V5 load(1, XDATA, add(CFA_XSP16, literal(-8)))
          CFI V6 load(1, XDATA, add(CFA_XSP16, literal(-7)))
          CFI R7 load(1, XDATA, add(CFA_XSP16, literal(-6)))
          CFI ?RET_LOW load(1, XDATA, add(CFA_XSP16, literal(-5)))
          CFI ?RET_HIGH load(1, XDATA, add(CFA_XSP16, literal(-4)))
          CFI ?BRET_EXT load(1, XDATA, add(CFA_XSP16, literal(-3)))
          CFI DPL0 load(1, XDATA, add(CFA_XSP16, literal(-2)))
          CFI DPH0 load(1, XDATA, add(CFA_XSP16, literal(-1)))
          CFI CFA_SP SP+-2
          CFI CFA_XSP16 add(XSP16, 16)
          CFI Block cfiCond32 Using cfiCommon0
          CFI (cfiCond32) Function MT_GpSecRsp
          CFI (cfiCond32) Conditional ??CrossCallReturnLabel_31
          CFI (cfiCond32) R6 load(1, XDATA, add(CFA_XSP16, literal(-15)))
          CFI (cfiCond32) VB load(1, XDATA, add(CFA_XSP16, literal(-14)))
          CFI (cfiCond32) V0 load(1, XDATA, add(CFA_XSP16, literal(-13)))
          CFI (cfiCond32) V1 load(1, XDATA, add(CFA_XSP16, literal(-12)))
          CFI (cfiCond32) V2 load(1, XDATA, add(CFA_XSP16, literal(-11)))
          CFI (cfiCond32) V3 load(1, XDATA, add(CFA_XSP16, literal(-10)))
          CFI (cfiCond32) V4 load(1, XDATA, add(CFA_XSP16, literal(-9)))
          CFI (cfiCond32) V5 load(1, XDATA, add(CFA_XSP16, literal(-8)))
          CFI (cfiCond32) V6 load(1, XDATA, add(CFA_XSP16, literal(-7)))
          CFI (cfiCond32) R7 load(1, XDATA, add(CFA_XSP16, literal(-6)))
          CFI (cfiCond32) ?RET_LOW load(1, XDATA, add(CFA_XSP16, literal(-5)))
          CFI (cfiCond32) ?RET_HIGH load(1, XDATA, add(CFA_XSP16, literal(-4)))
          CFI (cfiCond32) ?BRET_EXT load(1, XDATA, add(CFA_XSP16, literal(-3)))
          CFI (cfiCond32) DPL0 load(1, XDATA, add(CFA_XSP16, literal(-2)))
          CFI (cfiCond32) DPH0 load(1, XDATA, add(CFA_XSP16, literal(-1)))
          CFI (cfiCond32) CFA_SP SP+-2
          CFI (cfiCond32) CFA_XSP16 add(XSP16, 16)
          CFI Block cfiPicker33 Using cfiCommon1
          CFI (cfiPicker33) NoFunction
          CFI (cfiPicker33) Picker
        MOV       R1,#0x4
        MOV       A,R6
        MOV       R2,A
        MOV       A,R7
        MOV       R3,A
        LCALL     `??osal_build_uint32::?relay`; Banked call to: osal_build_uint32
        MOV       A,R2
        MOV       R0,A
        MOV       A,R3
        MOV       R1,A
        MOV       A,R4
        MOV       R2,A
        MOV       A,R5
        MOV       R3,A
        MOV       DPL,?V0
        MOV       DPH,?V1
        INC       DPTR
        INC       DPTR
        INC       DPTR
        INC       DPTR
        INC       DPTR
        RET
          CFI EndBlock cfiCond31
          CFI EndBlock cfiCond32
          CFI EndBlock cfiPicker33

        RSEG BANKED_CODE:HUGECODE:NOROOT(0)
?Subroutine17:
          CFI Block cfiCond34 Using cfiCommon0
          CFI Function MT_GpDataReq
          CFI Conditional ??CrossCallReturnLabel_28
          CFI R6 load(1, XDATA, add(CFA_XSP16, literal(-15)))
          CFI VB load(1, XDATA, add(CFA_XSP16, literal(-14)))
          CFI V0 load(1, XDATA, add(CFA_XSP16, literal(-13)))
          CFI V1 load(1, XDATA, add(CFA_XSP16, literal(-12)))
          CFI V2 load(1, XDATA, add(CFA_XSP16, literal(-11)))
          CFI V3 load(1, XDATA, add(CFA_XSP16, literal(-10)))
          CFI V4 load(1, XDATA, add(CFA_XSP16, literal(-9)))
          CFI V5 load(1, XDATA, add(CFA_XSP16, literal(-8)))
          CFI V6 load(1, XDATA, add(CFA_XSP16, literal(-7)))
          CFI R7 load(1, XDATA, add(CFA_XSP16, literal(-6)))
          CFI ?RET_LOW load(1, XDATA, add(CFA_XSP16, literal(-5)))
          CFI ?RET_HIGH load(1, XDATA, add(CFA_XSP16, literal(-4)))
          CFI ?BRET_EXT load(1, XDATA, add(CFA_XSP16, literal(-3)))
          CFI DPL0 load(1, XDATA, add(CFA_XSP16, literal(-2)))
          CFI DPH0 load(1, XDATA, add(CFA_XSP16, literal(-1)))
          CFI CFA_SP SP+-2
          CFI CFA_XSP16 add(XSP16, 16)
          CFI Block cfiCond35 Using cfiCommon0
          CFI (cfiCond35) Function MT_GpSecRsp
          CFI (cfiCond35) Conditional ??CrossCallReturnLabel_29
          CFI (cfiCond35) R6 load(1, XDATA, add(CFA_XSP16, literal(-15)))
          CFI (cfiCond35) VB load(1, XDATA, add(CFA_XSP16, literal(-14)))
          CFI (cfiCond35) V0 load(1, XDATA, add(CFA_XSP16, literal(-13)))
          CFI (cfiCond35) V1 load(1, XDATA, add(CFA_XSP16, literal(-12)))
          CFI (cfiCond35) V2 load(1, XDATA, add(CFA_XSP16, literal(-11)))
          CFI (cfiCond35) V3 load(1, XDATA, add(CFA_XSP16, literal(-10)))
          CFI (cfiCond35) V4 load(1, XDATA, add(CFA_XSP16, literal(-9)))
          CFI (cfiCond35) V5 load(1, XDATA, add(CFA_XSP16, literal(-8)))
          CFI (cfiCond35) V6 load(1, XDATA, add(CFA_XSP16, literal(-7)))
          CFI (cfiCond35) R7 load(1, XDATA, add(CFA_XSP16, literal(-6)))
          CFI (cfiCond35) ?RET_LOW load(1, XDATA, add(CFA_XSP16, literal(-5)))
          CFI (cfiCond35) ?RET_HIGH load(1, XDATA, add(CFA_XSP16, literal(-4)))
          CFI (cfiCond35) ?BRET_EXT load(1, XDATA, add(CFA_XSP16, literal(-3)))
          CFI (cfiCond35) DPL0 load(1, XDATA, add(CFA_XSP16, literal(-2)))
          CFI (cfiCond35) DPH0 load(1, XDATA, add(CFA_XSP16, literal(-1)))
          CFI (cfiCond35) CFA_SP SP+-2
          CFI (cfiCond35) CFA_XSP16 add(XSP16, 16)
          CFI Block cfiPicker36 Using cfiCommon1
          CFI (cfiPicker36) NoFunction
          CFI (cfiPicker36) Picker
        MOV       A,R3
        MOV       R7,A
        MOV       DPL,?XSP + 0
        MOV       DPH,?XSP + 1
        CLR       A
        MOVX      @DPTR,A
        MOV       DPL,R2
        MOV       DPH,R3
        INC       DPTR
        INC       DPTR
        MOVX      A,@DPTR
        RET
          CFI EndBlock cfiCond34
          CFI EndBlock cfiCond35
          CFI EndBlock cfiPicker36

        RSEG BANKED_CODE:HUGECODE:NOROOT(0)
?Subroutine15:
          CFI Block cfiCond37 Using cfiCommon0
          CFI Function MT_GpDataReq
          CFI Conditional ??CrossCallReturnLabel_22
          CFI R6 load(1, XDATA, add(CFA_XSP16, literal(-15)))
          CFI VB load(1, XDATA, add(CFA_XSP16, literal(-14)))
          CFI V0 load(1, XDATA, add(CFA_XSP16, literal(-13)))
          CFI V1 load(1, XDATA, add(CFA_XSP16, literal(-12)))
          CFI V2 load(1, XDATA, add(CFA_XSP16, literal(-11)))
          CFI V3 load(1, XDATA, add(CFA_XSP16, literal(-10)))
          CFI V4 load(1, XDATA, add(CFA_XSP16, literal(-9)))
          CFI V5 load(1, XDATA, add(CFA_XSP16, literal(-8)))
          CFI V6 load(1, XDATA, add(CFA_XSP16, literal(-7)))
          CFI R7 load(1, XDATA, add(CFA_XSP16, literal(-6)))
          CFI ?RET_LOW load(1, XDATA, add(CFA_XSP16, literal(-5)))
          CFI ?RET_HIGH load(1, XDATA, add(CFA_XSP16, literal(-4)))
          CFI ?BRET_EXT load(1, XDATA, add(CFA_XSP16, literal(-3)))
          CFI DPL0 load(1, XDATA, add(CFA_XSP16, literal(-2)))
          CFI DPH0 load(1, XDATA, add(CFA_XSP16, literal(-1)))
          CFI CFA_SP SP+-2
          CFI CFA_XSP16 add(XSP16, 16)
          CFI Block cfiCond38 Using cfiCommon0
          CFI (cfiCond38) Function MT_GpDataReq
          CFI (cfiCond38) Conditional ??CrossCallReturnLabel_23
          CFI (cfiCond38) R6 load(1, XDATA, add(CFA_XSP16, literal(-15)))
          CFI (cfiCond38) VB load(1, XDATA, add(CFA_XSP16, literal(-14)))
          CFI (cfiCond38) V0 load(1, XDATA, add(CFA_XSP16, literal(-13)))
          CFI (cfiCond38) V1 load(1, XDATA, add(CFA_XSP16, literal(-12)))
          CFI (cfiCond38) V2 load(1, XDATA, add(CFA_XSP16, literal(-11)))
          CFI (cfiCond38) V3 load(1, XDATA, add(CFA_XSP16, literal(-10)))
          CFI (cfiCond38) V4 load(1, XDATA, add(CFA_XSP16, literal(-9)))
          CFI (cfiCond38) V5 load(1, XDATA, add(CFA_XSP16, literal(-8)))
          CFI (cfiCond38) V6 load(1, XDATA, add(CFA_XSP16, literal(-7)))
          CFI (cfiCond38) R7 load(1, XDATA, add(CFA_XSP16, literal(-6)))
          CFI (cfiCond38) ?RET_LOW load(1, XDATA, add(CFA_XSP16, literal(-5)))
          CFI (cfiCond38) ?RET_HIGH load(1, XDATA, add(CFA_XSP16, literal(-4)))
          CFI (cfiCond38) ?BRET_EXT load(1, XDATA, add(CFA_XSP16, literal(-3)))
          CFI (cfiCond38) DPL0 load(1, XDATA, add(CFA_XSP16, literal(-2)))
          CFI (cfiCond38) DPH0 load(1, XDATA, add(CFA_XSP16, literal(-1)))
          CFI (cfiCond38) CFA_SP SP+-2
          CFI (cfiCond38) CFA_XSP16 add(XSP16, 16)
          CFI Block cfiCond39 Using cfiCommon0
          CFI (cfiCond39) Function MT_GpSecRsp
          CFI (cfiCond39) Conditional ??CrossCallReturnLabel_24
          CFI (cfiCond39) R6 load(1, XDATA, add(CFA_XSP16, literal(-15)))
          CFI (cfiCond39) VB load(1, XDATA, add(CFA_XSP16, literal(-14)))
          CFI (cfiCond39) V0 load(1, XDATA, add(CFA_XSP16, literal(-13)))
          CFI (cfiCond39) V1 load(1, XDATA, add(CFA_XSP16, literal(-12)))
          CFI (cfiCond39) V2 load(1, XDATA, add(CFA_XSP16, literal(-11)))
          CFI (cfiCond39) V3 load(1, XDATA, add(CFA_XSP16, literal(-10)))
          CFI (cfiCond39) V4 load(1, XDATA, add(CFA_XSP16, literal(-9)))
          CFI (cfiCond39) V5 load(1, XDATA, add(CFA_XSP16, literal(-8)))
          CFI (cfiCond39) V6 load(1, XDATA, add(CFA_XSP16, literal(-7)))
          CFI (cfiCond39) R7 load(1, XDATA, add(CFA_XSP16, literal(-6)))
          CFI (cfiCond39) ?RET_LOW load(1, XDATA, add(CFA_XSP16, literal(-5)))
          CFI (cfiCond39) ?RET_HIGH load(1, XDATA, add(CFA_XSP16, literal(-4)))
          CFI (cfiCond39) ?BRET_EXT load(1, XDATA, add(CFA_XSP16, literal(-3)))
          CFI (cfiCond39) DPL0 load(1, XDATA, add(CFA_XSP16, literal(-2)))
          CFI (cfiCond39) DPH0 load(1, XDATA, add(CFA_XSP16, literal(-1)))
          CFI (cfiCond39) CFA_SP SP+-2
          CFI (cfiCond39) CFA_XSP16 add(XSP16, 16)
          CFI Block cfiPicker40 Using cfiCommon1
          CFI (cfiPicker40) NoFunction
          CFI (cfiPicker40) Picker
        LCALL     ?Subroutine29 & 0xFFFF
??CrossCallReturnLabel_49:
        MOVX      A,@DPTR
        RET
          CFI EndBlock cfiCond37
          CFI EndBlock cfiCond38
          CFI EndBlock cfiCond39
          CFI EndBlock cfiPicker40

        RSEG BANKED_CODE:HUGECODE:NOROOT(0)
?Subroutine29:
          CFI Block cfiCond41 Using cfiCommon0
          CFI Function MT_GpDataReq
          CFI Conditional ??CrossCallReturnLabel_48
          CFI R6 load(1, XDATA, add(CFA_XSP16, literal(-15)))
          CFI VB load(1, XDATA, add(CFA_XSP16, literal(-14)))
          CFI V0 load(1, XDATA, add(CFA_XSP16, literal(-13)))
          CFI V1 load(1, XDATA, add(CFA_XSP16, literal(-12)))
          CFI V2 load(1, XDATA, add(CFA_XSP16, literal(-11)))
          CFI V3 load(1, XDATA, add(CFA_XSP16, literal(-10)))
          CFI V4 load(1, XDATA, add(CFA_XSP16, literal(-9)))
          CFI V5 load(1, XDATA, add(CFA_XSP16, literal(-8)))
          CFI V6 load(1, XDATA, add(CFA_XSP16, literal(-7)))
          CFI R7 load(1, XDATA, add(CFA_XSP16, literal(-6)))
          CFI ?RET_LOW load(1, XDATA, add(CFA_XSP16, literal(-5)))
          CFI ?RET_HIGH load(1, XDATA, add(CFA_XSP16, literal(-4)))
          CFI ?BRET_EXT load(1, XDATA, add(CFA_XSP16, literal(-3)))
          CFI DPL0 load(1, XDATA, add(CFA_XSP16, literal(-2)))
          CFI DPH0 load(1, XDATA, add(CFA_XSP16, literal(-1)))
          CFI CFA_SP SP+-2
          CFI CFA_XSP16 add(XSP16, 16)
          CFI Block cfiCond42 Using cfiCommon0
          CFI (cfiCond42) Function MT_GpDataReq
          CFI (cfiCond42) Conditional ??CrossCallReturnLabel_49, ??CrossCallReturnLabel_22
          CFI (cfiCond42) R6 load(1, XDATA, add(CFA_XSP16, literal(-15)))
          CFI (cfiCond42) VB load(1, XDATA, add(CFA_XSP16, literal(-14)))
          CFI (cfiCond42) V0 load(1, XDATA, add(CFA_XSP16, literal(-13)))
          CFI (cfiCond42) V1 load(1, XDATA, add(CFA_XSP16, literal(-12)))
          CFI (cfiCond42) V2 load(1, XDATA, add(CFA_XSP16, literal(-11)))
          CFI (cfiCond42) V3 load(1, XDATA, add(CFA_XSP16, literal(-10)))
          CFI (cfiCond42) V4 load(1, XDATA, add(CFA_XSP16, literal(-9)))
          CFI (cfiCond42) V5 load(1, XDATA, add(CFA_XSP16, literal(-8)))
          CFI (cfiCond42) V6 load(1, XDATA, add(CFA_XSP16, literal(-7)))
          CFI (cfiCond42) R7 load(1, XDATA, add(CFA_XSP16, literal(-6)))
          CFI (cfiCond42) ?RET_LOW load(1, XDATA, add(CFA_XSP16, literal(-5)))
          CFI (cfiCond42) ?RET_HIGH load(1, XDATA, add(CFA_XSP16, literal(-4)))
          CFI (cfiCond42) ?BRET_EXT load(1, XDATA, add(CFA_XSP16, literal(-3)))
          CFI (cfiCond42) DPL0 load(1, XDATA, add(CFA_XSP16, literal(-2)))
          CFI (cfiCond42) DPH0 load(1, XDATA, add(CFA_XSP16, literal(-1)))
          CFI (cfiCond42) CFA_SP SP+-4
          CFI (cfiCond42) CFA_XSP16 add(XSP16, 16)
          CFI Block cfiCond43 Using cfiCommon0
          CFI (cfiCond43) Function MT_GpDataReq
          CFI (cfiCond43) Conditional ??CrossCallReturnLabel_49, ??CrossCallReturnLabel_23
          CFI (cfiCond43) R6 load(1, XDATA, add(CFA_XSP16, literal(-15)))
          CFI (cfiCond43) VB load(1, XDATA, add(CFA_XSP16, literal(-14)))
          CFI (cfiCond43) V0 load(1, XDATA, add(CFA_XSP16, literal(-13)))
          CFI (cfiCond43) V1 load(1, XDATA, add(CFA_XSP16, literal(-12)))
          CFI (cfiCond43) V2 load(1, XDATA, add(CFA_XSP16, literal(-11)))
          CFI (cfiCond43) V3 load(1, XDATA, add(CFA_XSP16, literal(-10)))
          CFI (cfiCond43) V4 load(1, XDATA, add(CFA_XSP16, literal(-9)))
          CFI (cfiCond43) V5 load(1, XDATA, add(CFA_XSP16, literal(-8)))
          CFI (cfiCond43) V6 load(1, XDATA, add(CFA_XSP16, literal(-7)))
          CFI (cfiCond43) R7 load(1, XDATA, add(CFA_XSP16, literal(-6)))
          CFI (cfiCond43) ?RET_LOW load(1, XDATA, add(CFA_XSP16, literal(-5)))
          CFI (cfiCond43) ?RET_HIGH load(1, XDATA, add(CFA_XSP16, literal(-4)))
          CFI (cfiCond43) ?BRET_EXT load(1, XDATA, add(CFA_XSP16, literal(-3)))
          CFI (cfiCond43) DPL0 load(1, XDATA, add(CFA_XSP16, literal(-2)))
          CFI (cfiCond43) DPH0 load(1, XDATA, add(CFA_XSP16, literal(-1)))
          CFI (cfiCond43) CFA_SP SP+-4
          CFI (cfiCond43) CFA_XSP16 add(XSP16, 16)
          CFI Block cfiCond44 Using cfiCommon0
          CFI (cfiCond44) Function MT_GpSecRsp
          CFI (cfiCond44) Conditional ??CrossCallReturnLabel_49, ??CrossCallReturnLabel_24
          CFI (cfiCond44) R6 load(1, XDATA, add(CFA_XSP16, literal(-15)))
          CFI (cfiCond44) VB load(1, XDATA, add(CFA_XSP16, literal(-14)))
          CFI (cfiCond44) V0 load(1, XDATA, add(CFA_XSP16, literal(-13)))
          CFI (cfiCond44) V1 load(1, XDATA, add(CFA_XSP16, literal(-12)))
          CFI (cfiCond44) V2 load(1, XDATA, add(CFA_XSP16, literal(-11)))
          CFI (cfiCond44) V3 load(1, XDATA, add(CFA_XSP16, literal(-10)))
          CFI (cfiCond44) V4 load(1, XDATA, add(CFA_XSP16, literal(-9)))
          CFI (cfiCond44) V5 load(1, XDATA, add(CFA_XSP16, literal(-8)))
          CFI (cfiCond44) V6 load(1, XDATA, add(CFA_XSP16, literal(-7)))
          CFI (cfiCond44) R7 load(1, XDATA, add(CFA_XSP16, literal(-6)))
          CFI (cfiCond44) ?RET_LOW load(1, XDATA, add(CFA_XSP16, literal(-5)))
          CFI (cfiCond44) ?RET_HIGH load(1, XDATA, add(CFA_XSP16, literal(-4)))
          CFI (cfiCond44) ?BRET_EXT load(1, XDATA, add(CFA_XSP16, literal(-3)))
          CFI (cfiCond44) DPL0 load(1, XDATA, add(CFA_XSP16, literal(-2)))
          CFI (cfiCond44) DPH0 load(1, XDATA, add(CFA_XSP16, literal(-1)))
          CFI (cfiCond44) CFA_SP SP+-4
          CFI (cfiCond44) CFA_XSP16 add(XSP16, 16)
          CFI Block cfiCond45 Using cfiCommon0
          CFI (cfiCond45) Function MT_GpDataReq
          CFI (cfiCond45) Conditional ??CrossCallReturnLabel_50, ??CrossCallReturnLabel_0
          CFI (cfiCond45) R6 load(1, XDATA, add(CFA_XSP16, literal(-15)))
          CFI (cfiCond45) VB load(1, XDATA, add(CFA_XSP16, literal(-14)))
          CFI (cfiCond45) V0 load(1, XDATA, add(CFA_XSP16, literal(-13)))
          CFI (cfiCond45) V1 load(1, XDATA, add(CFA_XSP16, literal(-12)))
          CFI (cfiCond45) V2 load(1, XDATA, add(CFA_XSP16, literal(-11)))
          CFI (cfiCond45) V3 load(1, XDATA, add(CFA_XSP16, literal(-10)))
          CFI (cfiCond45) V4 load(1, XDATA, add(CFA_XSP16, literal(-9)))
          CFI (cfiCond45) V5 load(1, XDATA, add(CFA_XSP16, literal(-8)))
          CFI (cfiCond45) V6 load(1, XDATA, add(CFA_XSP16, literal(-7)))
          CFI (cfiCond45) R7 load(1, XDATA, add(CFA_XSP16, literal(-6)))
          CFI (cfiCond45) ?RET_LOW load(1, XDATA, add(CFA_XSP16, literal(-5)))
          CFI (cfiCond45) ?RET_HIGH load(1, XDATA, add(CFA_XSP16, literal(-4)))
          CFI (cfiCond45) ?BRET_EXT load(1, XDATA, add(CFA_XSP16, literal(-3)))
          CFI (cfiCond45) DPL0 load(1, XDATA, add(CFA_XSP16, literal(-2)))
          CFI (cfiCond45) DPH0 load(1, XDATA, add(CFA_XSP16, literal(-1)))
          CFI (cfiCond45) CFA_SP SP+-4
          CFI (cfiCond45) CFA_XSP16 add(XSP16, 16)
          CFI Block cfiCond46 Using cfiCommon0
          CFI (cfiCond46) Function MT_GpSecRsp
          CFI (cfiCond46) Conditional ??CrossCallReturnLabel_50, ??CrossCallReturnLabel_1
          CFI (cfiCond46) R6 load(1, XDATA, add(CFA_XSP16, literal(-15)))
          CFI (cfiCond46) VB load(1, XDATA, add(CFA_XSP16, literal(-14)))
          CFI (cfiCond46) V0 load(1, XDATA, add(CFA_XSP16, literal(-13)))
          CFI (cfiCond46) V1 load(1, XDATA, add(CFA_XSP16, literal(-12)))
          CFI (cfiCond46) V2 load(1, XDATA, add(CFA_XSP16, literal(-11)))
          CFI (cfiCond46) V3 load(1, XDATA, add(CFA_XSP16, literal(-10)))
          CFI (cfiCond46) V4 load(1, XDATA, add(CFA_XSP16, literal(-9)))
          CFI (cfiCond46) V5 load(1, XDATA, add(CFA_XSP16, literal(-8)))
          CFI (cfiCond46) V6 load(1, XDATA, add(CFA_XSP16, literal(-7)))
          CFI (cfiCond46) R7 load(1, XDATA, add(CFA_XSP16, literal(-6)))
          CFI (cfiCond46) ?RET_LOW load(1, XDATA, add(CFA_XSP16, literal(-5)))
          CFI (cfiCond46) ?RET_HIGH load(1, XDATA, add(CFA_XSP16, literal(-4)))
          CFI (cfiCond46) ?BRET_EXT load(1, XDATA, add(CFA_XSP16, literal(-3)))
          CFI (cfiCond46) DPL0 load(1, XDATA, add(CFA_XSP16, literal(-2)))
          CFI (cfiCond46) DPH0 load(1, XDATA, add(CFA_XSP16, literal(-1)))
          CFI (cfiCond46) CFA_SP SP+-4
          CFI (cfiCond46) CFA_XSP16 add(XSP16, 16)
          CFI Block cfiPicker47 Using cfiCommon1
          CFI (cfiPicker47) NoFunction
          CFI (cfiPicker47) Picker
        MOVX      @DPTR,A
        MOV       DPL,R6
        MOV       DPH,R7
        INC       DPTR
        RET
          CFI EndBlock cfiCond41
          CFI EndBlock cfiCond42
          CFI EndBlock cfiCond43
          CFI EndBlock cfiCond44
          CFI EndBlock cfiCond45
          CFI EndBlock cfiCond46
          CFI EndBlock cfiPicker47

        RSEG BANKED_CODE:HUGECODE:NOROOT(0)
?Subroutine12:
          CFI Block cfiCond48 Using cfiCommon0
          CFI Function MT_GpDataReq
          CFI Conditional ??CrossCallReturnLabel_19
          CFI R6 load(1, XDATA, add(CFA_XSP16, literal(-15)))
          CFI VB load(1, XDATA, add(CFA_XSP16, literal(-14)))
          CFI V0 load(1, XDATA, add(CFA_XSP16, literal(-13)))
          CFI V1 load(1, XDATA, add(CFA_XSP16, literal(-12)))
          CFI V2 load(1, XDATA, add(CFA_XSP16, literal(-11)))
          CFI V3 load(1, XDATA, add(CFA_XSP16, literal(-10)))
          CFI V4 load(1, XDATA, add(CFA_XSP16, literal(-9)))
          CFI V5 load(1, XDATA, add(CFA_XSP16, literal(-8)))
          CFI V6 load(1, XDATA, add(CFA_XSP16, literal(-7)))
          CFI R7 load(1, XDATA, add(CFA_XSP16, literal(-6)))
          CFI ?RET_LOW load(1, XDATA, add(CFA_XSP16, literal(-5)))
          CFI ?RET_HIGH load(1, XDATA, add(CFA_XSP16, literal(-4)))
          CFI ?BRET_EXT load(1, XDATA, add(CFA_XSP16, literal(-3)))
          CFI DPL0 load(1, XDATA, add(CFA_XSP16, literal(-2)))
          CFI DPH0 load(1, XDATA, add(CFA_XSP16, literal(-1)))
          CFI CFA_SP SP+-2
          CFI CFA_XSP16 add(XSP16, 16)
          CFI Block cfiCond49 Using cfiCommon0
          CFI (cfiCond49) Function MT_GpDataReq
          CFI (cfiCond49) Conditional ??CrossCallReturnLabel_20
          CFI (cfiCond49) R6 load(1, XDATA, add(CFA_XSP16, literal(-15)))
          CFI (cfiCond49) VB load(1, XDATA, add(CFA_XSP16, literal(-14)))
          CFI (cfiCond49) V0 load(1, XDATA, add(CFA_XSP16, literal(-13)))
          CFI (cfiCond49) V1 load(1, XDATA, add(CFA_XSP16, literal(-12)))
          CFI (cfiCond49) V2 load(1, XDATA, add(CFA_XSP16, literal(-11)))
          CFI (cfiCond49) V3 load(1, XDATA, add(CFA_XSP16, literal(-10)))
          CFI (cfiCond49) V4 load(1, XDATA, add(CFA_XSP16, literal(-9)))
          CFI (cfiCond49) V5 load(1, XDATA, add(CFA_XSP16, literal(-8)))
          CFI (cfiCond49) V6 load(1, XDATA, add(CFA_XSP16, literal(-7)))
          CFI (cfiCond49) R7 load(1, XDATA, add(CFA_XSP16, literal(-6)))
          CFI (cfiCond49) ?RET_LOW load(1, XDATA, add(CFA_XSP16, literal(-5)))
          CFI (cfiCond49) ?RET_HIGH load(1, XDATA, add(CFA_XSP16, literal(-4)))
          CFI (cfiCond49) ?BRET_EXT load(1, XDATA, add(CFA_XSP16, literal(-3)))
          CFI (cfiCond49) DPL0 load(1, XDATA, add(CFA_XSP16, literal(-2)))
          CFI (cfiCond49) DPH0 load(1, XDATA, add(CFA_XSP16, literal(-1)))
          CFI (cfiCond49) CFA_SP SP+-2
          CFI (cfiCond49) CFA_XSP16 add(XSP16, 16)
          CFI Block cfiCond50 Using cfiCommon0
          CFI (cfiCond50) Function MT_GpSecRsp
          CFI (cfiCond50) Conditional ??CrossCallReturnLabel_21
          CFI (cfiCond50) R6 load(1, XDATA, add(CFA_XSP16, literal(-15)))
          CFI (cfiCond50) VB load(1, XDATA, add(CFA_XSP16, literal(-14)))
          CFI (cfiCond50) V0 load(1, XDATA, add(CFA_XSP16, literal(-13)))
          CFI (cfiCond50) V1 load(1, XDATA, add(CFA_XSP16, literal(-12)))
          CFI (cfiCond50) V2 load(1, XDATA, add(CFA_XSP16, literal(-11)))
          CFI (cfiCond50) V3 load(1, XDATA, add(CFA_XSP16, literal(-10)))
          CFI (cfiCond50) V4 load(1, XDATA, add(CFA_XSP16, literal(-9)))
          CFI (cfiCond50) V5 load(1, XDATA, add(CFA_XSP16, literal(-8)))
          CFI (cfiCond50) V6 load(1, XDATA, add(CFA_XSP16, literal(-7)))
          CFI (cfiCond50) R7 load(1, XDATA, add(CFA_XSP16, literal(-6)))
          CFI (cfiCond50) ?RET_LOW load(1, XDATA, add(CFA_XSP16, literal(-5)))
          CFI (cfiCond50) ?RET_HIGH load(1, XDATA, add(CFA_XSP16, literal(-4)))
          CFI (cfiCond50) ?BRET_EXT load(1, XDATA, add(CFA_XSP16, literal(-3)))
          CFI (cfiCond50) DPL0 load(1, XDATA, add(CFA_XSP16, literal(-2)))
          CFI (cfiCond50) DPH0 load(1, XDATA, add(CFA_XSP16, literal(-1)))
          CFI (cfiCond50) CFA_SP SP+-2
          CFI (cfiCond50) CFA_XSP16 add(XSP16, 16)
          CFI Block cfiPicker51 Using cfiCommon1
          CFI (cfiPicker51) NoFunction
          CFI (cfiPicker51) Picker
        LCALL     ?Subroutine28 & 0xFFFF
??CrossCallReturnLabel_46:
        RET
          CFI EndBlock cfiCond48
          CFI EndBlock cfiCond49
          CFI EndBlock cfiCond50
          CFI EndBlock cfiPicker51

        RSEG BANKED_CODE:HUGECODE:NOROOT(0)
?Subroutine28:
          CFI Block cfiCond52 Using cfiCommon0
          CFI Function MT_GpDataReq
          CFI Conditional ??CrossCallReturnLabel_46, ??CrossCallReturnLabel_19
          CFI R6 load(1, XDATA, add(CFA_XSP16, literal(-15)))
          CFI VB load(1, XDATA, add(CFA_XSP16, literal(-14)))
          CFI V0 load(1, XDATA, add(CFA_XSP16, literal(-13)))
          CFI V1 load(1, XDATA, add(CFA_XSP16, literal(-12)))
          CFI V2 load(1, XDATA, add(CFA_XSP16, literal(-11)))
          CFI V3 load(1, XDATA, add(CFA_XSP16, literal(-10)))
          CFI V4 load(1, XDATA, add(CFA_XSP16, literal(-9)))
          CFI V5 load(1, XDATA, add(CFA_XSP16, literal(-8)))
          CFI V6 load(1, XDATA, add(CFA_XSP16, literal(-7)))
          CFI R7 load(1, XDATA, add(CFA_XSP16, literal(-6)))
          CFI ?RET_LOW load(1, XDATA, add(CFA_XSP16, literal(-5)))
          CFI ?RET_HIGH load(1, XDATA, add(CFA_XSP16, literal(-4)))
          CFI ?BRET_EXT load(1, XDATA, add(CFA_XSP16, literal(-3)))
          CFI DPL0 load(1, XDATA, add(CFA_XSP16, literal(-2)))
          CFI DPH0 load(1, XDATA, add(CFA_XSP16, literal(-1)))
          CFI CFA_SP SP+-4
          CFI CFA_XSP16 add(XSP16, 16)
          CFI Block cfiCond53 Using cfiCommon0
          CFI (cfiCond53) Function MT_GpDataReq
          CFI (cfiCond53) Conditional ??CrossCallReturnLabel_46, ??CrossCallReturnLabel_20
          CFI (cfiCond53) R6 load(1, XDATA, add(CFA_XSP16, literal(-15)))
          CFI (cfiCond53) VB load(1, XDATA, add(CFA_XSP16, literal(-14)))
          CFI (cfiCond53) V0 load(1, XDATA, add(CFA_XSP16, literal(-13)))
          CFI (cfiCond53) V1 load(1, XDATA, add(CFA_XSP16, literal(-12)))
          CFI (cfiCond53) V2 load(1, XDATA, add(CFA_XSP16, literal(-11)))
          CFI (cfiCond53) V3 load(1, XDATA, add(CFA_XSP16, literal(-10)))
          CFI (cfiCond53) V4 load(1, XDATA, add(CFA_XSP16, literal(-9)))
          CFI (cfiCond53) V5 load(1, XDATA, add(CFA_XSP16, literal(-8)))
          CFI (cfiCond53) V6 load(1, XDATA, add(CFA_XSP16, literal(-7)))
          CFI (cfiCond53) R7 load(1, XDATA, add(CFA_XSP16, literal(-6)))
          CFI (cfiCond53) ?RET_LOW load(1, XDATA, add(CFA_XSP16, literal(-5)))
          CFI (cfiCond53) ?RET_HIGH load(1, XDATA, add(CFA_XSP16, literal(-4)))
          CFI (cfiCond53) ?BRET_EXT load(1, XDATA, add(CFA_XSP16, literal(-3)))
          CFI (cfiCond53) DPL0 load(1, XDATA, add(CFA_XSP16, literal(-2)))
          CFI (cfiCond53) DPH0 load(1, XDATA, add(CFA_XSP16, literal(-1)))
          CFI (cfiCond53) CFA_SP SP+-4
          CFI (cfiCond53) CFA_XSP16 add(XSP16, 16)
          CFI Block cfiCond54 Using cfiCommon0
          CFI (cfiCond54) Function MT_GpSecRsp
          CFI (cfiCond54) Conditional ??CrossCallReturnLabel_46, ??CrossCallReturnLabel_21
          CFI (cfiCond54) R6 load(1, XDATA, add(CFA_XSP16, literal(-15)))
          CFI (cfiCond54) VB load(1, XDATA, add(CFA_XSP16, literal(-14)))
          CFI (cfiCond54) V0 load(1, XDATA, add(CFA_XSP16, literal(-13)))
          CFI (cfiCond54) V1 load(1, XDATA, add(CFA_XSP16, literal(-12)))
          CFI (cfiCond54) V2 load(1, XDATA, add(CFA_XSP16, literal(-11)))
          CFI (cfiCond54) V3 load(1, XDATA, add(CFA_XSP16, literal(-10)))
          CFI (cfiCond54) V4 load(1, XDATA, add(CFA_XSP16, literal(-9)))
          CFI (cfiCond54) V5 load(1, XDATA, add(CFA_XSP16, literal(-8)))
          CFI (cfiCond54) V6 load(1, XDATA, add(CFA_XSP16, literal(-7)))
          CFI (cfiCond54) R7 load(1, XDATA, add(CFA_XSP16, literal(-6)))
          CFI (cfiCond54) ?RET_LOW load(1, XDATA, add(CFA_XSP16, literal(-5)))
          CFI (cfiCond54) ?RET_HIGH load(1, XDATA, add(CFA_XSP16, literal(-4)))
          CFI (cfiCond54) ?BRET_EXT load(1, XDATA, add(CFA_XSP16, literal(-3)))
          CFI (cfiCond54) DPL0 load(1, XDATA, add(CFA_XSP16, literal(-2)))
          CFI (cfiCond54) DPH0 load(1, XDATA, add(CFA_XSP16, literal(-1)))
          CFI (cfiCond54) CFA_SP SP+-4
          CFI (cfiCond54) CFA_XSP16 add(XSP16, 16)
          CFI Block cfiCond55 Using cfiCommon0
          CFI (cfiCond55) Function MT_GpDataReq
          CFI (cfiCond55) Conditional ??CrossCallReturnLabel_47, ??CrossCallReturnLabel_0
          CFI (cfiCond55) R6 load(1, XDATA, add(CFA_XSP16, literal(-15)))
          CFI (cfiCond55) VB load(1, XDATA, add(CFA_XSP16, literal(-14)))
          CFI (cfiCond55) V0 load(1, XDATA, add(CFA_XSP16, literal(-13)))
          CFI (cfiCond55) V1 load(1, XDATA, add(CFA_XSP16, literal(-12)))
          CFI (cfiCond55) V2 load(1, XDATA, add(CFA_XSP16, literal(-11)))
          CFI (cfiCond55) V3 load(1, XDATA, add(CFA_XSP16, literal(-10)))
          CFI (cfiCond55) V4 load(1, XDATA, add(CFA_XSP16, literal(-9)))
          CFI (cfiCond55) V5 load(1, XDATA, add(CFA_XSP16, literal(-8)))
          CFI (cfiCond55) V6 load(1, XDATA, add(CFA_XSP16, literal(-7)))
          CFI (cfiCond55) R7 load(1, XDATA, add(CFA_XSP16, literal(-6)))
          CFI (cfiCond55) ?RET_LOW load(1, XDATA, add(CFA_XSP16, literal(-5)))
          CFI (cfiCond55) ?RET_HIGH load(1, XDATA, add(CFA_XSP16, literal(-4)))
          CFI (cfiCond55) ?BRET_EXT load(1, XDATA, add(CFA_XSP16, literal(-3)))
          CFI (cfiCond55) DPL0 load(1, XDATA, add(CFA_XSP16, literal(-2)))
          CFI (cfiCond55) DPH0 load(1, XDATA, add(CFA_XSP16, literal(-1)))
          CFI (cfiCond55) CFA_SP SP+-4
          CFI (cfiCond55) CFA_XSP16 add(XSP16, 16)
          CFI Block cfiCond56 Using cfiCommon0
          CFI (cfiCond56) Function MT_GpSecRsp
          CFI (cfiCond56) Conditional ??CrossCallReturnLabel_47, ??CrossCallReturnLabel_1
          CFI (cfiCond56) R6 load(1, XDATA, add(CFA_XSP16, literal(-15)))
          CFI (cfiCond56) VB load(1, XDATA, add(CFA_XSP16, literal(-14)))
          CFI (cfiCond56) V0 load(1, XDATA, add(CFA_XSP16, literal(-13)))
          CFI (cfiCond56) V1 load(1, XDATA, add(CFA_XSP16, literal(-12)))
          CFI (cfiCond56) V2 load(1, XDATA, add(CFA_XSP16, literal(-11)))
          CFI (cfiCond56) V3 load(1, XDATA, add(CFA_XSP16, literal(-10)))
          CFI (cfiCond56) V4 load(1, XDATA, add(CFA_XSP16, literal(-9)))
          CFI (cfiCond56) V5 load(1, XDATA, add(CFA_XSP16, literal(-8)))
          CFI (cfiCond56) V6 load(1, XDATA, add(CFA_XSP16, literal(-7)))
          CFI (cfiCond56) R7 load(1, XDATA, add(CFA_XSP16, literal(-6)))
          CFI (cfiCond56) ?RET_LOW load(1, XDATA, add(CFA_XSP16, literal(-5)))
          CFI (cfiCond56) ?RET_HIGH load(1, XDATA, add(CFA_XSP16, literal(-4)))
          CFI (cfiCond56) ?BRET_EXT load(1, XDATA, add(CFA_XSP16, literal(-3)))
          CFI (cfiCond56) DPL0 load(1, XDATA, add(CFA_XSP16, literal(-2)))
          CFI (cfiCond56) DPH0 load(1, XDATA, add(CFA_XSP16, literal(-1)))
          CFI (cfiCond56) CFA_SP SP+-4
          CFI (cfiCond56) CFA_XSP16 add(XSP16, 16)
          CFI Block cfiPicker57 Using cfiCommon1
          CFI (cfiPicker57) NoFunction
          CFI (cfiPicker57) Picker
        MOVX      @DPTR,A
        MOV       DPL,R6
        MOV       DPH,R7
        INC       DPTR
        INC       DPTR
        MOVX      A,@DPTR
        RET
          CFI EndBlock cfiCond52
          CFI EndBlock cfiCond53
          CFI EndBlock cfiCond54
          CFI EndBlock cfiCond55
          CFI EndBlock cfiCond56
          CFI EndBlock cfiPicker57

        RSEG BANKED_CODE:HUGECODE:NOROOT(0)
?Subroutine11:
          CFI Block cfiCond58 Using cfiCommon0
          CFI Function MT_GpDataReq
          CFI Conditional ??CrossCallReturnLabel_17
          CFI R6 load(1, XDATA, add(CFA_XSP16, literal(-15)))
          CFI VB load(1, XDATA, add(CFA_XSP16, literal(-14)))
          CFI V0 load(1, XDATA, add(CFA_XSP16, literal(-13)))
          CFI V1 load(1, XDATA, add(CFA_XSP16, literal(-12)))
          CFI V2 load(1, XDATA, add(CFA_XSP16, literal(-11)))
          CFI V3 load(1, XDATA, add(CFA_XSP16, literal(-10)))
          CFI V4 load(1, XDATA, add(CFA_XSP16, literal(-9)))
          CFI V5 load(1, XDATA, add(CFA_XSP16, literal(-8)))
          CFI V6 load(1, XDATA, add(CFA_XSP16, literal(-7)))
          CFI R7 load(1, XDATA, add(CFA_XSP16, literal(-6)))
          CFI ?RET_LOW load(1, XDATA, add(CFA_XSP16, literal(-5)))
          CFI ?RET_HIGH load(1, XDATA, add(CFA_XSP16, literal(-4)))
          CFI ?BRET_EXT load(1, XDATA, add(CFA_XSP16, literal(-3)))
          CFI DPL0 load(1, XDATA, add(CFA_XSP16, literal(-2)))
          CFI DPH0 load(1, XDATA, add(CFA_XSP16, literal(-1)))
          CFI CFA_SP SP+-2
          CFI CFA_XSP16 add(XSP16, 16)
          CFI Block cfiCond59 Using cfiCommon0
          CFI (cfiCond59) Function MT_GpSecRsp
          CFI (cfiCond59) Conditional ??CrossCallReturnLabel_18
          CFI (cfiCond59) R6 load(1, XDATA, add(CFA_XSP16, literal(-15)))
          CFI (cfiCond59) VB load(1, XDATA, add(CFA_XSP16, literal(-14)))
          CFI (cfiCond59) V0 load(1, XDATA, add(CFA_XSP16, literal(-13)))
          CFI (cfiCond59) V1 load(1, XDATA, add(CFA_XSP16, literal(-12)))
          CFI (cfiCond59) V2 load(1, XDATA, add(CFA_XSP16, literal(-11)))
          CFI (cfiCond59) V3 load(1, XDATA, add(CFA_XSP16, literal(-10)))
          CFI (cfiCond59) V4 load(1, XDATA, add(CFA_XSP16, literal(-9)))
          CFI (cfiCond59) V5 load(1, XDATA, add(CFA_XSP16, literal(-8)))
          CFI (cfiCond59) V6 load(1, XDATA, add(CFA_XSP16, literal(-7)))
          CFI (cfiCond59) R7 load(1, XDATA, add(CFA_XSP16, literal(-6)))
          CFI (cfiCond59) ?RET_LOW load(1, XDATA, add(CFA_XSP16, literal(-5)))
          CFI (cfiCond59) ?RET_HIGH load(1, XDATA, add(CFA_XSP16, literal(-4)))
          CFI (cfiCond59) ?BRET_EXT load(1, XDATA, add(CFA_XSP16, literal(-3)))
          CFI (cfiCond59) DPL0 load(1, XDATA, add(CFA_XSP16, literal(-2)))
          CFI (cfiCond59) DPH0 load(1, XDATA, add(CFA_XSP16, literal(-1)))
          CFI (cfiCond59) CFA_SP SP+-2
          CFI (cfiCond59) CFA_XSP16 add(XSP16, 16)
          CFI Block cfiPicker60 Using cfiCommon1
          CFI (cfiPicker60) NoFunction
          CFI (cfiPicker60) Picker
        MOVX      @DPTR,A
        INC       DPTR
        CLR       A
        MOVX      @DPTR,A
        ; Setup parameters for call to function osal_msg_send
        ; Setup parameters for call to function osal_msg_send
        MOV       R2,?V0
        MOV       R3,?V1
        MOV       DPTR,#gp_TaskID
        MOVX      A,@DPTR
        MOV       R1,A
        LCALL     `??osal_msg_send::?relay`; Banked call to: osal_msg_send
        RET
          CFI EndBlock cfiCond58
          CFI EndBlock cfiCond59
          CFI EndBlock cfiPicker60

        RSEG BANKED_CODE:HUGECODE:NOROOT(0)
?Subroutine2:
          CFI Block cfiCond61 Using cfiCommon0
          CFI Function MT_GpDataReq
          CFI Conditional ??CrossCallReturnLabel_0
          CFI R6 load(1, XDATA, add(CFA_XSP16, literal(-15)))
          CFI VB load(1, XDATA, add(CFA_XSP16, literal(-14)))
          CFI V0 load(1, XDATA, add(CFA_XSP16, literal(-13)))
          CFI V1 load(1, XDATA, add(CFA_XSP16, literal(-12)))
          CFI V2 load(1, XDATA, add(CFA_XSP16, literal(-11)))
          CFI V3 load(1, XDATA, add(CFA_XSP16, literal(-10)))
          CFI V4 load(1, XDATA, add(CFA_XSP16, literal(-9)))
          CFI V5 load(1, XDATA, add(CFA_XSP16, literal(-8)))
          CFI V6 load(1, XDATA, add(CFA_XSP16, literal(-7)))
          CFI R7 load(1, XDATA, add(CFA_XSP16, literal(-6)))
          CFI ?RET_LOW load(1, XDATA, add(CFA_XSP16, literal(-5)))
          CFI ?RET_HIGH load(1, XDATA, add(CFA_XSP16, literal(-4)))
          CFI ?BRET_EXT load(1, XDATA, add(CFA_XSP16, literal(-3)))
          CFI DPL0 load(1, XDATA, add(CFA_XSP16, literal(-2)))
          CFI DPH0 load(1, XDATA, add(CFA_XSP16, literal(-1)))
          CFI CFA_SP SP+-2
          CFI CFA_XSP16 add(XSP16, 16)
          CFI Block cfiCond62 Using cfiCommon0
          CFI (cfiCond62) Function MT_GpSecRsp
          CFI (cfiCond62) Conditional ??CrossCallReturnLabel_1
          CFI (cfiCond62) R6 load(1, XDATA, add(CFA_XSP16, literal(-15)))
          CFI (cfiCond62) VB load(1, XDATA, add(CFA_XSP16, literal(-14)))
          CFI (cfiCond62) V0 load(1, XDATA, add(CFA_XSP16, literal(-13)))
          CFI (cfiCond62) V1 load(1, XDATA, add(CFA_XSP16, literal(-12)))
          CFI (cfiCond62) V2 load(1, XDATA, add(CFA_XSP16, literal(-11)))
          CFI (cfiCond62) V3 load(1, XDATA, add(CFA_XSP16, literal(-10)))
          CFI (cfiCond62) V4 load(1, XDATA, add(CFA_XSP16, literal(-9)))
          CFI (cfiCond62) V5 load(1, XDATA, add(CFA_XSP16, literal(-8)))
          CFI (cfiCond62) V6 load(1, XDATA, add(CFA_XSP16, literal(-7)))
          CFI (cfiCond62) R7 load(1, XDATA, add(CFA_XSP16, literal(-6)))
          CFI (cfiCond62) ?RET_LOW load(1, XDATA, add(CFA_XSP16, literal(-5)))
          CFI (cfiCond62) ?RET_HIGH load(1, XDATA, add(CFA_XSP16, literal(-4)))
          CFI (cfiCond62) ?BRET_EXT load(1, XDATA, add(CFA_XSP16, literal(-3)))
          CFI (cfiCond62) DPL0 load(1, XDATA, add(CFA_XSP16, literal(-2)))
          CFI (cfiCond62) DPH0 load(1, XDATA, add(CFA_XSP16, literal(-1)))
          CFI (cfiCond62) CFA_SP SP+-2
          CFI (cfiCond62) CFA_XSP16 add(XSP16, 16)
          CFI Block cfiPicker63 Using cfiCommon1
          CFI (cfiPicker63) NoFunction
          CFI (cfiPicker63) Picker
        MOV       DPL,R6
        MOV       DPH,R7
        LCALL     ?Subroutine32 & 0xFFFF
??CrossCallReturnLabel_59:
        INC       DPTR
        LCALL     ?Subroutine29 & 0xFFFF
??CrossCallReturnLabel_50:
        LCALL     ?Subroutine32 & 0xFFFF
??CrossCallReturnLabel_60:
        INC       DPTR
        INC       DPTR
        LCALL     ?Subroutine28 & 0xFFFF
??CrossCallReturnLabel_47:
        MOV       R0,A
        MOV       DPL,R2
        MOV       DPH,R3
        INC       DPTR
        INC       DPTR
        INC       DPTR
        INC       DPTR
        MOVX      @DPTR,A
        MOV       A,R6
        ADD       A,#0x3
        MOV       R6,A
        RET
          CFI EndBlock cfiCond61
          CFI EndBlock cfiCond62
          CFI EndBlock cfiPicker63
//  247 
//  248 #endif
//  249 
//  250 /***************************************************************************************************
//  251 * @fn      MT_GPDataInd
//  252 *
//  253 * @brief   Send GP Data Ind to Host Processor
//  254 *
//  255 * @param   gp_DataInd
//  256 *
//  257 * @return  void
//  258 ***************************************************************************************************/

        RSEG BANKED_CODE:HUGECODE:NOROOT(0)
//  259 void MT_GPDataInd(gp_DataInd_t* gp_DataInd)
MT_GPDataInd:
          CFI Block cfiBlock64 Using cfiCommon0
          CFI Function MT_GPDataInd
        CODE
//  260 {
        FUNCALL MT_GPDataInd, osal_mem_alloc
        LOCFRAME ISTACK, 0, STACK
        LOCFRAME PSTACK, 0, STACK
        LOCFRAME XSTACK, 18, STACK
        LOCFRAME IOVERLAY, 0, STATIC
        LOCFRAME DOVERLAY, 0, STATIC
        ARGFRAME ISTACK, 0, STACK
        ARGFRAME PSTACK, 0, STACK
        ARGFRAME XSTACK, 18, STACK
        ARGFRAME IOVERLAY, 0, STATIC
        ARGFRAME DOVERLAY, 0, STATIC
        FUNCALL MT_GPDataInd, sAddrExtCpy
        LOCFRAME ISTACK, 0, STACK
        LOCFRAME PSTACK, 0, STACK
        LOCFRAME XSTACK, 18, STACK
        LOCFRAME IOVERLAY, 0, STATIC
        LOCFRAME DOVERLAY, 0, STATIC
        ARGFRAME ISTACK, 0, STACK
        ARGFRAME PSTACK, 0, STACK
        ARGFRAME XSTACK, 18, STACK
        ARGFRAME IOVERLAY, 0, STATIC
        ARGFRAME DOVERLAY, 0, STATIC
        FUNCALL MT_GPDataInd, osal_memcpy
        LOCFRAME ISTACK, 0, STACK
        LOCFRAME PSTACK, 0, STACK
        LOCFRAME XSTACK, 21, STACK
        LOCFRAME IOVERLAY, 0, STATIC
        LOCFRAME DOVERLAY, 0, STATIC
        ARGFRAME ISTACK, 0, STACK
        ARGFRAME PSTACK, 0, STACK
        ARGFRAME XSTACK, 21, STACK
        ARGFRAME IOVERLAY, 0, STATIC
        ARGFRAME DOVERLAY, 0, STATIC
        FUNCALL MT_GPDataInd, MT_BuildAndSendZToolResponse
        LOCFRAME ISTACK, 0, STACK
        LOCFRAME PSTACK, 0, STACK
        LOCFRAME XSTACK, 18, STACK
        LOCFRAME IOVERLAY, 0, STATIC
        LOCFRAME DOVERLAY, 0, STATIC
        ARGFRAME ISTACK, 0, STACK
        ARGFRAME PSTACK, 0, STACK
        ARGFRAME XSTACK, 18, STACK
        ARGFRAME IOVERLAY, 0, STATIC
        ARGFRAME DOVERLAY, 0, STATIC
        FUNCALL MT_GPDataInd, osal_mem_free
        LOCFRAME ISTACK, 0, STACK
        LOCFRAME PSTACK, 0, STACK
        LOCFRAME XSTACK, 18, STACK
        LOCFRAME IOVERLAY, 0, STATIC
        LOCFRAME DOVERLAY, 0, STATIC
        ARGFRAME ISTACK, 0, STACK
        ARGFRAME PSTACK, 0, STACK
        ARGFRAME XSTACK, 18, STACK
        ARGFRAME IOVERLAY, 0, STATIC
        ARGFRAME DOVERLAY, 0, STATIC
        REQUIRE ?V0
        REQUIRE ?V1
        REQUIRE ?V2
        REQUIRE ?V3
        REQUIRE ?V4
        REQUIRE ?V5
        REQUIRE ?V6
        REQUIRE ?V7
        REQUIRE ?V8
        REQUIRE ?V9
        MOV       A,#-0x12
        LCALL     ?BANKED_ENTER_XDATA
          CFI DPH0 load(1, XDATA, add(CFA_XSP16, literal(-1)))
          CFI DPL0 load(1, XDATA, add(CFA_XSP16, literal(-2)))
          CFI ?BRET_EXT load(1, XDATA, add(CFA_XSP16, literal(-3)))
          CFI ?RET_HIGH load(1, XDATA, add(CFA_XSP16, literal(-4)))
          CFI ?RET_LOW load(1, XDATA, add(CFA_XSP16, literal(-5)))
          CFI R7 load(1, XDATA, add(CFA_XSP16, literal(-6)))
          CFI V9 load(1, XDATA, add(CFA_XSP16, literal(-7)))
          CFI V8 load(1, XDATA, add(CFA_XSP16, literal(-8)))
          CFI V7 load(1, XDATA, add(CFA_XSP16, literal(-9)))
          CFI V6 load(1, XDATA, add(CFA_XSP16, literal(-10)))
          CFI V5 load(1, XDATA, add(CFA_XSP16, literal(-11)))
          CFI V4 load(1, XDATA, add(CFA_XSP16, literal(-12)))
          CFI V3 load(1, XDATA, add(CFA_XSP16, literal(-13)))
          CFI V2 load(1, XDATA, add(CFA_XSP16, literal(-14)))
          CFI V1 load(1, XDATA, add(CFA_XSP16, literal(-15)))
          CFI V0 load(1, XDATA, add(CFA_XSP16, literal(-16)))
          CFI VB load(1, XDATA, add(CFA_XSP16, literal(-17)))
          CFI R6 load(1, XDATA, add(CFA_XSP16, literal(-18)))
          CFI CFA_SP SP+0
          CFI CFA_XSP16 add(XSP16, 18)
        ; Saved register size: 18
        ; Auto size: 0
        MOV       A,R2
        MOV       R6,A
        MOV       A,R3
        MOV       R7,A
//  261 #ifdef MT_GP_CB_FUNC  
//  262   uint8 *pBuf = NULL;
//  263   uint8 *tempBuf = NULL;
//  264   uint8 bufLen = sizeof(gp_DataInd_t) + gp_DataInd->GPDasduLength - 1;
//  265   
//  266   pBuf = osal_mem_alloc(bufLen);
        ; Setup parameters for call to function osal_mem_alloc
        MOV       A,R2
        ADD       A,#0x2f
        LCALL     ?Subroutine31 & 0xFFFF
??CrossCallReturnLabel_54:
        ADD       A,#0x30
        MOV       R2,A
        MOV       R3,#0x0
        LCALL     `??osal_mem_alloc::?relay`; Banked call to: osal_mem_alloc
        MOV       ?V2,R2
        MOV       ?V3,R3
//  267 
//  268   if(pBuf == NULL)
        MOV       A,R2
        ORL       A,R3
        JNZ       $+5
        LJMP      ??MT_GPDataInd_0 & 0xFFFF
//  269   {
//  270     return;
//  271   }
//  272 
//  273   tempBuf = pBuf;
//  274   
//  275   *pBuf++ = gp_DataInd->status;
        MOV       A,R6
        ADD       A,#0xd
        LCALL     ?Subroutine4 & 0xFFFF
??CrossCallReturnLabel_4:
        INC       DPTR
        MOV       ?V0,DPL
        MOV       ?V1,DPH
//  276   *pBuf++ = gp_DataInd->Rssi;
        MOV       A,R6
        ADD       A,#0xe
        LCALL     ?Subroutine22 & 0xFFFF
??CrossCallReturnLabel_34:
        MOVX      @DPTR,A
//  277   *pBuf++ = gp_DataInd->LinkQuality;  
        MOV       A,R6
        ADD       A,#0xf
        LCALL     ?Subroutine22 & 0xFFFF
??CrossCallReturnLabel_35:
        INC       DPTR
        MOVX      @DPTR,A
//  278   *pBuf++ = gp_DataInd->SeqNumber;  
        MOV       A,R6
        ADD       A,#0x10
        LCALL     ?Subroutine5 & 0xFFFF
??CrossCallReturnLabel_7:
        MOVX      @DPTR,A
//  279   *pBuf++ = gp_DataInd->srcAddr.addrMode;
        MOV       A,R6
        ADD       A,#0x19
        LCALL     ?Subroutine5 & 0xFFFF
??CrossCallReturnLabel_8:
        INC       DPTR
        MOVX      @DPTR,A
//  280   *pBuf++ = LO_UINT16(gp_DataInd->srcPanID);
        MOV       A,R6
        ADD       A,#0x1a
        MOV       R0,A
        CLR       A
        ADDC      A,R7
        MOV       R1,A
        MOV       DPL,R0
        MOV       DPH,A
        LCALL     ?Subroutine3 & 0xFFFF
??CrossCallReturnLabel_2:
        MOVX      @DPTR,A
//  281   *pBuf++ = HI_UINT16(gp_DataInd->srcPanID);
        MOV       DPL,R0
        MOV       DPH,R1
        INC       DPTR
        LCALL     ?Subroutine3 & 0xFFFF
??CrossCallReturnLabel_3:
        INC       DPTR
        MOVX      @DPTR,A
//  282   
//  283    pBuf   = osal_cpyExtAddr( pBuf,gp_DataInd->srcAddr.addr.extAddr);
        ; Setup parameters for call to function sAddrExtCpy
        MOV       A,R6
        ADD       A,#0x11
        MOV       R4,A
        CLR       A
        ADDC      A,R7
        MOV       R5,A
        MOV       A,?V0
        ADD       A,#0x6
        MOV       R2,A
        CLR       A
        ADDC      A,?V1
        MOV       R3,A
        LCALL     `??sAddrExtCpy::?relay`; Banked call to: sAddrExtCpy
//  284   *pBuf++ = gp_DataInd->appID;
        MOV       A,R6
        ADD       A,#0x1c
        LCALL     ?Subroutine4 & 0xFFFF
//  285   *pBuf++ = gp_DataInd->GPDFSecLvl;
??CrossCallReturnLabel_5:
        MOV       A,R6
        ADD       A,#0x1d
        LCALL     ?Subroutine8 & 0xFFFF
//  286   *pBuf++ = gp_DataInd->GPDFKeyType;
??CrossCallReturnLabel_13:
        ADD       A,#0x1e
        LCALL     ?Subroutine6 & 0xFFFF
//  287   *pBuf++ = gp_DataInd->AutoCommissioning;
??CrossCallReturnLabel_9:
        ADD       A,#0x1f
        LCALL     ?Subroutine25 & 0xFFFF
??CrossCallReturnLabel_40:
        MOVX      @DPTR,A
//  288   *pBuf++ = gp_DataInd->RxAfterTx;
        MOV       A,R6
        ADD       A,#0x20
        LCALL     ?Subroutine7 & 0xFFFF
??CrossCallReturnLabel_11:
        MOVX      @DPTR,A
//  289 
//  290   UINT32_TO_BUF_LITTLE_ENDIAN(pBuf,gp_DataInd->SrcId);
        MOV       A,R6
        ADD       A,#0x21
        LCALL     ?Subroutine21 & 0xFFFF
??CrossCallReturnLabel_32:
        LCALL     ?L_MOV_X
        MOV       DPL,R2
        MOV       DPH,R3
        LCALL     ??Subroutine36_0 & 0xFFFF
??CrossCallReturnLabel_82:
        LCALL     ?L_MOV_X
        MOV       ?V1,?V5
        MOV       A,?V1
        MOV       DPL,R2
        MOV       DPH,R3
        INC       DPTR
        INC       DPTR
        INC       DPTR
        INC       DPTR
        INC       DPTR
        INC       DPTR
        LCALL     ??Subroutine38_0 & 0xFFFF
??CrossCallReturnLabel_84:
        LCALL     ?L_MOV_X
        MOV       A,#0x10
        MOV       R0,#?V4
        LCALL     ?UL_SHR
        MOV       DPL,R2
        MOV       DPH,R3
        LCALL     ?Subroutine10 & 0xFFFF
??CrossCallReturnLabel_80:
        LCALL     ?L_MOV_X
        MOV       A,#0x18
        MOV       R0,#?V4
        LCALL     ?UL_SHR
        MOV       DPL,R2
        MOV       DPH,R3
        INC       DPTR
        INC       DPTR
        INC       DPTR
        INC       DPTR
        INC       DPTR
        INC       DPTR
        INC       DPTR
        INC       DPTR
        MOV       A,?V4
        MOVX      @DPTR,A
//  291   *pBuf++ = gp_DataInd->EndPoint;
        MOV       A,R6
        ADD       A,#0x25
        LCALL     ?Subroutine7 & 0xFFFF
??CrossCallReturnLabel_12:
        INC       DPTR
        INC       DPTR
        INC       DPTR
        INC       DPTR
        INC       DPTR
        MOVX      @DPTR,A
//  292   UINT32_TO_BUF_LITTLE_ENDIAN(pBuf,gp_DataInd->GPDSecFrameCounter);
        MOV       A,R6
        ADD       A,#0x26
        LCALL     ?Subroutine21 & 0xFFFF
??CrossCallReturnLabel_33:
        LCALL     ?L_MOV_X
        MOV       DPL,R2
        MOV       DPH,R3
        INC       DPTR
        INC       DPTR
        INC       DPTR
        LCALL     ?Subroutine10 & 0xFFFF
??CrossCallReturnLabel_81:
        LCALL     ?L_MOV_X
        MOV       ?V1,?V5
        MOV       A,?V1
        MOV       ?V0,A
        MOV       A,R2
        ADD       A,#0xb
        MOV       DPL,A
        CLR       A
        ADDC      A,R3
        MOV       DPH,A
        MOV       A,?V0
        LCALL     ??Subroutine38_0 & 0xFFFF
??CrossCallReturnLabel_85:
        LCALL     ?L_MOV_X
        MOV       A,#0x10
        MOV       R0,#?V4
        LCALL     ?UL_SHR
        MOV       A,R2
        ADD       A,#0xc
        MOV       DPL,A
        CLR       A
        ADDC      A,R3
        MOV       DPH,A
        LCALL     ??Subroutine37_0 & 0xFFFF
??CrossCallReturnLabel_83:
        LCALL     ?L_MOV_X
        MOV       A,#0x18
        MOV       R0,#?V4
        LCALL     ?UL_SHR
        MOV       A,R2
        ADD       A,#0xd
        MOV       DPL,A
        CLR       A
        ADDC      A,R3
        MOV       DPH,A
        MOV       A,?V4
        MOVX      @DPTR,A
//  293   *pBuf++ = gp_DataInd->GPDCmmdID;
        MOV       A,R6
        ADD       A,#0x2a
        LCALL     ?Subroutine31 & 0xFFFF
??CrossCallReturnLabel_55:
        PUSH      A
          CFI CFA_SP SP+-1
        MOV       A,R2
        ADD       A,#0xe
        MOV       DPL,A
        CLR       A
        ADDC      A,R3
        MOV       DPH,A
        POP       A
          CFI CFA_SP SP+0
        MOVX      @DPTR,A
//  294   *pBuf++ = gp_DataInd->GPDasduLength;
        MOV       A,R6
        ADD       A,#0x2f
        MOV       ?V8,A
        CLR       A
        ADDC      A,R7
        MOV       ?V9,A
        MOV       DPL,?V8
        MOV       DPH,A
        MOVX      A,@DPTR
        PUSH      A
          CFI CFA_SP SP+-1
        MOV       A,R2
        ADD       A,#0xf
        MOV       DPL,A
        CLR       A
        ADDC      A,R3
        MOV       DPH,A
        POP       A
          CFI CFA_SP SP+0
        MOVX      @DPTR,A
        MOV       A,R2
        ADD       A,#0x10
        MOV       ?V0,A
        CLR       A
        ADDC      A,R3
        MOV       ?V1,A
//  295   osal_memcpy(pBuf,gp_DataInd->GPDasdu,gp_DataInd->GPDasduLength);
        ; Setup parameters for call to function osal_memcpy
        MOV       A,R6
        ADD       A,#0x30
        MOV       ?V4,A
        CLR       A
        ADDC      A,R7
        MOV       ?V5,A
        MOV       R0,#?V4
        LCALL     ?PUSH_XSTACK_I_THREE
          CFI CFA_XSP16 add(XSP16, 21)
        MOV       DPL,?V8
        MOV       DPH,?V9
        MOVX      A,@DPTR
        MOV       R4,A
        MOV       R5,#0x0
        MOV       R2,?V0
        MOV       R3,?V1
        LCALL     `??osal_memcpy::?relay`; Banked call to: osal_memcpy
        MOV       A,#0x3
        LCALL     ?DEALLOC_XSTACK8
          CFI CFA_XSP16 add(XSP16, 18)
//  296   pBuf += gp_DataInd->GPDasduLength;
        MOV       DPL,?V8
        MOV       DPH,?V9
        MOVX      A,@DPTR
        MOV       R0,A
        MOV       A,?V0
        ADD       A,R0
        MOV       ?V0,A
        CLR       A
        ADDC      A,?V1
        MOV       ?V1,A
//  297   UINT32_TO_BUF_LITTLE_ENDIAN(pBuf,gp_DataInd->MIC);  
        MOV       A,R6
        ADD       A,#0x2b
        LCALL     ?Subroutine23 & 0xFFFF
??CrossCallReturnLabel_36:
        MOV       R0,#?V4
        LCALL     ?L_MOV_X
        MOV       DPL,?V0
        MOV       DPH,?V1
        LCALL     ?Subroutine13 & 0xFFFF
??CrossCallReturnLabel_77:
        LCALL     ?L_MOV_X
        MOV       A,?V5
        MOV       DPL,?V0
        MOV       DPH,?V1
        INC       DPTR
        LCALL     ??Subroutine35_0 & 0xFFFF
??CrossCallReturnLabel_79:
        LCALL     ?L_MOV_X
        MOV       A,#0x10
        MOV       R0,#?V4
        LCALL     ?UL_SHR
        MOV       DPL,?V0
        MOV       DPH,?V1
        INC       DPTR
        INC       DPTR
        LCALL     ?Subroutine13 & 0xFFFF
??CrossCallReturnLabel_78:
        LCALL     ?L_MOV_X
        MOV       A,#0x18
        MOV       R0,#?V4
        LCALL     ?UL_SHR
        MOV       DPL,?V0
        MOV       DPH,?V1
        INC       DPTR
        INC       DPTR
        INC       DPTR
        MOV       A,?V4
        MOVX      @DPTR,A
//  298   
//  299   MT_BuildAndSendZToolResponse(((uint8)MT_RPC_CMD_AREQ | (uint8)MT_RPC_SYS_GP), MT_GP_DATA_IND, 36 + gp_DataInd->GPDasduLength - 1, tempBuf);
        ; Setup parameters for call to function MT_BuildAndSendZToolResponse
        MOV       R4,?V2
        MOV       R5,?V3
        MOV       DPL,?V8
        MOV       DPH,?V9
        MOVX      A,@DPTR
        ADD       A,#0x23
        MOV       R3,A
        MOV       R2,#0x4
        MOV       R1,#0x55
        LCALL     `??MT_BuildAndSendZToolResponse::?relay`; Banked call to: MT_BuildAndSendZToolResponse
//  300 
//  301   osal_mem_free(tempBuf);
        ; Setup parameters for call to function osal_mem_free
        MOV       R2,?V2
        MOV       R3,?V3
        LCALL     `??osal_mem_free::?relay`; Banked call to: osal_mem_free
//  302 #else
//  303   (void)gp_DataInd;
//  304 #endif
//  305 }
??MT_GPDataInd_0:
        MOV       R7,#0xa
        LJMP      ?BANKED_LEAVE_XDATA
          CFI EndBlock cfiBlock64

        RSEG BANKED_CODE:HUGECODE:NOROOT(0)
?Subroutine22:
          CFI Block cfiCond65 Using cfiCommon0
          CFI Function MT_GPDataInd
          CFI Conditional ??CrossCallReturnLabel_34
          CFI R6 load(1, XDATA, add(CFA_XSP16, literal(-18)))
          CFI VB load(1, XDATA, add(CFA_XSP16, literal(-17)))
          CFI V0 load(1, XDATA, add(CFA_XSP16, literal(-16)))
          CFI V1 load(1, XDATA, add(CFA_XSP16, literal(-15)))
          CFI V2 load(1, XDATA, add(CFA_XSP16, literal(-14)))
          CFI V3 load(1, XDATA, add(CFA_XSP16, literal(-13)))
          CFI V4 load(1, XDATA, add(CFA_XSP16, literal(-12)))
          CFI V5 load(1, XDATA, add(CFA_XSP16, literal(-11)))
          CFI V6 load(1, XDATA, add(CFA_XSP16, literal(-10)))
          CFI V7 load(1, XDATA, add(CFA_XSP16, literal(-9)))
          CFI V8 load(1, XDATA, add(CFA_XSP16, literal(-8)))
          CFI V9 load(1, XDATA, add(CFA_XSP16, literal(-7)))
          CFI R7 load(1, XDATA, add(CFA_XSP16, literal(-6)))
          CFI ?RET_LOW load(1, XDATA, add(CFA_XSP16, literal(-5)))
          CFI ?RET_HIGH load(1, XDATA, add(CFA_XSP16, literal(-4)))
          CFI ?BRET_EXT load(1, XDATA, add(CFA_XSP16, literal(-3)))
          CFI DPL0 load(1, XDATA, add(CFA_XSP16, literal(-2)))
          CFI DPH0 load(1, XDATA, add(CFA_XSP16, literal(-1)))
          CFI CFA_SP SP+-2
          CFI CFA_XSP16 add(XSP16, 18)
          CFI Block cfiCond66 Using cfiCommon0
          CFI (cfiCond66) Function MT_GPDataInd
          CFI (cfiCond66) Conditional ??CrossCallReturnLabel_35
          CFI (cfiCond66) R6 load(1, XDATA, add(CFA_XSP16, literal(-18)))
          CFI (cfiCond66) VB load(1, XDATA, add(CFA_XSP16, literal(-17)))
          CFI (cfiCond66) V0 load(1, XDATA, add(CFA_XSP16, literal(-16)))
          CFI (cfiCond66) V1 load(1, XDATA, add(CFA_XSP16, literal(-15)))
          CFI (cfiCond66) V2 load(1, XDATA, add(CFA_XSP16, literal(-14)))
          CFI (cfiCond66) V3 load(1, XDATA, add(CFA_XSP16, literal(-13)))
          CFI (cfiCond66) V4 load(1, XDATA, add(CFA_XSP16, literal(-12)))
          CFI (cfiCond66) V5 load(1, XDATA, add(CFA_XSP16, literal(-11)))
          CFI (cfiCond66) V6 load(1, XDATA, add(CFA_XSP16, literal(-10)))
          CFI (cfiCond66) V7 load(1, XDATA, add(CFA_XSP16, literal(-9)))
          CFI (cfiCond66) V8 load(1, XDATA, add(CFA_XSP16, literal(-8)))
          CFI (cfiCond66) V9 load(1, XDATA, add(CFA_XSP16, literal(-7)))
          CFI (cfiCond66) R7 load(1, XDATA, add(CFA_XSP16, literal(-6)))
          CFI (cfiCond66) ?RET_LOW load(1, XDATA, add(CFA_XSP16, literal(-5)))
          CFI (cfiCond66) ?RET_HIGH load(1, XDATA, add(CFA_XSP16, literal(-4)))
          CFI (cfiCond66) ?BRET_EXT load(1, XDATA, add(CFA_XSP16, literal(-3)))
          CFI (cfiCond66) DPL0 load(1, XDATA, add(CFA_XSP16, literal(-2)))
          CFI (cfiCond66) DPH0 load(1, XDATA, add(CFA_XSP16, literal(-1)))
          CFI (cfiCond66) CFA_SP SP+-2
          CFI (cfiCond66) CFA_XSP16 add(XSP16, 18)
          CFI Block cfiPicker67 Using cfiCommon1
          CFI (cfiPicker67) NoFunction
          CFI (cfiPicker67) Picker
        LCALL     ?Subroutine26 & 0xFFFF
??CrossCallReturnLabel_43:
        RET
          CFI EndBlock cfiCond65
          CFI EndBlock cfiCond66
          CFI EndBlock cfiPicker67

        RSEG BANKED_CODE:HUGECODE:NOROOT(0)
?Subroutine26:
          CFI Block cfiCond68 Using cfiCommon0
          CFI Function MT_GPDataInd
          CFI Conditional ??CrossCallReturnLabel_43, ??CrossCallReturnLabel_34
          CFI R6 load(1, XDATA, add(CFA_XSP16, literal(-18)))
          CFI VB load(1, XDATA, add(CFA_XSP16, literal(-17)))
          CFI V0 load(1, XDATA, add(CFA_XSP16, literal(-16)))
          CFI V1 load(1, XDATA, add(CFA_XSP16, literal(-15)))
          CFI V2 load(1, XDATA, add(CFA_XSP16, literal(-14)))
          CFI V3 load(1, XDATA, add(CFA_XSP16, literal(-13)))
          CFI V4 load(1, XDATA, add(CFA_XSP16, literal(-12)))
          CFI V5 load(1, XDATA, add(CFA_XSP16, literal(-11)))
          CFI V6 load(1, XDATA, add(CFA_XSP16, literal(-10)))
          CFI V7 load(1, XDATA, add(CFA_XSP16, literal(-9)))
          CFI V8 load(1, XDATA, add(CFA_XSP16, literal(-8)))
          CFI V9 load(1, XDATA, add(CFA_XSP16, literal(-7)))
          CFI R7 load(1, XDATA, add(CFA_XSP16, literal(-6)))
          CFI ?RET_LOW load(1, XDATA, add(CFA_XSP16, literal(-5)))
          CFI ?RET_HIGH load(1, XDATA, add(CFA_XSP16, literal(-4)))
          CFI ?BRET_EXT load(1, XDATA, add(CFA_XSP16, literal(-3)))
          CFI DPL0 load(1, XDATA, add(CFA_XSP16, literal(-2)))
          CFI DPH0 load(1, XDATA, add(CFA_XSP16, literal(-1)))
          CFI CFA_SP SP+-4
          CFI CFA_XSP16 add(XSP16, 18)
          CFI Block cfiCond69 Using cfiCommon0
          CFI (cfiCond69) Function MT_GPDataInd
          CFI (cfiCond69) Conditional ??CrossCallReturnLabel_43, ??CrossCallReturnLabel_35
          CFI (cfiCond69) R6 load(1, XDATA, add(CFA_XSP16, literal(-18)))
          CFI (cfiCond69) VB load(1, XDATA, add(CFA_XSP16, literal(-17)))
          CFI (cfiCond69) V0 load(1, XDATA, add(CFA_XSP16, literal(-16)))
          CFI (cfiCond69) V1 load(1, XDATA, add(CFA_XSP16, literal(-15)))
          CFI (cfiCond69) V2 load(1, XDATA, add(CFA_XSP16, literal(-14)))
          CFI (cfiCond69) V3 load(1, XDATA, add(CFA_XSP16, literal(-13)))
          CFI (cfiCond69) V4 load(1, XDATA, add(CFA_XSP16, literal(-12)))
          CFI (cfiCond69) V5 load(1, XDATA, add(CFA_XSP16, literal(-11)))
          CFI (cfiCond69) V6 load(1, XDATA, add(CFA_XSP16, literal(-10)))
          CFI (cfiCond69) V7 load(1, XDATA, add(CFA_XSP16, literal(-9)))
          CFI (cfiCond69) V8 load(1, XDATA, add(CFA_XSP16, literal(-8)))
          CFI (cfiCond69) V9 load(1, XDATA, add(CFA_XSP16, literal(-7)))
          CFI (cfiCond69) R7 load(1, XDATA, add(CFA_XSP16, literal(-6)))
          CFI (cfiCond69) ?RET_LOW load(1, XDATA, add(CFA_XSP16, literal(-5)))
          CFI (cfiCond69) ?RET_HIGH load(1, XDATA, add(CFA_XSP16, literal(-4)))
          CFI (cfiCond69) ?BRET_EXT load(1, XDATA, add(CFA_XSP16, literal(-3)))
          CFI (cfiCond69) DPL0 load(1, XDATA, add(CFA_XSP16, literal(-2)))
          CFI (cfiCond69) DPH0 load(1, XDATA, add(CFA_XSP16, literal(-1)))
          CFI (cfiCond69) CFA_SP SP+-4
          CFI (cfiCond69) CFA_XSP16 add(XSP16, 18)
          CFI Block cfiCond70 Using cfiCommon0
          CFI (cfiCond70) Function MT_GPDataInd
          CFI (cfiCond70) Conditional ??CrossCallReturnLabel_42, ??CrossCallReturnLabel_7
          CFI (cfiCond70) R6 load(1, XDATA, add(CFA_XSP16, literal(-18)))
          CFI (cfiCond70) VB load(1, XDATA, add(CFA_XSP16, literal(-17)))
          CFI (cfiCond70) V0 load(1, XDATA, add(CFA_XSP16, literal(-16)))
          CFI (cfiCond70) V1 load(1, XDATA, add(CFA_XSP16, literal(-15)))
          CFI (cfiCond70) V2 load(1, XDATA, add(CFA_XSP16, literal(-14)))
          CFI (cfiCond70) V3 load(1, XDATA, add(CFA_XSP16, literal(-13)))
          CFI (cfiCond70) V4 load(1, XDATA, add(CFA_XSP16, literal(-12)))
          CFI (cfiCond70) V5 load(1, XDATA, add(CFA_XSP16, literal(-11)))
          CFI (cfiCond70) V6 load(1, XDATA, add(CFA_XSP16, literal(-10)))
          CFI (cfiCond70) V7 load(1, XDATA, add(CFA_XSP16, literal(-9)))
          CFI (cfiCond70) V8 load(1, XDATA, add(CFA_XSP16, literal(-8)))
          CFI (cfiCond70) V9 load(1, XDATA, add(CFA_XSP16, literal(-7)))
          CFI (cfiCond70) R7 load(1, XDATA, add(CFA_XSP16, literal(-6)))
          CFI (cfiCond70) ?RET_LOW load(1, XDATA, add(CFA_XSP16, literal(-5)))
          CFI (cfiCond70) ?RET_HIGH load(1, XDATA, add(CFA_XSP16, literal(-4)))
          CFI (cfiCond70) ?BRET_EXT load(1, XDATA, add(CFA_XSP16, literal(-3)))
          CFI (cfiCond70) DPL0 load(1, XDATA, add(CFA_XSP16, literal(-2)))
          CFI (cfiCond70) DPH0 load(1, XDATA, add(CFA_XSP16, literal(-1)))
          CFI (cfiCond70) CFA_SP SP+-4
          CFI (cfiCond70) CFA_XSP16 add(XSP16, 18)
          CFI Block cfiCond71 Using cfiCommon0
          CFI (cfiCond71) Function MT_GPDataInd
          CFI (cfiCond71) Conditional ??CrossCallReturnLabel_42, ??CrossCallReturnLabel_8
          CFI (cfiCond71) R6 load(1, XDATA, add(CFA_XSP16, literal(-18)))
          CFI (cfiCond71) VB load(1, XDATA, add(CFA_XSP16, literal(-17)))
          CFI (cfiCond71) V0 load(1, XDATA, add(CFA_XSP16, literal(-16)))
          CFI (cfiCond71) V1 load(1, XDATA, add(CFA_XSP16, literal(-15)))
          CFI (cfiCond71) V2 load(1, XDATA, add(CFA_XSP16, literal(-14)))
          CFI (cfiCond71) V3 load(1, XDATA, add(CFA_XSP16, literal(-13)))
          CFI (cfiCond71) V4 load(1, XDATA, add(CFA_XSP16, literal(-12)))
          CFI (cfiCond71) V5 load(1, XDATA, add(CFA_XSP16, literal(-11)))
          CFI (cfiCond71) V6 load(1, XDATA, add(CFA_XSP16, literal(-10)))
          CFI (cfiCond71) V7 load(1, XDATA, add(CFA_XSP16, literal(-9)))
          CFI (cfiCond71) V8 load(1, XDATA, add(CFA_XSP16, literal(-8)))
          CFI (cfiCond71) V9 load(1, XDATA, add(CFA_XSP16, literal(-7)))
          CFI (cfiCond71) R7 load(1, XDATA, add(CFA_XSP16, literal(-6)))
          CFI (cfiCond71) ?RET_LOW load(1, XDATA, add(CFA_XSP16, literal(-5)))
          CFI (cfiCond71) ?RET_HIGH load(1, XDATA, add(CFA_XSP16, literal(-4)))
          CFI (cfiCond71) ?BRET_EXT load(1, XDATA, add(CFA_XSP16, literal(-3)))
          CFI (cfiCond71) DPL0 load(1, XDATA, add(CFA_XSP16, literal(-2)))
          CFI (cfiCond71) DPH0 load(1, XDATA, add(CFA_XSP16, literal(-1)))
          CFI (cfiCond71) CFA_SP SP+-4
          CFI (cfiCond71) CFA_XSP16 add(XSP16, 18)
          CFI Block cfiPicker72 Using cfiCommon1
          CFI (cfiPicker72) NoFunction
          CFI (cfiPicker72) Picker
        LCALL     ?Subroutine31 & 0xFFFF
??CrossCallReturnLabel_58:
        MOV       DPL,?V0
        MOV       DPH,?V1
        RET
          CFI EndBlock cfiCond68
          CFI EndBlock cfiCond69
          CFI EndBlock cfiCond70
          CFI EndBlock cfiCond71
          CFI EndBlock cfiPicker72

        RSEG BANKED_CODE:HUGECODE:NOROOT(0)
?Subroutine31:
          CFI Block cfiCond73 Using cfiCommon0
          CFI Function MT_GpDataReq
          CFI Conditional ??CrossCallReturnLabel_53
          CFI R6 load(1, XDATA, add(CFA_XSP16, literal(-15)))
          CFI VB load(1, XDATA, add(CFA_XSP16, literal(-14)))
          CFI V0 load(1, XDATA, add(CFA_XSP16, literal(-13)))
          CFI V1 load(1, XDATA, add(CFA_XSP16, literal(-12)))
          CFI V2 load(1, XDATA, add(CFA_XSP16, literal(-11)))
          CFI V3 load(1, XDATA, add(CFA_XSP16, literal(-10)))
          CFI V4 load(1, XDATA, add(CFA_XSP16, literal(-9)))
          CFI V5 load(1, XDATA, add(CFA_XSP16, literal(-8)))
          CFI V6 load(1, XDATA, add(CFA_XSP16, literal(-7)))
          CFI R7 load(1, XDATA, add(CFA_XSP16, literal(-6)))
          CFI ?RET_LOW load(1, XDATA, add(CFA_XSP16, literal(-5)))
          CFI ?RET_HIGH load(1, XDATA, add(CFA_XSP16, literal(-4)))
          CFI ?BRET_EXT load(1, XDATA, add(CFA_XSP16, literal(-3)))
          CFI DPL0 load(1, XDATA, add(CFA_XSP16, literal(-2)))
          CFI DPH0 load(1, XDATA, add(CFA_XSP16, literal(-1)))
          CFI CFA_SP SP+-2
          CFI CFA_XSP16 add(XSP16, 16)
          CFI Block cfiCond74 Using cfiCommon0
          CFI (cfiCond74) Function MT_GPDataInd
          CFI (cfiCond74) Conditional ??CrossCallReturnLabel_54
          CFI (cfiCond74) R6 load(1, XDATA, add(CFA_XSP16, literal(-18)))
          CFI (cfiCond74) VB load(1, XDATA, add(CFA_XSP16, literal(-17)))
          CFI (cfiCond74) V0 load(1, XDATA, add(CFA_XSP16, literal(-16)))
          CFI (cfiCond74) V1 load(1, XDATA, add(CFA_XSP16, literal(-15)))
          CFI (cfiCond74) V2 load(1, XDATA, add(CFA_XSP16, literal(-14)))
          CFI (cfiCond74) V3 load(1, XDATA, add(CFA_XSP16, literal(-13)))
          CFI (cfiCond74) V4 load(1, XDATA, add(CFA_XSP16, literal(-12)))
          CFI (cfiCond74) V5 load(1, XDATA, add(CFA_XSP16, literal(-11)))
          CFI (cfiCond74) V6 load(1, XDATA, add(CFA_XSP16, literal(-10)))
          CFI (cfiCond74) V7 load(1, XDATA, add(CFA_XSP16, literal(-9)))
          CFI (cfiCond74) V8 load(1, XDATA, add(CFA_XSP16, literal(-8)))
          CFI (cfiCond74) V9 load(1, XDATA, add(CFA_XSP16, literal(-7)))
          CFI (cfiCond74) R7 load(1, XDATA, add(CFA_XSP16, literal(-6)))
          CFI (cfiCond74) ?RET_LOW load(1, XDATA, add(CFA_XSP16, literal(-5)))
          CFI (cfiCond74) ?RET_HIGH load(1, XDATA, add(CFA_XSP16, literal(-4)))
          CFI (cfiCond74) ?BRET_EXT load(1, XDATA, add(CFA_XSP16, literal(-3)))
          CFI (cfiCond74) DPL0 load(1, XDATA, add(CFA_XSP16, literal(-2)))
          CFI (cfiCond74) DPH0 load(1, XDATA, add(CFA_XSP16, literal(-1)))
          CFI (cfiCond74) CFA_SP SP+-2
          CFI (cfiCond74) CFA_XSP16 add(XSP16, 18)
          CFI Block cfiCond75 Using cfiCommon0
          CFI (cfiCond75) Function MT_GPDataInd
          CFI (cfiCond75) Conditional ??CrossCallReturnLabel_55
          CFI (cfiCond75) R6 load(1, XDATA, add(CFA_XSP16, literal(-18)))
          CFI (cfiCond75) VB load(1, XDATA, add(CFA_XSP16, literal(-17)))
          CFI (cfiCond75) V0 load(1, XDATA, add(CFA_XSP16, literal(-16)))
          CFI (cfiCond75) V1 load(1, XDATA, add(CFA_XSP16, literal(-15)))
          CFI (cfiCond75) V2 load(1, XDATA, add(CFA_XSP16, literal(-14)))
          CFI (cfiCond75) V3 load(1, XDATA, add(CFA_XSP16, literal(-13)))
          CFI (cfiCond75) V4 load(1, XDATA, add(CFA_XSP16, literal(-12)))
          CFI (cfiCond75) V5 load(1, XDATA, add(CFA_XSP16, literal(-11)))
          CFI (cfiCond75) V6 load(1, XDATA, add(CFA_XSP16, literal(-10)))
          CFI (cfiCond75) V7 load(1, XDATA, add(CFA_XSP16, literal(-9)))
          CFI (cfiCond75) V8 load(1, XDATA, add(CFA_XSP16, literal(-8)))
          CFI (cfiCond75) V9 load(1, XDATA, add(CFA_XSP16, literal(-7)))
          CFI (cfiCond75) R7 load(1, XDATA, add(CFA_XSP16, literal(-6)))
          CFI (cfiCond75) ?RET_LOW load(1, XDATA, add(CFA_XSP16, literal(-5)))
          CFI (cfiCond75) ?RET_HIGH load(1, XDATA, add(CFA_XSP16, literal(-4)))
          CFI (cfiCond75) ?BRET_EXT load(1, XDATA, add(CFA_XSP16, literal(-3)))
          CFI (cfiCond75) DPL0 load(1, XDATA, add(CFA_XSP16, literal(-2)))
          CFI (cfiCond75) DPH0 load(1, XDATA, add(CFA_XSP16, literal(-1)))
          CFI (cfiCond75) CFA_SP SP+-2
          CFI (cfiCond75) CFA_XSP16 add(XSP16, 18)
          CFI Block cfiCond76 Using cfiCommon0
          CFI (cfiCond76) Function MT_GPDataInd
          CFI (cfiCond76) Conditional ??CrossCallReturnLabel_58, ??CrossCallReturnLabel_43, ??CrossCallReturnLabel_34
          CFI (cfiCond76) R6 load(1, XDATA, add(CFA_XSP16, literal(-18)))
          CFI (cfiCond76) VB load(1, XDATA, add(CFA_XSP16, literal(-17)))
          CFI (cfiCond76) V0 load(1, XDATA, add(CFA_XSP16, literal(-16)))
          CFI (cfiCond76) V1 load(1, XDATA, add(CFA_XSP16, literal(-15)))
          CFI (cfiCond76) V2 load(1, XDATA, add(CFA_XSP16, literal(-14)))
          CFI (cfiCond76) V3 load(1, XDATA, add(CFA_XSP16, literal(-13)))
          CFI (cfiCond76) V4 load(1, XDATA, add(CFA_XSP16, literal(-12)))
          CFI (cfiCond76) V5 load(1, XDATA, add(CFA_XSP16, literal(-11)))
          CFI (cfiCond76) V6 load(1, XDATA, add(CFA_XSP16, literal(-10)))
          CFI (cfiCond76) V7 load(1, XDATA, add(CFA_XSP16, literal(-9)))
          CFI (cfiCond76) V8 load(1, XDATA, add(CFA_XSP16, literal(-8)))
          CFI (cfiCond76) V9 load(1, XDATA, add(CFA_XSP16, literal(-7)))
          CFI (cfiCond76) R7 load(1, XDATA, add(CFA_XSP16, literal(-6)))
          CFI (cfiCond76) ?RET_LOW load(1, XDATA, add(CFA_XSP16, literal(-5)))
          CFI (cfiCond76) ?RET_HIGH load(1, XDATA, add(CFA_XSP16, literal(-4)))
          CFI (cfiCond76) ?BRET_EXT load(1, XDATA, add(CFA_XSP16, literal(-3)))
          CFI (cfiCond76) DPL0 load(1, XDATA, add(CFA_XSP16, literal(-2)))
          CFI (cfiCond76) DPH0 load(1, XDATA, add(CFA_XSP16, literal(-1)))
          CFI (cfiCond76) CFA_SP SP+-6
          CFI (cfiCond76) CFA_XSP16 add(XSP16, 18)
          CFI Block cfiCond77 Using cfiCommon0
          CFI (cfiCond77) Function MT_GPDataInd
          CFI (cfiCond77) Conditional ??CrossCallReturnLabel_58, ??CrossCallReturnLabel_43, ??CrossCallReturnLabel_35
          CFI (cfiCond77) R6 load(1, XDATA, add(CFA_XSP16, literal(-18)))
          CFI (cfiCond77) VB load(1, XDATA, add(CFA_XSP16, literal(-17)))
          CFI (cfiCond77) V0 load(1, XDATA, add(CFA_XSP16, literal(-16)))
          CFI (cfiCond77) V1 load(1, XDATA, add(CFA_XSP16, literal(-15)))
          CFI (cfiCond77) V2 load(1, XDATA, add(CFA_XSP16, literal(-14)))
          CFI (cfiCond77) V3 load(1, XDATA, add(CFA_XSP16, literal(-13)))
          CFI (cfiCond77) V4 load(1, XDATA, add(CFA_XSP16, literal(-12)))
          CFI (cfiCond77) V5 load(1, XDATA, add(CFA_XSP16, literal(-11)))
          CFI (cfiCond77) V6 load(1, XDATA, add(CFA_XSP16, literal(-10)))
          CFI (cfiCond77) V7 load(1, XDATA, add(CFA_XSP16, literal(-9)))
          CFI (cfiCond77) V8 load(1, XDATA, add(CFA_XSP16, literal(-8)))
          CFI (cfiCond77) V9 load(1, XDATA, add(CFA_XSP16, literal(-7)))
          CFI (cfiCond77) R7 load(1, XDATA, add(CFA_XSP16, literal(-6)))
          CFI (cfiCond77) ?RET_LOW load(1, XDATA, add(CFA_XSP16, literal(-5)))
          CFI (cfiCond77) ?RET_HIGH load(1, XDATA, add(CFA_XSP16, literal(-4)))
          CFI (cfiCond77) ?BRET_EXT load(1, XDATA, add(CFA_XSP16, literal(-3)))
          CFI (cfiCond77) DPL0 load(1, XDATA, add(CFA_XSP16, literal(-2)))
          CFI (cfiCond77) DPH0 load(1, XDATA, add(CFA_XSP16, literal(-1)))
          CFI (cfiCond77) CFA_SP SP+-6
          CFI (cfiCond77) CFA_XSP16 add(XSP16, 18)
          CFI Block cfiCond78 Using cfiCommon0
          CFI (cfiCond78) Function MT_GPDataInd
          CFI (cfiCond78) Conditional ??CrossCallReturnLabel_58, ??CrossCallReturnLabel_42, ??CrossCallReturnLabel_7
          CFI (cfiCond78) R6 load(1, XDATA, add(CFA_XSP16, literal(-18)))
          CFI (cfiCond78) VB load(1, XDATA, add(CFA_XSP16, literal(-17)))
          CFI (cfiCond78) V0 load(1, XDATA, add(CFA_XSP16, literal(-16)))
          CFI (cfiCond78) V1 load(1, XDATA, add(CFA_XSP16, literal(-15)))
          CFI (cfiCond78) V2 load(1, XDATA, add(CFA_XSP16, literal(-14)))
          CFI (cfiCond78) V3 load(1, XDATA, add(CFA_XSP16, literal(-13)))
          CFI (cfiCond78) V4 load(1, XDATA, add(CFA_XSP16, literal(-12)))
          CFI (cfiCond78) V5 load(1, XDATA, add(CFA_XSP16, literal(-11)))
          CFI (cfiCond78) V6 load(1, XDATA, add(CFA_XSP16, literal(-10)))
          CFI (cfiCond78) V7 load(1, XDATA, add(CFA_XSP16, literal(-9)))
          CFI (cfiCond78) V8 load(1, XDATA, add(CFA_XSP16, literal(-8)))
          CFI (cfiCond78) V9 load(1, XDATA, add(CFA_XSP16, literal(-7)))
          CFI (cfiCond78) R7 load(1, XDATA, add(CFA_XSP16, literal(-6)))
          CFI (cfiCond78) ?RET_LOW load(1, XDATA, add(CFA_XSP16, literal(-5)))
          CFI (cfiCond78) ?RET_HIGH load(1, XDATA, add(CFA_XSP16, literal(-4)))
          CFI (cfiCond78) ?BRET_EXT load(1, XDATA, add(CFA_XSP16, literal(-3)))
          CFI (cfiCond78) DPL0 load(1, XDATA, add(CFA_XSP16, literal(-2)))
          CFI (cfiCond78) DPH0 load(1, XDATA, add(CFA_XSP16, literal(-1)))
          CFI (cfiCond78) CFA_SP SP+-6
          CFI (cfiCond78) CFA_XSP16 add(XSP16, 18)
          CFI Block cfiCond79 Using cfiCommon0
          CFI (cfiCond79) Function MT_GPDataInd
          CFI (cfiCond79) Conditional ??CrossCallReturnLabel_58, ??CrossCallReturnLabel_42, ??CrossCallReturnLabel_8
          CFI (cfiCond79) R6 load(1, XDATA, add(CFA_XSP16, literal(-18)))
          CFI (cfiCond79) VB load(1, XDATA, add(CFA_XSP16, literal(-17)))
          CFI (cfiCond79) V0 load(1, XDATA, add(CFA_XSP16, literal(-16)))
          CFI (cfiCond79) V1 load(1, XDATA, add(CFA_XSP16, literal(-15)))
          CFI (cfiCond79) V2 load(1, XDATA, add(CFA_XSP16, literal(-14)))
          CFI (cfiCond79) V3 load(1, XDATA, add(CFA_XSP16, literal(-13)))
          CFI (cfiCond79) V4 load(1, XDATA, add(CFA_XSP16, literal(-12)))
          CFI (cfiCond79) V5 load(1, XDATA, add(CFA_XSP16, literal(-11)))
          CFI (cfiCond79) V6 load(1, XDATA, add(CFA_XSP16, literal(-10)))
          CFI (cfiCond79) V7 load(1, XDATA, add(CFA_XSP16, literal(-9)))
          CFI (cfiCond79) V8 load(1, XDATA, add(CFA_XSP16, literal(-8)))
          CFI (cfiCond79) V9 load(1, XDATA, add(CFA_XSP16, literal(-7)))
          CFI (cfiCond79) R7 load(1, XDATA, add(CFA_XSP16, literal(-6)))
          CFI (cfiCond79) ?RET_LOW load(1, XDATA, add(CFA_XSP16, literal(-5)))
          CFI (cfiCond79) ?RET_HIGH load(1, XDATA, add(CFA_XSP16, literal(-4)))
          CFI (cfiCond79) ?BRET_EXT load(1, XDATA, add(CFA_XSP16, literal(-3)))
          CFI (cfiCond79) DPL0 load(1, XDATA, add(CFA_XSP16, literal(-2)))
          CFI (cfiCond79) DPH0 load(1, XDATA, add(CFA_XSP16, literal(-1)))
          CFI (cfiCond79) CFA_SP SP+-6
          CFI (cfiCond79) CFA_XSP16 add(XSP16, 18)
          CFI Block cfiCond80 Using cfiCommon0
          CFI (cfiCond80) Function MT_GPSecReq
          CFI (cfiCond80) Conditional ??CrossCallReturnLabel_56
          CFI (cfiCond80) R6 load(1, XDATA, add(CFA_XSP16, literal(-12)))
          CFI (cfiCond80) VB load(1, XDATA, add(CFA_XSP16, literal(-11)))
          CFI (cfiCond80) V0 load(1, XDATA, add(CFA_XSP16, literal(-10)))
          CFI (cfiCond80) V1 load(1, XDATA, add(CFA_XSP16, literal(-9)))
          CFI (cfiCond80) V2 load(1, XDATA, add(CFA_XSP16, literal(-8)))
          CFI (cfiCond80) V3 load(1, XDATA, add(CFA_XSP16, literal(-7)))
          CFI (cfiCond80) R7 load(1, XDATA, add(CFA_XSP16, literal(-6)))
          CFI (cfiCond80) ?RET_LOW load(1, XDATA, add(CFA_XSP16, literal(-5)))
          CFI (cfiCond80) ?RET_HIGH load(1, XDATA, add(CFA_XSP16, literal(-4)))
          CFI (cfiCond80) ?BRET_EXT load(1, XDATA, add(CFA_XSP16, literal(-3)))
          CFI (cfiCond80) DPL0 load(1, XDATA, add(CFA_XSP16, literal(-2)))
          CFI (cfiCond80) DPH0 load(1, XDATA, add(CFA_XSP16, literal(-1)))
          CFI (cfiCond80) CFA_SP SP+-2
          CFI (cfiCond80) CFA_XSP16 add(XSP16, 33)
          CFI Block cfiCond81 Using cfiCommon0
          CFI (cfiCond81) Function MT_GPDataInd
          CFI (cfiCond81) Conditional ??CrossCallReturnLabel_57, ??CrossCallReturnLabel_4
          CFI (cfiCond81) R6 load(1, XDATA, add(CFA_XSP16, literal(-18)))
          CFI (cfiCond81) VB load(1, XDATA, add(CFA_XSP16, literal(-17)))
          CFI (cfiCond81) V0 load(1, XDATA, add(CFA_XSP16, literal(-16)))
          CFI (cfiCond81) V1 load(1, XDATA, add(CFA_XSP16, literal(-15)))
          CFI (cfiCond81) V2 load(1, XDATA, add(CFA_XSP16, literal(-14)))
          CFI (cfiCond81) V3 load(1, XDATA, add(CFA_XSP16, literal(-13)))
          CFI (cfiCond81) V4 load(1, XDATA, add(CFA_XSP16, literal(-12)))
          CFI (cfiCond81) V5 load(1, XDATA, add(CFA_XSP16, literal(-11)))
          CFI (cfiCond81) V6 load(1, XDATA, add(CFA_XSP16, literal(-10)))
          CFI (cfiCond81) V7 load(1, XDATA, add(CFA_XSP16, literal(-9)))
          CFI (cfiCond81) V8 load(1, XDATA, add(CFA_XSP16, literal(-8)))
          CFI (cfiCond81) V9 load(1, XDATA, add(CFA_XSP16, literal(-7)))
          CFI (cfiCond81) R7 load(1, XDATA, add(CFA_XSP16, literal(-6)))
          CFI (cfiCond81) ?RET_LOW load(1, XDATA, add(CFA_XSP16, literal(-5)))
          CFI (cfiCond81) ?RET_HIGH load(1, XDATA, add(CFA_XSP16, literal(-4)))
          CFI (cfiCond81) ?BRET_EXT load(1, XDATA, add(CFA_XSP16, literal(-3)))
          CFI (cfiCond81) DPL0 load(1, XDATA, add(CFA_XSP16, literal(-2)))
          CFI (cfiCond81) DPH0 load(1, XDATA, add(CFA_XSP16, literal(-1)))
          CFI (cfiCond81) CFA_SP SP+-4
          CFI (cfiCond81) CFA_XSP16 add(XSP16, 18)
          CFI Block cfiCond82 Using cfiCommon0
          CFI (cfiCond82) Function MT_GPDataInd
          CFI (cfiCond82) Conditional ??CrossCallReturnLabel_57, ??CrossCallReturnLabel_5
          CFI (cfiCond82) R6 load(1, XDATA, add(CFA_XSP16, literal(-18)))
          CFI (cfiCond82) VB load(1, XDATA, add(CFA_XSP16, literal(-17)))
          CFI (cfiCond82) V0 load(1, XDATA, add(CFA_XSP16, literal(-16)))
          CFI (cfiCond82) V1 load(1, XDATA, add(CFA_XSP16, literal(-15)))
          CFI (cfiCond82) V2 load(1, XDATA, add(CFA_XSP16, literal(-14)))
          CFI (cfiCond82) V3 load(1, XDATA, add(CFA_XSP16, literal(-13)))
          CFI (cfiCond82) V4 load(1, XDATA, add(CFA_XSP16, literal(-12)))
          CFI (cfiCond82) V5 load(1, XDATA, add(CFA_XSP16, literal(-11)))
          CFI (cfiCond82) V6 load(1, XDATA, add(CFA_XSP16, literal(-10)))
          CFI (cfiCond82) V7 load(1, XDATA, add(CFA_XSP16, literal(-9)))
          CFI (cfiCond82) V8 load(1, XDATA, add(CFA_XSP16, literal(-8)))
          CFI (cfiCond82) V9 load(1, XDATA, add(CFA_XSP16, literal(-7)))
          CFI (cfiCond82) R7 load(1, XDATA, add(CFA_XSP16, literal(-6)))
          CFI (cfiCond82) ?RET_LOW load(1, XDATA, add(CFA_XSP16, literal(-5)))
          CFI (cfiCond82) ?RET_HIGH load(1, XDATA, add(CFA_XSP16, literal(-4)))
          CFI (cfiCond82) ?BRET_EXT load(1, XDATA, add(CFA_XSP16, literal(-3)))
          CFI (cfiCond82) DPL0 load(1, XDATA, add(CFA_XSP16, literal(-2)))
          CFI (cfiCond82) DPH0 load(1, XDATA, add(CFA_XSP16, literal(-1)))
          CFI (cfiCond82) CFA_SP SP+-4
          CFI (cfiCond82) CFA_XSP16 add(XSP16, 18)
          CFI Block cfiCond83 Using cfiCommon0
          CFI (cfiCond83) Function MT_GPSecReq
          CFI (cfiCond83) Conditional ??CrossCallReturnLabel_57, ??CrossCallReturnLabel_6
          CFI (cfiCond83) R6 load(1, XDATA, add(CFA_XSP16, literal(-12)))
          CFI (cfiCond83) VB load(1, XDATA, add(CFA_XSP16, literal(-11)))
          CFI (cfiCond83) V0 load(1, XDATA, add(CFA_XSP16, literal(-10)))
          CFI (cfiCond83) V1 load(1, XDATA, add(CFA_XSP16, literal(-9)))
          CFI (cfiCond83) V2 load(1, XDATA, add(CFA_XSP16, literal(-8)))
          CFI (cfiCond83) V3 load(1, XDATA, add(CFA_XSP16, literal(-7)))
          CFI (cfiCond83) R7 load(1, XDATA, add(CFA_XSP16, literal(-6)))
          CFI (cfiCond83) ?RET_LOW load(1, XDATA, add(CFA_XSP16, literal(-5)))
          CFI (cfiCond83) ?RET_HIGH load(1, XDATA, add(CFA_XSP16, literal(-4)))
          CFI (cfiCond83) ?BRET_EXT load(1, XDATA, add(CFA_XSP16, literal(-3)))
          CFI (cfiCond83) DPL0 load(1, XDATA, add(CFA_XSP16, literal(-2)))
          CFI (cfiCond83) DPH0 load(1, XDATA, add(CFA_XSP16, literal(-1)))
          CFI (cfiCond83) CFA_SP SP+-4
          CFI (cfiCond83) CFA_XSP16 add(XSP16, 33)
          CFI Block cfiPicker84 Using cfiCommon1
          CFI (cfiPicker84) NoFunction
          CFI (cfiPicker84) Picker
        MOV       DPL,A
        CLR       A
        ADDC      A,R7
        MOV       DPH,A
        MOVX      A,@DPTR
        RET
          CFI EndBlock cfiCond73
          CFI EndBlock cfiCond74
          CFI EndBlock cfiCond75
          CFI EndBlock cfiCond76
          CFI EndBlock cfiCond77
          CFI EndBlock cfiCond78
          CFI EndBlock cfiCond79
          CFI EndBlock cfiCond80
          CFI EndBlock cfiCond81
          CFI EndBlock cfiCond82
          CFI EndBlock cfiCond83
          CFI EndBlock cfiPicker84

        RSEG BANKED_CODE:HUGECODE:NOROOT(0)
?Subroutine21:
          CFI Block cfiCond85 Using cfiCommon0
          CFI Function MT_GPDataInd
          CFI Conditional ??CrossCallReturnLabel_32
          CFI R6 load(1, XDATA, add(CFA_XSP16, literal(-18)))
          CFI VB load(1, XDATA, add(CFA_XSP16, literal(-17)))
          CFI V0 load(1, XDATA, add(CFA_XSP16, literal(-16)))
          CFI V1 load(1, XDATA, add(CFA_XSP16, literal(-15)))
          CFI V2 load(1, XDATA, add(CFA_XSP16, literal(-14)))
          CFI V3 load(1, XDATA, add(CFA_XSP16, literal(-13)))
          CFI V4 load(1, XDATA, add(CFA_XSP16, literal(-12)))
          CFI V5 load(1, XDATA, add(CFA_XSP16, literal(-11)))
          CFI V6 load(1, XDATA, add(CFA_XSP16, literal(-10)))
          CFI V7 load(1, XDATA, add(CFA_XSP16, literal(-9)))
          CFI V8 load(1, XDATA, add(CFA_XSP16, literal(-8)))
          CFI V9 load(1, XDATA, add(CFA_XSP16, literal(-7)))
          CFI R7 load(1, XDATA, add(CFA_XSP16, literal(-6)))
          CFI ?RET_LOW load(1, XDATA, add(CFA_XSP16, literal(-5)))
          CFI ?RET_HIGH load(1, XDATA, add(CFA_XSP16, literal(-4)))
          CFI ?BRET_EXT load(1, XDATA, add(CFA_XSP16, literal(-3)))
          CFI DPL0 load(1, XDATA, add(CFA_XSP16, literal(-2)))
          CFI DPH0 load(1, XDATA, add(CFA_XSP16, literal(-1)))
          CFI CFA_SP SP+-2
          CFI CFA_XSP16 add(XSP16, 18)
          CFI Block cfiCond86 Using cfiCommon0
          CFI (cfiCond86) Function MT_GPDataInd
          CFI (cfiCond86) Conditional ??CrossCallReturnLabel_33
          CFI (cfiCond86) R6 load(1, XDATA, add(CFA_XSP16, literal(-18)))
          CFI (cfiCond86) VB load(1, XDATA, add(CFA_XSP16, literal(-17)))
          CFI (cfiCond86) V0 load(1, XDATA, add(CFA_XSP16, literal(-16)))
          CFI (cfiCond86) V1 load(1, XDATA, add(CFA_XSP16, literal(-15)))
          CFI (cfiCond86) V2 load(1, XDATA, add(CFA_XSP16, literal(-14)))
          CFI (cfiCond86) V3 load(1, XDATA, add(CFA_XSP16, literal(-13)))
          CFI (cfiCond86) V4 load(1, XDATA, add(CFA_XSP16, literal(-12)))
          CFI (cfiCond86) V5 load(1, XDATA, add(CFA_XSP16, literal(-11)))
          CFI (cfiCond86) V6 load(1, XDATA, add(CFA_XSP16, literal(-10)))
          CFI (cfiCond86) V7 load(1, XDATA, add(CFA_XSP16, literal(-9)))
          CFI (cfiCond86) V8 load(1, XDATA, add(CFA_XSP16, literal(-8)))
          CFI (cfiCond86) V9 load(1, XDATA, add(CFA_XSP16, literal(-7)))
          CFI (cfiCond86) R7 load(1, XDATA, add(CFA_XSP16, literal(-6)))
          CFI (cfiCond86) ?RET_LOW load(1, XDATA, add(CFA_XSP16, literal(-5)))
          CFI (cfiCond86) ?RET_HIGH load(1, XDATA, add(CFA_XSP16, literal(-4)))
          CFI (cfiCond86) ?BRET_EXT load(1, XDATA, add(CFA_XSP16, literal(-3)))
          CFI (cfiCond86) DPL0 load(1, XDATA, add(CFA_XSP16, literal(-2)))
          CFI (cfiCond86) DPH0 load(1, XDATA, add(CFA_XSP16, literal(-1)))
          CFI (cfiCond86) CFA_SP SP+-2
          CFI (cfiCond86) CFA_XSP16 add(XSP16, 18)
          CFI Block cfiPicker87 Using cfiCommon1
          CFI (cfiPicker87) NoFunction
          CFI (cfiPicker87) Picker
        MOV       R0,A
        CLR       A
        ADDC      A,R7
        MOV       R1,A
        MOV       A,R0
        MOV       R4,A
        MOV       A,R1
        MOV       DPL,R0
        MOV       DPH,A
        MOV       R0,#?V4
        RET
          CFI EndBlock cfiCond85
          CFI EndBlock cfiCond86
          CFI EndBlock cfiPicker87

        RSEG BANKED_CODE:HUGECODE:NOROOT(0)
?Subroutine13:
          CFI Block cfiCond88 Using cfiCommon0
          CFI Function MT_GPDataInd
          CFI Conditional ??CrossCallReturnLabel_77
          CFI R6 load(1, XDATA, add(CFA_XSP16, literal(-18)))
          CFI VB load(1, XDATA, add(CFA_XSP16, literal(-17)))
          CFI V0 load(1, XDATA, add(CFA_XSP16, literal(-16)))
          CFI V1 load(1, XDATA, add(CFA_XSP16, literal(-15)))
          CFI V2 load(1, XDATA, add(CFA_XSP16, literal(-14)))
          CFI V3 load(1, XDATA, add(CFA_XSP16, literal(-13)))
          CFI V4 load(1, XDATA, add(CFA_XSP16, literal(-12)))
          CFI V5 load(1, XDATA, add(CFA_XSP16, literal(-11)))
          CFI V6 load(1, XDATA, add(CFA_XSP16, literal(-10)))
          CFI V7 load(1, XDATA, add(CFA_XSP16, literal(-9)))
          CFI V8 load(1, XDATA, add(CFA_XSP16, literal(-8)))
          CFI V9 load(1, XDATA, add(CFA_XSP16, literal(-7)))
          CFI R7 load(1, XDATA, add(CFA_XSP16, literal(-6)))
          CFI ?RET_LOW load(1, XDATA, add(CFA_XSP16, literal(-5)))
          CFI ?RET_HIGH load(1, XDATA, add(CFA_XSP16, literal(-4)))
          CFI ?BRET_EXT load(1, XDATA, add(CFA_XSP16, literal(-3)))
          CFI DPL0 load(1, XDATA, add(CFA_XSP16, literal(-2)))
          CFI DPH0 load(1, XDATA, add(CFA_XSP16, literal(-1)))
          CFI CFA_SP SP+-2
          CFI CFA_XSP16 add(XSP16, 18)
          CFI Block cfiCond89 Using cfiCommon0
          CFI (cfiCond89) Function MT_GPDataInd
          CFI (cfiCond89) Conditional ??CrossCallReturnLabel_78
          CFI (cfiCond89) R6 load(1, XDATA, add(CFA_XSP16, literal(-18)))
          CFI (cfiCond89) VB load(1, XDATA, add(CFA_XSP16, literal(-17)))
          CFI (cfiCond89) V0 load(1, XDATA, add(CFA_XSP16, literal(-16)))
          CFI (cfiCond89) V1 load(1, XDATA, add(CFA_XSP16, literal(-15)))
          CFI (cfiCond89) V2 load(1, XDATA, add(CFA_XSP16, literal(-14)))
          CFI (cfiCond89) V3 load(1, XDATA, add(CFA_XSP16, literal(-13)))
          CFI (cfiCond89) V4 load(1, XDATA, add(CFA_XSP16, literal(-12)))
          CFI (cfiCond89) V5 load(1, XDATA, add(CFA_XSP16, literal(-11)))
          CFI (cfiCond89) V6 load(1, XDATA, add(CFA_XSP16, literal(-10)))
          CFI (cfiCond89) V7 load(1, XDATA, add(CFA_XSP16, literal(-9)))
          CFI (cfiCond89) V8 load(1, XDATA, add(CFA_XSP16, literal(-8)))
          CFI (cfiCond89) V9 load(1, XDATA, add(CFA_XSP16, literal(-7)))
          CFI (cfiCond89) R7 load(1, XDATA, add(CFA_XSP16, literal(-6)))
          CFI (cfiCond89) ?RET_LOW load(1, XDATA, add(CFA_XSP16, literal(-5)))
          CFI (cfiCond89) ?RET_HIGH load(1, XDATA, add(CFA_XSP16, literal(-4)))
          CFI (cfiCond89) ?BRET_EXT load(1, XDATA, add(CFA_XSP16, literal(-3)))
          CFI (cfiCond89) DPL0 load(1, XDATA, add(CFA_XSP16, literal(-2)))
          CFI (cfiCond89) DPH0 load(1, XDATA, add(CFA_XSP16, literal(-1)))
          CFI (cfiCond89) CFA_SP SP+-2
          CFI (cfiCond89) CFA_XSP16 add(XSP16, 18)
          CFI Block cfiPicker90 Using cfiCommon1
          CFI (cfiPicker90) NoFunction
          CFI (cfiPicker90) Picker
        MOV       A,?V4
          CFI EndBlock cfiCond88
          CFI EndBlock cfiCond89
          CFI EndBlock cfiPicker90
        REQUIRE ??Subroutine35_0
        ; // Fall through to label ??Subroutine35_0

        RSEG BANKED_CODE:HUGECODE:NOROOT(0)
??Subroutine35_0:
          CFI Block cfiCond91 Using cfiCommon0
          CFI Function MT_GPDataInd
          CFI Conditional ??CrossCallReturnLabel_79
          CFI R6 load(1, XDATA, add(CFA_XSP16, literal(-18)))
          CFI VB load(1, XDATA, add(CFA_XSP16, literal(-17)))
          CFI V0 load(1, XDATA, add(CFA_XSP16, literal(-16)))
          CFI V1 load(1, XDATA, add(CFA_XSP16, literal(-15)))
          CFI V2 load(1, XDATA, add(CFA_XSP16, literal(-14)))
          CFI V3 load(1, XDATA, add(CFA_XSP16, literal(-13)))
          CFI V4 load(1, XDATA, add(CFA_XSP16, literal(-12)))
          CFI V5 load(1, XDATA, add(CFA_XSP16, literal(-11)))
          CFI V6 load(1, XDATA, add(CFA_XSP16, literal(-10)))
          CFI V7 load(1, XDATA, add(CFA_XSP16, literal(-9)))
          CFI V8 load(1, XDATA, add(CFA_XSP16, literal(-8)))
          CFI V9 load(1, XDATA, add(CFA_XSP16, literal(-7)))
          CFI R7 load(1, XDATA, add(CFA_XSP16, literal(-6)))
          CFI ?RET_LOW load(1, XDATA, add(CFA_XSP16, literal(-5)))
          CFI ?RET_HIGH load(1, XDATA, add(CFA_XSP16, literal(-4)))
          CFI ?BRET_EXT load(1, XDATA, add(CFA_XSP16, literal(-3)))
          CFI DPL0 load(1, XDATA, add(CFA_XSP16, literal(-2)))
          CFI DPH0 load(1, XDATA, add(CFA_XSP16, literal(-1)))
          CFI CFA_SP SP+-2
          CFI CFA_XSP16 add(XSP16, 18)
          CFI Block cfiCond92 Using cfiCommon0
          CFI (cfiCond92) Function MT_GPDataInd
          CFI (cfiCond92) Conditional ??CrossCallReturnLabel_77
          CFI (cfiCond92) R6 load(1, XDATA, add(CFA_XSP16, literal(-18)))
          CFI (cfiCond92) VB load(1, XDATA, add(CFA_XSP16, literal(-17)))
          CFI (cfiCond92) V0 load(1, XDATA, add(CFA_XSP16, literal(-16)))
          CFI (cfiCond92) V1 load(1, XDATA, add(CFA_XSP16, literal(-15)))
          CFI (cfiCond92) V2 load(1, XDATA, add(CFA_XSP16, literal(-14)))
          CFI (cfiCond92) V3 load(1, XDATA, add(CFA_XSP16, literal(-13)))
          CFI (cfiCond92) V4 load(1, XDATA, add(CFA_XSP16, literal(-12)))
          CFI (cfiCond92) V5 load(1, XDATA, add(CFA_XSP16, literal(-11)))
          CFI (cfiCond92) V6 load(1, XDATA, add(CFA_XSP16, literal(-10)))
          CFI (cfiCond92) V7 load(1, XDATA, add(CFA_XSP16, literal(-9)))
          CFI (cfiCond92) V8 load(1, XDATA, add(CFA_XSP16, literal(-8)))
          CFI (cfiCond92) V9 load(1, XDATA, add(CFA_XSP16, literal(-7)))
          CFI (cfiCond92) R7 load(1, XDATA, add(CFA_XSP16, literal(-6)))
          CFI (cfiCond92) ?RET_LOW load(1, XDATA, add(CFA_XSP16, literal(-5)))
          CFI (cfiCond92) ?RET_HIGH load(1, XDATA, add(CFA_XSP16, literal(-4)))
          CFI (cfiCond92) ?BRET_EXT load(1, XDATA, add(CFA_XSP16, literal(-3)))
          CFI (cfiCond92) DPL0 load(1, XDATA, add(CFA_XSP16, literal(-2)))
          CFI (cfiCond92) DPH0 load(1, XDATA, add(CFA_XSP16, literal(-1)))
          CFI (cfiCond92) CFA_SP SP+-2
          CFI (cfiCond92) CFA_XSP16 add(XSP16, 18)
          CFI Block cfiCond93 Using cfiCommon0
          CFI (cfiCond93) Function MT_GPDataInd
          CFI (cfiCond93) Conditional ??CrossCallReturnLabel_78
          CFI (cfiCond93) R6 load(1, XDATA, add(CFA_XSP16, literal(-18)))
          CFI (cfiCond93) VB load(1, XDATA, add(CFA_XSP16, literal(-17)))
          CFI (cfiCond93) V0 load(1, XDATA, add(CFA_XSP16, literal(-16)))
          CFI (cfiCond93) V1 load(1, XDATA, add(CFA_XSP16, literal(-15)))
          CFI (cfiCond93) V2 load(1, XDATA, add(CFA_XSP16, literal(-14)))
          CFI (cfiCond93) V3 load(1, XDATA, add(CFA_XSP16, literal(-13)))
          CFI (cfiCond93) V4 load(1, XDATA, add(CFA_XSP16, literal(-12)))
          CFI (cfiCond93) V5 load(1, XDATA, add(CFA_XSP16, literal(-11)))
          CFI (cfiCond93) V6 load(1, XDATA, add(CFA_XSP16, literal(-10)))
          CFI (cfiCond93) V7 load(1, XDATA, add(CFA_XSP16, literal(-9)))
          CFI (cfiCond93) V8 load(1, XDATA, add(CFA_XSP16, literal(-8)))
          CFI (cfiCond93) V9 load(1, XDATA, add(CFA_XSP16, literal(-7)))
          CFI (cfiCond93) R7 load(1, XDATA, add(CFA_XSP16, literal(-6)))
          CFI (cfiCond93) ?RET_LOW load(1, XDATA, add(CFA_XSP16, literal(-5)))
          CFI (cfiCond93) ?RET_HIGH load(1, XDATA, add(CFA_XSP16, literal(-4)))
          CFI (cfiCond93) ?BRET_EXT load(1, XDATA, add(CFA_XSP16, literal(-3)))
          CFI (cfiCond93) DPL0 load(1, XDATA, add(CFA_XSP16, literal(-2)))
          CFI (cfiCond93) DPH0 load(1, XDATA, add(CFA_XSP16, literal(-1)))
          CFI (cfiCond93) CFA_SP SP+-2
          CFI (cfiCond93) CFA_XSP16 add(XSP16, 18)
          CFI Block cfiPicker94 Using cfiCommon1
          CFI (cfiPicker94) NoFunction
          CFI (cfiPicker94) Picker
        MOVX      @DPTR,A
        MOV       DPL,R2
        MOV       DPH,R1
        MOV       R0,#?V4
        RET
          CFI EndBlock cfiCond91
          CFI EndBlock cfiCond92
          CFI EndBlock cfiCond93
          CFI EndBlock cfiPicker94

        RSEG BANKED_CODE:HUGECODE:NOROOT(0)
?Subroutine10:
          CFI Block cfiCond95 Using cfiCommon0
          CFI Function MT_GPDataInd
          CFI Conditional ??CrossCallReturnLabel_80
          CFI R6 load(1, XDATA, add(CFA_XSP16, literal(-18)))
          CFI VB load(1, XDATA, add(CFA_XSP16, literal(-17)))
          CFI V0 load(1, XDATA, add(CFA_XSP16, literal(-16)))
          CFI V1 load(1, XDATA, add(CFA_XSP16, literal(-15)))
          CFI V2 load(1, XDATA, add(CFA_XSP16, literal(-14)))
          CFI V3 load(1, XDATA, add(CFA_XSP16, literal(-13)))
          CFI V4 load(1, XDATA, add(CFA_XSP16, literal(-12)))
          CFI V5 load(1, XDATA, add(CFA_XSP16, literal(-11)))
          CFI V6 load(1, XDATA, add(CFA_XSP16, literal(-10)))
          CFI V7 load(1, XDATA, add(CFA_XSP16, literal(-9)))
          CFI V8 load(1, XDATA, add(CFA_XSP16, literal(-8)))
          CFI V9 load(1, XDATA, add(CFA_XSP16, literal(-7)))
          CFI R7 load(1, XDATA, add(CFA_XSP16, literal(-6)))
          CFI ?RET_LOW load(1, XDATA, add(CFA_XSP16, literal(-5)))
          CFI ?RET_HIGH load(1, XDATA, add(CFA_XSP16, literal(-4)))
          CFI ?BRET_EXT load(1, XDATA, add(CFA_XSP16, literal(-3)))
          CFI DPL0 load(1, XDATA, add(CFA_XSP16, literal(-2)))
          CFI DPH0 load(1, XDATA, add(CFA_XSP16, literal(-1)))
          CFI CFA_SP SP+-2
          CFI CFA_XSP16 add(XSP16, 18)
          CFI Block cfiCond96 Using cfiCommon0
          CFI (cfiCond96) Function MT_GPDataInd
          CFI (cfiCond96) Conditional ??CrossCallReturnLabel_81
          CFI (cfiCond96) R6 load(1, XDATA, add(CFA_XSP16, literal(-18)))
          CFI (cfiCond96) VB load(1, XDATA, add(CFA_XSP16, literal(-17)))
          CFI (cfiCond96) V0 load(1, XDATA, add(CFA_XSP16, literal(-16)))
          CFI (cfiCond96) V1 load(1, XDATA, add(CFA_XSP16, literal(-15)))
          CFI (cfiCond96) V2 load(1, XDATA, add(CFA_XSP16, literal(-14)))
          CFI (cfiCond96) V3 load(1, XDATA, add(CFA_XSP16, literal(-13)))
          CFI (cfiCond96) V4 load(1, XDATA, add(CFA_XSP16, literal(-12)))
          CFI (cfiCond96) V5 load(1, XDATA, add(CFA_XSP16, literal(-11)))
          CFI (cfiCond96) V6 load(1, XDATA, add(CFA_XSP16, literal(-10)))
          CFI (cfiCond96) V7 load(1, XDATA, add(CFA_XSP16, literal(-9)))
          CFI (cfiCond96) V8 load(1, XDATA, add(CFA_XSP16, literal(-8)))
          CFI (cfiCond96) V9 load(1, XDATA, add(CFA_XSP16, literal(-7)))
          CFI (cfiCond96) R7 load(1, XDATA, add(CFA_XSP16, literal(-6)))
          CFI (cfiCond96) ?RET_LOW load(1, XDATA, add(CFA_XSP16, literal(-5)))
          CFI (cfiCond96) ?RET_HIGH load(1, XDATA, add(CFA_XSP16, literal(-4)))
          CFI (cfiCond96) ?BRET_EXT load(1, XDATA, add(CFA_XSP16, literal(-3)))
          CFI (cfiCond96) DPL0 load(1, XDATA, add(CFA_XSP16, literal(-2)))
          CFI (cfiCond96) DPH0 load(1, XDATA, add(CFA_XSP16, literal(-1)))
          CFI (cfiCond96) CFA_SP SP+-2
          CFI (cfiCond96) CFA_XSP16 add(XSP16, 18)
          CFI Block cfiPicker97 Using cfiCommon1
          CFI (cfiPicker97) NoFunction
          CFI (cfiPicker97) Picker
        INC       DPTR
        INC       DPTR
          CFI EndBlock cfiCond95
          CFI EndBlock cfiCond96
          CFI EndBlock cfiPicker97
        REQUIRE ??Subroutine36_0
        ; // Fall through to label ??Subroutine36_0

        RSEG BANKED_CODE:HUGECODE:NOROOT(0)
??Subroutine36_0:
          CFI Block cfiCond98 Using cfiCommon0
          CFI Function MT_GPDataInd
          CFI Conditional ??CrossCallReturnLabel_82
          CFI R6 load(1, XDATA, add(CFA_XSP16, literal(-18)))
          CFI VB load(1, XDATA, add(CFA_XSP16, literal(-17)))
          CFI V0 load(1, XDATA, add(CFA_XSP16, literal(-16)))
          CFI V1 load(1, XDATA, add(CFA_XSP16, literal(-15)))
          CFI V2 load(1, XDATA, add(CFA_XSP16, literal(-14)))
          CFI V3 load(1, XDATA, add(CFA_XSP16, literal(-13)))
          CFI V4 load(1, XDATA, add(CFA_XSP16, literal(-12)))
          CFI V5 load(1, XDATA, add(CFA_XSP16, literal(-11)))
          CFI V6 load(1, XDATA, add(CFA_XSP16, literal(-10)))
          CFI V7 load(1, XDATA, add(CFA_XSP16, literal(-9)))
          CFI V8 load(1, XDATA, add(CFA_XSP16, literal(-8)))
          CFI V9 load(1, XDATA, add(CFA_XSP16, literal(-7)))
          CFI R7 load(1, XDATA, add(CFA_XSP16, literal(-6)))
          CFI ?RET_LOW load(1, XDATA, add(CFA_XSP16, literal(-5)))
          CFI ?RET_HIGH load(1, XDATA, add(CFA_XSP16, literal(-4)))
          CFI ?BRET_EXT load(1, XDATA, add(CFA_XSP16, literal(-3)))
          CFI DPL0 load(1, XDATA, add(CFA_XSP16, literal(-2)))
          CFI DPH0 load(1, XDATA, add(CFA_XSP16, literal(-1)))
          CFI CFA_SP SP+-2
          CFI CFA_XSP16 add(XSP16, 18)
          CFI Block cfiCond99 Using cfiCommon0
          CFI (cfiCond99) Function MT_GPDataInd
          CFI (cfiCond99) Conditional ??CrossCallReturnLabel_80
          CFI (cfiCond99) R6 load(1, XDATA, add(CFA_XSP16, literal(-18)))
          CFI (cfiCond99) VB load(1, XDATA, add(CFA_XSP16, literal(-17)))
          CFI (cfiCond99) V0 load(1, XDATA, add(CFA_XSP16, literal(-16)))
          CFI (cfiCond99) V1 load(1, XDATA, add(CFA_XSP16, literal(-15)))
          CFI (cfiCond99) V2 load(1, XDATA, add(CFA_XSP16, literal(-14)))
          CFI (cfiCond99) V3 load(1, XDATA, add(CFA_XSP16, literal(-13)))
          CFI (cfiCond99) V4 load(1, XDATA, add(CFA_XSP16, literal(-12)))
          CFI (cfiCond99) V5 load(1, XDATA, add(CFA_XSP16, literal(-11)))
          CFI (cfiCond99) V6 load(1, XDATA, add(CFA_XSP16, literal(-10)))
          CFI (cfiCond99) V7 load(1, XDATA, add(CFA_XSP16, literal(-9)))
          CFI (cfiCond99) V8 load(1, XDATA, add(CFA_XSP16, literal(-8)))
          CFI (cfiCond99) V9 load(1, XDATA, add(CFA_XSP16, literal(-7)))
          CFI (cfiCond99) R7 load(1, XDATA, add(CFA_XSP16, literal(-6)))
          CFI (cfiCond99) ?RET_LOW load(1, XDATA, add(CFA_XSP16, literal(-5)))
          CFI (cfiCond99) ?RET_HIGH load(1, XDATA, add(CFA_XSP16, literal(-4)))
          CFI (cfiCond99) ?BRET_EXT load(1, XDATA, add(CFA_XSP16, literal(-3)))
          CFI (cfiCond99) DPL0 load(1, XDATA, add(CFA_XSP16, literal(-2)))
          CFI (cfiCond99) DPH0 load(1, XDATA, add(CFA_XSP16, literal(-1)))
          CFI (cfiCond99) CFA_SP SP+-2
          CFI (cfiCond99) CFA_XSP16 add(XSP16, 18)
          CFI Block cfiCond100 Using cfiCommon0
          CFI (cfiCond100) Function MT_GPDataInd
          CFI (cfiCond100) Conditional ??CrossCallReturnLabel_81
          CFI (cfiCond100) R6 load(1, XDATA, add(CFA_XSP16, literal(-18)))
          CFI (cfiCond100) VB load(1, XDATA, add(CFA_XSP16, literal(-17)))
          CFI (cfiCond100) V0 load(1, XDATA, add(CFA_XSP16, literal(-16)))
          CFI (cfiCond100) V1 load(1, XDATA, add(CFA_XSP16, literal(-15)))
          CFI (cfiCond100) V2 load(1, XDATA, add(CFA_XSP16, literal(-14)))
          CFI (cfiCond100) V3 load(1, XDATA, add(CFA_XSP16, literal(-13)))
          CFI (cfiCond100) V4 load(1, XDATA, add(CFA_XSP16, literal(-12)))
          CFI (cfiCond100) V5 load(1, XDATA, add(CFA_XSP16, literal(-11)))
          CFI (cfiCond100) V6 load(1, XDATA, add(CFA_XSP16, literal(-10)))
          CFI (cfiCond100) V7 load(1, XDATA, add(CFA_XSP16, literal(-9)))
          CFI (cfiCond100) V8 load(1, XDATA, add(CFA_XSP16, literal(-8)))
          CFI (cfiCond100) V9 load(1, XDATA, add(CFA_XSP16, literal(-7)))
          CFI (cfiCond100) R7 load(1, XDATA, add(CFA_XSP16, literal(-6)))
          CFI (cfiCond100) ?RET_LOW load(1, XDATA, add(CFA_XSP16, literal(-5)))
          CFI (cfiCond100) ?RET_HIGH load(1, XDATA, add(CFA_XSP16, literal(-4)))
          CFI (cfiCond100) ?BRET_EXT load(1, XDATA, add(CFA_XSP16, literal(-3)))
          CFI (cfiCond100) DPL0 load(1, XDATA, add(CFA_XSP16, literal(-2)))
          CFI (cfiCond100) DPH0 load(1, XDATA, add(CFA_XSP16, literal(-1)))
          CFI (cfiCond100) CFA_SP SP+-2
          CFI (cfiCond100) CFA_XSP16 add(XSP16, 18)
          CFI Block cfiPicker101 Using cfiCommon1
          CFI (cfiPicker101) NoFunction
          CFI (cfiPicker101) Picker
        INC       DPTR
        INC       DPTR
        INC       DPTR
        INC       DPTR
        INC       DPTR
          CFI EndBlock cfiCond98
          CFI EndBlock cfiCond99
          CFI EndBlock cfiCond100
          CFI EndBlock cfiPicker101
        REQUIRE ??Subroutine37_0
        ; // Fall through to label ??Subroutine37_0

        RSEG BANKED_CODE:HUGECODE:NOROOT(0)
??Subroutine37_0:
          CFI Block cfiCond102 Using cfiCommon0
          CFI Function MT_GPDataInd
          CFI Conditional ??CrossCallReturnLabel_83
          CFI R6 load(1, XDATA, add(CFA_XSP16, literal(-18)))
          CFI VB load(1, XDATA, add(CFA_XSP16, literal(-17)))
          CFI V0 load(1, XDATA, add(CFA_XSP16, literal(-16)))
          CFI V1 load(1, XDATA, add(CFA_XSP16, literal(-15)))
          CFI V2 load(1, XDATA, add(CFA_XSP16, literal(-14)))
          CFI V3 load(1, XDATA, add(CFA_XSP16, literal(-13)))
          CFI V4 load(1, XDATA, add(CFA_XSP16, literal(-12)))
          CFI V5 load(1, XDATA, add(CFA_XSP16, literal(-11)))
          CFI V6 load(1, XDATA, add(CFA_XSP16, literal(-10)))
          CFI V7 load(1, XDATA, add(CFA_XSP16, literal(-9)))
          CFI V8 load(1, XDATA, add(CFA_XSP16, literal(-8)))
          CFI V9 load(1, XDATA, add(CFA_XSP16, literal(-7)))
          CFI R7 load(1, XDATA, add(CFA_XSP16, literal(-6)))
          CFI ?RET_LOW load(1, XDATA, add(CFA_XSP16, literal(-5)))
          CFI ?RET_HIGH load(1, XDATA, add(CFA_XSP16, literal(-4)))
          CFI ?BRET_EXT load(1, XDATA, add(CFA_XSP16, literal(-3)))
          CFI DPL0 load(1, XDATA, add(CFA_XSP16, literal(-2)))
          CFI DPH0 load(1, XDATA, add(CFA_XSP16, literal(-1)))
          CFI CFA_SP SP+-2
          CFI CFA_XSP16 add(XSP16, 18)
          CFI Block cfiCond103 Using cfiCommon0
          CFI (cfiCond103) Function MT_GPDataInd
          CFI (cfiCond103) Conditional ??CrossCallReturnLabel_82
          CFI (cfiCond103) R6 load(1, XDATA, add(CFA_XSP16, literal(-18)))
          CFI (cfiCond103) VB load(1, XDATA, add(CFA_XSP16, literal(-17)))
          CFI (cfiCond103) V0 load(1, XDATA, add(CFA_XSP16, literal(-16)))
          CFI (cfiCond103) V1 load(1, XDATA, add(CFA_XSP16, literal(-15)))
          CFI (cfiCond103) V2 load(1, XDATA, add(CFA_XSP16, literal(-14)))
          CFI (cfiCond103) V3 load(1, XDATA, add(CFA_XSP16, literal(-13)))
          CFI (cfiCond103) V4 load(1, XDATA, add(CFA_XSP16, literal(-12)))
          CFI (cfiCond103) V5 load(1, XDATA, add(CFA_XSP16, literal(-11)))
          CFI (cfiCond103) V6 load(1, XDATA, add(CFA_XSP16, literal(-10)))
          CFI (cfiCond103) V7 load(1, XDATA, add(CFA_XSP16, literal(-9)))
          CFI (cfiCond103) V8 load(1, XDATA, add(CFA_XSP16, literal(-8)))
          CFI (cfiCond103) V9 load(1, XDATA, add(CFA_XSP16, literal(-7)))
          CFI (cfiCond103) R7 load(1, XDATA, add(CFA_XSP16, literal(-6)))
          CFI (cfiCond103) ?RET_LOW load(1, XDATA, add(CFA_XSP16, literal(-5)))
          CFI (cfiCond103) ?RET_HIGH load(1, XDATA, add(CFA_XSP16, literal(-4)))
          CFI (cfiCond103) ?BRET_EXT load(1, XDATA, add(CFA_XSP16, literal(-3)))
          CFI (cfiCond103) DPL0 load(1, XDATA, add(CFA_XSP16, literal(-2)))
          CFI (cfiCond103) DPH0 load(1, XDATA, add(CFA_XSP16, literal(-1)))
          CFI (cfiCond103) CFA_SP SP+-2
          CFI (cfiCond103) CFA_XSP16 add(XSP16, 18)
          CFI Block cfiCond104 Using cfiCommon0
          CFI (cfiCond104) Function MT_GPDataInd
          CFI (cfiCond104) Conditional ??CrossCallReturnLabel_80
          CFI (cfiCond104) R6 load(1, XDATA, add(CFA_XSP16, literal(-18)))
          CFI (cfiCond104) VB load(1, XDATA, add(CFA_XSP16, literal(-17)))
          CFI (cfiCond104) V0 load(1, XDATA, add(CFA_XSP16, literal(-16)))
          CFI (cfiCond104) V1 load(1, XDATA, add(CFA_XSP16, literal(-15)))
          CFI (cfiCond104) V2 load(1, XDATA, add(CFA_XSP16, literal(-14)))
          CFI (cfiCond104) V3 load(1, XDATA, add(CFA_XSP16, literal(-13)))
          CFI (cfiCond104) V4 load(1, XDATA, add(CFA_XSP16, literal(-12)))
          CFI (cfiCond104) V5 load(1, XDATA, add(CFA_XSP16, literal(-11)))
          CFI (cfiCond104) V6 load(1, XDATA, add(CFA_XSP16, literal(-10)))
          CFI (cfiCond104) V7 load(1, XDATA, add(CFA_XSP16, literal(-9)))
          CFI (cfiCond104) V8 load(1, XDATA, add(CFA_XSP16, literal(-8)))
          CFI (cfiCond104) V9 load(1, XDATA, add(CFA_XSP16, literal(-7)))
          CFI (cfiCond104) R7 load(1, XDATA, add(CFA_XSP16, literal(-6)))
          CFI (cfiCond104) ?RET_LOW load(1, XDATA, add(CFA_XSP16, literal(-5)))
          CFI (cfiCond104) ?RET_HIGH load(1, XDATA, add(CFA_XSP16, literal(-4)))
          CFI (cfiCond104) ?BRET_EXT load(1, XDATA, add(CFA_XSP16, literal(-3)))
          CFI (cfiCond104) DPL0 load(1, XDATA, add(CFA_XSP16, literal(-2)))
          CFI (cfiCond104) DPH0 load(1, XDATA, add(CFA_XSP16, literal(-1)))
          CFI (cfiCond104) CFA_SP SP+-2
          CFI (cfiCond104) CFA_XSP16 add(XSP16, 18)
          CFI Block cfiCond105 Using cfiCommon0
          CFI (cfiCond105) Function MT_GPDataInd
          CFI (cfiCond105) Conditional ??CrossCallReturnLabel_81
          CFI (cfiCond105) R6 load(1, XDATA, add(CFA_XSP16, literal(-18)))
          CFI (cfiCond105) VB load(1, XDATA, add(CFA_XSP16, literal(-17)))
          CFI (cfiCond105) V0 load(1, XDATA, add(CFA_XSP16, literal(-16)))
          CFI (cfiCond105) V1 load(1, XDATA, add(CFA_XSP16, literal(-15)))
          CFI (cfiCond105) V2 load(1, XDATA, add(CFA_XSP16, literal(-14)))
          CFI (cfiCond105) V3 load(1, XDATA, add(CFA_XSP16, literal(-13)))
          CFI (cfiCond105) V4 load(1, XDATA, add(CFA_XSP16, literal(-12)))
          CFI (cfiCond105) V5 load(1, XDATA, add(CFA_XSP16, literal(-11)))
          CFI (cfiCond105) V6 load(1, XDATA, add(CFA_XSP16, literal(-10)))
          CFI (cfiCond105) V7 load(1, XDATA, add(CFA_XSP16, literal(-9)))
          CFI (cfiCond105) V8 load(1, XDATA, add(CFA_XSP16, literal(-8)))
          CFI (cfiCond105) V9 load(1, XDATA, add(CFA_XSP16, literal(-7)))
          CFI (cfiCond105) R7 load(1, XDATA, add(CFA_XSP16, literal(-6)))
          CFI (cfiCond105) ?RET_LOW load(1, XDATA, add(CFA_XSP16, literal(-5)))
          CFI (cfiCond105) ?RET_HIGH load(1, XDATA, add(CFA_XSP16, literal(-4)))
          CFI (cfiCond105) ?BRET_EXT load(1, XDATA, add(CFA_XSP16, literal(-3)))
          CFI (cfiCond105) DPL0 load(1, XDATA, add(CFA_XSP16, literal(-2)))
          CFI (cfiCond105) DPH0 load(1, XDATA, add(CFA_XSP16, literal(-1)))
          CFI (cfiCond105) CFA_SP SP+-2
          CFI (cfiCond105) CFA_XSP16 add(XSP16, 18)
          CFI Block cfiPicker106 Using cfiCommon1
          CFI (cfiPicker106) NoFunction
          CFI (cfiPicker106) Picker
        MOV       A,?V4
          CFI EndBlock cfiCond102
          CFI EndBlock cfiCond103
          CFI EndBlock cfiCond104
          CFI EndBlock cfiCond105
          CFI EndBlock cfiPicker106
        REQUIRE ??Subroutine38_0
        ; // Fall through to label ??Subroutine38_0

        RSEG BANKED_CODE:HUGECODE:NOROOT(0)
??Subroutine38_0:
          CFI Block cfiCond107 Using cfiCommon0
          CFI Function MT_GPDataInd
          CFI Conditional ??CrossCallReturnLabel_84
          CFI R6 load(1, XDATA, add(CFA_XSP16, literal(-18)))
          CFI VB load(1, XDATA, add(CFA_XSP16, literal(-17)))
          CFI V0 load(1, XDATA, add(CFA_XSP16, literal(-16)))
          CFI V1 load(1, XDATA, add(CFA_XSP16, literal(-15)))
          CFI V2 load(1, XDATA, add(CFA_XSP16, literal(-14)))
          CFI V3 load(1, XDATA, add(CFA_XSP16, literal(-13)))
          CFI V4 load(1, XDATA, add(CFA_XSP16, literal(-12)))
          CFI V5 load(1, XDATA, add(CFA_XSP16, literal(-11)))
          CFI V6 load(1, XDATA, add(CFA_XSP16, literal(-10)))
          CFI V7 load(1, XDATA, add(CFA_XSP16, literal(-9)))
          CFI V8 load(1, XDATA, add(CFA_XSP16, literal(-8)))
          CFI V9 load(1, XDATA, add(CFA_XSP16, literal(-7)))
          CFI R7 load(1, XDATA, add(CFA_XSP16, literal(-6)))
          CFI ?RET_LOW load(1, XDATA, add(CFA_XSP16, literal(-5)))
          CFI ?RET_HIGH load(1, XDATA, add(CFA_XSP16, literal(-4)))
          CFI ?BRET_EXT load(1, XDATA, add(CFA_XSP16, literal(-3)))
          CFI DPL0 load(1, XDATA, add(CFA_XSP16, literal(-2)))
          CFI DPH0 load(1, XDATA, add(CFA_XSP16, literal(-1)))
          CFI CFA_SP SP+-2
          CFI CFA_XSP16 add(XSP16, 18)
          CFI Block cfiCond108 Using cfiCommon0
          CFI (cfiCond108) Function MT_GPDataInd
          CFI (cfiCond108) Conditional ??CrossCallReturnLabel_85
          CFI (cfiCond108) R6 load(1, XDATA, add(CFA_XSP16, literal(-18)))
          CFI (cfiCond108) VB load(1, XDATA, add(CFA_XSP16, literal(-17)))
          CFI (cfiCond108) V0 load(1, XDATA, add(CFA_XSP16, literal(-16)))
          CFI (cfiCond108) V1 load(1, XDATA, add(CFA_XSP16, literal(-15)))
          CFI (cfiCond108) V2 load(1, XDATA, add(CFA_XSP16, literal(-14)))
          CFI (cfiCond108) V3 load(1, XDATA, add(CFA_XSP16, literal(-13)))
          CFI (cfiCond108) V4 load(1, XDATA, add(CFA_XSP16, literal(-12)))
          CFI (cfiCond108) V5 load(1, XDATA, add(CFA_XSP16, literal(-11)))
          CFI (cfiCond108) V6 load(1, XDATA, add(CFA_XSP16, literal(-10)))
          CFI (cfiCond108) V7 load(1, XDATA, add(CFA_XSP16, literal(-9)))
          CFI (cfiCond108) V8 load(1, XDATA, add(CFA_XSP16, literal(-8)))
          CFI (cfiCond108) V9 load(1, XDATA, add(CFA_XSP16, literal(-7)))
          CFI (cfiCond108) R7 load(1, XDATA, add(CFA_XSP16, literal(-6)))
          CFI (cfiCond108) ?RET_LOW load(1, XDATA, add(CFA_XSP16, literal(-5)))
          CFI (cfiCond108) ?RET_HIGH load(1, XDATA, add(CFA_XSP16, literal(-4)))
          CFI (cfiCond108) ?BRET_EXT load(1, XDATA, add(CFA_XSP16, literal(-3)))
          CFI (cfiCond108) DPL0 load(1, XDATA, add(CFA_XSP16, literal(-2)))
          CFI (cfiCond108) DPH0 load(1, XDATA, add(CFA_XSP16, literal(-1)))
          CFI (cfiCond108) CFA_SP SP+-2
          CFI (cfiCond108) CFA_XSP16 add(XSP16, 18)
          CFI Block cfiCond109 Using cfiCommon0
          CFI (cfiCond109) Function MT_GPDataInd
          CFI (cfiCond109) Conditional ??CrossCallReturnLabel_83
          CFI (cfiCond109) R6 load(1, XDATA, add(CFA_XSP16, literal(-18)))
          CFI (cfiCond109) VB load(1, XDATA, add(CFA_XSP16, literal(-17)))
          CFI (cfiCond109) V0 load(1, XDATA, add(CFA_XSP16, literal(-16)))
          CFI (cfiCond109) V1 load(1, XDATA, add(CFA_XSP16, literal(-15)))
          CFI (cfiCond109) V2 load(1, XDATA, add(CFA_XSP16, literal(-14)))
          CFI (cfiCond109) V3 load(1, XDATA, add(CFA_XSP16, literal(-13)))
          CFI (cfiCond109) V4 load(1, XDATA, add(CFA_XSP16, literal(-12)))
          CFI (cfiCond109) V5 load(1, XDATA, add(CFA_XSP16, literal(-11)))
          CFI (cfiCond109) V6 load(1, XDATA, add(CFA_XSP16, literal(-10)))
          CFI (cfiCond109) V7 load(1, XDATA, add(CFA_XSP16, literal(-9)))
          CFI (cfiCond109) V8 load(1, XDATA, add(CFA_XSP16, literal(-8)))
          CFI (cfiCond109) V9 load(1, XDATA, add(CFA_XSP16, literal(-7)))
          CFI (cfiCond109) R7 load(1, XDATA, add(CFA_XSP16, literal(-6)))
          CFI (cfiCond109) ?RET_LOW load(1, XDATA, add(CFA_XSP16, literal(-5)))
          CFI (cfiCond109) ?RET_HIGH load(1, XDATA, add(CFA_XSP16, literal(-4)))
          CFI (cfiCond109) ?BRET_EXT load(1, XDATA, add(CFA_XSP16, literal(-3)))
          CFI (cfiCond109) DPL0 load(1, XDATA, add(CFA_XSP16, literal(-2)))
          CFI (cfiCond109) DPH0 load(1, XDATA, add(CFA_XSP16, literal(-1)))
          CFI (cfiCond109) CFA_SP SP+-2
          CFI (cfiCond109) CFA_XSP16 add(XSP16, 18)
          CFI Block cfiCond110 Using cfiCommon0
          CFI (cfiCond110) Function MT_GPDataInd
          CFI (cfiCond110) Conditional ??CrossCallReturnLabel_82
          CFI (cfiCond110) R6 load(1, XDATA, add(CFA_XSP16, literal(-18)))
          CFI (cfiCond110) VB load(1, XDATA, add(CFA_XSP16, literal(-17)))
          CFI (cfiCond110) V0 load(1, XDATA, add(CFA_XSP16, literal(-16)))
          CFI (cfiCond110) V1 load(1, XDATA, add(CFA_XSP16, literal(-15)))
          CFI (cfiCond110) V2 load(1, XDATA, add(CFA_XSP16, literal(-14)))
          CFI (cfiCond110) V3 load(1, XDATA, add(CFA_XSP16, literal(-13)))
          CFI (cfiCond110) V4 load(1, XDATA, add(CFA_XSP16, literal(-12)))
          CFI (cfiCond110) V5 load(1, XDATA, add(CFA_XSP16, literal(-11)))
          CFI (cfiCond110) V6 load(1, XDATA, add(CFA_XSP16, literal(-10)))
          CFI (cfiCond110) V7 load(1, XDATA, add(CFA_XSP16, literal(-9)))
          CFI (cfiCond110) V8 load(1, XDATA, add(CFA_XSP16, literal(-8)))
          CFI (cfiCond110) V9 load(1, XDATA, add(CFA_XSP16, literal(-7)))
          CFI (cfiCond110) R7 load(1, XDATA, add(CFA_XSP16, literal(-6)))
          CFI (cfiCond110) ?RET_LOW load(1, XDATA, add(CFA_XSP16, literal(-5)))
          CFI (cfiCond110) ?RET_HIGH load(1, XDATA, add(CFA_XSP16, literal(-4)))
          CFI (cfiCond110) ?BRET_EXT load(1, XDATA, add(CFA_XSP16, literal(-3)))
          CFI (cfiCond110) DPL0 load(1, XDATA, add(CFA_XSP16, literal(-2)))
          CFI (cfiCond110) DPH0 load(1, XDATA, add(CFA_XSP16, literal(-1)))
          CFI (cfiCond110) CFA_SP SP+-2
          CFI (cfiCond110) CFA_XSP16 add(XSP16, 18)
          CFI Block cfiCond111 Using cfiCommon0
          CFI (cfiCond111) Function MT_GPDataInd
          CFI (cfiCond111) Conditional ??CrossCallReturnLabel_80
          CFI (cfiCond111) R6 load(1, XDATA, add(CFA_XSP16, literal(-18)))
          CFI (cfiCond111) VB load(1, XDATA, add(CFA_XSP16, literal(-17)))
          CFI (cfiCond111) V0 load(1, XDATA, add(CFA_XSP16, literal(-16)))
          CFI (cfiCond111) V1 load(1, XDATA, add(CFA_XSP16, literal(-15)))
          CFI (cfiCond111) V2 load(1, XDATA, add(CFA_XSP16, literal(-14)))
          CFI (cfiCond111) V3 load(1, XDATA, add(CFA_XSP16, literal(-13)))
          CFI (cfiCond111) V4 load(1, XDATA, add(CFA_XSP16, literal(-12)))
          CFI (cfiCond111) V5 load(1, XDATA, add(CFA_XSP16, literal(-11)))
          CFI (cfiCond111) V6 load(1, XDATA, add(CFA_XSP16, literal(-10)))
          CFI (cfiCond111) V7 load(1, XDATA, add(CFA_XSP16, literal(-9)))
          CFI (cfiCond111) V8 load(1, XDATA, add(CFA_XSP16, literal(-8)))
          CFI (cfiCond111) V9 load(1, XDATA, add(CFA_XSP16, literal(-7)))
          CFI (cfiCond111) R7 load(1, XDATA, add(CFA_XSP16, literal(-6)))
          CFI (cfiCond111) ?RET_LOW load(1, XDATA, add(CFA_XSP16, literal(-5)))
          CFI (cfiCond111) ?RET_HIGH load(1, XDATA, add(CFA_XSP16, literal(-4)))
          CFI (cfiCond111) ?BRET_EXT load(1, XDATA, add(CFA_XSP16, literal(-3)))
          CFI (cfiCond111) DPL0 load(1, XDATA, add(CFA_XSP16, literal(-2)))
          CFI (cfiCond111) DPH0 load(1, XDATA, add(CFA_XSP16, literal(-1)))
          CFI (cfiCond111) CFA_SP SP+-2
          CFI (cfiCond111) CFA_XSP16 add(XSP16, 18)
          CFI Block cfiCond112 Using cfiCommon0
          CFI (cfiCond112) Function MT_GPDataInd
          CFI (cfiCond112) Conditional ??CrossCallReturnLabel_81
          CFI (cfiCond112) R6 load(1, XDATA, add(CFA_XSP16, literal(-18)))
          CFI (cfiCond112) VB load(1, XDATA, add(CFA_XSP16, literal(-17)))
          CFI (cfiCond112) V0 load(1, XDATA, add(CFA_XSP16, literal(-16)))
          CFI (cfiCond112) V1 load(1, XDATA, add(CFA_XSP16, literal(-15)))
          CFI (cfiCond112) V2 load(1, XDATA, add(CFA_XSP16, literal(-14)))
          CFI (cfiCond112) V3 load(1, XDATA, add(CFA_XSP16, literal(-13)))
          CFI (cfiCond112) V4 load(1, XDATA, add(CFA_XSP16, literal(-12)))
          CFI (cfiCond112) V5 load(1, XDATA, add(CFA_XSP16, literal(-11)))
          CFI (cfiCond112) V6 load(1, XDATA, add(CFA_XSP16, literal(-10)))
          CFI (cfiCond112) V7 load(1, XDATA, add(CFA_XSP16, literal(-9)))
          CFI (cfiCond112) V8 load(1, XDATA, add(CFA_XSP16, literal(-8)))
          CFI (cfiCond112) V9 load(1, XDATA, add(CFA_XSP16, literal(-7)))
          CFI (cfiCond112) R7 load(1, XDATA, add(CFA_XSP16, literal(-6)))
          CFI (cfiCond112) ?RET_LOW load(1, XDATA, add(CFA_XSP16, literal(-5)))
          CFI (cfiCond112) ?RET_HIGH load(1, XDATA, add(CFA_XSP16, literal(-4)))
          CFI (cfiCond112) ?BRET_EXT load(1, XDATA, add(CFA_XSP16, literal(-3)))
          CFI (cfiCond112) DPL0 load(1, XDATA, add(CFA_XSP16, literal(-2)))
          CFI (cfiCond112) DPH0 load(1, XDATA, add(CFA_XSP16, literal(-1)))
          CFI (cfiCond112) CFA_SP SP+-2
          CFI (cfiCond112) CFA_XSP16 add(XSP16, 18)
          CFI Block cfiPicker113 Using cfiCommon1
          CFI (cfiPicker113) NoFunction
          CFI (cfiPicker113) Picker
        MOVX      @DPTR,A
        MOV       DPL,R4
        MOV       DPH,R1
        MOV       R0,#?V4
        RET
          CFI EndBlock cfiCond107
          CFI EndBlock cfiCond108
          CFI EndBlock cfiCond109
          CFI EndBlock cfiCond110
          CFI EndBlock cfiCond111
          CFI EndBlock cfiCond112
          CFI EndBlock cfiPicker113

        RSEG BANKED_CODE:HUGECODE:NOROOT(0)
?Subroutine7:
          CFI Block cfiCond114 Using cfiCommon0
          CFI Function MT_GPDataInd
          CFI Conditional ??CrossCallReturnLabel_11
          CFI R6 load(1, XDATA, add(CFA_XSP16, literal(-18)))
          CFI VB load(1, XDATA, add(CFA_XSP16, literal(-17)))
          CFI V0 load(1, XDATA, add(CFA_XSP16, literal(-16)))
          CFI V1 load(1, XDATA, add(CFA_XSP16, literal(-15)))
          CFI V2 load(1, XDATA, add(CFA_XSP16, literal(-14)))
          CFI V3 load(1, XDATA, add(CFA_XSP16, literal(-13)))
          CFI V4 load(1, XDATA, add(CFA_XSP16, literal(-12)))
          CFI V5 load(1, XDATA, add(CFA_XSP16, literal(-11)))
          CFI V6 load(1, XDATA, add(CFA_XSP16, literal(-10)))
          CFI V7 load(1, XDATA, add(CFA_XSP16, literal(-9)))
          CFI V8 load(1, XDATA, add(CFA_XSP16, literal(-8)))
          CFI V9 load(1, XDATA, add(CFA_XSP16, literal(-7)))
          CFI R7 load(1, XDATA, add(CFA_XSP16, literal(-6)))
          CFI ?RET_LOW load(1, XDATA, add(CFA_XSP16, literal(-5)))
          CFI ?RET_HIGH load(1, XDATA, add(CFA_XSP16, literal(-4)))
          CFI ?BRET_EXT load(1, XDATA, add(CFA_XSP16, literal(-3)))
          CFI DPL0 load(1, XDATA, add(CFA_XSP16, literal(-2)))
          CFI DPH0 load(1, XDATA, add(CFA_XSP16, literal(-1)))
          CFI CFA_SP SP+-2
          CFI CFA_XSP16 add(XSP16, 18)
          CFI Block cfiCond115 Using cfiCommon0
          CFI (cfiCond115) Function MT_GPDataInd
          CFI (cfiCond115) Conditional ??CrossCallReturnLabel_12
          CFI (cfiCond115) R6 load(1, XDATA, add(CFA_XSP16, literal(-18)))
          CFI (cfiCond115) VB load(1, XDATA, add(CFA_XSP16, literal(-17)))
          CFI (cfiCond115) V0 load(1, XDATA, add(CFA_XSP16, literal(-16)))
          CFI (cfiCond115) V1 load(1, XDATA, add(CFA_XSP16, literal(-15)))
          CFI (cfiCond115) V2 load(1, XDATA, add(CFA_XSP16, literal(-14)))
          CFI (cfiCond115) V3 load(1, XDATA, add(CFA_XSP16, literal(-13)))
          CFI (cfiCond115) V4 load(1, XDATA, add(CFA_XSP16, literal(-12)))
          CFI (cfiCond115) V5 load(1, XDATA, add(CFA_XSP16, literal(-11)))
          CFI (cfiCond115) V6 load(1, XDATA, add(CFA_XSP16, literal(-10)))
          CFI (cfiCond115) V7 load(1, XDATA, add(CFA_XSP16, literal(-9)))
          CFI (cfiCond115) V8 load(1, XDATA, add(CFA_XSP16, literal(-8)))
          CFI (cfiCond115) V9 load(1, XDATA, add(CFA_XSP16, literal(-7)))
          CFI (cfiCond115) R7 load(1, XDATA, add(CFA_XSP16, literal(-6)))
          CFI (cfiCond115) ?RET_LOW load(1, XDATA, add(CFA_XSP16, literal(-5)))
          CFI (cfiCond115) ?RET_HIGH load(1, XDATA, add(CFA_XSP16, literal(-4)))
          CFI (cfiCond115) ?BRET_EXT load(1, XDATA, add(CFA_XSP16, literal(-3)))
          CFI (cfiCond115) DPL0 load(1, XDATA, add(CFA_XSP16, literal(-2)))
          CFI (cfiCond115) DPH0 load(1, XDATA, add(CFA_XSP16, literal(-1)))
          CFI (cfiCond115) CFA_SP SP+-2
          CFI (cfiCond115) CFA_XSP16 add(XSP16, 18)
          CFI Block cfiPicker116 Using cfiCommon1
          CFI (cfiPicker116) NoFunction
          CFI (cfiPicker116) Picker
        LCALL     ?Subroutine25 & 0xFFFF
??CrossCallReturnLabel_41:
        INC       DPTR
        RET
          CFI EndBlock cfiCond114
          CFI EndBlock cfiCond115
          CFI EndBlock cfiPicker116

        RSEG BANKED_CODE:HUGECODE:NOROOT(0)
?Subroutine25:
          CFI Block cfiCond117 Using cfiCommon0
          CFI Function MT_GPDataInd
          CFI Conditional ??CrossCallReturnLabel_40
          CFI R6 load(1, XDATA, add(CFA_XSP16, literal(-18)))
          CFI VB load(1, XDATA, add(CFA_XSP16, literal(-17)))
          CFI V0 load(1, XDATA, add(CFA_XSP16, literal(-16)))
          CFI V1 load(1, XDATA, add(CFA_XSP16, literal(-15)))
          CFI V2 load(1, XDATA, add(CFA_XSP16, literal(-14)))
          CFI V3 load(1, XDATA, add(CFA_XSP16, literal(-13)))
          CFI V4 load(1, XDATA, add(CFA_XSP16, literal(-12)))
          CFI V5 load(1, XDATA, add(CFA_XSP16, literal(-11)))
          CFI V6 load(1, XDATA, add(CFA_XSP16, literal(-10)))
          CFI V7 load(1, XDATA, add(CFA_XSP16, literal(-9)))
          CFI V8 load(1, XDATA, add(CFA_XSP16, literal(-8)))
          CFI V9 load(1, XDATA, add(CFA_XSP16, literal(-7)))
          CFI R7 load(1, XDATA, add(CFA_XSP16, literal(-6)))
          CFI ?RET_LOW load(1, XDATA, add(CFA_XSP16, literal(-5)))
          CFI ?RET_HIGH load(1, XDATA, add(CFA_XSP16, literal(-4)))
          CFI ?BRET_EXT load(1, XDATA, add(CFA_XSP16, literal(-3)))
          CFI DPL0 load(1, XDATA, add(CFA_XSP16, literal(-2)))
          CFI DPH0 load(1, XDATA, add(CFA_XSP16, literal(-1)))
          CFI CFA_SP SP+-2
          CFI CFA_XSP16 add(XSP16, 18)
          CFI Block cfiCond118 Using cfiCommon0
          CFI (cfiCond118) Function MT_GPDataInd
          CFI (cfiCond118) Conditional ??CrossCallReturnLabel_41, ??CrossCallReturnLabel_11
          CFI (cfiCond118) R6 load(1, XDATA, add(CFA_XSP16, literal(-18)))
          CFI (cfiCond118) VB load(1, XDATA, add(CFA_XSP16, literal(-17)))
          CFI (cfiCond118) V0 load(1, XDATA, add(CFA_XSP16, literal(-16)))
          CFI (cfiCond118) V1 load(1, XDATA, add(CFA_XSP16, literal(-15)))
          CFI (cfiCond118) V2 load(1, XDATA, add(CFA_XSP16, literal(-14)))
          CFI (cfiCond118) V3 load(1, XDATA, add(CFA_XSP16, literal(-13)))
          CFI (cfiCond118) V4 load(1, XDATA, add(CFA_XSP16, literal(-12)))
          CFI (cfiCond118) V5 load(1, XDATA, add(CFA_XSP16, literal(-11)))
          CFI (cfiCond118) V6 load(1, XDATA, add(CFA_XSP16, literal(-10)))
          CFI (cfiCond118) V7 load(1, XDATA, add(CFA_XSP16, literal(-9)))
          CFI (cfiCond118) V8 load(1, XDATA, add(CFA_XSP16, literal(-8)))
          CFI (cfiCond118) V9 load(1, XDATA, add(CFA_XSP16, literal(-7)))
          CFI (cfiCond118) R7 load(1, XDATA, add(CFA_XSP16, literal(-6)))
          CFI (cfiCond118) ?RET_LOW load(1, XDATA, add(CFA_XSP16, literal(-5)))
          CFI (cfiCond118) ?RET_HIGH load(1, XDATA, add(CFA_XSP16, literal(-4)))
          CFI (cfiCond118) ?BRET_EXT load(1, XDATA, add(CFA_XSP16, literal(-3)))
          CFI (cfiCond118) DPL0 load(1, XDATA, add(CFA_XSP16, literal(-2)))
          CFI (cfiCond118) DPH0 load(1, XDATA, add(CFA_XSP16, literal(-1)))
          CFI (cfiCond118) CFA_SP SP+-4
          CFI (cfiCond118) CFA_XSP16 add(XSP16, 18)
          CFI Block cfiCond119 Using cfiCommon0
          CFI (cfiCond119) Function MT_GPDataInd
          CFI (cfiCond119) Conditional ??CrossCallReturnLabel_41, ??CrossCallReturnLabel_12
          CFI (cfiCond119) R6 load(1, XDATA, add(CFA_XSP16, literal(-18)))
          CFI (cfiCond119) VB load(1, XDATA, add(CFA_XSP16, literal(-17)))
          CFI (cfiCond119) V0 load(1, XDATA, add(CFA_XSP16, literal(-16)))
          CFI (cfiCond119) V1 load(1, XDATA, add(CFA_XSP16, literal(-15)))
          CFI (cfiCond119) V2 load(1, XDATA, add(CFA_XSP16, literal(-14)))
          CFI (cfiCond119) V3 load(1, XDATA, add(CFA_XSP16, literal(-13)))
          CFI (cfiCond119) V4 load(1, XDATA, add(CFA_XSP16, literal(-12)))
          CFI (cfiCond119) V5 load(1, XDATA, add(CFA_XSP16, literal(-11)))
          CFI (cfiCond119) V6 load(1, XDATA, add(CFA_XSP16, literal(-10)))
          CFI (cfiCond119) V7 load(1, XDATA, add(CFA_XSP16, literal(-9)))
          CFI (cfiCond119) V8 load(1, XDATA, add(CFA_XSP16, literal(-8)))
          CFI (cfiCond119) V9 load(1, XDATA, add(CFA_XSP16, literal(-7)))
          CFI (cfiCond119) R7 load(1, XDATA, add(CFA_XSP16, literal(-6)))
          CFI (cfiCond119) ?RET_LOW load(1, XDATA, add(CFA_XSP16, literal(-5)))
          CFI (cfiCond119) ?RET_HIGH load(1, XDATA, add(CFA_XSP16, literal(-4)))
          CFI (cfiCond119) ?BRET_EXT load(1, XDATA, add(CFA_XSP16, literal(-3)))
          CFI (cfiCond119) DPL0 load(1, XDATA, add(CFA_XSP16, literal(-2)))
          CFI (cfiCond119) DPH0 load(1, XDATA, add(CFA_XSP16, literal(-1)))
          CFI (cfiCond119) CFA_SP SP+-4
          CFI (cfiCond119) CFA_XSP16 add(XSP16, 18)
          CFI Block cfiPicker120 Using cfiCommon1
          CFI (cfiPicker120) NoFunction
          CFI (cfiPicker120) Picker
        LCALL     ?Subroutine30 & 0xFFFF
??CrossCallReturnLabel_51:
        INC       DPTR
        INC       DPTR
        RET
          CFI EndBlock cfiCond117
          CFI EndBlock cfiCond118
          CFI EndBlock cfiCond119
          CFI EndBlock cfiPicker120

        RSEG BANKED_CODE:HUGECODE:NOROOT(0)
?Subroutine5:
          CFI Block cfiCond121 Using cfiCommon0
          CFI Function MT_GPDataInd
          CFI Conditional ??CrossCallReturnLabel_7
          CFI R6 load(1, XDATA, add(CFA_XSP16, literal(-18)))
          CFI VB load(1, XDATA, add(CFA_XSP16, literal(-17)))
          CFI V0 load(1, XDATA, add(CFA_XSP16, literal(-16)))
          CFI V1 load(1, XDATA, add(CFA_XSP16, literal(-15)))
          CFI V2 load(1, XDATA, add(CFA_XSP16, literal(-14)))
          CFI V3 load(1, XDATA, add(CFA_XSP16, literal(-13)))
          CFI V4 load(1, XDATA, add(CFA_XSP16, literal(-12)))
          CFI V5 load(1, XDATA, add(CFA_XSP16, literal(-11)))
          CFI V6 load(1, XDATA, add(CFA_XSP16, literal(-10)))
          CFI V7 load(1, XDATA, add(CFA_XSP16, literal(-9)))
          CFI V8 load(1, XDATA, add(CFA_XSP16, literal(-8)))
          CFI V9 load(1, XDATA, add(CFA_XSP16, literal(-7)))
          CFI R7 load(1, XDATA, add(CFA_XSP16, literal(-6)))
          CFI ?RET_LOW load(1, XDATA, add(CFA_XSP16, literal(-5)))
          CFI ?RET_HIGH load(1, XDATA, add(CFA_XSP16, literal(-4)))
          CFI ?BRET_EXT load(1, XDATA, add(CFA_XSP16, literal(-3)))
          CFI DPL0 load(1, XDATA, add(CFA_XSP16, literal(-2)))
          CFI DPH0 load(1, XDATA, add(CFA_XSP16, literal(-1)))
          CFI CFA_SP SP+-2
          CFI CFA_XSP16 add(XSP16, 18)
          CFI Block cfiCond122 Using cfiCommon0
          CFI (cfiCond122) Function MT_GPDataInd
          CFI (cfiCond122) Conditional ??CrossCallReturnLabel_8
          CFI (cfiCond122) R6 load(1, XDATA, add(CFA_XSP16, literal(-18)))
          CFI (cfiCond122) VB load(1, XDATA, add(CFA_XSP16, literal(-17)))
          CFI (cfiCond122) V0 load(1, XDATA, add(CFA_XSP16, literal(-16)))
          CFI (cfiCond122) V1 load(1, XDATA, add(CFA_XSP16, literal(-15)))
          CFI (cfiCond122) V2 load(1, XDATA, add(CFA_XSP16, literal(-14)))
          CFI (cfiCond122) V3 load(1, XDATA, add(CFA_XSP16, literal(-13)))
          CFI (cfiCond122) V4 load(1, XDATA, add(CFA_XSP16, literal(-12)))
          CFI (cfiCond122) V5 load(1, XDATA, add(CFA_XSP16, literal(-11)))
          CFI (cfiCond122) V6 load(1, XDATA, add(CFA_XSP16, literal(-10)))
          CFI (cfiCond122) V7 load(1, XDATA, add(CFA_XSP16, literal(-9)))
          CFI (cfiCond122) V8 load(1, XDATA, add(CFA_XSP16, literal(-8)))
          CFI (cfiCond122) V9 load(1, XDATA, add(CFA_XSP16, literal(-7)))
          CFI (cfiCond122) R7 load(1, XDATA, add(CFA_XSP16, literal(-6)))
          CFI (cfiCond122) ?RET_LOW load(1, XDATA, add(CFA_XSP16, literal(-5)))
          CFI (cfiCond122) ?RET_HIGH load(1, XDATA, add(CFA_XSP16, literal(-4)))
          CFI (cfiCond122) ?BRET_EXT load(1, XDATA, add(CFA_XSP16, literal(-3)))
          CFI (cfiCond122) DPL0 load(1, XDATA, add(CFA_XSP16, literal(-2)))
          CFI (cfiCond122) DPH0 load(1, XDATA, add(CFA_XSP16, literal(-1)))
          CFI (cfiCond122) CFA_SP SP+-2
          CFI (cfiCond122) CFA_XSP16 add(XSP16, 18)
          CFI Block cfiPicker123 Using cfiCommon1
          CFI (cfiPicker123) NoFunction
          CFI (cfiPicker123) Picker
        LCALL     ?Subroutine26 & 0xFFFF
??CrossCallReturnLabel_42:
        INC       DPTR
        INC       DPTR
        RET
          CFI EndBlock cfiCond121
          CFI EndBlock cfiCond122
          CFI EndBlock cfiPicker123

        RSEG BANKED_CODE:HUGECODE:NOROOT(0)
?Subroutine3:
          CFI Block cfiCond124 Using cfiCommon0
          CFI Function MT_GPDataInd
          CFI Conditional ??CrossCallReturnLabel_2
          CFI R6 load(1, XDATA, add(CFA_XSP16, literal(-18)))
          CFI VB load(1, XDATA, add(CFA_XSP16, literal(-17)))
          CFI V0 load(1, XDATA, add(CFA_XSP16, literal(-16)))
          CFI V1 load(1, XDATA, add(CFA_XSP16, literal(-15)))
          CFI V2 load(1, XDATA, add(CFA_XSP16, literal(-14)))
          CFI V3 load(1, XDATA, add(CFA_XSP16, literal(-13)))
          CFI V4 load(1, XDATA, add(CFA_XSP16, literal(-12)))
          CFI V5 load(1, XDATA, add(CFA_XSP16, literal(-11)))
          CFI V6 load(1, XDATA, add(CFA_XSP16, literal(-10)))
          CFI V7 load(1, XDATA, add(CFA_XSP16, literal(-9)))
          CFI V8 load(1, XDATA, add(CFA_XSP16, literal(-8)))
          CFI V9 load(1, XDATA, add(CFA_XSP16, literal(-7)))
          CFI R7 load(1, XDATA, add(CFA_XSP16, literal(-6)))
          CFI ?RET_LOW load(1, XDATA, add(CFA_XSP16, literal(-5)))
          CFI ?RET_HIGH load(1, XDATA, add(CFA_XSP16, literal(-4)))
          CFI ?BRET_EXT load(1, XDATA, add(CFA_XSP16, literal(-3)))
          CFI DPL0 load(1, XDATA, add(CFA_XSP16, literal(-2)))
          CFI DPH0 load(1, XDATA, add(CFA_XSP16, literal(-1)))
          CFI CFA_SP SP+-2
          CFI CFA_XSP16 add(XSP16, 18)
          CFI Block cfiCond125 Using cfiCommon0
          CFI (cfiCond125) Function MT_GPDataInd
          CFI (cfiCond125) Conditional ??CrossCallReturnLabel_3
          CFI (cfiCond125) R6 load(1, XDATA, add(CFA_XSP16, literal(-18)))
          CFI (cfiCond125) VB load(1, XDATA, add(CFA_XSP16, literal(-17)))
          CFI (cfiCond125) V0 load(1, XDATA, add(CFA_XSP16, literal(-16)))
          CFI (cfiCond125) V1 load(1, XDATA, add(CFA_XSP16, literal(-15)))
          CFI (cfiCond125) V2 load(1, XDATA, add(CFA_XSP16, literal(-14)))
          CFI (cfiCond125) V3 load(1, XDATA, add(CFA_XSP16, literal(-13)))
          CFI (cfiCond125) V4 load(1, XDATA, add(CFA_XSP16, literal(-12)))
          CFI (cfiCond125) V5 load(1, XDATA, add(CFA_XSP16, literal(-11)))
          CFI (cfiCond125) V6 load(1, XDATA, add(CFA_XSP16, literal(-10)))
          CFI (cfiCond125) V7 load(1, XDATA, add(CFA_XSP16, literal(-9)))
          CFI (cfiCond125) V8 load(1, XDATA, add(CFA_XSP16, literal(-8)))
          CFI (cfiCond125) V9 load(1, XDATA, add(CFA_XSP16, literal(-7)))
          CFI (cfiCond125) R7 load(1, XDATA, add(CFA_XSP16, literal(-6)))
          CFI (cfiCond125) ?RET_LOW load(1, XDATA, add(CFA_XSP16, literal(-5)))
          CFI (cfiCond125) ?RET_HIGH load(1, XDATA, add(CFA_XSP16, literal(-4)))
          CFI (cfiCond125) ?BRET_EXT load(1, XDATA, add(CFA_XSP16, literal(-3)))
          CFI (cfiCond125) DPL0 load(1, XDATA, add(CFA_XSP16, literal(-2)))
          CFI (cfiCond125) DPH0 load(1, XDATA, add(CFA_XSP16, literal(-1)))
          CFI (cfiCond125) CFA_SP SP+-2
          CFI (cfiCond125) CFA_XSP16 add(XSP16, 18)
          CFI Block cfiPicker126 Using cfiCommon1
          CFI (cfiPicker126) NoFunction
          CFI (cfiPicker126) Picker
        MOVX      A,@DPTR
        MOV       DPL,?V0
        MOV       DPH,?V1
        INC       DPTR
        INC       DPTR
        INC       DPTR
        INC       DPTR
        RET
          CFI EndBlock cfiCond124
          CFI EndBlock cfiCond125
          CFI EndBlock cfiPicker126
//  306 
//  307 
//  308 
//  309 
//  310 /***************************************************************************************************
//  311 * @fn      MT_GPDataCnf
//  312 *
//  313 * @brief   Send GP Data Cnf to Host Processor
//  314 *
//  315 * @param   gp_DataCnf
//  316 *
//  317 * @return  void
//  318 ***************************************************************************************************/

        RSEG BANKED_CODE:HUGECODE:NOROOT(0)
//  319 void MT_GPDataCnf(gp_DataCnf_t* gp_DataCnf)
MT_GPDataCnf:
          CFI Block cfiBlock127 Using cfiCommon0
          CFI Function MT_GPDataCnf
        CODE
//  320 {
        FUNCALL MT_GPDataCnf, MT_BuildAndSendZToolResponse
        LOCFRAME ISTACK, 2, STACK
        LOCFRAME PSTACK, 0, STACK
        LOCFRAME XSTACK, 2, STACK
        LOCFRAME IOVERLAY, 0, STATIC
        LOCFRAME DOVERLAY, 0, STATIC
        ARGFRAME ISTACK, 2, STACK
        ARGFRAME PSTACK, 0, STACK
        ARGFRAME XSTACK, 2, STACK
        ARGFRAME IOVERLAY, 0, STATIC
        ARGFRAME DOVERLAY, 0, STATIC
        PUSH      DPL
          CFI DPL0 Frame(CFA_SP, 4)
          CFI CFA_SP SP+-4
        PUSH      DPH
          CFI DPH0 Frame(CFA_SP, 5)
          CFI CFA_SP SP+-5
        ; Saved register size: 2
        ; Auto size: 2
        MOV       A,#-0x2
        LCALL     ?ALLOC_XSTACK8
          CFI CFA_XSP16 add(XSP16, 2)
//  321 #ifdef MT_GP_CB_FUNC
//  322   uint8 buf[2];
//  323   uint8 *pBuf = buf;
//  324 
//  325   *pBuf++ = gp_DataCnf->status;
        MOV       DPL,R2
        MOV       DPH,R3
        LCALL     ?Subroutine9 & 0xFFFF
//  326   *pBuf++ = gp_DataCnf->GPEPhandle;
??CrossCallReturnLabel_15:
        MOV       DPL,R2
        MOV       DPH,R3
        INC       DPTR
        INC       DPTR
        INC       DPTR
        MOVX      A,@DPTR
        PUSH      A
          CFI CFA_SP SP+-6
        MOV       A,#0x1
        LCALL     ?XSTACK_DISP0_8
        POP       A
          CFI CFA_SP SP+-5
        MOVX      @DPTR,A
//  327 
//  328   MT_BuildAndSendZToolResponse(((uint8)MT_RPC_CMD_AREQ | (uint8)MT_RPC_SYS_GP), MT_GP_DATA_CNF, 2, buf);
        ; Setup parameters for call to function MT_BuildAndSendZToolResponse
        MOV       R4,?XSP + 0
        MOV       R5,?XSP + 1
        MOV       R3,#0x2
        MOV       R2,#0x5
        MOV       R1,#0x55
        LCALL     `??MT_BuildAndSendZToolResponse::?relay`; Banked call to: MT_BuildAndSendZToolResponse
//  329 #else
//  330   (void)gp_DataCnf;
//  331 #endif
//  332 }
        MOV       A,#0x2
        LCALL     ?DEALLOC_XSTACK8
          CFI CFA_XSP16 XSP16+0
        LJMP      ?Subroutine0 & 0xFFFF
          CFI EndBlock cfiBlock127
//  333 
//  334 /***************************************************************************************************
//  335 * @fn      MT_GPSecReq
//  336 *
//  337 * @brief   Send GP Sec Req to Host Processor
//  338 *
//  339 * @param   gp_SecReq
//  340 *
//  341 * @return  void
//  342 ***************************************************************************************************/

        RSEG BANKED_CODE:HUGECODE:NOROOT(0)
//  343 void MT_GPSecReq(gp_SecReq_t* gp_SecReq)
MT_GPSecReq:
          CFI Block cfiBlock128 Using cfiCommon0
          CFI Function MT_GPSecReq
        CODE
//  344 {
        FUNCALL MT_GPSecReq, sAddrExtCpy
        LOCFRAME ISTACK, 0, STACK
        LOCFRAME PSTACK, 0, STACK
        LOCFRAME XSTACK, 33, STACK
        LOCFRAME IOVERLAY, 0, STATIC
        LOCFRAME DOVERLAY, 0, STATIC
        ARGFRAME ISTACK, 0, STACK
        ARGFRAME PSTACK, 0, STACK
        ARGFRAME XSTACK, 33, STACK
        ARGFRAME IOVERLAY, 0, STATIC
        ARGFRAME DOVERLAY, 0, STATIC
        FUNCALL MT_GPSecReq, MT_BuildAndSendZToolResponse
        LOCFRAME ISTACK, 0, STACK
        LOCFRAME PSTACK, 0, STACK
        LOCFRAME XSTACK, 33, STACK
        LOCFRAME IOVERLAY, 0, STATIC
        LOCFRAME DOVERLAY, 0, STATIC
        ARGFRAME ISTACK, 0, STACK
        ARGFRAME PSTACK, 0, STACK
        ARGFRAME XSTACK, 33, STACK
        ARGFRAME IOVERLAY, 0, STATIC
        ARGFRAME DOVERLAY, 0, STATIC
        REQUIRE ?V0
        REQUIRE ?V1
        REQUIRE ?V2
        REQUIRE ?V3
        MOV       A,#-0xc
        LCALL     ?BANKED_ENTER_XDATA
          CFI DPH0 load(1, XDATA, add(CFA_XSP16, literal(-1)))
          CFI DPL0 load(1, XDATA, add(CFA_XSP16, literal(-2)))
          CFI ?BRET_EXT load(1, XDATA, add(CFA_XSP16, literal(-3)))
          CFI ?RET_HIGH load(1, XDATA, add(CFA_XSP16, literal(-4)))
          CFI ?RET_LOW load(1, XDATA, add(CFA_XSP16, literal(-5)))
          CFI R7 load(1, XDATA, add(CFA_XSP16, literal(-6)))
          CFI V3 load(1, XDATA, add(CFA_XSP16, literal(-7)))
          CFI V2 load(1, XDATA, add(CFA_XSP16, literal(-8)))
          CFI V1 load(1, XDATA, add(CFA_XSP16, literal(-9)))
          CFI V0 load(1, XDATA, add(CFA_XSP16, literal(-10)))
          CFI VB load(1, XDATA, add(CFA_XSP16, literal(-11)))
          CFI R6 load(1, XDATA, add(CFA_XSP16, literal(-12)))
          CFI CFA_SP SP+0
          CFI CFA_XSP16 add(XSP16, 12)
        ; Saved register size: 12
        ; Auto size: 21
        MOV       A,#-0x15
        LCALL     ?ALLOC_XSTACK8
          CFI CFA_XSP16 add(XSP16, 33)
        MOV       A,R2
        MOV       R6,A
        MOV       A,R3
        MOV       R7,A
//  345 #ifdef MT_GP_CB_FUNC
//  346   uint8 buf[21];
//  347   uint8 *pBuf = buf;
//  348 
//  349   *pBuf++ = gp_SecReq->gpd_ID.AppID;
        MOV       DPL,R2
        MOV       DPH,A
        LCALL     ?Subroutine9 & 0xFFFF
//  350 
//  351   UINT32_TO_BUF_LITTLE_ENDIAN(pBuf,gp_SecReq->gpd_ID.GPDId.SrcID);
??CrossCallReturnLabel_16:
        MOV       A,R2
        ADD       A,#0x3
        MOV       R4,A
        CLR       A
        ADDC      A,R7
        MOV       R5,A
        MOV       DPL,R4
        MOV       DPH,A
        MOV       R0,#?V0
        LCALL     ?L_MOV_X
        MOV       A,#0x1
        LCALL     ?XSTACK_DISP0_8
        LCALL     ?Subroutine16 & 0xFFFF
??CrossCallReturnLabel_25:
        LCALL     ?L_MOV_X
        MOV       A,?V1
        MOV       ?V0,A
        MOV       A,#0x2
        LCALL     ?XSTACK_DISP0_8
        LCALL     ?Subroutine16 & 0xFFFF
??CrossCallReturnLabel_26:
        LCALL     ?L_MOV_X
        MOV       A,#0x10
        MOV       R0,#?V0
        LCALL     ?UL_SHR
        MOV       A,#0x3
        LCALL     ?XSTACK_DISP0_8
        LCALL     ?Subroutine16 & 0xFFFF
??CrossCallReturnLabel_27:
        LCALL     ?L_MOV_X
        MOV       A,#0x18
        MOV       R0,#?V0
        LCALL     ?UL_SHR
        MOV       A,#0x4
        LCALL     ?XSTACK_DISP0_8
        MOV       A,?V0
        MOVX      @DPTR,A
//  352   pBuf   = osal_cpyExtAddr( pBuf,gp_SecReq->gpd_ID.GPDId.GPDExtAddr);
        ; Setup parameters for call to function sAddrExtCpy
        MOV       A,#0x5
        LCALL     ?XSTACK_DISP0_8
        MOV       R2,DPL
        MOV       R3,DPH
        LCALL     `??sAddrExtCpy::?relay`; Banked call to: sAddrExtCpy
        MOV       ?V0,R2
        MOV       R4,?V0
//  353   *pBuf++ = gp_SecReq->EndPoint;  
        MOV       A,R6
        ADD       A,#0xb
        LCALL     ?Subroutine4 & 0xFFFF
//  354   *pBuf++ = gp_SecReq->gp_SecData.GPDFSecLvl;
??CrossCallReturnLabel_6:
        MOV       A,R6
        ADD       A,#0xc
        LCALL     ?Subroutine8 & 0xFFFF
//  355   *pBuf++ = gp_SecReq->gp_SecData.GPDFKeyType;
??CrossCallReturnLabel_14:
        ADD       A,#0xd
        LCALL     ?Subroutine6 & 0xFFFF
//  356 
//  357   UINT32_TO_BUF_LITTLE_ENDIAN(pBuf,gp_SecReq->gp_SecData.GPDSecFrameCounter);
??CrossCallReturnLabel_10:
        ADD       A,#0xe
        LCALL     ?Subroutine23 & 0xFFFF
??CrossCallReturnLabel_37:
        MOV       R0,#?V0
        LCALL     ?L_MOV_X
        MOV       DPL,R4
        MOV       DPH,R3
        LCALL     ?Subroutine14 & 0xFFFF
??CrossCallReturnLabel_86:
        LCALL     ?L_MOV_X
        MOV       A,?V1
        MOV       DPL,R4
        MOV       DPH,R3
        INC       DPTR
        INC       DPTR
        INC       DPTR
        INC       DPTR
        LCALL     ??Subroutine39_0 & 0xFFFF
??CrossCallReturnLabel_88:
        LCALL     ?L_MOV_X
        MOV       A,#0x10
        MOV       R0,#?V0
        LCALL     ?UL_SHR
        MOV       DPL,R4
        MOV       DPH,R3
        INC       DPTR
        INC       DPTR
        LCALL     ?Subroutine14 & 0xFFFF
??CrossCallReturnLabel_87:
        LCALL     ?L_MOV_X
        MOV       A,#0x18
        MOV       R0,#?V0
        LCALL     ?UL_SHR
        MOV       DPL,R4
        MOV       DPH,R3
        INC       DPTR
        INC       DPTR
        INC       DPTR
        INC       DPTR
        INC       DPTR
        INC       DPTR
        MOV       A,?V0
        MOVX      @DPTR,A
//  358 
//  359   *pBuf++ = gp_SecReq->dGPStubHandle;
        MOV       A,R6
        ADD       A,#0x12
        LCALL     ?Subroutine31 & 0xFFFF
??CrossCallReturnLabel_56:
        MOV       DPL,R4
        MOV       DPH,R3
        INC       DPTR
        INC       DPTR
        INC       DPTR
        INC       DPTR
        INC       DPTR
        INC       DPTR
        INC       DPTR
        MOVX      @DPTR,A
//  360 
//  361   MT_BuildAndSendZToolResponse(((uint8)MT_RPC_CMD_AREQ | (uint8)MT_RPC_SYS_GP), MT_GP_SEC_REQ, 21, buf);
        ; Setup parameters for call to function MT_BuildAndSendZToolResponse
        MOV       R4,?XSP + 0
        MOV       R5,?XSP + 1
        MOV       R3,#0x15
        MOV       R2,#0x3
        MOV       R1,#0x55
        LCALL     `??MT_BuildAndSendZToolResponse::?relay`; Banked call to: MT_BuildAndSendZToolResponse
//  362 #else
//  363   (void)gp_SecReq;
//  364 #endif
//  365 }
        MOV       A,#0x15
        LCALL     ?DEALLOC_XSTACK8
          CFI CFA_XSP16 add(XSP16, 12)
        MOV       R7,#0x4
        LJMP      ?BANKED_LEAVE_XDATA
          CFI EndBlock cfiBlock128

        RSEG BANKED_CODE:HUGECODE:NOROOT(0)
?Subroutine23:
          CFI Block cfiCond129 Using cfiCommon0
          CFI Function MT_GPDataInd
          CFI Conditional ??CrossCallReturnLabel_36
          CFI R6 load(1, XDATA, add(CFA_XSP16, literal(-18)))
          CFI VB load(1, XDATA, add(CFA_XSP16, literal(-17)))
          CFI V0 load(1, XDATA, add(CFA_XSP16, literal(-16)))
          CFI V1 load(1, XDATA, add(CFA_XSP16, literal(-15)))
          CFI V2 load(1, XDATA, add(CFA_XSP16, literal(-14)))
          CFI V3 load(1, XDATA, add(CFA_XSP16, literal(-13)))
          CFI V4 load(1, XDATA, add(CFA_XSP16, literal(-12)))
          CFI V5 load(1, XDATA, add(CFA_XSP16, literal(-11)))
          CFI V6 load(1, XDATA, add(CFA_XSP16, literal(-10)))
          CFI V7 load(1, XDATA, add(CFA_XSP16, literal(-9)))
          CFI V8 load(1, XDATA, add(CFA_XSP16, literal(-8)))
          CFI V9 load(1, XDATA, add(CFA_XSP16, literal(-7)))
          CFI R7 load(1, XDATA, add(CFA_XSP16, literal(-6)))
          CFI ?RET_LOW load(1, XDATA, add(CFA_XSP16, literal(-5)))
          CFI ?RET_HIGH load(1, XDATA, add(CFA_XSP16, literal(-4)))
          CFI ?BRET_EXT load(1, XDATA, add(CFA_XSP16, literal(-3)))
          CFI DPL0 load(1, XDATA, add(CFA_XSP16, literal(-2)))
          CFI DPH0 load(1, XDATA, add(CFA_XSP16, literal(-1)))
          CFI CFA_SP SP+-2
          CFI CFA_XSP16 add(XSP16, 18)
          CFI Block cfiCond130 Using cfiCommon0
          CFI (cfiCond130) Function MT_GPSecReq
          CFI (cfiCond130) Conditional ??CrossCallReturnLabel_37
          CFI (cfiCond130) R6 load(1, XDATA, add(CFA_XSP16, literal(-12)))
          CFI (cfiCond130) VB load(1, XDATA, add(CFA_XSP16, literal(-11)))
          CFI (cfiCond130) V0 load(1, XDATA, add(CFA_XSP16, literal(-10)))
          CFI (cfiCond130) V1 load(1, XDATA, add(CFA_XSP16, literal(-9)))
          CFI (cfiCond130) V2 load(1, XDATA, add(CFA_XSP16, literal(-8)))
          CFI (cfiCond130) V3 load(1, XDATA, add(CFA_XSP16, literal(-7)))
          CFI (cfiCond130) R7 load(1, XDATA, add(CFA_XSP16, literal(-6)))
          CFI (cfiCond130) ?RET_LOW load(1, XDATA, add(CFA_XSP16, literal(-5)))
          CFI (cfiCond130) ?RET_HIGH load(1, XDATA, add(CFA_XSP16, literal(-4)))
          CFI (cfiCond130) ?BRET_EXT load(1, XDATA, add(CFA_XSP16, literal(-3)))
          CFI (cfiCond130) DPL0 load(1, XDATA, add(CFA_XSP16, literal(-2)))
          CFI (cfiCond130) DPH0 load(1, XDATA, add(CFA_XSP16, literal(-1)))
          CFI (cfiCond130) CFA_SP SP+-2
          CFI (cfiCond130) CFA_XSP16 add(XSP16, 33)
          CFI Block cfiPicker131 Using cfiCommon1
          CFI (cfiPicker131) NoFunction
          CFI (cfiPicker131) Picker
        MOV       R0,A
        CLR       A
        ADDC      A,R7
        MOV       R1,A
        MOV       A,R0
        MOV       R2,A
        MOV       A,R1
        MOV       DPL,R0
        MOV       DPH,A
        RET
          CFI EndBlock cfiCond129
          CFI EndBlock cfiCond130
          CFI EndBlock cfiPicker131

        RSEG BANKED_CODE:HUGECODE:NOROOT(0)
?Subroutine16:
          CFI Block cfiCond132 Using cfiCommon0
          CFI Function MT_GPSecReq
          CFI Conditional ??CrossCallReturnLabel_25
          CFI R6 load(1, XDATA, add(CFA_XSP16, literal(-12)))
          CFI VB load(1, XDATA, add(CFA_XSP16, literal(-11)))
          CFI V0 load(1, XDATA, add(CFA_XSP16, literal(-10)))
          CFI V1 load(1, XDATA, add(CFA_XSP16, literal(-9)))
          CFI V2 load(1, XDATA, add(CFA_XSP16, literal(-8)))
          CFI V3 load(1, XDATA, add(CFA_XSP16, literal(-7)))
          CFI R7 load(1, XDATA, add(CFA_XSP16, literal(-6)))
          CFI ?RET_LOW load(1, XDATA, add(CFA_XSP16, literal(-5)))
          CFI ?RET_HIGH load(1, XDATA, add(CFA_XSP16, literal(-4)))
          CFI ?BRET_EXT load(1, XDATA, add(CFA_XSP16, literal(-3)))
          CFI DPL0 load(1, XDATA, add(CFA_XSP16, literal(-2)))
          CFI DPH0 load(1, XDATA, add(CFA_XSP16, literal(-1)))
          CFI CFA_SP SP+-2
          CFI CFA_XSP16 add(XSP16, 33)
          CFI Block cfiCond133 Using cfiCommon0
          CFI (cfiCond133) Function MT_GPSecReq
          CFI (cfiCond133) Conditional ??CrossCallReturnLabel_26
          CFI (cfiCond133) R6 load(1, XDATA, add(CFA_XSP16, literal(-12)))
          CFI (cfiCond133) VB load(1, XDATA, add(CFA_XSP16, literal(-11)))
          CFI (cfiCond133) V0 load(1, XDATA, add(CFA_XSP16, literal(-10)))
          CFI (cfiCond133) V1 load(1, XDATA, add(CFA_XSP16, literal(-9)))
          CFI (cfiCond133) V2 load(1, XDATA, add(CFA_XSP16, literal(-8)))
          CFI (cfiCond133) V3 load(1, XDATA, add(CFA_XSP16, literal(-7)))
          CFI (cfiCond133) R7 load(1, XDATA, add(CFA_XSP16, literal(-6)))
          CFI (cfiCond133) ?RET_LOW load(1, XDATA, add(CFA_XSP16, literal(-5)))
          CFI (cfiCond133) ?RET_HIGH load(1, XDATA, add(CFA_XSP16, literal(-4)))
          CFI (cfiCond133) ?BRET_EXT load(1, XDATA, add(CFA_XSP16, literal(-3)))
          CFI (cfiCond133) DPL0 load(1, XDATA, add(CFA_XSP16, literal(-2)))
          CFI (cfiCond133) DPH0 load(1, XDATA, add(CFA_XSP16, literal(-1)))
          CFI (cfiCond133) CFA_SP SP+-2
          CFI (cfiCond133) CFA_XSP16 add(XSP16, 33)
          CFI Block cfiCond134 Using cfiCommon0
          CFI (cfiCond134) Function MT_GPSecReq
          CFI (cfiCond134) Conditional ??CrossCallReturnLabel_27
          CFI (cfiCond134) R6 load(1, XDATA, add(CFA_XSP16, literal(-12)))
          CFI (cfiCond134) VB load(1, XDATA, add(CFA_XSP16, literal(-11)))
          CFI (cfiCond134) V0 load(1, XDATA, add(CFA_XSP16, literal(-10)))
          CFI (cfiCond134) V1 load(1, XDATA, add(CFA_XSP16, literal(-9)))
          CFI (cfiCond134) V2 load(1, XDATA, add(CFA_XSP16, literal(-8)))
          CFI (cfiCond134) V3 load(1, XDATA, add(CFA_XSP16, literal(-7)))
          CFI (cfiCond134) R7 load(1, XDATA, add(CFA_XSP16, literal(-6)))
          CFI (cfiCond134) ?RET_LOW load(1, XDATA, add(CFA_XSP16, literal(-5)))
          CFI (cfiCond134) ?RET_HIGH load(1, XDATA, add(CFA_XSP16, literal(-4)))
          CFI (cfiCond134) ?BRET_EXT load(1, XDATA, add(CFA_XSP16, literal(-3)))
          CFI (cfiCond134) DPL0 load(1, XDATA, add(CFA_XSP16, literal(-2)))
          CFI (cfiCond134) DPH0 load(1, XDATA, add(CFA_XSP16, literal(-1)))
          CFI (cfiCond134) CFA_SP SP+-2
          CFI (cfiCond134) CFA_XSP16 add(XSP16, 33)
          CFI Block cfiPicker135 Using cfiCommon1
          CFI (cfiPicker135) NoFunction
          CFI (cfiPicker135) Picker
        MOV       A,?V0
        MOVX      @DPTR,A
        MOV       DPL,R4
        MOV       DPH,R5
        MOV       R0,#?V0
        RET
          CFI EndBlock cfiCond132
          CFI EndBlock cfiCond133
          CFI EndBlock cfiCond134
          CFI EndBlock cfiPicker135

        RSEG BANKED_CODE:HUGECODE:NOROOT(0)
?Subroutine14:
          CFI Block cfiCond136 Using cfiCommon0
          CFI Function MT_GPSecReq
          CFI Conditional ??CrossCallReturnLabel_86
          CFI R6 load(1, XDATA, add(CFA_XSP16, literal(-12)))
          CFI VB load(1, XDATA, add(CFA_XSP16, literal(-11)))
          CFI V0 load(1, XDATA, add(CFA_XSP16, literal(-10)))
          CFI V1 load(1, XDATA, add(CFA_XSP16, literal(-9)))
          CFI V2 load(1, XDATA, add(CFA_XSP16, literal(-8)))
          CFI V3 load(1, XDATA, add(CFA_XSP16, literal(-7)))
          CFI R7 load(1, XDATA, add(CFA_XSP16, literal(-6)))
          CFI ?RET_LOW load(1, XDATA, add(CFA_XSP16, literal(-5)))
          CFI ?RET_HIGH load(1, XDATA, add(CFA_XSP16, literal(-4)))
          CFI ?BRET_EXT load(1, XDATA, add(CFA_XSP16, literal(-3)))
          CFI DPL0 load(1, XDATA, add(CFA_XSP16, literal(-2)))
          CFI DPH0 load(1, XDATA, add(CFA_XSP16, literal(-1)))
          CFI CFA_SP SP+-2
          CFI CFA_XSP16 add(XSP16, 33)
          CFI Block cfiCond137 Using cfiCommon0
          CFI (cfiCond137) Function MT_GPSecReq
          CFI (cfiCond137) Conditional ??CrossCallReturnLabel_87
          CFI (cfiCond137) R6 load(1, XDATA, add(CFA_XSP16, literal(-12)))
          CFI (cfiCond137) VB load(1, XDATA, add(CFA_XSP16, literal(-11)))
          CFI (cfiCond137) V0 load(1, XDATA, add(CFA_XSP16, literal(-10)))
          CFI (cfiCond137) V1 load(1, XDATA, add(CFA_XSP16, literal(-9)))
          CFI (cfiCond137) V2 load(1, XDATA, add(CFA_XSP16, literal(-8)))
          CFI (cfiCond137) V3 load(1, XDATA, add(CFA_XSP16, literal(-7)))
          CFI (cfiCond137) R7 load(1, XDATA, add(CFA_XSP16, literal(-6)))
          CFI (cfiCond137) ?RET_LOW load(1, XDATA, add(CFA_XSP16, literal(-5)))
          CFI (cfiCond137) ?RET_HIGH load(1, XDATA, add(CFA_XSP16, literal(-4)))
          CFI (cfiCond137) ?BRET_EXT load(1, XDATA, add(CFA_XSP16, literal(-3)))
          CFI (cfiCond137) DPL0 load(1, XDATA, add(CFA_XSP16, literal(-2)))
          CFI (cfiCond137) DPH0 load(1, XDATA, add(CFA_XSP16, literal(-1)))
          CFI (cfiCond137) CFA_SP SP+-2
          CFI (cfiCond137) CFA_XSP16 add(XSP16, 33)
          CFI Block cfiPicker138 Using cfiCommon1
          CFI (cfiPicker138) NoFunction
          CFI (cfiPicker138) Picker
        INC       DPTR
        INC       DPTR
        INC       DPTR
        MOV       A,?V0
          CFI EndBlock cfiCond136
          CFI EndBlock cfiCond137
          CFI EndBlock cfiPicker138
        REQUIRE ??Subroutine39_0
        ; // Fall through to label ??Subroutine39_0

        RSEG BANKED_CODE:HUGECODE:NOROOT(0)
??Subroutine39_0:
          CFI Block cfiCond139 Using cfiCommon0
          CFI Function MT_GPSecReq
          CFI Conditional ??CrossCallReturnLabel_88
          CFI R6 load(1, XDATA, add(CFA_XSP16, literal(-12)))
          CFI VB load(1, XDATA, add(CFA_XSP16, literal(-11)))
          CFI V0 load(1, XDATA, add(CFA_XSP16, literal(-10)))
          CFI V1 load(1, XDATA, add(CFA_XSP16, literal(-9)))
          CFI V2 load(1, XDATA, add(CFA_XSP16, literal(-8)))
          CFI V3 load(1, XDATA, add(CFA_XSP16, literal(-7)))
          CFI R7 load(1, XDATA, add(CFA_XSP16, literal(-6)))
          CFI ?RET_LOW load(1, XDATA, add(CFA_XSP16, literal(-5)))
          CFI ?RET_HIGH load(1, XDATA, add(CFA_XSP16, literal(-4)))
          CFI ?BRET_EXT load(1, XDATA, add(CFA_XSP16, literal(-3)))
          CFI DPL0 load(1, XDATA, add(CFA_XSP16, literal(-2)))
          CFI DPH0 load(1, XDATA, add(CFA_XSP16, literal(-1)))
          CFI CFA_SP SP+-2
          CFI CFA_XSP16 add(XSP16, 33)
          CFI Block cfiCond140 Using cfiCommon0
          CFI (cfiCond140) Function MT_GPSecReq
          CFI (cfiCond140) Conditional ??CrossCallReturnLabel_86
          CFI (cfiCond140) R6 load(1, XDATA, add(CFA_XSP16, literal(-12)))
          CFI (cfiCond140) VB load(1, XDATA, add(CFA_XSP16, literal(-11)))
          CFI (cfiCond140) V0 load(1, XDATA, add(CFA_XSP16, literal(-10)))
          CFI (cfiCond140) V1 load(1, XDATA, add(CFA_XSP16, literal(-9)))
          CFI (cfiCond140) V2 load(1, XDATA, add(CFA_XSP16, literal(-8)))
          CFI (cfiCond140) V3 load(1, XDATA, add(CFA_XSP16, literal(-7)))
          CFI (cfiCond140) R7 load(1, XDATA, add(CFA_XSP16, literal(-6)))
          CFI (cfiCond140) ?RET_LOW load(1, XDATA, add(CFA_XSP16, literal(-5)))
          CFI (cfiCond140) ?RET_HIGH load(1, XDATA, add(CFA_XSP16, literal(-4)))
          CFI (cfiCond140) ?BRET_EXT load(1, XDATA, add(CFA_XSP16, literal(-3)))
          CFI (cfiCond140) DPL0 load(1, XDATA, add(CFA_XSP16, literal(-2)))
          CFI (cfiCond140) DPH0 load(1, XDATA, add(CFA_XSP16, literal(-1)))
          CFI (cfiCond140) CFA_SP SP+-2
          CFI (cfiCond140) CFA_XSP16 add(XSP16, 33)
          CFI Block cfiCond141 Using cfiCommon0
          CFI (cfiCond141) Function MT_GPSecReq
          CFI (cfiCond141) Conditional ??CrossCallReturnLabel_87
          CFI (cfiCond141) R6 load(1, XDATA, add(CFA_XSP16, literal(-12)))
          CFI (cfiCond141) VB load(1, XDATA, add(CFA_XSP16, literal(-11)))
          CFI (cfiCond141) V0 load(1, XDATA, add(CFA_XSP16, literal(-10)))
          CFI (cfiCond141) V1 load(1, XDATA, add(CFA_XSP16, literal(-9)))
          CFI (cfiCond141) V2 load(1, XDATA, add(CFA_XSP16, literal(-8)))
          CFI (cfiCond141) V3 load(1, XDATA, add(CFA_XSP16, literal(-7)))
          CFI (cfiCond141) R7 load(1, XDATA, add(CFA_XSP16, literal(-6)))
          CFI (cfiCond141) ?RET_LOW load(1, XDATA, add(CFA_XSP16, literal(-5)))
          CFI (cfiCond141) ?RET_HIGH load(1, XDATA, add(CFA_XSP16, literal(-4)))
          CFI (cfiCond141) ?BRET_EXT load(1, XDATA, add(CFA_XSP16, literal(-3)))
          CFI (cfiCond141) DPL0 load(1, XDATA, add(CFA_XSP16, literal(-2)))
          CFI (cfiCond141) DPH0 load(1, XDATA, add(CFA_XSP16, literal(-1)))
          CFI (cfiCond141) CFA_SP SP+-2
          CFI (cfiCond141) CFA_XSP16 add(XSP16, 33)
          CFI Block cfiPicker142 Using cfiCommon1
          CFI (cfiPicker142) NoFunction
          CFI (cfiPicker142) Picker
        MOVX      @DPTR,A
        MOV       DPL,R2
        MOV       DPH,R1
        MOV       R0,#?V0
        RET
          CFI EndBlock cfiCond139
          CFI EndBlock cfiCond140
          CFI EndBlock cfiCond141
          CFI EndBlock cfiPicker142

        RSEG BANKED_CODE:HUGECODE:NOROOT(0)
?Subroutine9:
          CFI Block cfiCond143 Using cfiCommon0
          CFI Function MT_GPDataCnf
          CFI Conditional ??CrossCallReturnLabel_15
          CFI DPL0 Frame(CFA_SP, 4)
          CFI DPH0 Frame(CFA_SP, 5)
          CFI CFA_SP SP+-7
          CFI CFA_XSP16 add(XSP16, 2)
          CFI Block cfiCond144 Using cfiCommon0
          CFI (cfiCond144) Function MT_GPSecReq
          CFI (cfiCond144) Conditional ??CrossCallReturnLabel_16
          CFI (cfiCond144) R6 load(1, XDATA, add(CFA_XSP16, literal(-12)))
          CFI (cfiCond144) VB load(1, XDATA, add(CFA_XSP16, literal(-11)))
          CFI (cfiCond144) V0 load(1, XDATA, add(CFA_XSP16, literal(-10)))
          CFI (cfiCond144) V1 load(1, XDATA, add(CFA_XSP16, literal(-9)))
          CFI (cfiCond144) V2 load(1, XDATA, add(CFA_XSP16, literal(-8)))
          CFI (cfiCond144) V3 load(1, XDATA, add(CFA_XSP16, literal(-7)))
          CFI (cfiCond144) R7 load(1, XDATA, add(CFA_XSP16, literal(-6)))
          CFI (cfiCond144) ?RET_LOW load(1, XDATA, add(CFA_XSP16, literal(-5)))
          CFI (cfiCond144) ?RET_HIGH load(1, XDATA, add(CFA_XSP16, literal(-4)))
          CFI (cfiCond144) ?BRET_EXT load(1, XDATA, add(CFA_XSP16, literal(-3)))
          CFI (cfiCond144) DPL0 load(1, XDATA, add(CFA_XSP16, literal(-2)))
          CFI (cfiCond144) DPH0 load(1, XDATA, add(CFA_XSP16, literal(-1)))
          CFI (cfiCond144) CFA_SP SP+-2
          CFI (cfiCond144) CFA_XSP16 add(XSP16, 33)
          CFI Block cfiPicker145 Using cfiCommon1
          CFI (cfiPicker145) NoFunction
          CFI (cfiPicker145) Picker
        INC       DPTR
        INC       DPTR
        MOVX      A,@DPTR
        MOV       DPL,?XSP + 0
        MOV       DPH,?XSP + 1
        MOVX      @DPTR,A
        RET
          CFI EndBlock cfiCond143
          CFI EndBlock cfiCond144
          CFI EndBlock cfiPicker145

        RSEG BANKED_CODE:HUGECODE:NOROOT(0)
?Subroutine8:
          CFI Block cfiCond146 Using cfiCommon0
          CFI Function MT_GPDataInd
          CFI Conditional ??CrossCallReturnLabel_13
          CFI R6 load(1, XDATA, add(CFA_XSP16, literal(-18)))
          CFI VB load(1, XDATA, add(CFA_XSP16, literal(-17)))
          CFI V0 load(1, XDATA, add(CFA_XSP16, literal(-16)))
          CFI V1 load(1, XDATA, add(CFA_XSP16, literal(-15)))
          CFI V2 load(1, XDATA, add(CFA_XSP16, literal(-14)))
          CFI V3 load(1, XDATA, add(CFA_XSP16, literal(-13)))
          CFI V4 load(1, XDATA, add(CFA_XSP16, literal(-12)))
          CFI V5 load(1, XDATA, add(CFA_XSP16, literal(-11)))
          CFI V6 load(1, XDATA, add(CFA_XSP16, literal(-10)))
          CFI V7 load(1, XDATA, add(CFA_XSP16, literal(-9)))
          CFI V8 load(1, XDATA, add(CFA_XSP16, literal(-8)))
          CFI V9 load(1, XDATA, add(CFA_XSP16, literal(-7)))
          CFI R7 load(1, XDATA, add(CFA_XSP16, literal(-6)))
          CFI ?RET_LOW load(1, XDATA, add(CFA_XSP16, literal(-5)))
          CFI ?RET_HIGH load(1, XDATA, add(CFA_XSP16, literal(-4)))
          CFI ?BRET_EXT load(1, XDATA, add(CFA_XSP16, literal(-3)))
          CFI DPL0 load(1, XDATA, add(CFA_XSP16, literal(-2)))
          CFI DPH0 load(1, XDATA, add(CFA_XSP16, literal(-1)))
          CFI CFA_SP SP+-2
          CFI CFA_XSP16 add(XSP16, 18)
          CFI Block cfiCond147 Using cfiCommon0
          CFI (cfiCond147) Function MT_GPSecReq
          CFI (cfiCond147) Conditional ??CrossCallReturnLabel_14
          CFI (cfiCond147) R6 load(1, XDATA, add(CFA_XSP16, literal(-12)))
          CFI (cfiCond147) VB load(1, XDATA, add(CFA_XSP16, literal(-11)))
          CFI (cfiCond147) V0 load(1, XDATA, add(CFA_XSP16, literal(-10)))
          CFI (cfiCond147) V1 load(1, XDATA, add(CFA_XSP16, literal(-9)))
          CFI (cfiCond147) V2 load(1, XDATA, add(CFA_XSP16, literal(-8)))
          CFI (cfiCond147) V3 load(1, XDATA, add(CFA_XSP16, literal(-7)))
          CFI (cfiCond147) R7 load(1, XDATA, add(CFA_XSP16, literal(-6)))
          CFI (cfiCond147) ?RET_LOW load(1, XDATA, add(CFA_XSP16, literal(-5)))
          CFI (cfiCond147) ?RET_HIGH load(1, XDATA, add(CFA_XSP16, literal(-4)))
          CFI (cfiCond147) ?BRET_EXT load(1, XDATA, add(CFA_XSP16, literal(-3)))
          CFI (cfiCond147) DPL0 load(1, XDATA, add(CFA_XSP16, literal(-2)))
          CFI (cfiCond147) DPH0 load(1, XDATA, add(CFA_XSP16, literal(-1)))
          CFI (cfiCond147) CFA_SP SP+-2
          CFI (cfiCond147) CFA_XSP16 add(XSP16, 33)
          CFI Block cfiPicker148 Using cfiCommon1
          CFI (cfiPicker148) NoFunction
          CFI (cfiPicker148) Picker
        LCALL     ?Subroutine27 & 0xFFFF
??CrossCallReturnLabel_45:
        MOVX      @DPTR,A
        MOV       A,R6
        RET
          CFI EndBlock cfiCond146
          CFI EndBlock cfiCond147
          CFI EndBlock cfiPicker148

        RSEG BANKED_CODE:HUGECODE:NOROOT(0)
?Subroutine6:
          CFI Block cfiCond149 Using cfiCommon0
          CFI Function MT_GPDataInd
          CFI Conditional ??CrossCallReturnLabel_9
          CFI R6 load(1, XDATA, add(CFA_XSP16, literal(-18)))
          CFI VB load(1, XDATA, add(CFA_XSP16, literal(-17)))
          CFI V0 load(1, XDATA, add(CFA_XSP16, literal(-16)))
          CFI V1 load(1, XDATA, add(CFA_XSP16, literal(-15)))
          CFI V2 load(1, XDATA, add(CFA_XSP16, literal(-14)))
          CFI V3 load(1, XDATA, add(CFA_XSP16, literal(-13)))
          CFI V4 load(1, XDATA, add(CFA_XSP16, literal(-12)))
          CFI V5 load(1, XDATA, add(CFA_XSP16, literal(-11)))
          CFI V6 load(1, XDATA, add(CFA_XSP16, literal(-10)))
          CFI V7 load(1, XDATA, add(CFA_XSP16, literal(-9)))
          CFI V8 load(1, XDATA, add(CFA_XSP16, literal(-8)))
          CFI V9 load(1, XDATA, add(CFA_XSP16, literal(-7)))
          CFI R7 load(1, XDATA, add(CFA_XSP16, literal(-6)))
          CFI ?RET_LOW load(1, XDATA, add(CFA_XSP16, literal(-5)))
          CFI ?RET_HIGH load(1, XDATA, add(CFA_XSP16, literal(-4)))
          CFI ?BRET_EXT load(1, XDATA, add(CFA_XSP16, literal(-3)))
          CFI DPL0 load(1, XDATA, add(CFA_XSP16, literal(-2)))
          CFI DPH0 load(1, XDATA, add(CFA_XSP16, literal(-1)))
          CFI CFA_SP SP+-2
          CFI CFA_XSP16 add(XSP16, 18)
          CFI Block cfiCond150 Using cfiCommon0
          CFI (cfiCond150) Function MT_GPSecReq
          CFI (cfiCond150) Conditional ??CrossCallReturnLabel_10
          CFI (cfiCond150) R6 load(1, XDATA, add(CFA_XSP16, literal(-12)))
          CFI (cfiCond150) VB load(1, XDATA, add(CFA_XSP16, literal(-11)))
          CFI (cfiCond150) V0 load(1, XDATA, add(CFA_XSP16, literal(-10)))
          CFI (cfiCond150) V1 load(1, XDATA, add(CFA_XSP16, literal(-9)))
          CFI (cfiCond150) V2 load(1, XDATA, add(CFA_XSP16, literal(-8)))
          CFI (cfiCond150) V3 load(1, XDATA, add(CFA_XSP16, literal(-7)))
          CFI (cfiCond150) R7 load(1, XDATA, add(CFA_XSP16, literal(-6)))
          CFI (cfiCond150) ?RET_LOW load(1, XDATA, add(CFA_XSP16, literal(-5)))
          CFI (cfiCond150) ?RET_HIGH load(1, XDATA, add(CFA_XSP16, literal(-4)))
          CFI (cfiCond150) ?BRET_EXT load(1, XDATA, add(CFA_XSP16, literal(-3)))
          CFI (cfiCond150) DPL0 load(1, XDATA, add(CFA_XSP16, literal(-2)))
          CFI (cfiCond150) DPH0 load(1, XDATA, add(CFA_XSP16, literal(-1)))
          CFI (cfiCond150) CFA_SP SP+-2
          CFI (cfiCond150) CFA_XSP16 add(XSP16, 33)
          CFI Block cfiPicker151 Using cfiCommon1
          CFI (cfiPicker151) NoFunction
          CFI (cfiPicker151) Picker
        LCALL     ?Subroutine27 & 0xFFFF
??CrossCallReturnLabel_44:
        INC       DPTR
        MOVX      @DPTR,A
        MOV       A,R6
        RET
          CFI EndBlock cfiCond149
          CFI EndBlock cfiCond150
          CFI EndBlock cfiPicker151

        RSEG BANKED_CODE:HUGECODE:NOROOT(0)
?Subroutine27:
          CFI Block cfiCond152 Using cfiCommon0
          CFI Function MT_GPDataInd
          CFI Conditional ??CrossCallReturnLabel_45, ??CrossCallReturnLabel_13
          CFI R6 load(1, XDATA, add(CFA_XSP16, literal(-18)))
          CFI VB load(1, XDATA, add(CFA_XSP16, literal(-17)))
          CFI V0 load(1, XDATA, add(CFA_XSP16, literal(-16)))
          CFI V1 load(1, XDATA, add(CFA_XSP16, literal(-15)))
          CFI V2 load(1, XDATA, add(CFA_XSP16, literal(-14)))
          CFI V3 load(1, XDATA, add(CFA_XSP16, literal(-13)))
          CFI V4 load(1, XDATA, add(CFA_XSP16, literal(-12)))
          CFI V5 load(1, XDATA, add(CFA_XSP16, literal(-11)))
          CFI V6 load(1, XDATA, add(CFA_XSP16, literal(-10)))
          CFI V7 load(1, XDATA, add(CFA_XSP16, literal(-9)))
          CFI V8 load(1, XDATA, add(CFA_XSP16, literal(-8)))
          CFI V9 load(1, XDATA, add(CFA_XSP16, literal(-7)))
          CFI R7 load(1, XDATA, add(CFA_XSP16, literal(-6)))
          CFI ?RET_LOW load(1, XDATA, add(CFA_XSP16, literal(-5)))
          CFI ?RET_HIGH load(1, XDATA, add(CFA_XSP16, literal(-4)))
          CFI ?BRET_EXT load(1, XDATA, add(CFA_XSP16, literal(-3)))
          CFI DPL0 load(1, XDATA, add(CFA_XSP16, literal(-2)))
          CFI DPH0 load(1, XDATA, add(CFA_XSP16, literal(-1)))
          CFI CFA_SP SP+-4
          CFI CFA_XSP16 add(XSP16, 18)
          CFI Block cfiCond153 Using cfiCommon0
          CFI (cfiCond153) Function MT_GPSecReq
          CFI (cfiCond153) Conditional ??CrossCallReturnLabel_45, ??CrossCallReturnLabel_14
          CFI (cfiCond153) R6 load(1, XDATA, add(CFA_XSP16, literal(-12)))
          CFI (cfiCond153) VB load(1, XDATA, add(CFA_XSP16, literal(-11)))
          CFI (cfiCond153) V0 load(1, XDATA, add(CFA_XSP16, literal(-10)))
          CFI (cfiCond153) V1 load(1, XDATA, add(CFA_XSP16, literal(-9)))
          CFI (cfiCond153) V2 load(1, XDATA, add(CFA_XSP16, literal(-8)))
          CFI (cfiCond153) V3 load(1, XDATA, add(CFA_XSP16, literal(-7)))
          CFI (cfiCond153) R7 load(1, XDATA, add(CFA_XSP16, literal(-6)))
          CFI (cfiCond153) ?RET_LOW load(1, XDATA, add(CFA_XSP16, literal(-5)))
          CFI (cfiCond153) ?RET_HIGH load(1, XDATA, add(CFA_XSP16, literal(-4)))
          CFI (cfiCond153) ?BRET_EXT load(1, XDATA, add(CFA_XSP16, literal(-3)))
          CFI (cfiCond153) DPL0 load(1, XDATA, add(CFA_XSP16, literal(-2)))
          CFI (cfiCond153) DPH0 load(1, XDATA, add(CFA_XSP16, literal(-1)))
          CFI (cfiCond153) CFA_SP SP+-4
          CFI (cfiCond153) CFA_XSP16 add(XSP16, 33)
          CFI Block cfiCond154 Using cfiCommon0
          CFI (cfiCond154) Function MT_GPDataInd
          CFI (cfiCond154) Conditional ??CrossCallReturnLabel_44, ??CrossCallReturnLabel_9
          CFI (cfiCond154) R6 load(1, XDATA, add(CFA_XSP16, literal(-18)))
          CFI (cfiCond154) VB load(1, XDATA, add(CFA_XSP16, literal(-17)))
          CFI (cfiCond154) V0 load(1, XDATA, add(CFA_XSP16, literal(-16)))
          CFI (cfiCond154) V1 load(1, XDATA, add(CFA_XSP16, literal(-15)))
          CFI (cfiCond154) V2 load(1, XDATA, add(CFA_XSP16, literal(-14)))
          CFI (cfiCond154) V3 load(1, XDATA, add(CFA_XSP16, literal(-13)))
          CFI (cfiCond154) V4 load(1, XDATA, add(CFA_XSP16, literal(-12)))
          CFI (cfiCond154) V5 load(1, XDATA, add(CFA_XSP16, literal(-11)))
          CFI (cfiCond154) V6 load(1, XDATA, add(CFA_XSP16, literal(-10)))
          CFI (cfiCond154) V7 load(1, XDATA, add(CFA_XSP16, literal(-9)))
          CFI (cfiCond154) V8 load(1, XDATA, add(CFA_XSP16, literal(-8)))
          CFI (cfiCond154) V9 load(1, XDATA, add(CFA_XSP16, literal(-7)))
          CFI (cfiCond154) R7 load(1, XDATA, add(CFA_XSP16, literal(-6)))
          CFI (cfiCond154) ?RET_LOW load(1, XDATA, add(CFA_XSP16, literal(-5)))
          CFI (cfiCond154) ?RET_HIGH load(1, XDATA, add(CFA_XSP16, literal(-4)))
          CFI (cfiCond154) ?BRET_EXT load(1, XDATA, add(CFA_XSP16, literal(-3)))
          CFI (cfiCond154) DPL0 load(1, XDATA, add(CFA_XSP16, literal(-2)))
          CFI (cfiCond154) DPH0 load(1, XDATA, add(CFA_XSP16, literal(-1)))
          CFI (cfiCond154) CFA_SP SP+-4
          CFI (cfiCond154) CFA_XSP16 add(XSP16, 18)
          CFI Block cfiCond155 Using cfiCommon0
          CFI (cfiCond155) Function MT_GPSecReq
          CFI (cfiCond155) Conditional ??CrossCallReturnLabel_44, ??CrossCallReturnLabel_10
          CFI (cfiCond155) R6 load(1, XDATA, add(CFA_XSP16, literal(-12)))
          CFI (cfiCond155) VB load(1, XDATA, add(CFA_XSP16, literal(-11)))
          CFI (cfiCond155) V0 load(1, XDATA, add(CFA_XSP16, literal(-10)))
          CFI (cfiCond155) V1 load(1, XDATA, add(CFA_XSP16, literal(-9)))
          CFI (cfiCond155) V2 load(1, XDATA, add(CFA_XSP16, literal(-8)))
          CFI (cfiCond155) V3 load(1, XDATA, add(CFA_XSP16, literal(-7)))
          CFI (cfiCond155) R7 load(1, XDATA, add(CFA_XSP16, literal(-6)))
          CFI (cfiCond155) ?RET_LOW load(1, XDATA, add(CFA_XSP16, literal(-5)))
          CFI (cfiCond155) ?RET_HIGH load(1, XDATA, add(CFA_XSP16, literal(-4)))
          CFI (cfiCond155) ?BRET_EXT load(1, XDATA, add(CFA_XSP16, literal(-3)))
          CFI (cfiCond155) DPL0 load(1, XDATA, add(CFA_XSP16, literal(-2)))
          CFI (cfiCond155) DPH0 load(1, XDATA, add(CFA_XSP16, literal(-1)))
          CFI (cfiCond155) CFA_SP SP+-4
          CFI (cfiCond155) CFA_XSP16 add(XSP16, 33)
          CFI Block cfiPicker156 Using cfiCommon1
          CFI (cfiPicker156) NoFunction
          CFI (cfiPicker156) Picker
        LCALL     ?Subroutine30 & 0xFFFF
??CrossCallReturnLabel_52:
        RET
          CFI EndBlock cfiCond152
          CFI EndBlock cfiCond153
          CFI EndBlock cfiCond154
          CFI EndBlock cfiCond155
          CFI EndBlock cfiPicker156

        RSEG BANKED_CODE:HUGECODE:NOROOT(0)
?Subroutine30:
          CFI Block cfiCond157 Using cfiCommon0
          CFI Function MT_GPDataInd
          CFI Conditional ??CrossCallReturnLabel_51, ??CrossCallReturnLabel_40
          CFI R6 load(1, XDATA, add(CFA_XSP16, literal(-18)))
          CFI VB load(1, XDATA, add(CFA_XSP16, literal(-17)))
          CFI V0 load(1, XDATA, add(CFA_XSP16, literal(-16)))
          CFI V1 load(1, XDATA, add(CFA_XSP16, literal(-15)))
          CFI V2 load(1, XDATA, add(CFA_XSP16, literal(-14)))
          CFI V3 load(1, XDATA, add(CFA_XSP16, literal(-13)))
          CFI V4 load(1, XDATA, add(CFA_XSP16, literal(-12)))
          CFI V5 load(1, XDATA, add(CFA_XSP16, literal(-11)))
          CFI V6 load(1, XDATA, add(CFA_XSP16, literal(-10)))
          CFI V7 load(1, XDATA, add(CFA_XSP16, literal(-9)))
          CFI V8 load(1, XDATA, add(CFA_XSP16, literal(-8)))
          CFI V9 load(1, XDATA, add(CFA_XSP16, literal(-7)))
          CFI R7 load(1, XDATA, add(CFA_XSP16, literal(-6)))
          CFI ?RET_LOW load(1, XDATA, add(CFA_XSP16, literal(-5)))
          CFI ?RET_HIGH load(1, XDATA, add(CFA_XSP16, literal(-4)))
          CFI ?BRET_EXT load(1, XDATA, add(CFA_XSP16, literal(-3)))
          CFI DPL0 load(1, XDATA, add(CFA_XSP16, literal(-2)))
          CFI DPH0 load(1, XDATA, add(CFA_XSP16, literal(-1)))
          CFI CFA_SP SP+-4
          CFI CFA_XSP16 add(XSP16, 18)
          CFI Block cfiCond158 Using cfiCommon0
          CFI (cfiCond158) Function MT_GPDataInd
          CFI (cfiCond158) Conditional ??CrossCallReturnLabel_51, ??CrossCallReturnLabel_41, ??CrossCallReturnLabel_11
          CFI (cfiCond158) R6 load(1, XDATA, add(CFA_XSP16, literal(-18)))
          CFI (cfiCond158) VB load(1, XDATA, add(CFA_XSP16, literal(-17)))
          CFI (cfiCond158) V0 load(1, XDATA, add(CFA_XSP16, literal(-16)))
          CFI (cfiCond158) V1 load(1, XDATA, add(CFA_XSP16, literal(-15)))
          CFI (cfiCond158) V2 load(1, XDATA, add(CFA_XSP16, literal(-14)))
          CFI (cfiCond158) V3 load(1, XDATA, add(CFA_XSP16, literal(-13)))
          CFI (cfiCond158) V4 load(1, XDATA, add(CFA_XSP16, literal(-12)))
          CFI (cfiCond158) V5 load(1, XDATA, add(CFA_XSP16, literal(-11)))
          CFI (cfiCond158) V6 load(1, XDATA, add(CFA_XSP16, literal(-10)))
          CFI (cfiCond158) V7 load(1, XDATA, add(CFA_XSP16, literal(-9)))
          CFI (cfiCond158) V8 load(1, XDATA, add(CFA_XSP16, literal(-8)))
          CFI (cfiCond158) V9 load(1, XDATA, add(CFA_XSP16, literal(-7)))
          CFI (cfiCond158) R7 load(1, XDATA, add(CFA_XSP16, literal(-6)))
          CFI (cfiCond158) ?RET_LOW load(1, XDATA, add(CFA_XSP16, literal(-5)))
          CFI (cfiCond158) ?RET_HIGH load(1, XDATA, add(CFA_XSP16, literal(-4)))
          CFI (cfiCond158) ?BRET_EXT load(1, XDATA, add(CFA_XSP16, literal(-3)))
          CFI (cfiCond158) DPL0 load(1, XDATA, add(CFA_XSP16, literal(-2)))
          CFI (cfiCond158) DPH0 load(1, XDATA, add(CFA_XSP16, literal(-1)))
          CFI (cfiCond158) CFA_SP SP+-6
          CFI (cfiCond158) CFA_XSP16 add(XSP16, 18)
          CFI Block cfiCond159 Using cfiCommon0
          CFI (cfiCond159) Function MT_GPDataInd
          CFI (cfiCond159) Conditional ??CrossCallReturnLabel_51, ??CrossCallReturnLabel_41, ??CrossCallReturnLabel_12
          CFI (cfiCond159) R6 load(1, XDATA, add(CFA_XSP16, literal(-18)))
          CFI (cfiCond159) VB load(1, XDATA, add(CFA_XSP16, literal(-17)))
          CFI (cfiCond159) V0 load(1, XDATA, add(CFA_XSP16, literal(-16)))
          CFI (cfiCond159) V1 load(1, XDATA, add(CFA_XSP16, literal(-15)))
          CFI (cfiCond159) V2 load(1, XDATA, add(CFA_XSP16, literal(-14)))
          CFI (cfiCond159) V3 load(1, XDATA, add(CFA_XSP16, literal(-13)))
          CFI (cfiCond159) V4 load(1, XDATA, add(CFA_XSP16, literal(-12)))
          CFI (cfiCond159) V5 load(1, XDATA, add(CFA_XSP16, literal(-11)))
          CFI (cfiCond159) V6 load(1, XDATA, add(CFA_XSP16, literal(-10)))
          CFI (cfiCond159) V7 load(1, XDATA, add(CFA_XSP16, literal(-9)))
          CFI (cfiCond159) V8 load(1, XDATA, add(CFA_XSP16, literal(-8)))
          CFI (cfiCond159) V9 load(1, XDATA, add(CFA_XSP16, literal(-7)))
          CFI (cfiCond159) R7 load(1, XDATA, add(CFA_XSP16, literal(-6)))
          CFI (cfiCond159) ?RET_LOW load(1, XDATA, add(CFA_XSP16, literal(-5)))
          CFI (cfiCond159) ?RET_HIGH load(1, XDATA, add(CFA_XSP16, literal(-4)))
          CFI (cfiCond159) ?BRET_EXT load(1, XDATA, add(CFA_XSP16, literal(-3)))
          CFI (cfiCond159) DPL0 load(1, XDATA, add(CFA_XSP16, literal(-2)))
          CFI (cfiCond159) DPH0 load(1, XDATA, add(CFA_XSP16, literal(-1)))
          CFI (cfiCond159) CFA_SP SP+-6
          CFI (cfiCond159) CFA_XSP16 add(XSP16, 18)
          CFI Block cfiCond160 Using cfiCommon0
          CFI (cfiCond160) Function MT_GPDataInd
          CFI (cfiCond160) Conditional ??CrossCallReturnLabel_52, ??CrossCallReturnLabel_45, ??CrossCallReturnLabel_13
          CFI (cfiCond160) R6 load(1, XDATA, add(CFA_XSP16, literal(-18)))
          CFI (cfiCond160) VB load(1, XDATA, add(CFA_XSP16, literal(-17)))
          CFI (cfiCond160) V0 load(1, XDATA, add(CFA_XSP16, literal(-16)))
          CFI (cfiCond160) V1 load(1, XDATA, add(CFA_XSP16, literal(-15)))
          CFI (cfiCond160) V2 load(1, XDATA, add(CFA_XSP16, literal(-14)))
          CFI (cfiCond160) V3 load(1, XDATA, add(CFA_XSP16, literal(-13)))
          CFI (cfiCond160) V4 load(1, XDATA, add(CFA_XSP16, literal(-12)))
          CFI (cfiCond160) V5 load(1, XDATA, add(CFA_XSP16, literal(-11)))
          CFI (cfiCond160) V6 load(1, XDATA, add(CFA_XSP16, literal(-10)))
          CFI (cfiCond160) V7 load(1, XDATA, add(CFA_XSP16, literal(-9)))
          CFI (cfiCond160) V8 load(1, XDATA, add(CFA_XSP16, literal(-8)))
          CFI (cfiCond160) V9 load(1, XDATA, add(CFA_XSP16, literal(-7)))
          CFI (cfiCond160) R7 load(1, XDATA, add(CFA_XSP16, literal(-6)))
          CFI (cfiCond160) ?RET_LOW load(1, XDATA, add(CFA_XSP16, literal(-5)))
          CFI (cfiCond160) ?RET_HIGH load(1, XDATA, add(CFA_XSP16, literal(-4)))
          CFI (cfiCond160) ?BRET_EXT load(1, XDATA, add(CFA_XSP16, literal(-3)))
          CFI (cfiCond160) DPL0 load(1, XDATA, add(CFA_XSP16, literal(-2)))
          CFI (cfiCond160) DPH0 load(1, XDATA, add(CFA_XSP16, literal(-1)))
          CFI (cfiCond160) CFA_SP SP+-6
          CFI (cfiCond160) CFA_XSP16 add(XSP16, 18)
          CFI Block cfiCond161 Using cfiCommon0
          CFI (cfiCond161) Function MT_GPSecReq
          CFI (cfiCond161) Conditional ??CrossCallReturnLabel_52, ??CrossCallReturnLabel_45, ??CrossCallReturnLabel_14
          CFI (cfiCond161) R6 load(1, XDATA, add(CFA_XSP16, literal(-12)))
          CFI (cfiCond161) VB load(1, XDATA, add(CFA_XSP16, literal(-11)))
          CFI (cfiCond161) V0 load(1, XDATA, add(CFA_XSP16, literal(-10)))
          CFI (cfiCond161) V1 load(1, XDATA, add(CFA_XSP16, literal(-9)))
          CFI (cfiCond161) V2 load(1, XDATA, add(CFA_XSP16, literal(-8)))
          CFI (cfiCond161) V3 load(1, XDATA, add(CFA_XSP16, literal(-7)))
          CFI (cfiCond161) R7 load(1, XDATA, add(CFA_XSP16, literal(-6)))
          CFI (cfiCond161) ?RET_LOW load(1, XDATA, add(CFA_XSP16, literal(-5)))
          CFI (cfiCond161) ?RET_HIGH load(1, XDATA, add(CFA_XSP16, literal(-4)))
          CFI (cfiCond161) ?BRET_EXT load(1, XDATA, add(CFA_XSP16, literal(-3)))
          CFI (cfiCond161) DPL0 load(1, XDATA, add(CFA_XSP16, literal(-2)))
          CFI (cfiCond161) DPH0 load(1, XDATA, add(CFA_XSP16, literal(-1)))
          CFI (cfiCond161) CFA_SP SP+-6
          CFI (cfiCond161) CFA_XSP16 add(XSP16, 33)
          CFI Block cfiCond162 Using cfiCommon0
          CFI (cfiCond162) Function MT_GPDataInd
          CFI (cfiCond162) Conditional ??CrossCallReturnLabel_52, ??CrossCallReturnLabel_44, ??CrossCallReturnLabel_9
          CFI (cfiCond162) R6 load(1, XDATA, add(CFA_XSP16, literal(-18)))
          CFI (cfiCond162) VB load(1, XDATA, add(CFA_XSP16, literal(-17)))
          CFI (cfiCond162) V0 load(1, XDATA, add(CFA_XSP16, literal(-16)))
          CFI (cfiCond162) V1 load(1, XDATA, add(CFA_XSP16, literal(-15)))
          CFI (cfiCond162) V2 load(1, XDATA, add(CFA_XSP16, literal(-14)))
          CFI (cfiCond162) V3 load(1, XDATA, add(CFA_XSP16, literal(-13)))
          CFI (cfiCond162) V4 load(1, XDATA, add(CFA_XSP16, literal(-12)))
          CFI (cfiCond162) V5 load(1, XDATA, add(CFA_XSP16, literal(-11)))
          CFI (cfiCond162) V6 load(1, XDATA, add(CFA_XSP16, literal(-10)))
          CFI (cfiCond162) V7 load(1, XDATA, add(CFA_XSP16, literal(-9)))
          CFI (cfiCond162) V8 load(1, XDATA, add(CFA_XSP16, literal(-8)))
          CFI (cfiCond162) V9 load(1, XDATA, add(CFA_XSP16, literal(-7)))
          CFI (cfiCond162) R7 load(1, XDATA, add(CFA_XSP16, literal(-6)))
          CFI (cfiCond162) ?RET_LOW load(1, XDATA, add(CFA_XSP16, literal(-5)))
          CFI (cfiCond162) ?RET_HIGH load(1, XDATA, add(CFA_XSP16, literal(-4)))
          CFI (cfiCond162) ?BRET_EXT load(1, XDATA, add(CFA_XSP16, literal(-3)))
          CFI (cfiCond162) DPL0 load(1, XDATA, add(CFA_XSP16, literal(-2)))
          CFI (cfiCond162) DPH0 load(1, XDATA, add(CFA_XSP16, literal(-1)))
          CFI (cfiCond162) CFA_SP SP+-6
          CFI (cfiCond162) CFA_XSP16 add(XSP16, 18)
          CFI Block cfiCond163 Using cfiCommon0
          CFI (cfiCond163) Function MT_GPSecReq
          CFI (cfiCond163) Conditional ??CrossCallReturnLabel_52, ??CrossCallReturnLabel_44, ??CrossCallReturnLabel_10
          CFI (cfiCond163) R6 load(1, XDATA, add(CFA_XSP16, literal(-12)))
          CFI (cfiCond163) VB load(1, XDATA, add(CFA_XSP16, literal(-11)))
          CFI (cfiCond163) V0 load(1, XDATA, add(CFA_XSP16, literal(-10)))
          CFI (cfiCond163) V1 load(1, XDATA, add(CFA_XSP16, literal(-9)))
          CFI (cfiCond163) V2 load(1, XDATA, add(CFA_XSP16, literal(-8)))
          CFI (cfiCond163) V3 load(1, XDATA, add(CFA_XSP16, literal(-7)))
          CFI (cfiCond163) R7 load(1, XDATA, add(CFA_XSP16, literal(-6)))
          CFI (cfiCond163) ?RET_LOW load(1, XDATA, add(CFA_XSP16, literal(-5)))
          CFI (cfiCond163) ?RET_HIGH load(1, XDATA, add(CFA_XSP16, literal(-4)))
          CFI (cfiCond163) ?BRET_EXT load(1, XDATA, add(CFA_XSP16, literal(-3)))
          CFI (cfiCond163) DPL0 load(1, XDATA, add(CFA_XSP16, literal(-2)))
          CFI (cfiCond163) DPH0 load(1, XDATA, add(CFA_XSP16, literal(-1)))
          CFI (cfiCond163) CFA_SP SP+-6
          CFI (cfiCond163) CFA_XSP16 add(XSP16, 33)
          CFI Block cfiPicker164 Using cfiCommon1
          CFI (cfiPicker164) NoFunction
          CFI (cfiPicker164) Picker
        MOV       DPL,A
        CLR       A
        ADDC      A,R7
        MOV       DPH,A
        LCALL     ?Subroutine32 & 0xFFFF
??CrossCallReturnLabel_61:
        RET
          CFI EndBlock cfiCond157
          CFI EndBlock cfiCond158
          CFI EndBlock cfiCond159
          CFI EndBlock cfiCond160
          CFI EndBlock cfiCond161
          CFI EndBlock cfiCond162
          CFI EndBlock cfiCond163
          CFI EndBlock cfiPicker164

        RSEG BANKED_CODE:HUGECODE:NOROOT(0)
?Subroutine32:
          CFI Block cfiCond165 Using cfiCommon0
          CFI Function MT_GpDataReq
          CFI Conditional ??CrossCallReturnLabel_59, ??CrossCallReturnLabel_0
          CFI R6 load(1, XDATA, add(CFA_XSP16, literal(-15)))
          CFI VB load(1, XDATA, add(CFA_XSP16, literal(-14)))
          CFI V0 load(1, XDATA, add(CFA_XSP16, literal(-13)))
          CFI V1 load(1, XDATA, add(CFA_XSP16, literal(-12)))
          CFI V2 load(1, XDATA, add(CFA_XSP16, literal(-11)))
          CFI V3 load(1, XDATA, add(CFA_XSP16, literal(-10)))
          CFI V4 load(1, XDATA, add(CFA_XSP16, literal(-9)))
          CFI V5 load(1, XDATA, add(CFA_XSP16, literal(-8)))
          CFI V6 load(1, XDATA, add(CFA_XSP16, literal(-7)))
          CFI R7 load(1, XDATA, add(CFA_XSP16, literal(-6)))
          CFI ?RET_LOW load(1, XDATA, add(CFA_XSP16, literal(-5)))
          CFI ?RET_HIGH load(1, XDATA, add(CFA_XSP16, literal(-4)))
          CFI ?BRET_EXT load(1, XDATA, add(CFA_XSP16, literal(-3)))
          CFI DPL0 load(1, XDATA, add(CFA_XSP16, literal(-2)))
          CFI DPH0 load(1, XDATA, add(CFA_XSP16, literal(-1)))
          CFI CFA_SP SP+-4
          CFI CFA_XSP16 add(XSP16, 16)
          CFI Block cfiCond166 Using cfiCommon0
          CFI (cfiCond166) Function MT_GpSecRsp
          CFI (cfiCond166) Conditional ??CrossCallReturnLabel_59, ??CrossCallReturnLabel_1
          CFI (cfiCond166) R6 load(1, XDATA, add(CFA_XSP16, literal(-15)))
          CFI (cfiCond166) VB load(1, XDATA, add(CFA_XSP16, literal(-14)))
          CFI (cfiCond166) V0 load(1, XDATA, add(CFA_XSP16, literal(-13)))
          CFI (cfiCond166) V1 load(1, XDATA, add(CFA_XSP16, literal(-12)))
          CFI (cfiCond166) V2 load(1, XDATA, add(CFA_XSP16, literal(-11)))
          CFI (cfiCond166) V3 load(1, XDATA, add(CFA_XSP16, literal(-10)))
          CFI (cfiCond166) V4 load(1, XDATA, add(CFA_XSP16, literal(-9)))
          CFI (cfiCond166) V5 load(1, XDATA, add(CFA_XSP16, literal(-8)))
          CFI (cfiCond166) V6 load(1, XDATA, add(CFA_XSP16, literal(-7)))
          CFI (cfiCond166) R7 load(1, XDATA, add(CFA_XSP16, literal(-6)))
          CFI (cfiCond166) ?RET_LOW load(1, XDATA, add(CFA_XSP16, literal(-5)))
          CFI (cfiCond166) ?RET_HIGH load(1, XDATA, add(CFA_XSP16, literal(-4)))
          CFI (cfiCond166) ?BRET_EXT load(1, XDATA, add(CFA_XSP16, literal(-3)))
          CFI (cfiCond166) DPL0 load(1, XDATA, add(CFA_XSP16, literal(-2)))
          CFI (cfiCond166) DPH0 load(1, XDATA, add(CFA_XSP16, literal(-1)))
          CFI (cfiCond166) CFA_SP SP+-4
          CFI (cfiCond166) CFA_XSP16 add(XSP16, 16)
          CFI Block cfiCond167 Using cfiCommon0
          CFI (cfiCond167) Function MT_GpDataReq
          CFI (cfiCond167) Conditional ??CrossCallReturnLabel_60, ??CrossCallReturnLabel_0
          CFI (cfiCond167) R6 load(1, XDATA, add(CFA_XSP16, literal(-15)))
          CFI (cfiCond167) VB load(1, XDATA, add(CFA_XSP16, literal(-14)))
          CFI (cfiCond167) V0 load(1, XDATA, add(CFA_XSP16, literal(-13)))
          CFI (cfiCond167) V1 load(1, XDATA, add(CFA_XSP16, literal(-12)))
          CFI (cfiCond167) V2 load(1, XDATA, add(CFA_XSP16, literal(-11)))
          CFI (cfiCond167) V3 load(1, XDATA, add(CFA_XSP16, literal(-10)))
          CFI (cfiCond167) V4 load(1, XDATA, add(CFA_XSP16, literal(-9)))
          CFI (cfiCond167) V5 load(1, XDATA, add(CFA_XSP16, literal(-8)))
          CFI (cfiCond167) V6 load(1, XDATA, add(CFA_XSP16, literal(-7)))
          CFI (cfiCond167) R7 load(1, XDATA, add(CFA_XSP16, literal(-6)))
          CFI (cfiCond167) ?RET_LOW load(1, XDATA, add(CFA_XSP16, literal(-5)))
          CFI (cfiCond167) ?RET_HIGH load(1, XDATA, add(CFA_XSP16, literal(-4)))
          CFI (cfiCond167) ?BRET_EXT load(1, XDATA, add(CFA_XSP16, literal(-3)))
          CFI (cfiCond167) DPL0 load(1, XDATA, add(CFA_XSP16, literal(-2)))
          CFI (cfiCond167) DPH0 load(1, XDATA, add(CFA_XSP16, literal(-1)))
          CFI (cfiCond167) CFA_SP SP+-4
          CFI (cfiCond167) CFA_XSP16 add(XSP16, 16)
          CFI Block cfiCond168 Using cfiCommon0
          CFI (cfiCond168) Function MT_GpSecRsp
          CFI (cfiCond168) Conditional ??CrossCallReturnLabel_60, ??CrossCallReturnLabel_1
          CFI (cfiCond168) R6 load(1, XDATA, add(CFA_XSP16, literal(-15)))
          CFI (cfiCond168) VB load(1, XDATA, add(CFA_XSP16, literal(-14)))
          CFI (cfiCond168) V0 load(1, XDATA, add(CFA_XSP16, literal(-13)))
          CFI (cfiCond168) V1 load(1, XDATA, add(CFA_XSP16, literal(-12)))
          CFI (cfiCond168) V2 load(1, XDATA, add(CFA_XSP16, literal(-11)))
          CFI (cfiCond168) V3 load(1, XDATA, add(CFA_XSP16, literal(-10)))
          CFI (cfiCond168) V4 load(1, XDATA, add(CFA_XSP16, literal(-9)))
          CFI (cfiCond168) V5 load(1, XDATA, add(CFA_XSP16, literal(-8)))
          CFI (cfiCond168) V6 load(1, XDATA, add(CFA_XSP16, literal(-7)))
          CFI (cfiCond168) R7 load(1, XDATA, add(CFA_XSP16, literal(-6)))
          CFI (cfiCond168) ?RET_LOW load(1, XDATA, add(CFA_XSP16, literal(-5)))
          CFI (cfiCond168) ?RET_HIGH load(1, XDATA, add(CFA_XSP16, literal(-4)))
          CFI (cfiCond168) ?BRET_EXT load(1, XDATA, add(CFA_XSP16, literal(-3)))
          CFI (cfiCond168) DPL0 load(1, XDATA, add(CFA_XSP16, literal(-2)))
          CFI (cfiCond168) DPH0 load(1, XDATA, add(CFA_XSP16, literal(-1)))
          CFI (cfiCond168) CFA_SP SP+-4
          CFI (cfiCond168) CFA_XSP16 add(XSP16, 16)
          CFI Block cfiCond169 Using cfiCommon0
          CFI (cfiCond169) Function MT_GPDataInd
          CFI (cfiCond169) Conditional ??CrossCallReturnLabel_61, ??CrossCallReturnLabel_51, ??CrossCallReturnLabel_40
          CFI (cfiCond169) R6 load(1, XDATA, add(CFA_XSP16, literal(-18)))
          CFI (cfiCond169) VB load(1, XDATA, add(CFA_XSP16, literal(-17)))
          CFI (cfiCond169) V0 load(1, XDATA, add(CFA_XSP16, literal(-16)))
          CFI (cfiCond169) V1 load(1, XDATA, add(CFA_XSP16, literal(-15)))
          CFI (cfiCond169) V2 load(1, XDATA, add(CFA_XSP16, literal(-14)))
          CFI (cfiCond169) V3 load(1, XDATA, add(CFA_XSP16, literal(-13)))
          CFI (cfiCond169) V4 load(1, XDATA, add(CFA_XSP16, literal(-12)))
          CFI (cfiCond169) V5 load(1, XDATA, add(CFA_XSP16, literal(-11)))
          CFI (cfiCond169) V6 load(1, XDATA, add(CFA_XSP16, literal(-10)))
          CFI (cfiCond169) V7 load(1, XDATA, add(CFA_XSP16, literal(-9)))
          CFI (cfiCond169) V8 load(1, XDATA, add(CFA_XSP16, literal(-8)))
          CFI (cfiCond169) V9 load(1, XDATA, add(CFA_XSP16, literal(-7)))
          CFI (cfiCond169) R7 load(1, XDATA, add(CFA_XSP16, literal(-6)))
          CFI (cfiCond169) ?RET_LOW load(1, XDATA, add(CFA_XSP16, literal(-5)))
          CFI (cfiCond169) ?RET_HIGH load(1, XDATA, add(CFA_XSP16, literal(-4)))
          CFI (cfiCond169) ?BRET_EXT load(1, XDATA, add(CFA_XSP16, literal(-3)))
          CFI (cfiCond169) DPL0 load(1, XDATA, add(CFA_XSP16, literal(-2)))
          CFI (cfiCond169) DPH0 load(1, XDATA, add(CFA_XSP16, literal(-1)))
          CFI (cfiCond169) CFA_SP SP+-6
          CFI (cfiCond169) CFA_XSP16 add(XSP16, 18)
          CFI Block cfiCond170 Using cfiCommon0
          CFI (cfiCond170) Function MT_GPDataInd
          CFI (cfiCond170) Conditional ??CrossCallReturnLabel_61, ??CrossCallReturnLabel_51, ??CrossCallReturnLabel_41, ??CrossCallReturnLabel_11
          CFI (cfiCond170) R6 load(1, XDATA, add(CFA_XSP16, literal(-18)))
          CFI (cfiCond170) VB load(1, XDATA, add(CFA_XSP16, literal(-17)))
          CFI (cfiCond170) V0 load(1, XDATA, add(CFA_XSP16, literal(-16)))
          CFI (cfiCond170) V1 load(1, XDATA, add(CFA_XSP16, literal(-15)))
          CFI (cfiCond170) V2 load(1, XDATA, add(CFA_XSP16, literal(-14)))
          CFI (cfiCond170) V3 load(1, XDATA, add(CFA_XSP16, literal(-13)))
          CFI (cfiCond170) V4 load(1, XDATA, add(CFA_XSP16, literal(-12)))
          CFI (cfiCond170) V5 load(1, XDATA, add(CFA_XSP16, literal(-11)))
          CFI (cfiCond170) V6 load(1, XDATA, add(CFA_XSP16, literal(-10)))
          CFI (cfiCond170) V7 load(1, XDATA, add(CFA_XSP16, literal(-9)))
          CFI (cfiCond170) V8 load(1, XDATA, add(CFA_XSP16, literal(-8)))
          CFI (cfiCond170) V9 load(1, XDATA, add(CFA_XSP16, literal(-7)))
          CFI (cfiCond170) R7 load(1, XDATA, add(CFA_XSP16, literal(-6)))
          CFI (cfiCond170) ?RET_LOW load(1, XDATA, add(CFA_XSP16, literal(-5)))
          CFI (cfiCond170) ?RET_HIGH load(1, XDATA, add(CFA_XSP16, literal(-4)))
          CFI (cfiCond170) ?BRET_EXT load(1, XDATA, add(CFA_XSP16, literal(-3)))
          CFI (cfiCond170) DPL0 load(1, XDATA, add(CFA_XSP16, literal(-2)))
          CFI (cfiCond170) DPH0 load(1, XDATA, add(CFA_XSP16, literal(-1)))
          CFI (cfiCond170) CFA_SP SP+-8
          CFI (cfiCond170) CFA_XSP16 add(XSP16, 18)
          CFI Block cfiCond171 Using cfiCommon0
          CFI (cfiCond171) Function MT_GPDataInd
          CFI (cfiCond171) Conditional ??CrossCallReturnLabel_61, ??CrossCallReturnLabel_51, ??CrossCallReturnLabel_41, ??CrossCallReturnLabel_12
          CFI (cfiCond171) R6 load(1, XDATA, add(CFA_XSP16, literal(-18)))
          CFI (cfiCond171) VB load(1, XDATA, add(CFA_XSP16, literal(-17)))
          CFI (cfiCond171) V0 load(1, XDATA, add(CFA_XSP16, literal(-16)))
          CFI (cfiCond171) V1 load(1, XDATA, add(CFA_XSP16, literal(-15)))
          CFI (cfiCond171) V2 load(1, XDATA, add(CFA_XSP16, literal(-14)))
          CFI (cfiCond171) V3 load(1, XDATA, add(CFA_XSP16, literal(-13)))
          CFI (cfiCond171) V4 load(1, XDATA, add(CFA_XSP16, literal(-12)))
          CFI (cfiCond171) V5 load(1, XDATA, add(CFA_XSP16, literal(-11)))
          CFI (cfiCond171) V6 load(1, XDATA, add(CFA_XSP16, literal(-10)))
          CFI (cfiCond171) V7 load(1, XDATA, add(CFA_XSP16, literal(-9)))
          CFI (cfiCond171) V8 load(1, XDATA, add(CFA_XSP16, literal(-8)))
          CFI (cfiCond171) V9 load(1, XDATA, add(CFA_XSP16, literal(-7)))
          CFI (cfiCond171) R7 load(1, XDATA, add(CFA_XSP16, literal(-6)))
          CFI (cfiCond171) ?RET_LOW load(1, XDATA, add(CFA_XSP16, literal(-5)))
          CFI (cfiCond171) ?RET_HIGH load(1, XDATA, add(CFA_XSP16, literal(-4)))
          CFI (cfiCond171) ?BRET_EXT load(1, XDATA, add(CFA_XSP16, literal(-3)))
          CFI (cfiCond171) DPL0 load(1, XDATA, add(CFA_XSP16, literal(-2)))
          CFI (cfiCond171) DPH0 load(1, XDATA, add(CFA_XSP16, literal(-1)))
          CFI (cfiCond171) CFA_SP SP+-8
          CFI (cfiCond171) CFA_XSP16 add(XSP16, 18)
          CFI Block cfiCond172 Using cfiCommon0
          CFI (cfiCond172) Function MT_GPDataInd
          CFI (cfiCond172) Conditional ??CrossCallReturnLabel_61, ??CrossCallReturnLabel_52, ??CrossCallReturnLabel_45, ??CrossCallReturnLabel_13
          CFI (cfiCond172) R6 load(1, XDATA, add(CFA_XSP16, literal(-18)))
          CFI (cfiCond172) VB load(1, XDATA, add(CFA_XSP16, literal(-17)))
          CFI (cfiCond172) V0 load(1, XDATA, add(CFA_XSP16, literal(-16)))
          CFI (cfiCond172) V1 load(1, XDATA, add(CFA_XSP16, literal(-15)))
          CFI (cfiCond172) V2 load(1, XDATA, add(CFA_XSP16, literal(-14)))
          CFI (cfiCond172) V3 load(1, XDATA, add(CFA_XSP16, literal(-13)))
          CFI (cfiCond172) V4 load(1, XDATA, add(CFA_XSP16, literal(-12)))
          CFI (cfiCond172) V5 load(1, XDATA, add(CFA_XSP16, literal(-11)))
          CFI (cfiCond172) V6 load(1, XDATA, add(CFA_XSP16, literal(-10)))
          CFI (cfiCond172) V7 load(1, XDATA, add(CFA_XSP16, literal(-9)))
          CFI (cfiCond172) V8 load(1, XDATA, add(CFA_XSP16, literal(-8)))
          CFI (cfiCond172) V9 load(1, XDATA, add(CFA_XSP16, literal(-7)))
          CFI (cfiCond172) R7 load(1, XDATA, add(CFA_XSP16, literal(-6)))
          CFI (cfiCond172) ?RET_LOW load(1, XDATA, add(CFA_XSP16, literal(-5)))
          CFI (cfiCond172) ?RET_HIGH load(1, XDATA, add(CFA_XSP16, literal(-4)))
          CFI (cfiCond172) ?BRET_EXT load(1, XDATA, add(CFA_XSP16, literal(-3)))
          CFI (cfiCond172) DPL0 load(1, XDATA, add(CFA_XSP16, literal(-2)))
          CFI (cfiCond172) DPH0 load(1, XDATA, add(CFA_XSP16, literal(-1)))
          CFI (cfiCond172) CFA_SP SP+-8
          CFI (cfiCond172) CFA_XSP16 add(XSP16, 18)
          CFI Block cfiCond173 Using cfiCommon0
          CFI (cfiCond173) Function MT_GPSecReq
          CFI (cfiCond173) Conditional ??CrossCallReturnLabel_61, ??CrossCallReturnLabel_52, ??CrossCallReturnLabel_45, ??CrossCallReturnLabel_14
          CFI (cfiCond173) R6 load(1, XDATA, add(CFA_XSP16, literal(-12)))
          CFI (cfiCond173) VB load(1, XDATA, add(CFA_XSP16, literal(-11)))
          CFI (cfiCond173) V0 load(1, XDATA, add(CFA_XSP16, literal(-10)))
          CFI (cfiCond173) V1 load(1, XDATA, add(CFA_XSP16, literal(-9)))
          CFI (cfiCond173) V2 load(1, XDATA, add(CFA_XSP16, literal(-8)))
          CFI (cfiCond173) V3 load(1, XDATA, add(CFA_XSP16, literal(-7)))
          CFI (cfiCond173) R7 load(1, XDATA, add(CFA_XSP16, literal(-6)))
          CFI (cfiCond173) ?RET_LOW load(1, XDATA, add(CFA_XSP16, literal(-5)))
          CFI (cfiCond173) ?RET_HIGH load(1, XDATA, add(CFA_XSP16, literal(-4)))
          CFI (cfiCond173) ?BRET_EXT load(1, XDATA, add(CFA_XSP16, literal(-3)))
          CFI (cfiCond173) DPL0 load(1, XDATA, add(CFA_XSP16, literal(-2)))
          CFI (cfiCond173) DPH0 load(1, XDATA, add(CFA_XSP16, literal(-1)))
          CFI (cfiCond173) CFA_SP SP+-8
          CFI (cfiCond173) CFA_XSP16 add(XSP16, 33)
          CFI Block cfiCond174 Using cfiCommon0
          CFI (cfiCond174) Function MT_GPDataInd
          CFI (cfiCond174) Conditional ??CrossCallReturnLabel_61, ??CrossCallReturnLabel_52, ??CrossCallReturnLabel_44, ??CrossCallReturnLabel_9
          CFI (cfiCond174) R6 load(1, XDATA, add(CFA_XSP16, literal(-18)))
          CFI (cfiCond174) VB load(1, XDATA, add(CFA_XSP16, literal(-17)))
          CFI (cfiCond174) V0 load(1, XDATA, add(CFA_XSP16, literal(-16)))
          CFI (cfiCond174) V1 load(1, XDATA, add(CFA_XSP16, literal(-15)))
          CFI (cfiCond174) V2 load(1, XDATA, add(CFA_XSP16, literal(-14)))
          CFI (cfiCond174) V3 load(1, XDATA, add(CFA_XSP16, literal(-13)))
          CFI (cfiCond174) V4 load(1, XDATA, add(CFA_XSP16, literal(-12)))
          CFI (cfiCond174) V5 load(1, XDATA, add(CFA_XSP16, literal(-11)))
          CFI (cfiCond174) V6 load(1, XDATA, add(CFA_XSP16, literal(-10)))
          CFI (cfiCond174) V7 load(1, XDATA, add(CFA_XSP16, literal(-9)))
          CFI (cfiCond174) V8 load(1, XDATA, add(CFA_XSP16, literal(-8)))
          CFI (cfiCond174) V9 load(1, XDATA, add(CFA_XSP16, literal(-7)))
          CFI (cfiCond174) R7 load(1, XDATA, add(CFA_XSP16, literal(-6)))
          CFI (cfiCond174) ?RET_LOW load(1, XDATA, add(CFA_XSP16, literal(-5)))
          CFI (cfiCond174) ?RET_HIGH load(1, XDATA, add(CFA_XSP16, literal(-4)))
          CFI (cfiCond174) ?BRET_EXT load(1, XDATA, add(CFA_XSP16, literal(-3)))
          CFI (cfiCond174) DPL0 load(1, XDATA, add(CFA_XSP16, literal(-2)))
          CFI (cfiCond174) DPH0 load(1, XDATA, add(CFA_XSP16, literal(-1)))
          CFI (cfiCond174) CFA_SP SP+-8
          CFI (cfiCond174) CFA_XSP16 add(XSP16, 18)
          CFI Block cfiCond175 Using cfiCommon0
          CFI (cfiCond175) Function MT_GPSecReq
          CFI (cfiCond175) Conditional ??CrossCallReturnLabel_61, ??CrossCallReturnLabel_52, ??CrossCallReturnLabel_44, ??CrossCallReturnLabel_10
          CFI (cfiCond175) R6 load(1, XDATA, add(CFA_XSP16, literal(-12)))
          CFI (cfiCond175) VB load(1, XDATA, add(CFA_XSP16, literal(-11)))
          CFI (cfiCond175) V0 load(1, XDATA, add(CFA_XSP16, literal(-10)))
          CFI (cfiCond175) V1 load(1, XDATA, add(CFA_XSP16, literal(-9)))
          CFI (cfiCond175) V2 load(1, XDATA, add(CFA_XSP16, literal(-8)))
          CFI (cfiCond175) V3 load(1, XDATA, add(CFA_XSP16, literal(-7)))
          CFI (cfiCond175) R7 load(1, XDATA, add(CFA_XSP16, literal(-6)))
          CFI (cfiCond175) ?RET_LOW load(1, XDATA, add(CFA_XSP16, literal(-5)))
          CFI (cfiCond175) ?RET_HIGH load(1, XDATA, add(CFA_XSP16, literal(-4)))
          CFI (cfiCond175) ?BRET_EXT load(1, XDATA, add(CFA_XSP16, literal(-3)))
          CFI (cfiCond175) DPL0 load(1, XDATA, add(CFA_XSP16, literal(-2)))
          CFI (cfiCond175) DPH0 load(1, XDATA, add(CFA_XSP16, literal(-1)))
          CFI (cfiCond175) CFA_SP SP+-8
          CFI (cfiCond175) CFA_XSP16 add(XSP16, 33)
          CFI Block cfiPicker176 Using cfiCommon1
          CFI (cfiPicker176) NoFunction
          CFI (cfiPicker176) Picker
        MOVX      A,@DPTR
        MOV       DPL,R2
        MOV       DPH,R3
        INC       DPTR
        RET
          CFI EndBlock cfiCond165
          CFI EndBlock cfiCond166
          CFI EndBlock cfiCond167
          CFI EndBlock cfiCond168
          CFI EndBlock cfiCond169
          CFI EndBlock cfiCond170
          CFI EndBlock cfiCond171
          CFI EndBlock cfiCond172
          CFI EndBlock cfiCond173
          CFI EndBlock cfiCond174
          CFI EndBlock cfiCond175
          CFI EndBlock cfiPicker176

        RSEG BANKED_CODE:HUGECODE:NOROOT(0)
?Subroutine4:
          CFI Block cfiCond177 Using cfiCommon0
          CFI Function MT_GPDataInd
          CFI Conditional ??CrossCallReturnLabel_4
          CFI R6 load(1, XDATA, add(CFA_XSP16, literal(-18)))
          CFI VB load(1, XDATA, add(CFA_XSP16, literal(-17)))
          CFI V0 load(1, XDATA, add(CFA_XSP16, literal(-16)))
          CFI V1 load(1, XDATA, add(CFA_XSP16, literal(-15)))
          CFI V2 load(1, XDATA, add(CFA_XSP16, literal(-14)))
          CFI V3 load(1, XDATA, add(CFA_XSP16, literal(-13)))
          CFI V4 load(1, XDATA, add(CFA_XSP16, literal(-12)))
          CFI V5 load(1, XDATA, add(CFA_XSP16, literal(-11)))
          CFI V6 load(1, XDATA, add(CFA_XSP16, literal(-10)))
          CFI V7 load(1, XDATA, add(CFA_XSP16, literal(-9)))
          CFI V8 load(1, XDATA, add(CFA_XSP16, literal(-8)))
          CFI V9 load(1, XDATA, add(CFA_XSP16, literal(-7)))
          CFI R7 load(1, XDATA, add(CFA_XSP16, literal(-6)))
          CFI ?RET_LOW load(1, XDATA, add(CFA_XSP16, literal(-5)))
          CFI ?RET_HIGH load(1, XDATA, add(CFA_XSP16, literal(-4)))
          CFI ?BRET_EXT load(1, XDATA, add(CFA_XSP16, literal(-3)))
          CFI DPL0 load(1, XDATA, add(CFA_XSP16, literal(-2)))
          CFI DPH0 load(1, XDATA, add(CFA_XSP16, literal(-1)))
          CFI CFA_SP SP+-2
          CFI CFA_XSP16 add(XSP16, 18)
          CFI Block cfiCond178 Using cfiCommon0
          CFI (cfiCond178) Function MT_GPDataInd
          CFI (cfiCond178) Conditional ??CrossCallReturnLabel_5
          CFI (cfiCond178) R6 load(1, XDATA, add(CFA_XSP16, literal(-18)))
          CFI (cfiCond178) VB load(1, XDATA, add(CFA_XSP16, literal(-17)))
          CFI (cfiCond178) V0 load(1, XDATA, add(CFA_XSP16, literal(-16)))
          CFI (cfiCond178) V1 load(1, XDATA, add(CFA_XSP16, literal(-15)))
          CFI (cfiCond178) V2 load(1, XDATA, add(CFA_XSP16, literal(-14)))
          CFI (cfiCond178) V3 load(1, XDATA, add(CFA_XSP16, literal(-13)))
          CFI (cfiCond178) V4 load(1, XDATA, add(CFA_XSP16, literal(-12)))
          CFI (cfiCond178) V5 load(1, XDATA, add(CFA_XSP16, literal(-11)))
          CFI (cfiCond178) V6 load(1, XDATA, add(CFA_XSP16, literal(-10)))
          CFI (cfiCond178) V7 load(1, XDATA, add(CFA_XSP16, literal(-9)))
          CFI (cfiCond178) V8 load(1, XDATA, add(CFA_XSP16, literal(-8)))
          CFI (cfiCond178) V9 load(1, XDATA, add(CFA_XSP16, literal(-7)))
          CFI (cfiCond178) R7 load(1, XDATA, add(CFA_XSP16, literal(-6)))
          CFI (cfiCond178) ?RET_LOW load(1, XDATA, add(CFA_XSP16, literal(-5)))
          CFI (cfiCond178) ?RET_HIGH load(1, XDATA, add(CFA_XSP16, literal(-4)))
          CFI (cfiCond178) ?BRET_EXT load(1, XDATA, add(CFA_XSP16, literal(-3)))
          CFI (cfiCond178) DPL0 load(1, XDATA, add(CFA_XSP16, literal(-2)))
          CFI (cfiCond178) DPH0 load(1, XDATA, add(CFA_XSP16, literal(-1)))
          CFI (cfiCond178) CFA_SP SP+-2
          CFI (cfiCond178) CFA_XSP16 add(XSP16, 18)
          CFI Block cfiCond179 Using cfiCommon0
          CFI (cfiCond179) Function MT_GPSecReq
          CFI (cfiCond179) Conditional ??CrossCallReturnLabel_6
          CFI (cfiCond179) R6 load(1, XDATA, add(CFA_XSP16, literal(-12)))
          CFI (cfiCond179) VB load(1, XDATA, add(CFA_XSP16, literal(-11)))
          CFI (cfiCond179) V0 load(1, XDATA, add(CFA_XSP16, literal(-10)))
          CFI (cfiCond179) V1 load(1, XDATA, add(CFA_XSP16, literal(-9)))
          CFI (cfiCond179) V2 load(1, XDATA, add(CFA_XSP16, literal(-8)))
          CFI (cfiCond179) V3 load(1, XDATA, add(CFA_XSP16, literal(-7)))
          CFI (cfiCond179) R7 load(1, XDATA, add(CFA_XSP16, literal(-6)))
          CFI (cfiCond179) ?RET_LOW load(1, XDATA, add(CFA_XSP16, literal(-5)))
          CFI (cfiCond179) ?RET_HIGH load(1, XDATA, add(CFA_XSP16, literal(-4)))
          CFI (cfiCond179) ?BRET_EXT load(1, XDATA, add(CFA_XSP16, literal(-3)))
          CFI (cfiCond179) DPL0 load(1, XDATA, add(CFA_XSP16, literal(-2)))
          CFI (cfiCond179) DPH0 load(1, XDATA, add(CFA_XSP16, literal(-1)))
          CFI (cfiCond179) CFA_SP SP+-2
          CFI (cfiCond179) CFA_XSP16 add(XSP16, 33)
          CFI Block cfiPicker180 Using cfiCommon1
          CFI (cfiPicker180) NoFunction
          CFI (cfiPicker180) Picker
        LCALL     ?Subroutine31 & 0xFFFF
??CrossCallReturnLabel_57:
        MOV       DPL,R2
        MOV       DPH,R3
        MOVX      @DPTR,A
        RET
          CFI EndBlock cfiCond177
          CFI EndBlock cfiCond178
          CFI EndBlock cfiCond179
          CFI EndBlock cfiPicker180
//  366 
//  367 /***************************************************************************************************
//  368 * @fn      MT_GPAddressConflict
//  369 *
//  370 * @brief   Send Network Status with address conflict
//  371 *
//  372 * @param   pBuf
//  373 *
//  374 * @return  void
//  375 ****************************************************************************************************/

        RSEG BANKED_CODE:HUGECODE:NOROOT(0)
//  376 void MT_GPAddressConflict(uint8* pBuf)
MT_GPAddressConflict:
          CFI Block cfiBlock181 Using cfiCommon0
          CFI Function MT_GPAddressConflict
        CODE
//  377 {
        FUNCALL MT_GPAddressConflict, osal_build_uint16
        LOCFRAME ISTACK, 0, STACK
        LOCFRAME PSTACK, 0, STACK
        LOCFRAME XSTACK, 10, STACK
        LOCFRAME IOVERLAY, 0, STATIC
        LOCFRAME DOVERLAY, 0, STATIC
        ARGFRAME ISTACK, 0, STACK
        ARGFRAME PSTACK, 0, STACK
        ARGFRAME XSTACK, 10, STACK
        ARGFRAME IOVERLAY, 0, STATIC
        ARGFRAME DOVERLAY, 0, STATIC
        FUNCALL MT_GPAddressConflict, NLME_SendNetworkStatus
        LOCFRAME ISTACK, 0, STACK
        LOCFRAME PSTACK, 0, STACK
        LOCFRAME XSTACK, 10, STACK
        LOCFRAME IOVERLAY, 0, STATIC
        LOCFRAME DOVERLAY, 0, STATIC
        ARGFRAME ISTACK, 0, STACK
        ARGFRAME PSTACK, 0, STACK
        ARGFRAME XSTACK, 10, STACK
        ARGFRAME IOVERLAY, 0, STATIC
        ARGFRAME DOVERLAY, 0, STATIC
        REQUIRE ?V0
        MOV       A,#-0x9
        LCALL     ?BANKED_ENTER_XDATA
          CFI DPH0 load(1, XDATA, add(CFA_XSP16, literal(-1)))
          CFI DPL0 load(1, XDATA, add(CFA_XSP16, literal(-2)))
          CFI ?BRET_EXT load(1, XDATA, add(CFA_XSP16, literal(-3)))
          CFI ?RET_HIGH load(1, XDATA, add(CFA_XSP16, literal(-4)))
          CFI ?RET_LOW load(1, XDATA, add(CFA_XSP16, literal(-5)))
          CFI R7 load(1, XDATA, add(CFA_XSP16, literal(-6)))
          CFI V0 load(1, XDATA, add(CFA_XSP16, literal(-7)))
          CFI VB load(1, XDATA, add(CFA_XSP16, literal(-8)))
          CFI R6 load(1, XDATA, add(CFA_XSP16, literal(-9)))
          CFI CFA_SP SP+0
          CFI CFA_XSP16 add(XSP16, 9)
        ; Saved register size: 9
        ; Auto size: 0
//  378   uint16 addr;
//  379   
//  380   pBuf += MT_RPC_FRAME_HDR_SZ;
//  381   addr = osal_build_uint16(pBuf);
//  382   
//  383   // Do address conflict resolution
//  384   NLME_SendNetworkStatus( NWK_BROADCAST_SHORTADDR_DEVRXON,
//  385                       addr, NWKSTAT_ADDRESS_CONFLICT, TRUE );
        ; Setup parameters for call to function NLME_SendNetworkStatus
        MOV       ?V0,#0x1
        MOV       R0,#?V0
        LCALL     ?PUSH_XSTACK_I_ONE
          CFI CFA_XSP16 add(XSP16, 10)
        ; Setup parameters for call to function osal_build_uint16
        MOV       A,R2
        ADD       A,#0x3
        MOV       R2,A
        JNC       ??MT_GPAddressConflict_0
        INC       R3
??MT_GPAddressConflict_0:
        LCALL     `??osal_build_uint16::?relay`; Banked call to: osal_build_uint16
        MOV       A,R2
        MOV       R4,A
        MOV       A,R3
        MOV       R5,A
        MOV       R1,#0xd
        MOV       R2,#-0x3
        MOV       R3,#-0x1
        LCALL     `??NLME_SendNetworkStatus::?relay`; Banked call to: NLME_SendNetworkStatus
        MOV       A,#0x1
        LCALL     ?DEALLOC_XSTACK8
          CFI CFA_XSP16 add(XSP16, 9)
//  386 }
        MOV       R7,#0x1
        LJMP      ?BANKED_LEAVE_XDATA
          CFI EndBlock cfiBlock181

        RSEG BANK_RELAYS:CODE:REORDER:NOROOT(0)
`??MT_GpCommandProcessing::?relay`:
        CODE
        LCALL   ?BDISPATCH
        DATA24
        DC24    MT_GpCommandProcessing

        RSEG BANK_RELAYS:CODE:REORDER:NOROOT(0)
`??MT_GpDataReq::?relay`:
        CODE
        LCALL   ?BDISPATCH
        DATA24
        DC24    MT_GpDataReq

        RSEG BANK_RELAYS:CODE:REORDER:NOROOT(0)
`??MT_GpSecRsp::?relay`:
        CODE
        LCALL   ?BDISPATCH
        DATA24
        DC24    MT_GpSecRsp

        RSEG BANK_RELAYS:CODE:REORDER:NOROOT(0)
`??MT_GPDataInd::?relay`:
        CODE
        LCALL   ?BDISPATCH
        DATA24
        DC24    MT_GPDataInd

        RSEG BANK_RELAYS:CODE:REORDER:NOROOT(0)
`??MT_GPDataCnf::?relay`:
        CODE
        LCALL   ?BDISPATCH
        DATA24
        DC24    MT_GPDataCnf

        RSEG BANK_RELAYS:CODE:REORDER:NOROOT(0)
`??MT_GPSecReq::?relay`:
        CODE
        LCALL   ?BDISPATCH
        DATA24
        DC24    MT_GPSecReq

        RSEG BANK_RELAYS:CODE:REORDER:NOROOT(0)
`??MT_GPAddressConflict::?relay`:
        CODE
        LCALL   ?BDISPATCH
        DATA24
        DC24    MT_GPAddressConflict

        END
//  387 
// 
// 1 852 bytes in segment BANKED_CODE
//    42 bytes in segment BANK_RELAYS
// 
//    42 bytes of CODE     memory
// 1 852 bytes of HUGECODE memory
//
//Errors: none
//Warnings: none
