///////////////////////////////////////////////////////////////////////////////
//
// IAR C/C++ Compiler V10.40.1.7397 for 8051              01/May/2021  14:31:21
// Copyright 2004-2021 IAR Systems AB.
//
//    Core               =  plain
//    Code model         =  banked
//    Data model         =  large
//    Calling convention =  xdata reentrant
//    Constant location  =  data_rom
//    Dptr setup         =  1,16
//                          
//    Source file        =  
//        E:\Texas Instruments\Z-Stack
//        3.0.2\Components\mac\low_level\srf04\mac_rx.c
//    Command line       =  
//        -f C:\Users\asus\AppData\Local\Temp\EW3AC3.tmp ("E:\Texas
//        Instruments\Z-Stack 3.0.2\Components\mac\low_level\srf04\mac_rx.c" -D
//        BDB_FINDING_BINDING_CAPABILITY_ENABLED=0 -D TC_LINKKEY_JOIN -D
//        HAL_UART_DMA_RX_MAX=128 -D MAXMEMHEAP=2765 -D NWK_MAX_DEVICE_LIST=10
//        -D ZDSECMGR_TC_DEVICE_MAX=30 -D DISABLE_GREENPOWER_BASIC_PROXY -D
//        POWER_SAVING -D FEATURE_SYSTEM_STATS -D MT_GP_CB_FUNC -D ASSERT_RESET
//        -D MAKE_CRC_SHDW -lC "E:\Texas Instruments\Z-Stack
//        3.0.2\Projects\zstack\ZNP\CC253x\CC2530-ZNP-without-SBL\List" -lA
//        "E:\Texas Instruments\Z-Stack
//        3.0.2\Projects\zstack\ZNP\CC253x\CC2530-ZNP-without-SBL\List"
//        --diag_suppress Pe001,Pa010 -o "E:\Texas Instruments\Z-Stack
//        3.0.2\Projects\zstack\ZNP\CC253x\CC2530-ZNP-without-SBL\Obj" -e
//        --debug --core=plain --dptr=16,1 --data_model=large
//        --code_model=banked --calling_convention=xdata_reentrant
//        --place_constants=data_rom --nr_virtual_regs 16 -f "E:\Texas
//        Instruments\Z-Stack
//        3.0.2\Projects\zstack\ZNP\CC253x\..\Source\znp.cfg"
//        (-DMAC_CFG_APP_PENDING_QUEUE=TRUE
//        "-DZSTACK_DEVICE_BUILD=(DEVICE_BUILD_COORDINATOR |
//        DEVICE_BUILD_ROUTER | DEVICE_BUILD_ENDDEVICE)" -DNWK_AUTO_POLL
//        -DZNP_RUN_WDOG=FALSE -DZNP_UART_BAUD=HAL_UART_BR_115200 -DZIGBEEPRO
//        -DZIGBEE_FRAGMENTATION -DINTER_PAN -DOSAL_CLOCK -DOSAL_SAPI=FALSE
//        -DSAPI_CB_FUNC=FALSE -DHOLD_AUTO_START -DNV_RESTORE -DNV_INIT
//        -DNUM_DISC_ATTEMPTS=0 -DMT_UTIL_FUNC -DMT_SYS_FUNC -DMT_AF_FUNC
//        -DMT_SAPI_FUNC -DMT_SAPI_CB_FUNC -DMT_ZDO_CB_FUNC -DMT_ZDO_FUNC
//        -DMT_ZDO_MGMT -DMT_ZDO_EXTENSIONS -DMT_GP_CB_FUNC -DMT_APP_FUNC
//        -DMT_APP_CNF_FUNC) -f "E:\Texas Instruments\Z-Stack
//        3.0.2\Projects\zstack\ZNP\CC253x\..\..\Tools\CC2530DB\f8wConfig.cfg"
//        (-DZIGBEEPRO -DSECURE=1 -DZG_SECURE_DYNAMIC=0 -DREFLECTOR
//        -DDEFAULT_CHANLIST=0x00000800 -DZDAPP_CONFIG_PAN_ID=0xFFFF
//        -DNWK_START_DELAY=100 -DEXTENDED_JOINING_RANDOM_MASK=0x007F
//        -DBEACON_REQUEST_DELAY=100 -DBEACON_REQ_DELAY_MASK=0x00FF
//        -DLINK_STATUS_JITTER_MASK=0x007F -DROUTE_EXPIRY_TIME=30
//        -DAPSC_ACK_WAIT_DURATION_POLLED=3000 -DNWK_INDIRECT_MSG_TIMEOUT=7
//        -DMAX_RREQ_ENTRIES=8 -DAPSC_MAX_FRAME_RETRIES=3
//        -DNWK_MAX_DATA_RETRIES=2 -DMAX_POLL_FAILURE_RETRIES=2 -DMAX_BCAST=9
//        -DAPS_MAX_GROUPS=16 -DMAX_RTG_ENTRIES=40 -DNWK_MAX_BINDING_ENTRIES=4
//        -DMAX_BINDING_CLUSTER_IDS=4 -DDEFAULT_KEY={0}
//        -DMAC_MAX_FRAME_SIZE=116 -DZDNWKMGR_MIN_TRANSMISSIONS=20
//        "-DCONST=const __code" -DGENERIC=__generic -DRFD_RCVC_ALWAYS_ON=FALSE
//        -DPOLL_RATE=1000 -DQUEUED_POLL_RATE=100 -DRESPONSE_POLL_RATE=100
//        -DREJOIN_POLL_RATE=440 -DREJOIN_BACKOFF=900000 -DREJOIN_SCAN=900000
//        -DENABLE_LED4_DISABLE_S1) -f "E:\Texas Instruments\Z-Stack
//        3.0.2\Projects\zstack\ZNP\CC253x\..\..\Tools\CC2530DB\f8wZCL.cfg" -I
//        "E:\Texas Instruments\Z-Stack 3.0.2\Projects\zstack\ZNP\CC253x\" -I
//        "E:\Texas Instruments\Z-Stack
//        3.0.2\Projects\zstack\ZNP\CC253x\Source\" -I "E:\Texas
//        Instruments\Z-Stack 3.0.2\Projects\zstack\ZNP\CC253x\..\Source\" -I
//        "E:\Texas Instruments\Z-Stack
//        3.0.2\Projects\zstack\ZNP\CC253x\..\..\SE\Source\" -I "E:\Texas
//        Instruments\Z-Stack
//        3.0.2\Projects\zstack\ZNP\CC253x\..\..\Utilities\BootLoad\Source\" -I
//        "E:\Texas Instruments\Z-Stack
//        3.0.2\Projects\zstack\ZNP\CC253x\..\..\ZMain\TI2530ZNP\" -I "E:\Texas
//        Instruments\Z-Stack
//        3.0.2\Projects\zstack\ZNP\CC253x\..\..\..\..\Components\hal\include\"
//        -I "E:\Texas Instruments\Z-Stack
//        3.0.2\Projects\zstack\ZNP\CC253x\..\..\..\..\Components\hal\target\CC2530ZNP\"
//        -I "E:\Texas Instruments\Z-Stack
//        3.0.2\Projects\zstack\ZNP\CC253x\..\..\..\..\Components\mac\include\"
//        -I "E:\Texas Instruments\Z-Stack
//        3.0.2\Projects\zstack\ZNP\CC253x\..\..\..\..\Components\mac\high_level\"
//        -I "E:\Texas Instruments\Z-Stack
//        3.0.2\Projects\zstack\ZNP\CC253x\..\..\..\..\Components\mac\low_level\srf04\"
//        -I "E:\Texas Instruments\Z-Stack
//        3.0.2\Projects\zstack\ZNP\CC253x\..\..\..\..\Components\mac\low_level\srf04\single_chip\"
//        -I "E:\Texas Instruments\Z-Stack
//        3.0.2\Projects\zstack\ZNP\CC253x\..\..\..\..\Components\mt\" -I
//        "E:\Texas Instruments\Z-Stack
//        3.0.2\Projects\zstack\ZNP\CC253x\..\..\..\..\Components\osal\include\"
//        -I "E:\Texas Instruments\Z-Stack
//        3.0.2\Projects\zstack\ZNP\CC253x\..\..\..\..\Components\services\ecc\binary163\"
//        -I "E:\Texas Instruments\Z-Stack
//        3.0.2\Projects\zstack\ZNP\CC253x\..\..\..\..\Components\services\ecc\binary283\"
//        -I "E:\Texas Instruments\Z-Stack
//        3.0.2\Projects\zstack\ZNP\CC253x\..\..\..\..\Components\services\saddr\"
//        -I "E:\Texas Instruments\Z-Stack
//        3.0.2\Projects\zstack\ZNP\CC253x\..\..\..\..\Components\services\sdata\"
//        -I "E:\Texas Instruments\Z-Stack
//        3.0.2\Projects\zstack\ZNP\CC253x\..\..\..\..\Components\stack\af\" -I
//        "E:\Texas Instruments\Z-Stack
//        3.0.2\Projects\zstack\ZNP\CC253x\..\..\..\..\Components\stack\gp\" -I
//        "E:\Texas Instruments\Z-Stack
//        3.0.2\Projects\zstack\ZNP\CC253x\..\..\..\..\Components\stack\bdb\"
//        -I "E:\Texas Instruments\Z-Stack
//        3.0.2\Projects\zstack\ZNP\CC253x\..\..\..\..\Components\stack\nwk\"
//        -I "E:\Texas Instruments\Z-Stack
//        3.0.2\Projects\zstack\ZNP\CC253x\..\..\..\..\Components\stack\sapi\"
//        -I "E:\Texas Instruments\Z-Stack
//        3.0.2\Projects\zstack\ZNP\CC253x\..\..\..\..\Components\stack\sec\"
//        -I "E:\Texas Instruments\Z-Stack
//        3.0.2\Projects\zstack\ZNP\CC253x\..\..\..\..\Components\stack\sys\"
//        -I "E:\Texas Instruments\Z-Stack
//        3.0.2\Projects\zstack\ZNP\CC253x\..\..\..\..\Components\stack\zcl\"
//        -I "E:\Texas Instruments\Z-Stack
//        3.0.2\Projects\zstack\ZNP\CC253x\..\..\..\..\Components\stack\zdo\"
//        -I "E:\Texas Instruments\Z-Stack
//        3.0.2\Projects\zstack\ZNP\CC253x\..\..\..\..\Components\zmac\" -I
//        "E:\Texas Instruments\Z-Stack
//        3.0.2\Projects\zstack\ZNP\CC253x\..\..\..\..\Components\zmac\f8w\"
//        -Ohz --require_prototypes --no_code_motion)
//    Locale             =  English_USA.1252
//    List file          =  
//        E:\Texas Instruments\Z-Stack
//        3.0.2\Projects\zstack\ZNP\CC253x\CC2530-ZNP-without-SBL\List\mac_rx.s51
//
///////////////////////////////////////////////////////////////////////////////

        NAME mac_rx

        RTMODEL "__SystemLibrary", "CLib"
        RTMODEL "__calling_convention", "xdata_reentrant"
        RTMODEL "__code_model", "banked"
        RTMODEL "__core", "plain"
        RTMODEL "__data_model", "large"
        RTMODEL "__dptr_size", "16"
        RTMODEL "__extended_stack", "disabled"
        RTMODEL "__location_for_constants", "data"
        RTMODEL "__number_of_dptrs", "1"
        RTMODEL "__register_banks", "*"
        RTMODEL "__rt_version", "1"

        RSEG DOVERLAY:DATA:NOROOT(0)
        RSEG IOVERLAY:IDATA:NOROOT(0)
        RSEG ISTACK:IDATA:NOROOT(0)
        RSEG PSTACK:XDATA:NOROOT(0)
        RSEG XSTACK:XDATA:NOROOT(0)

        EXTERN ?V0
        EXTERN ?V1
        EXTERN ?V2
        EXTERN ?V3
        EXTERN ?V4
        EXTERN ?V5
        EXTERN ?V6
        EXTERN ?ALLOC_XSTACK8
        EXTERN ?BANKED_ENTER_XDATA
        EXTERN ?BANKED_LEAVE_XDATA
        EXTERN ?BDISPATCH
        EXTERN ?BRET
        EXTERN ?CALL_IND
        EXTERN ?DEALLOC_XSTACK8
        EXTERN ?L_MOV_TO_X
        EXTERN ?PUSH_XSTACK_I_THREE
        EXTERN ?XSP
        EXTERN ?XSTACK_DISP0_8
        EXTERN __INIT_XDATA_Z

        PUBLIC `??macRxAckTxDoneCallback::?relay`
        FUNCTION `??macRxAckTxDoneCallback::?relay`,0203H
        PUBLIC `??macRxFifoOverflowIsr::?relay`
        FUNCTION `??macRxFifoOverflowIsr::?relay`,0203H
        PUBLIC `??macRxHaltCleanup::?relay`
        FUNCTION `??macRxHaltCleanup::?relay`,0203H
        PUBLIC `??macRxInit::?relay`
        FUNCTION `??macRxInit::?relay`,0203H
        PUBLIC `??macRxPromiscuousMode::?relay`
        FUNCTION `??macRxPromiscuousMode::?relay`,0203H
        PUBLIC `??macRxRadioPowerUpInit::?relay`
        FUNCTION `??macRxRadioPowerUpInit::?relay`,0203H
        PUBLIC `??macRxThresholdIsr::?relay`
        FUNCTION `??macRxThresholdIsr::?relay`,0203H
        PUBLIC `??macRxTxReset::?relay`
        FUNCTION `??macRxTxReset::?relay`,0203H
        FUNCTION `??rxAddrIsr::?relay`,0203H
        FUNCTION `??rxDiscardFrame::?relay`,0203H
        FUNCTION `??rxDiscardIsr::?relay`,0203H
        FUNCTION `??rxDone::?relay`,0203H
        FUNCTION `??rxFcsIsr::?relay`,0203H
        FUNCTION `??rxHaltCleanupFinalStep::?relay`,0203H
        FUNCTION `??rxPayloadIsr::?relay`,0203H
        FUNCTION `??rxPostRxUpdates::?relay`,0203H
        FUNCTION `??rxPrepPayload::?relay`,0203H
        FUNCTION `??rxStartIsr::?relay`,0203H
        PUBWEAK RFIRQF0
        PUBWEAK RFIRQF1
        PUBWEAK RFST
        PUBWEAK S1CON
        PUBWEAK _A_IEN0
        PUBLIC macRxAckTxDoneCallback
        FUNCTION macRxAckTxDoneCallback,021203H
        ARGFRAME XSTACK, 0, STACK
        LOCFRAME ISTACK, 2, STACK
        PUBLIC macRxActive
        PUBLIC macRxFifoOverflowIsr
        FUNCTION macRxFifoOverflowIsr,021203H
        ARGFRAME XSTACK, 0, STACK
        LOCFRAME ISTACK, 2, STACK
        PUBLIC macRxFilter
        PUBLIC macRxHaltCleanup
        FUNCTION macRxHaltCleanup,021203H
        ARGFRAME XSTACK, 0, STACK
        ARGFRAME IOVERLAY, 0, STATIC
        ARGFRAME DOVERLAY, 0, STATIC
        LOCFRAME ISTACK, 2, STACK
        PUBLIC macRxInit
        FUNCTION macRxInit,0203H
        ARGFRAME XSTACK, 0, STACK
        LOCFRAME ISTACK, 2, STACK
        PUBLIC macRxOutgoingAckFlag
        PUBLIC macRxPromiscuousMode
        FUNCTION macRxPromiscuousMode,021203H
        ARGFRAME XSTACK, 0, STACK
        ARGFRAME IOVERLAY, 0, STATIC
        ARGFRAME DOVERLAY, 0, STATIC
        LOCFRAME XSTACK, 9, STACK
        PUBLIC macRxRadioPowerUpInit
        FUNCTION macRxRadioPowerUpInit,0203H
        ARGFRAME XSTACK, 0, STACK
        LOCFRAME ISTACK, 2, STACK
        PUBLIC macRxThresholdIsr
        FUNCTION macRxThresholdIsr,021203H
        ARGFRAME XSTACK, 0, STACK
        LOCFRAME ISTACK, 2, STACK
        PUBLIC macRxTxReset
        FUNCTION macRxTxReset,021203H
        ARGFRAME XSTACK, 0, STACK
        LOCFRAME ISTACK, 2, STACK
        FUNCTION rxAddrIsr,0a1603H
        ARGFRAME XSTACK, 0, STACK
        LOCFRAME XSTACK, 30, STACK
        FUNCTION rxDiscardFrame,021203H
        ARGFRAME XSTACK, 17, STACK
        ARGFRAME IOVERLAY, 0, STATIC
        ARGFRAME DOVERLAY, 0, STATIC
        LOCFRAME ISTACK, 2, STACK
        FUNCTION rxDiscardIsr,021603H
        ARGFRAME XSTACK, 0, STACK
        LOCFRAME ISTACK, 2, STACK
        LOCFRAME XSTACK, 16, STACK
        FUNCTION rxDone,021203H
        ARGFRAME XSTACK, 17, STACK
        ARGFRAME IOVERLAY, 0, STATIC
        ARGFRAME DOVERLAY, 0, STATIC
        LOCFRAME ISTACK, 2, STACK
        FUNCTION rxFcsIsr,0a1603H
        ARGFRAME XSTACK, 0, STACK
        LOCFRAME ISTACK, 1, STACK
        LOCFRAME XSTACK, 10, STACK
        FUNCTION rxHaltCleanupFinalStep,021203H
        ARGFRAME XSTACK, 0, STACK
        ARGFRAME IOVERLAY, 0, STATIC
        ARGFRAME DOVERLAY, 0, STATIC
        LOCFRAME ISTACK, 2, STACK
        FUNCTION rxPayloadIsr,021603H
        ARGFRAME XSTACK, 0, STACK
        LOCFRAME ISTACK, 2, STACK
        FUNCTION rxPostRxUpdates,021203H
        ARGFRAME XSTACK, 17, STACK
        ARGFRAME IOVERLAY, 0, STATIC
        ARGFRAME DOVERLAY, 0, STATIC
        LOCFRAME ISTACK, 2, STACK
        FUNCTION rxPrepPayload,0203H
        ARGFRAME XSTACK, 30, STACK
        ARGFRAME IOVERLAY, 0, STATIC
        ARGFRAME DOVERLAY, 0, STATIC
        LOCFRAME ISTACK, 2, STACK
        FUNCTION rxStartIsr,0a1603H
        ARGFRAME XSTACK, 0, STACK
        LOCFRAME ISTACK, 1, STACK
        LOCFRAME XSTACK, 20, STACK
        
          CFI Names cfiNames0
          CFI StackFrame CFA_SP SP IDATA
          CFI StackFrame CFA_PSP16 PSP16 XDATA
          CFI StackFrame CFA_XSP16 XSP16 XDATA
          CFI StaticOverlayFrame CFA_IOVERLAY IOVERLAY
          CFI StaticOverlayFrame CFA_DOVERLAY DOVERLAY
          CFI Resource `PSW.CY`:1, `B.BR0`:1, `B.BR1`:1, `B.BR2`:1, `B.BR3`:1
          CFI Resource `B.BR4`:1, `B.BR5`:1, `B.BR6`:1, `B.BR7`:1, `VB.BR8`:1
          CFI Resource `VB.BR9`:1, `VB.BR10`:1, `VB.BR11`:1, `VB.BR12`:1
          CFI Resource `VB.BR13`:1, `VB.BR14`:1, `VB.BR15`:1, VB:8, B:8, A:8
          CFI Resource PSW:8, DPL0:8, DPH0:8, R0:8, R1:8, R2:8, R3:8, R4:8, R5:8
          CFI Resource R6:8, R7:8, V0:8, V1:8, V2:8, V3:8, V4:8, V5:8, V6:8, V7:8
          CFI Resource V8:8, V9:8, V10:8, V11:8, V12:8, V13:8, V14:8, V15:8, SP:8
          CFI Resource PSPH:8, PSPL:8, PSP16:16, XSPH:8, XSPL:8, XSP16:16
          CFI VirtualResource ?RET:24
          CFI Resource ?BRET_EXT:8
          CFI VirtualResource ?RET_HIGH:8, ?RET_LOW:8
          CFI ResourceParts PSP16 PSPH, PSPL
          CFI ResourceParts XSP16 XSPH, XSPL
          CFI ResourceParts ?RET ?BRET_EXT, ?RET_HIGH, ?RET_LOW
          CFI EndNames cfiNames0
        
          CFI Common cfiCommon0 Using cfiNames0
          CFI CodeAlign 1
          CFI DataAlign -1
          CFI ReturnAddress ?RET CODE
          CFI CFA_DOVERLAY Used
          CFI CFA_IOVERLAY Used
          CFI CFA_SP SP+-3
          CFI CFA_PSP16 PSP16+0
          CFI CFA_XSP16 XSP16+0
          CFI `PSW.CY` SameValue
          CFI `B.BR0` SameValue
          CFI `B.BR1` SameValue
          CFI `B.BR2` SameValue
          CFI `B.BR3` SameValue
          CFI `B.BR4` SameValue
          CFI `B.BR5` SameValue
          CFI `B.BR6` SameValue
          CFI `B.BR7` SameValue
          CFI `VB.BR8` SameValue
          CFI `VB.BR9` SameValue
          CFI `VB.BR10` SameValue
          CFI `VB.BR11` SameValue
          CFI `VB.BR12` SameValue
          CFI `VB.BR13` SameValue
          CFI `VB.BR14` SameValue
          CFI `VB.BR15` SameValue
          CFI VB SameValue
          CFI B Undefined
          CFI A Undefined
          CFI PSW SameValue
          CFI DPL0 SameValue
          CFI DPH0 SameValue
          CFI R0 Undefined
          CFI R1 Undefined
          CFI R2 Undefined
          CFI R3 Undefined
          CFI R4 Undefined
          CFI R5 Undefined
          CFI R6 SameValue
          CFI R7 SameValue
          CFI V0 SameValue
          CFI V1 SameValue
          CFI V2 SameValue
          CFI V3 SameValue
          CFI V4 SameValue
          CFI V5 SameValue
          CFI V6 SameValue
          CFI V7 SameValue
          CFI V8 SameValue
          CFI V9 SameValue
          CFI V10 SameValue
          CFI V11 SameValue
          CFI V12 SameValue
          CFI V13 SameValue
          CFI V14 SameValue
          CFI V15 SameValue
          CFI PSPH Undefined
          CFI PSPL Undefined
          CFI XSPH Undefined
          CFI XSPL Undefined
          CFI ?RET Concat
          CFI ?BRET_EXT Frame(CFA_SP, 3)
          CFI ?RET_HIGH Frame(CFA_SP, 2)
          CFI ?RET_LOW Frame(CFA_SP, 1)
          CFI EndCommon cfiCommon0
        
        
          CFI Common cfiCommon1 Using cfiNames0
          CFI CodeAlign 1
          CFI DataAlign -1
          CFI ReturnAddress ?RET CODE
          CFI CFA_DOVERLAY Used
          CFI CFA_IOVERLAY Used
          CFI CFA_SP SP+-2
          CFI CFA_PSP16 PSP16+0
          CFI CFA_XSP16 XSP16+0
          CFI `PSW.CY` SameValue
          CFI `B.BR0` SameValue
          CFI `B.BR1` SameValue
          CFI `B.BR2` SameValue
          CFI `B.BR3` SameValue
          CFI `B.BR4` SameValue
          CFI `B.BR5` SameValue
          CFI `B.BR6` SameValue
          CFI `B.BR7` SameValue
          CFI `VB.BR8` SameValue
          CFI `VB.BR9` SameValue
          CFI `VB.BR10` SameValue
          CFI `VB.BR11` SameValue
          CFI `VB.BR12` SameValue
          CFI `VB.BR13` SameValue
          CFI `VB.BR14` SameValue
          CFI `VB.BR15` SameValue
          CFI VB SameValue
          CFI B SameValue
          CFI A SameValue
          CFI PSW SameValue
          CFI DPL0 SameValue
          CFI DPH0 SameValue
          CFI R0 SameValue
          CFI R1 SameValue
          CFI R2 SameValue
          CFI R3 SameValue
          CFI R4 SameValue
          CFI R5 SameValue
          CFI R6 SameValue
          CFI R7 SameValue
          CFI V0 SameValue
          CFI V1 SameValue
          CFI V2 SameValue
          CFI V3 SameValue
          CFI V4 SameValue
          CFI V5 SameValue
          CFI V6 SameValue
          CFI V7 SameValue
          CFI V8 SameValue
          CFI V9 SameValue
          CFI V10 SameValue
          CFI V11 SameValue
          CFI V12 SameValue
          CFI V13 SameValue
          CFI V14 SameValue
          CFI V15 SameValue
          CFI PSPH Undefined
          CFI PSPL Undefined
          CFI XSPH Undefined
          CFI XSPL Undefined
          CFI ?RET Concat
          CFI ?BRET_EXT SameValue
          CFI ?RET_HIGH Frame(CFA_SP, 2)
          CFI ?RET_LOW Frame(CFA_SP, 1)
          CFI EndCommon cfiCommon1
        
MAC_SrcMatchCheckAllPending SYMBOL "MAC_SrcMatchCheckAllPending"
`??MAC_SrcMatchCheckAllPending::?relay` SYMBOL "?relay", MAC_SrcMatchCheckAllPending
MAC_SrcMatchCheckResult SYMBOL "MAC_SrcMatchCheckResult"
`??MAC_SrcMatchCheckResult::?relay` SYMBOL "?relay", MAC_SrcMatchCheckResult
halAssertHandler    SYMBOL "halAssertHandler"
`??halAssertHandler::?relay` SYMBOL "?relay", halAssertHandler
macCspForceTxDoneIfPending SYMBOL "macCspForceTxDoneIfPending"
`??macCspForceTxDoneIfPending::?relay` SYMBOL "?relay", macCspForceTxDoneIfPending
macDataRxMemAlloc   SYMBOL "macDataRxMemAlloc"
`??macDataRxMemAlloc::?relay` SYMBOL "?relay", macDataRxMemAlloc
macDataRxMemFree    SYMBOL "macDataRxMemFree"
`??macDataRxMemFree::?relay` SYMBOL "?relay", macDataRxMemFree
macLowLevelDiags    SYMBOL "macLowLevelDiags"
`??macLowLevelDiags::?relay` SYMBOL "?relay", macLowLevelDiags
macMcuOverflowCapture SYMBOL "macMcuOverflowCapture"
`??macMcuOverflowCapture::?relay` SYMBOL "?relay", macMcuOverflowCapture
macMcuTimerCapture  SYMBOL "macMcuTimerCapture"
`??macMcuTimerCapture::?relay` SYMBOL "?relay", macMcuTimerCapture
macMemReadRxFifo    SYMBOL "macMemReadRxFifo"
`??macMemReadRxFifo::?relay` SYMBOL "?relay", macMemReadRxFifo
macRadioComputeLQI  SYMBOL "macRadioComputeLQI"
`??macRadioComputeLQI::?relay` SYMBOL "?relay", macRadioComputeLQI
macRadioUpdateTxPower SYMBOL "macRadioUpdateTxPower"
`??macRadioUpdateTxPower::?relay` SYMBOL "?relay", macRadioUpdateTxPower
macRxCheckMACPendingCallback SYMBOL "macRxCheckMACPendingCallback"
`??macRxCheckMACPendingCallback::?relay` SYMBOL "?relay", macRxCheckMACPendingCallback
macRxCheckPendingCallback SYMBOL "macRxCheckPendingCallback"
`??macRxCheckPendingCallback::?relay` SYMBOL "?relay", macRxCheckPendingCallback
macRxCompleteCallback SYMBOL "macRxCompleteCallback"
`??macRxCompleteCallback::?relay` SYMBOL "?relay", macRxCompleteCallback
macRxHardDisable    SYMBOL "macRxHardDisable"
`??macRxHardDisable::?relay` SYMBOL "?relay", macRxHardDisable
macRxOffRequest     SYMBOL "macRxOffRequest"
`??macRxOffRequest::?relay` SYMBOL "?relay", macRxOffRequest
macTxAckNotReceivedCallback SYMBOL "macTxAckNotReceivedCallback"
`??macTxAckNotReceivedCallback::?relay` SYMBOL "?relay", macTxAckNotReceivedCallback
macTxAckReceivedCallback SYMBOL "macTxAckReceivedCallback"
`??macTxAckReceivedCallback::?relay` SYMBOL "?relay", macTxAckReceivedCallback
macTxStartQueuedFrame SYMBOL "macTxStartQueuedFrame"
`??macTxStartQueuedFrame::?relay` SYMBOL "?relay", macTxStartQueuedFrame
osal_memcpy         SYMBOL "osal_memcpy"
`??osal_memcpy::?relay` SYMBOL "?relay", osal_memcpy
sAddrExtCpy         SYMBOL "sAddrExtCpy"
`??sAddrExtCpy::?relay` SYMBOL "?relay", sAddrExtCpy
macRxAckTxDoneCallback SYMBOL "macRxAckTxDoneCallback"
`??macRxAckTxDoneCallback::?relay` SYMBOL "?relay", macRxAckTxDoneCallback
macRxFifoOverflowIsr SYMBOL "macRxFifoOverflowIsr"
`??macRxFifoOverflowIsr::?relay` SYMBOL "?relay", macRxFifoOverflowIsr
macRxHaltCleanup    SYMBOL "macRxHaltCleanup"
`??macRxHaltCleanup::?relay` SYMBOL "?relay", macRxHaltCleanup
macRxInit           SYMBOL "macRxInit"
`??macRxInit::?relay` SYMBOL "?relay", macRxInit
macRxPromiscuousMode SYMBOL "macRxPromiscuousMode"
`??macRxPromiscuousMode::?relay` SYMBOL "?relay", macRxPromiscuousMode
macRxRadioPowerUpInit SYMBOL "macRxRadioPowerUpInit"
`??macRxRadioPowerUpInit::?relay` SYMBOL "?relay", macRxRadioPowerUpInit
macRxThresholdIsr   SYMBOL "macRxThresholdIsr"
`??macRxThresholdIsr::?relay` SYMBOL "?relay", macRxThresholdIsr
macRxTxReset        SYMBOL "macRxTxReset"
`??macRxTxReset::?relay` SYMBOL "?relay", macRxTxReset

        EXTERN `??MAC_SrcMatchCheckAllPending::?relay`
        FUNCTION `??MAC_SrcMatchCheckAllPending::?relay`,00H
        EXTERN `??MAC_SrcMatchCheckResult::?relay`
        FUNCTION `??MAC_SrcMatchCheckResult::?relay`,00H
        EXTERN `??halAssertHandler::?relay`
        FUNCTION `??halAssertHandler::?relay`,00H
        EXTERN `??macCspForceTxDoneIfPending::?relay`
        FUNCTION `??macCspForceTxDoneIfPending::?relay`,00H
        EXTERN `??macDataRxMemAlloc::?relay`
        FUNCTION `??macDataRxMemAlloc::?relay`,00H
        EXTERN `??macDataRxMemFree::?relay`
        FUNCTION `??macDataRxMemFree::?relay`,00H
        EXTERN `??macLowLevelDiags::?relay`
        FUNCTION `??macLowLevelDiags::?relay`,00H
        EXTERN `??macMcuOverflowCapture::?relay`
        FUNCTION `??macMcuOverflowCapture::?relay`,00H
        EXTERN `??macMcuTimerCapture::?relay`
        FUNCTION `??macMcuTimerCapture::?relay`,00H
        EXTERN `??macMemReadRxFifo::?relay`
        FUNCTION `??macMemReadRxFifo::?relay`,00H
        EXTERN `??macRadioComputeLQI::?relay`
        FUNCTION `??macRadioComputeLQI::?relay`,00H
        EXTERN `??macRadioUpdateTxPower::?relay`
        FUNCTION `??macRadioUpdateTxPower::?relay`,00H
        EXTERN `??macRxCheckMACPendingCallback::?relay`
        FUNCTION `??macRxCheckMACPendingCallback::?relay`,00H
        EXTERN `??macRxCheckPendingCallback::?relay`
        FUNCTION `??macRxCheckPendingCallback::?relay`,00H
        EXTERN `??macRxCompleteCallback::?relay`
        FUNCTION `??macRxCompleteCallback::?relay`,00H
        EXTERN `??macRxHardDisable::?relay`
        FUNCTION `??macRxHardDisable::?relay`,00H
        EXTERN `??macRxOffRequest::?relay`
        FUNCTION `??macRxOffRequest::?relay`,00H
        EXTERN `??macTxAckNotReceivedCallback::?relay`
        FUNCTION `??macTxAckNotReceivedCallback::?relay`,00H
        EXTERN `??macTxAckReceivedCallback::?relay`
        FUNCTION `??macTxAckReceivedCallback::?relay`,00H
        EXTERN `??macTxStartQueuedFrame::?relay`
        FUNCTION `??macTxStartQueuedFrame::?relay`,00H
        EXTERN `??osal_memcpy::?relay`
        FUNCTION `??osal_memcpy::?relay`,00H
        EXTERN `??sAddrExtCpy::?relay`
        FUNCTION `??sAddrExtCpy::?relay`,00H
        EXTERN MAC_SrcMatchCheckAllPending
        FUNCTION MAC_SrcMatchCheckAllPending,0202H
        ARGFRAME ISTACK, 0, STACK
        ARGFRAME PSTACK, 0, STACK
        ARGFRAME XSTACK, 17, STACK
        ARGFRAME IOVERLAY, 0, STATIC
        ARGFRAME DOVERLAY, 0, STATIC
        EXTERN MAC_SrcMatchCheckResult
        FUNCTION MAC_SrcMatchCheckResult,0202H
        ARGFRAME ISTACK, 0, STACK
        ARGFRAME PSTACK, 0, STACK
        ARGFRAME XSTACK, 10, STACK
        ARGFRAME IOVERLAY, 0, STATIC
        ARGFRAME DOVERLAY, 0, STATIC
        EXTERN halAssertHandler
        FUNCTION halAssertHandler,0202H
        ARGFRAME ISTACK, 2, STACK
        ARGFRAME PSTACK, 0, STACK
        ARGFRAME XSTACK, 30, STACK
        ARGFRAME IOVERLAY, 0, STATIC
        ARGFRAME DOVERLAY, 0, STATIC
        EXTERN macChipVersion
        EXTERN macCspForceTxDoneIfPending
        FUNCTION macCspForceTxDoneIfPending,0202H
        ARGFRAME ISTACK, 0, STACK
        ARGFRAME PSTACK, 0, STACK
        ARGFRAME XSTACK, 17, STACK
        ARGFRAME IOVERLAY, 0, STATIC
        ARGFRAME DOVERLAY, 0, STATIC
        EXTERN macDataRxMemAlloc
        FUNCTION macDataRxMemAlloc,0202H
        ARGFRAME ISTACK, 0, STACK
        ARGFRAME PSTACK, 0, STACK
        ARGFRAME XSTACK, 17, STACK
        ARGFRAME IOVERLAY, 0, STATIC
        ARGFRAME DOVERLAY, 0, STATIC
        EXTERN macDataRxMemFree
        FUNCTION macDataRxMemFree,0202H
        ARGFRAME ISTACK, 2, STACK
        ARGFRAME PSTACK, 0, STACK
        ARGFRAME XSTACK, 10, STACK
        ARGFRAME IOVERLAY, 0, STATIC
        ARGFRAME DOVERLAY, 0, STATIC
        EXTERN macLowLevelDiags
        FUNCTION macLowLevelDiags,0202H
        ARGFRAME ISTACK, 0, STACK
        ARGFRAME PSTACK, 0, STACK
        ARGFRAME XSTACK, 10, STACK
        ARGFRAME IOVERLAY, 0, STATIC
        ARGFRAME DOVERLAY, 0, STATIC
        EXTERN macMcuOverflowCapture
        FUNCTION macMcuOverflowCapture,0202H
        ARGFRAME ISTACK, 0, STACK
        ARGFRAME PSTACK, 0, STACK
        ARGFRAME XSTACK, 17, STACK
        ARGFRAME IOVERLAY, 0, STATIC
        ARGFRAME DOVERLAY, 0, STATIC
        EXTERN macMcuTimerCapture
        FUNCTION macMcuTimerCapture,0202H
        ARGFRAME ISTACK, 0, STACK
        ARGFRAME PSTACK, 0, STACK
        ARGFRAME XSTACK, 17, STACK
        ARGFRAME IOVERLAY, 0, STATIC
        ARGFRAME DOVERLAY, 0, STATIC
        EXTERN macMemReadRxFifo
        FUNCTION macMemReadRxFifo,0202H
        ARGFRAME ISTACK, 2, STACK
        ARGFRAME PSTACK, 0, STACK
        ARGFRAME XSTACK, 30, STACK
        ARGFRAME IOVERLAY, 0, STATIC
        ARGFRAME DOVERLAY, 0, STATIC
        EXTERN macRadioComputeLQI
        FUNCTION macRadioComputeLQI,0202H
        ARGFRAME ISTACK, 0, STACK
        ARGFRAME PSTACK, 0, STACK
        ARGFRAME XSTACK, 17, STACK
        ARGFRAME IOVERLAY, 0, STATIC
        ARGFRAME DOVERLAY, 0, STATIC
        EXTERN macRadioUpdateTxPower
        FUNCTION macRadioUpdateTxPower,0202H
        ARGFRAME ISTACK, 2, STACK
        ARGFRAME PSTACK, 0, STACK
        ARGFRAME XSTACK, 0, STACK
        ARGFRAME IOVERLAY, 0, STATIC
        ARGFRAME DOVERLAY, 0, STATIC
        EXTERN macRxCheckMACPendingCallback
        FUNCTION macRxCheckMACPendingCallback,0202H
        ARGFRAME ISTACK, 0, STACK
        ARGFRAME PSTACK, 0, STACK
        ARGFRAME XSTACK, 17, STACK
        ARGFRAME IOVERLAY, 0, STATIC
        ARGFRAME DOVERLAY, 0, STATIC
        EXTERN macRxCheckPendingCallback
        FUNCTION macRxCheckPendingCallback,0202H
        ARGFRAME ISTACK, 0, STACK
        ARGFRAME PSTACK, 0, STACK
        ARGFRAME XSTACK, 17, STACK
        ARGFRAME IOVERLAY, 0, STATIC
        ARGFRAME DOVERLAY, 0, STATIC
        EXTERN macRxCompleteCallback
        FUNCTION macRxCompleteCallback,0202H
        ARGFRAME ISTACK, 0, STACK
        ARGFRAME PSTACK, 0, STACK
        ARGFRAME XSTACK, 10, STACK
        ARGFRAME IOVERLAY, 0, STATIC
        ARGFRAME DOVERLAY, 0, STATIC
        EXTERN macRxHardDisable
        FUNCTION macRxHardDisable,0202H
        ARGFRAME ISTACK, 2, STACK
        ARGFRAME PSTACK, 0, STACK
        ARGFRAME XSTACK, 0, STACK
        ARGFRAME IOVERLAY, 0, STATIC
        ARGFRAME DOVERLAY, 0, STATIC
        EXTERN macRxOffRequest
        FUNCTION macRxOffRequest,0202H
        ARGFRAME ISTACK, 2, STACK
        ARGFRAME PSTACK, 0, STACK
        ARGFRAME XSTACK, 10, STACK
        ARGFRAME IOVERLAY, 0, STATIC
        ARGFRAME DOVERLAY, 0, STATIC
        EXTERN macRxOnFlag
        EXTERN macSrcMatchIsEnabled
        EXTERN macTxAckNotReceivedCallback
        FUNCTION macTxAckNotReceivedCallback,0202H
        ARGFRAME ISTACK, 0, STACK
        ARGFRAME PSTACK, 0, STACK
        ARGFRAME XSTACK, 17, STACK
        ARGFRAME IOVERLAY, 0, STATIC
        ARGFRAME DOVERLAY, 0, STATIC
        EXTERN macTxAckReceivedCallback
        FUNCTION macTxAckReceivedCallback,0202H
        ARGFRAME ISTACK, 0, STACK
        ARGFRAME PSTACK, 0, STACK
        ARGFRAME XSTACK, 17, STACK
        ARGFRAME IOVERLAY, 0, STATIC
        ARGFRAME DOVERLAY, 0, STATIC
        EXTERN macTxActive
        EXTERN macTxStartQueuedFrame
        FUNCTION macTxStartQueuedFrame,0202H
        ARGFRAME ISTACK, 2, STACK
        ARGFRAME PSTACK, 0, STACK
        ARGFRAME XSTACK, 0, STACK
        ARGFRAME IOVERLAY, 0, STATIC
        ARGFRAME DOVERLAY, 0, STATIC
        EXTERN osal_memcpy
        FUNCTION osal_memcpy,0202H
        ARGFRAME ISTACK, 0, STACK
        ARGFRAME PSTACK, 0, STACK
        ARGFRAME XSTACK, 20, STACK
        ARGFRAME IOVERLAY, 0, STATIC
        ARGFRAME DOVERLAY, 0, STATIC
        EXTERN pMacDataTx
        EXTERN sAddrExtCpy
        FUNCTION sAddrExtCpy,0202H
        ARGFRAME ISTACK, 0, STACK
        ARGFRAME PSTACK, 0, STACK
        ARGFRAME XSTACK, 30, STACK
        ARGFRAME IOVERLAY, 0, STATIC
        ARGFRAME DOVERLAY, 0, STATIC

// E:\Texas Instruments\Z-Stack 3.0.2\Components\mac\low_level\srf04\mac_rx.c
//    1 /**************************************************************************************************
//    2   Filename:       mac_rx.c
//    3   Revised:        $Date: 2014-05-16 10:22:59 -0700 (Fri, 16 May 2014) $
//    4   Revision:       $Revision: 38564 $
//    5 
//    6   Description:    Describe the purpose and contents of the file.
//    7 
//    8 
//    9   Copyright 2006-2014 Texas Instruments Incorporated. All rights reserved.
//   10 
//   11   IMPORTANT: Your use of this Software is limited to those specific rights
//   12   granted under the terms of a software license agreement between the user
//   13   who downloaded the software, his/her employer (which must be your employer)
//   14   and Texas Instruments Incorporated (the "License").  You may not use this
//   15   Software unless you agree to abide by the terms of the License. The License
//   16   limits your use, and you acknowledge, that the Software may not be modified,
//   17   copied or distributed unless embedded on a Texas Instruments microcontroller
//   18   or used solely and exclusively in conjunction with a Texas Instruments radio
//   19   frequency transceiver, which is integrated into your product.  Other than for
//   20   the foregoing purpose, you may not use, reproduce, copy, prepare derivative
//   21   works of, modify, distribute, perform, display or sell this Software and/or
//   22   its documentation for any purpose.
//   23 
//   24   YOU FURTHER ACKNOWLEDGE AND AGREE THAT THE SOFTWARE AND DOCUMENTATION ARE
//   25   PROVIDED “AS IS” WITHOUT WARRANTY OF ANY KIND, EITHER EXPRESS OR IMPLIED,
//   26   INCLUDING WITHOUT LIMITATION, ANY WARRANTY OF MERCHANTABILITY, TITLE,
//   27   NON-INFRINGEMENT AND FITNESS FOR A PARTICULAR PURPOSE. IN NO EVENT SHALL
//   28   TEXAS INSTRUMENTS OR ITS LICENSORS BE LIABLE OR OBLIGATED UNDER CONTRACT,
//   29   NEGLIGENCE, STRICT LIABILITY, CONTRIBUTION, BREACH OF WARRANTY, OR OTHER
//   30   LEGAL EQUITABLE THEORY ANY DIRECT OR INDIRECT DAMAGES OR EXPENSES
//   31   INCLUDING BUT NOT LIMITED TO ANY INCIDENTAL, SPECIAL, INDIRECT, PUNITIVE
//   32   OR CONSEQUENTIAL DAMAGES, LOST PROFITS OR LOST DATA, COST OF PROCUREMENT
//   33   OF SUBSTITUTE GOODS, TECHNOLOGY, SERVICES, OR ANY CLAIMS BY THIRD PARTIES
//   34   (INCLUDING BUT NOT LIMITED TO ANY DEFENSE THEREOF), OR OTHER SIMILAR COSTS.
//   35 
//   36   Should you have any questions regarding your right to use this Software,
//   37   contact Texas Instruments Incorporated at www.TI.com.
//   38 **************************************************************************************************/
//   39 
//   40 /* ------------------------------------------------------------------------------------------------
//   41  *                                          Includes
//   42  * ------------------------------------------------------------------------------------------------
//   43  */
//   44 
//   45 /* hal */
//   46 #include "hal_defs.h"
//   47 #include "hal_types.h"
//   48 
//   49 /* OSAL */
//   50 #include "OSAL.h"
//   51 
//   52 /* high-level */
//   53 #include "mac_high_level.h"
//   54 #include "mac_spec.h"
//   55 #include "mac_pib.h"
//   56 
//   57 /* MAC security */
//   58 #include "mac_security.h"
//   59 
//   60 /* exported low-level */
//   61 #include "mac_low_level.h"
//   62 
//   63 /* low-level specific */
//   64 #include "mac_rx.h"
//   65 #include "mac_tx.h"
//   66 #include "mac_rx_onoff.h"
//   67 #include "mac_radio.h"
//   68 
//   69 /* target specific */
//   70 #include "mac_radio_defs.h"

        ASEGN SFR_AN:DATA:NOROOT,091H
// unsigned char volatile __sfr RFIRQF1
RFIRQF1:
        DATA8
        DS 1

        ASEGN SFR_AN:DATA:NOROOT,09bH
// unsigned char volatile __sfr S1CON
S1CON:
        DATA8
        DS 1

        ASEGN SFR_AN:DATA:NOROOT,0a8H
// union <unnamed> volatile __sfr _A_IEN0
_A_IEN0:
        DATA8
        DS 1

        ASEGN SFR_AN:DATA:NOROOT,0e1H
// unsigned char volatile __sfr RFST
RFST:
        DATA8
        DS 1

        ASEGN SFR_AN:DATA:NOROOT,0e9H
// unsigned char volatile __sfr RFIRQF0
RFIRQF0:
        DATA8
        DS 1
//   71 #include "mac_autopend.h"
//   72 
//   73 /* debug */
//   74 #include "mac_assert.h"
//   75 
//   76 #ifdef ACK_DONE_ISR_WORKAROUND
//   77 typedef struct macTimer_s
//   78 {
//   79   struct macTimer_s     *pNext;                     /* next timer in queue */
//   80   int32                 backoff;                    /* timer expiration count */
//   81   void                  (*pFunc)(uint8 parameter);  /* timer callback function */
//   82   uint8                 parameter;                  /* callback function parameter */
//   83 } macTimer_t;
//   84 
//   85 extern macTimer_t macTxAckIsrTimer;
//   86 extern void macTimerCancel(macTimer_t *pTimer);
//   87 #endif /* ACK_DONE_ISR_WROKAROUND */
//   88 
//   89 
//   90 
//   91 /* ------------------------------------------------------------------------------------------------
//   92  *                                            Defines
//   93  * ------------------------------------------------------------------------------------------------
//   94  */
//   95 #define MAX_PAYLOAD_BYTES_READ_PER_INTERRUPT   16   /* adjustable to tune performance */
//   96 
//   97 /* receive FIFO bytes needed to start a valid receive (see function rxStartIsr for details) */
//   98 #define RX_THRESHOLD_START_LEN    (MAC_PHY_PHR_LEN        +  \ 
//   99                                    MAC_FCF_FIELD_LEN      +  \ 
//  100                                    MAC_SEQ_NUM_FIELD_LEN  +  \ 
//  101                                    MAC_FCS_FIELD_LEN)
//  102 
//  103 /* maximum size of addressing fields (note: command frame identifier processed as part of address) */
//  104 #define MAX_ADDR_FIELDS_LEN  ((MAC_EXT_ADDR_FIELD_LEN + MAC_PAN_ID_FIELD_LEN) * 2)
//  105 
//  106 /* addressing mode reserved value */
//  107 #define ADDR_MODE_RESERVERED  1
//  108 
//  109 /* length of command frame identifier */
//  110 #define CMD_FRAME_ID_LEN      1
//  111 
//  112 /* packet size mask is equal to the maximum value */
//  113 #define PHY_PACKET_SIZE_MASK  0x7F
//  114 
//  115 /* value for promiscuous off, must not conflict with other mode variants from separate include files */
//  116 #define PROMISCUOUS_MODE_OFF  0x00
//  117 
//  118 /* bit of proprietary FCS format that indicates if the CRC is OK */
//  119 #define PROPRIETARY_FCS_CRC_OK_BIT  0x80
//  120 
//  121 /* dummy length value for unused entry in lookup table */
//  122 #define DUMMY_LEN   0xBE
//  123 
//  124 /* value for rxThresholdIntState */
//  125 #define RX_THRESHOLD_INT_STATE_INACTIVE   0
//  126 #define RX_THRESHOLD_INT_STATE_ACTIVE     1
//  127 #define RX_THRESHOLD_INT_STATE_RESET      2
//  128 
//  129 
//  130 /* ------------------------------------------------------------------------------------------------
//  131  *                                             Macros
//  132  * ------------------------------------------------------------------------------------------------
//  133  */
//  134 #define MEM_ALLOC(x)   macDataRxMemAlloc(x)
//  135 #define MEM_FREE(x)    macDataRxMemFree((uint8 **)x)
//  136 
//  137 /*
//  138  *  Macro for encoding frame control information into internal flags format.
//  139  *  Parameter is pointer to the frame.  NOTE!  If either the internal frame
//  140  *  format *or* the specification changes, this macro will need to be modified.
//  141  */
//  142 #define INTERNAL_FCF_FLAGS(p)  ((((p)[1] >> 4) & 0x03) | ((p)[0] & 0x78))
//  143 
//  144 /*
//  145  *  The radio replaces the actual FCS with different information.  This proprietary FCS is
//  146  *  the same length as the original and includes:
//  147  *    1) the RSSI value
//  148  *    2) the average correlation value (used for LQI)
//  149  *    3) a CRC passed bit
//  150  *
//  151  *  These macros decode the proprietary FCS.  The macro parameter is a pointer to the two byte FCS.
//  152  */
//  153 #define PROPRIETARY_FCS_RSSI(p)                 ((int8)((p)[0]))
//  154 #define PROPRIETARY_FCS_CRC_OK(p)               ((p)[1] & PROPRIETARY_FCS_CRC_OK_BIT)
//  155 #define PROPRIETARY_FCS_CORRELATION_VALUE(p)    ((p)[1] & ~PROPRIETARY_FCS_CRC_OK_BIT)
//  156 
//  157 /*
//  158  *  Macros for security control field.
//  159  */
//  160 #define SECURITY_LEVEL(s)                       (s & 0x07)
//  161 #define KEY_IDENTIFIER_MODE(s)                  ((s & 0x18) >> 3)
//  162 #define SECURITY_CONTROL_RESERVED(s)            ((s & 0xE0) >> 5)
//  163 
//  164 /* ------------------------------------------------------------------------------------------------
//  165  *                                       Global Variables
//  166  * ------------------------------------------------------------------------------------------------
//  167  */

        RSEG XDATA_Z:XDATA:NOROOT(0)
        DATA8
//  168 uint8 macRxActive;
macRxActive:
        DS 1
        REQUIRE __INIT_XDATA_Z

        RSEG XDATA_Z:XDATA:NOROOT(0)
        DATA8
//  169 uint8 macRxFilter;
macRxFilter:
        DS 1
        REQUIRE __INIT_XDATA_Z

        RSEG XDATA_Z:XDATA:NOROOT(0)
        DATA8
//  170 uint8 macRxOutgoingAckFlag;
macRxOutgoingAckFlag:
        DS 1
        REQUIRE __INIT_XDATA_Z
//  171 
//  172 
//  173 /* ------------------------------------------------------------------------------------------------
//  174  *                                       Local Constants
//  175  * ------------------------------------------------------------------------------------------------
//  176  */

        RSEG CODE_C:CODE:REORDER:NOROOT(0)
        DATA32
//  177 static const uint8 CODE macRxAddrLen[] =
macRxAddrLen:
        DATA8
        DB 0
        DB 190
        DB 4
        DB 10
//  178 {
//  179   0,                                                /* no address */
//  180   DUMMY_LEN,                                        /* reserved */
//  181   MAC_PAN_ID_FIELD_LEN + MAC_SHORT_ADDR_FIELD_LEN,  /* short address + pan id */
//  182   MAC_PAN_ID_FIELD_LEN + MAC_EXT_ADDR_FIELD_LEN     /* extended address + pan id */
//  183 };
//  184 
//  185 
//  186 /* ------------------------------------------------------------------------------------------------
//  187  *                                       Local Prototypes
//  188  * ------------------------------------------------------------------------------------------------
//  189  */
//  190 static void rxHaltCleanupFinalStep(void);
//  191 
//  192 static void rxStartIsr(void);
//  193 static void rxAddrIsr(void);
//  194 
//  195 #ifdef FEATURE_MAC_SECURITY
//  196   static void rxSecurityHdrIsr(void);
//  197 #endif
//  198 
//  199 static void rxPayloadIsr(void);
//  200 static void rxDiscardIsr(void);
//  201 static void rxFcsIsr(void);
//  202 
//  203 static void rxPrepPayload(void);
//  204 static void rxDiscardFrame(void);
//  205 static void rxDone(void);
//  206 static void rxPostRxUpdates(void);
//  207 
//  208 
//  209 /* ------------------------------------------------------------------------------------------------
//  210  *                                         Local Variables
//  211  * ------------------------------------------------------------------------------------------------
//  212  */

        RSEG XDATA_Z:XDATA:NOROOT(0)
        DATA16
//  213 static void    (* pFuncRxState)(void);
pFuncRxState:
        DS 2
        REQUIRE __INIT_XDATA_Z

        RSEG XDATA_Z:XDATA:NOROOT(0)
        DATA16
//  214 static macRx_t  * pRxBuf;
pRxBuf:
        DS 2
        REQUIRE __INIT_XDATA_Z
//  215 

        RSEG XDATA_Z:XDATA:NOROOT(0)
        DATA32
//  216 static uint8  rxBuf[MAC_PHY_PHR_LEN + MAC_FCF_FIELD_LEN + MAC_SEQ_NUM_FIELD_LEN];
rxBuf:
        DS 4
        REQUIRE __INIT_XDATA_Z

        RSEG XDATA_Z:XDATA:NOROOT(0)
        DATA8
//  217 static uint8  rxUnreadLen;
rxUnreadLen:
        DS 1
        REQUIRE __INIT_XDATA_Z

        RSEG XDATA_Z:XDATA:NOROOT(0)
        DATA8
//  218 static uint8  rxNextLen;
rxNextLen:
        DS 1
        REQUIRE __INIT_XDATA_Z

        RSEG XDATA_Z:XDATA:NOROOT(0)
        DATA8
//  219 static uint8  rxPayloadLen;
rxPayloadLen:
        DS 1
        REQUIRE __INIT_XDATA_Z

        RSEG XDATA_Z:XDATA:NOROOT(0)
        DATA8
//  220 static uint8  rxFilter;
rxFilter:
        DS 1
        REQUIRE __INIT_XDATA_Z

        RSEG XDATA_Z:XDATA:NOROOT(0)
        DATA8
//  221 static uint8  rxPromiscuousMode;
rxPromiscuousMode:
        DS 1
        REQUIRE __INIT_XDATA_Z

        RSEG XDATA_Z:XDATA:NOROOT(0)
        DATA8
//  222 static uint8  rxIsrActiveFlag;
rxIsrActiveFlag:
        DS 1
        REQUIRE __INIT_XDATA_Z

        RSEG XDATA_Z:XDATA:NOROOT(0)
        DATA8
//  223 static uint8  rxResetFlag;
rxResetFlag:
        DS 1
        REQUIRE __INIT_XDATA_Z

        RSEG XDATA_Z:XDATA:NOROOT(0)
        DATA8
//  224 static uint8  rxFifoOverflowCount;
rxFifoOverflowCount:
        DS 1
        REQUIRE __INIT_XDATA_Z
//  225 
//  226 
//  227 /**************************************************************************************************
//  228  * @fn          macRxInit
//  229  *
//  230  * @brief       Initialize receive variable states.
//  231  *
//  232  * @param       none
//  233  *
//  234  * @return      none
//  235  **************************************************************************************************
//  236  */

        RSEG BANKED_CODE:HUGECODE:NOROOT(0)
//  237 MAC_INTERNAL_API void macRxInit(void)
macRxInit:
          CFI Block cfiBlock0 Using cfiCommon0
          CFI Function macRxInit
        CODE
//  238 {
        PUSH      DPL
          CFI DPL0 Frame(CFA_SP, 4)
          CFI CFA_SP SP+-4
        PUSH      DPH
          CFI DPH0 Frame(CFA_SP, 5)
          CFI CFA_SP SP+-5
        ; Saved register size: 2
        ; Auto size: 0
//  239   macRxFilter          = RX_FILTER_OFF;
        MOV       DPTR,#macRxFilter
        CLR       A
        MOVX      @DPTR,A
//  240   rxPromiscuousMode    = PROMISCUOUS_MODE_OFF;
        MOV       DPTR,#rxPromiscuousMode
        MOVX      @DPTR,A
//  241   pRxBuf               = NULL; /* required for macRxReset() to function correctly */
        MOV       DPTR,#pRxBuf
        MOVX      @DPTR,A
        INC       DPTR
        MOVX      @DPTR,A
//  242   macRxActive          = MAC_RX_ACTIVE_NO_ACTIVITY;
        MOV       DPTR,#macRxActive
        LCALL     ?Subroutine25 & 0xFFFF
//  243   pFuncRxState         = &rxStartIsr;
??CrossCallReturnLabel_41:
        LCALL     ??Subroutine33_0 & 0xFFFF
//  244   macRxOutgoingAckFlag = 0;
//  245   rxIsrActiveFlag      = 0;
??CrossCallReturnLabel_58:
        MOV       DPTR,#rxIsrActiveFlag
        MOVX      @DPTR,A
//  246   rxResetFlag          = 0;
        MOV       DPTR,#rxResetFlag
        MOVX      @DPTR,A
//  247   rxFifoOverflowCount  = 0;
        MOV       DPTR,#rxFifoOverflowCount
        LJMP      ?Subroutine0 & 0xFFFF
//  248 }
          CFI EndBlock cfiBlock0
//  249 
//  250 
//  251 /**************************************************************************************************
//  252  * @fn          macRxRadioPowerUpInit
//  253  *
//  254  * @brief       Initialization for after radio first powers up.
//  255  *
//  256  * @param       none
//  257  *
//  258  * @return      none
//  259  **************************************************************************************************
//  260  */

        RSEG BANKED_CODE:HUGECODE:NOROOT(0)
//  261 MAC_INTERNAL_API void macRxRadioPowerUpInit(void)
macRxRadioPowerUpInit:
          CFI Block cfiBlock1 Using cfiCommon0
          CFI Function macRxRadioPowerUpInit
        CODE
//  262 {
        PUSH      DPL
          CFI DPL0 Frame(CFA_SP, 4)
          CFI CFA_SP SP+-4
        PUSH      DPH
          CFI DPH0 Frame(CFA_SP, 5)
          CFI CFA_SP SP+-5
        ; Saved register size: 2
        ; Auto size: 0
//  263   /* set threshold at initial value */
//  264   MAC_RADIO_SET_RX_THRESHOLD(RX_THRESHOLD_START_LEN);
        MOV       DPTR,#0x6194
        MOV       A,#0x5
        LCALL     ?Subroutine10 & 0xFFFF
//  265 
//  266   /* clear any accidental threshold interrupt that happened as part of power up sequence */
//  267   MAC_RADIO_CLEAR_RX_THRESHOLD_INTERRUPT_FLAG();
??CrossCallReturnLabel_15:
        MOV       0xe9,#-0x5
        MOV       A,R0
        MOV       C,0xE0 /* A   */.7
        MOV       0xa8.7,C
//  268 
//  269   /* enable threshold interrupts */
//  270   MAC_RADIO_ENABLE_RX_THRESHOLD_INTERRUPT();
        MOV       DPTR,#0x61a3
        MOVX      A,@DPTR
        SETB      0xE0 /* A   */.2
        LJMP      ?Subroutine0 & 0xFFFF
          CFI EndBlock cfiBlock1
        REQUIRE _A_IEN0
        REQUIRE S1CON
        REQUIRE RFIRQF0
//  271 }
//  272 
//  273 
//  274 /**************************************************************************************************
//  275  * @fn          macRxTxReset
//  276  *
//  277  * @brief       Reset the receive state.
//  278  *
//  279  * @param       none
//  280  *
//  281  * @return      none
//  282  **************************************************************************************************
//  283  */

        RSEG BANKED_CODE:HUGECODE:NOROOT(0)
//  284 MAC_INTERNAL_API void macRxTxReset(void)
macRxTxReset:
          CFI Block cfiBlock2 Using cfiCommon0
          CFI Function macRxTxReset
        CODE
//  285 {
        FUNCALL macRxTxReset, macRxHardDisable
        LOCFRAME ISTACK, 2, STACK
        LOCFRAME PSTACK, 0, STACK
        LOCFRAME XSTACK, 0, STACK
        LOCFRAME IOVERLAY, 0, STATIC
        LOCFRAME DOVERLAY, 0, STATIC
        ARGFRAME ISTACK, 2, STACK
        ARGFRAME PSTACK, 0, STACK
        ARGFRAME XSTACK, 0, STACK
        ARGFRAME IOVERLAY, 0, STATIC
        ARGFRAME DOVERLAY, 0, STATIC
        FUNCALL macRxTxReset, macRxPromiscuousMode
        LOCFRAME ISTACK, 2, STACK
        LOCFRAME PSTACK, 0, STACK
        LOCFRAME XSTACK, 0, STACK
        LOCFRAME IOVERLAY, 0, STATIC
        LOCFRAME DOVERLAY, 0, STATIC
        ARGFRAME ISTACK, 2, STACK
        ARGFRAME PSTACK, 0, STACK
        ARGFRAME XSTACK, 0, STACK
        ARGFRAME IOVERLAY, 0, STATIC
        ARGFRAME DOVERLAY, 0, STATIC
        PUSH      DPL
          CFI DPL0 Frame(CFA_SP, 4)
          CFI CFA_SP SP+-4
        PUSH      DPH
          CFI DPH0 Frame(CFA_SP, 5)
          CFI CFA_SP SP+-5
        ; Saved register size: 2
        ; Auto size: 0
//  286   /* forces receiver off, cleans up by calling macRxHaltCleanup() and macTxHaltCleanup() */
//  287   macRxHardDisable();
        ; Setup parameters for call to function macRxHardDisable
        LCALL     `??macRxHardDisable::?relay`; Banked call to: macRxHardDisable
//  288 
//  289   /*
//  290    *   Note : transmit does not require any reset logic
//  291    *          beyond what macRxHardDisable() provides.
//  292    */
//  293 
//  294   /* restore deault filter mode to off */
//  295   macRxFilter = RX_FILTER_OFF;
        MOV       DPTR,#macRxFilter
        CLR       A
        MOVX      @DPTR,A
//  296 
//  297   /* return promiscuous mode to default off state */
//  298   macRxPromiscuousMode(MAC_PROMISCUOUS_MODE_OFF);
        ; Setup parameters for call to function macRxPromiscuousMode
        MOV       R1,A
        LCALL     `??macRxPromiscuousMode::?relay`; Banked call to: macRxPromiscuousMode
//  299 }
        LJMP      ??Subroutine37_0 & 0xFFFF
          CFI EndBlock cfiBlock2
//  300 
//  301 
//  302 /**************************************************************************************************
//  303  * @fn          macRxHaltCleanup
//  304  *
//  305  * @brief       Cleanup up the receive logic after receiver is forced off.
//  306  *
//  307  * @param       none
//  308  *
//  309  * @return      none
//  310  **************************************************************************************************
//  311  */

        RSEG BANKED_CODE:HUGECODE:NOROOT(0)
//  312 MAC_INTERNAL_API void macRxHaltCleanup(void)
macRxHaltCleanup:
          CFI Block cfiBlock3 Using cfiCommon0
          CFI Function macRxHaltCleanup
        CODE
//  313 {
        FUNCALL macRxHaltCleanup, rxHaltCleanupFinalStep
        LOCFRAME ISTACK, 2, STACK
        LOCFRAME PSTACK, 0, STACK
        LOCFRAME XSTACK, 0, STACK
        LOCFRAME IOVERLAY, 0, STATIC
        LOCFRAME DOVERLAY, 0, STATIC
        ARGFRAME ISTACK, 2, STACK
        ARGFRAME PSTACK, 0, STACK
        ARGFRAME XSTACK, 0, STACK
        ARGFRAME IOVERLAY, 0, STATIC
        ARGFRAME DOVERLAY, 0, STATIC
        PUSH      DPL
          CFI DPL0 Frame(CFA_SP, 4)
          CFI CFA_SP SP+-4
        PUSH      DPH
          CFI DPH0 Frame(CFA_SP, 5)
          CFI CFA_SP SP+-5
        ; Saved register size: 2
        ; Auto size: 0
//  314   rxResetFlag = 1;
        MOV       DPTR,#rxResetFlag
        MOV       A,#0x1
        MOVX      @DPTR,A
//  315   if (!rxIsrActiveFlag)
        MOV       DPTR,#rxIsrActiveFlag
        MOVX      A,@DPTR
        JNZ       ??CrossCallReturnLabel_39
//  316   {
//  317     rxHaltCleanupFinalStep();
        ; Setup parameters for call to function rxHaltCleanupFinalStep
        LCALL     ?Subroutine23 & 0xFFFF
//  318     rxResetFlag = 0;
//  319   }
//  320 }
??CrossCallReturnLabel_39:
        LJMP      ??Subroutine37_0 & 0xFFFF
          CFI EndBlock cfiBlock3
//  321 
//  322 
//  323 /*=================================================================================================
//  324  * @fn          rxHaltCleanupFinalStep
//  325  *
//  326  * @brief       Required cleanup if receiver is halted in the middle of a receive.
//  327  *
//  328  * @param       none
//  329  *
//  330  * @return      none
//  331  *=================================================================================================
//  332  */

        RSEG BANKED_CODE:HUGECODE:NOROOT(0)
//  333 static void rxHaltCleanupFinalStep(void)
rxHaltCleanupFinalStep:
          CFI Block cfiBlock4 Using cfiCommon0
          CFI Function rxHaltCleanupFinalStep
        CODE
//  334 {  
        FUNCALL rxHaltCleanupFinalStep, macDataRxMemFree
        LOCFRAME ISTACK, 2, STACK
        LOCFRAME PSTACK, 0, STACK
        LOCFRAME XSTACK, 0, STACK
        LOCFRAME IOVERLAY, 0, STATIC
        LOCFRAME DOVERLAY, 0, STATIC
        ARGFRAME ISTACK, 2, STACK
        ARGFRAME PSTACK, 0, STACK
        ARGFRAME XSTACK, 0, STACK
        ARGFRAME IOVERLAY, 0, STATIC
        ARGFRAME DOVERLAY, 0, STATIC
        FUNCALL rxHaltCleanupFinalStep, rxPostRxUpdates
        LOCFRAME ISTACK, 2, STACK
        LOCFRAME PSTACK, 0, STACK
        LOCFRAME XSTACK, 0, STACK
        LOCFRAME IOVERLAY, 0, STATIC
        LOCFRAME DOVERLAY, 0, STATIC
        ARGFRAME ISTACK, 2, STACK
        ARGFRAME PSTACK, 0, STACK
        ARGFRAME XSTACK, 0, STACK
        ARGFRAME IOVERLAY, 0, STATIC
        ARGFRAME DOVERLAY, 0, STATIC
        PUSH      DPL
          CFI DPL0 Frame(CFA_SP, 4)
          CFI CFA_SP SP+-4
        PUSH      DPH
          CFI DPH0 Frame(CFA_SP, 5)
          CFI CFA_SP SP+-5
        ; Saved register size: 2
        ; Auto size: 0
//  335   /* cancel any upcoming ACK transmit complete callback */
//  336   MAC_RADIO_CANCEL_ACK_TX_DONE_CALLBACK();
        MOV       DPTR,#0x61a4
        MOVX      A,@DPTR
        CLR       0xE0 /* A   */.0
        MOVX      @DPTR,A
//  337 
//  338   /* set start of frame threshold */
//  339   MAC_RADIO_SET_RX_THRESHOLD(RX_THRESHOLD_START_LEN);
        MOV       DPTR,#0x6194
        MOV       A,#0x5
        MOVX      @DPTR,A
//  340 
//  341   /* flush the receive FIFO */
//  342   MAC_RADIO_FLUSH_RX_FIFO();
        MOV       0xe1,#-0x13
        MOV       0xe1,#-0x13
//  343 
//  344   /* clear any receive interrupt that happened to squeak through */
//  345   MAC_RADIO_CLEAR_RX_THRESHOLD_INTERRUPT_FLAG();
        MOV       R0,0xa8+0x0
        CLR       0xa8.7
        MOV       0x9b,#0x0
        MOV       0xe9,#-0x5
        MOV       A,R0
        MOV       C,0xE0 /* A   */.7
        MOV       0xa8.7,C
//  346 
//  347   /* if data buffer has been allocated, free it */
//  348   if (pRxBuf != NULL)
        MOV       DPTR,#pRxBuf
        MOVX      A,@DPTR
        MOV       R0,A
        INC       DPTR
        MOVX      A,@DPTR
        MOV       R1,A
        MOV       A,R0
        ORL       A,R1
        JZ        ??rxHaltCleanupFinalStep_0
//  349   {
//  350     MEM_FREE((uint8 **)&pRxBuf);
        ; Setup parameters for call to function macDataRxMemFree
        MOV       R2,#pRxBuf & 0xff
        MOV       R3,#(pRxBuf >> 8) & 0xff
        LCALL     `??macDataRxMemFree::?relay`; Banked call to: macDataRxMemFree
//  351   }
//  352   /* MEM_FREE() sets parameter to NULL. */
//  353 
//  354   pFuncRxState = &rxStartIsr;
??rxHaltCleanupFinalStep_0:
        MOV       DPTR,#pFuncRxState
        MOV       A,#`??rxStartIsr::?relay` & 0xff
        MOVX      @DPTR,A
        INC       DPTR
        MOV       A,#(`??rxStartIsr::?relay` >> 8) & 0xff
        MOVX      @DPTR,A
//  355 
//  356   /* if receive was active, perform the post receive updates */
//  357   if (macRxActive || macRxOutgoingAckFlag)
        MOV       DPTR,#macRxActive
        MOVX      A,@DPTR
        JNZ       ??rxHaltCleanupFinalStep_1
        MOV       DPTR,#macRxOutgoingAckFlag
        MOVX      A,@DPTR
        JZ        ??rxHaltCleanupFinalStep_2
//  358   {
//  359     macRxActive = MAC_RX_ACTIVE_NO_ACTIVITY;
??rxHaltCleanupFinalStep_1:
        MOV       DPTR,#macRxActive
        CLR       A
        MOVX      @DPTR,A
//  360     macRxOutgoingAckFlag = 0;
        MOV       DPTR,#macRxOutgoingAckFlag
        MOVX      @DPTR,A
//  361 
//  362     rxPostRxUpdates();
        ; Setup parameters for call to function rxPostRxUpdates
        LCALL     `??rxPostRxUpdates::?relay`; Banked call to: rxPostRxUpdates
//  363   }
//  364 }
??rxHaltCleanupFinalStep_2:
        LJMP      ??Subroutine37_0 & 0xFFFF
          CFI EndBlock cfiBlock4
        REQUIRE RFST
        REQUIRE _A_IEN0
        REQUIRE S1CON
        REQUIRE RFIRQF0
//  365 
//  366 
//  367 /**************************************************************************************************
//  368  * @fn          macRxThresholdIsr
//  369  *
//  370  * @brief       Interrupt service routine called when bytes in FIFO reach threshold value.
//  371  *              It implements a state machine for receiving a packet.
//  372  *
//  373  * @param       none
//  374  *
//  375  * @return      none
//  376  **************************************************************************************************
//  377  */

        RSEG BANKED_CODE:HUGECODE:NOROOT(0)
//  378 MAC_INTERNAL_API void macRxThresholdIsr(void)
macRxThresholdIsr:
          CFI Block cfiBlock5 Using cfiCommon0
          CFI Function macRxThresholdIsr
        CODE
//  379 {
        FUNCALL macRxThresholdIsr, rxHaltCleanupFinalStep
        LOCFRAME ISTACK, 2, STACK
        LOCFRAME PSTACK, 0, STACK
        LOCFRAME XSTACK, 0, STACK
        LOCFRAME IOVERLAY, 0, STATIC
        LOCFRAME DOVERLAY, 0, STATIC
        ARGFRAME ISTACK, 2, STACK
        ARGFRAME PSTACK, 0, STACK
        ARGFRAME XSTACK, 0, STACK
        ARGFRAME IOVERLAY, 0, STATIC
        ARGFRAME DOVERLAY, 0, STATIC
        PUSH      DPL
          CFI DPL0 Frame(CFA_SP, 4)
          CFI CFA_SP SP+-4
        PUSH      DPH
          CFI DPH0 Frame(CFA_SP, 5)
          CFI CFA_SP SP+-5
        ; Saved register size: 2
        ; Auto size: 0
//  380   /* if currently reseting, do not execute receive ISR logic */
//  381   if (rxResetFlag)
        MOV       DPTR,#rxResetFlag
        MOVX      A,@DPTR
        JNZ       ??CrossCallReturnLabel_40
//  382   {
//  383     return;
//  384   }
//  385 
//  386   /*
//  387    *  Call the function that handles the current receive state.
//  388    *  A flag is set for the duration of the call to indicate
//  389    *  the ISR is executing.  This is necessary for the reset
//  390    *  logic so it does not perform a reset in the middle of
//  391    *  executing the ISR.
//  392    */
//  393   rxIsrActiveFlag = 1;
        MOV       DPTR,#rxIsrActiveFlag
        MOV       A,#0x1
        MOVX      @DPTR,A
//  394   (*pFuncRxState)();
        ; Setup parameters for indirect call
        MOV       DPTR,#pFuncRxState
        LCALL     ?Subroutine16 & 0xFFFF
??CrossCallReturnLabel_26:
        LCALL     ?CALL_IND
//  395   rxIsrActiveFlag = 0;
        MOV       DPTR,#rxIsrActiveFlag
        CLR       A
        MOVX      @DPTR,A
//  396 
//  397   /* if a reset occurred during the ISR, peform cleanup here */
//  398   if (rxResetFlag)
        MOV       DPTR,#rxResetFlag
        MOVX      A,@DPTR
        JZ        ??CrossCallReturnLabel_40
//  399   {
//  400     rxHaltCleanupFinalStep();
        ; Setup parameters for call to function rxHaltCleanupFinalStep
        LCALL     ?Subroutine23 & 0xFFFF
//  401     rxResetFlag = 0;
//  402   }
//  403 }
??CrossCallReturnLabel_40:
        LJMP      ??Subroutine37_0 & 0xFFFF
          CFI EndBlock cfiBlock5

        RSEG BANKED_CODE:HUGECODE:NOROOT(0)
?Subroutine23:
          CFI Block cfiCond6 Using cfiCommon0
          CFI Function macRxHaltCleanup
          CFI Conditional ??CrossCallReturnLabel_39
          CFI DPL0 Frame(CFA_SP, 4)
          CFI DPH0 Frame(CFA_SP, 5)
          CFI CFA_SP SP+-7
          CFI Block cfiCond7 Using cfiCommon0
          CFI (cfiCond7) Function macRxThresholdIsr
          CFI (cfiCond7) Conditional ??CrossCallReturnLabel_40
          CFI (cfiCond7) DPL0 Frame(CFA_SP, 4)
          CFI (cfiCond7) DPH0 Frame(CFA_SP, 5)
          CFI (cfiCond7) CFA_SP SP+-7
          CFI Block cfiPicker8 Using cfiCommon1
          CFI (cfiPicker8) NoFunction
          CFI (cfiPicker8) Picker
        LCALL     `??rxHaltCleanupFinalStep::?relay`; Banked call to: rxHaltCleanupFinalStep
        MOV       DPTR,#rxResetFlag
        CLR       A
        MOVX      @DPTR,A
        RET
          CFI EndBlock cfiCond6
          CFI EndBlock cfiCond7
          CFI EndBlock cfiPicker8
//  404 
//  405 
//  406 /*=================================================================================================
//  407  * @fn          rxStartIsr
//  408  *
//  409  * @brief       First ISR state for receiving a packet - compute packet length, allocate
//  410  *              buffer, initialize buffer.  Acknowledgements are handled immediately without
//  411  *              allocating a buffer.
//  412  *
//  413  * @param       none
//  414  *
//  415  * @return      none
//  416  *=================================================================================================
//  417  */

        RSEG BANKED_CODE:HUGECODE:NOROOT(0)
//  418 static void rxStartIsr(void)
rxStartIsr:
          CFI Block cfiBlock9 Using cfiCommon0
          CFI Function rxStartIsr
        CODE
//  419 {
        FUNCALL rxStartIsr, halAssertHandler
        LOCFRAME ISTACK, 0, STACK
        LOCFRAME PSTACK, 0, STACK
        LOCFRAME XSTACK, 17, STACK
        LOCFRAME IOVERLAY, 0, STATIC
        LOCFRAME DOVERLAY, 0, STATIC
        ARGFRAME ISTACK, 0, STACK
        ARGFRAME PSTACK, 0, STACK
        ARGFRAME XSTACK, 17, STACK
        ARGFRAME IOVERLAY, 0, STATIC
        ARGFRAME DOVERLAY, 0, STATIC
        FUNCALL rxStartIsr, rxPostRxUpdates
        LOCFRAME ISTACK, 0, STACK
        LOCFRAME PSTACK, 0, STACK
        LOCFRAME XSTACK, 17, STACK
        LOCFRAME IOVERLAY, 0, STATIC
        LOCFRAME DOVERLAY, 0, STATIC
        ARGFRAME ISTACK, 0, STACK
        ARGFRAME PSTACK, 0, STACK
        ARGFRAME XSTACK, 17, STACK
        ARGFRAME IOVERLAY, 0, STATIC
        ARGFRAME DOVERLAY, 0, STATIC
        FUNCALL rxStartIsr, macCspForceTxDoneIfPending
        LOCFRAME ISTACK, 0, STACK
        LOCFRAME PSTACK, 0, STACK
        LOCFRAME XSTACK, 17, STACK
        LOCFRAME IOVERLAY, 0, STATIC
        LOCFRAME DOVERLAY, 0, STATIC
        ARGFRAME ISTACK, 0, STACK
        ARGFRAME PSTACK, 0, STACK
        ARGFRAME XSTACK, 17, STACK
        ARGFRAME IOVERLAY, 0, STATIC
        ARGFRAME DOVERLAY, 0, STATIC
        FUNCALL rxStartIsr, macMemReadRxFifo
        LOCFRAME ISTACK, 0, STACK
        LOCFRAME PSTACK, 0, STACK
        LOCFRAME XSTACK, 17, STACK
        LOCFRAME IOVERLAY, 0, STATIC
        LOCFRAME DOVERLAY, 0, STATIC
        ARGFRAME ISTACK, 0, STACK
        ARGFRAME PSTACK, 0, STACK
        ARGFRAME XSTACK, 17, STACK
        ARGFRAME IOVERLAY, 0, STATIC
        ARGFRAME DOVERLAY, 0, STATIC
        FUNCALL rxStartIsr, macMemReadRxFifo
        LOCFRAME ISTACK, 0, STACK
        LOCFRAME PSTACK, 0, STACK
        LOCFRAME XSTACK, 17, STACK
        LOCFRAME IOVERLAY, 0, STATIC
        LOCFRAME DOVERLAY, 0, STATIC
        ARGFRAME ISTACK, 0, STACK
        ARGFRAME PSTACK, 0, STACK
        ARGFRAME XSTACK, 17, STACK
        ARGFRAME IOVERLAY, 0, STATIC
        ARGFRAME DOVERLAY, 0, STATIC
        FUNCALL rxStartIsr, halAssertHandler
        LOCFRAME ISTACK, 0, STACK
        LOCFRAME PSTACK, 0, STACK
        LOCFRAME XSTACK, 17, STACK
        LOCFRAME IOVERLAY, 0, STATIC
        LOCFRAME DOVERLAY, 0, STATIC
        ARGFRAME ISTACK, 0, STACK
        ARGFRAME PSTACK, 0, STACK
        ARGFRAME XSTACK, 17, STACK
        ARGFRAME IOVERLAY, 0, STATIC
        ARGFRAME DOVERLAY, 0, STATIC
        FUNCALL rxStartIsr, macRadioComputeLQI
        LOCFRAME ISTACK, 0, STACK
        LOCFRAME PSTACK, 0, STACK
        LOCFRAME XSTACK, 17, STACK
        LOCFRAME IOVERLAY, 0, STATIC
        LOCFRAME DOVERLAY, 0, STATIC
        ARGFRAME ISTACK, 0, STACK
        ARGFRAME PSTACK, 0, STACK
        ARGFRAME XSTACK, 17, STACK
        ARGFRAME IOVERLAY, 0, STATIC
        ARGFRAME DOVERLAY, 0, STATIC
        FUNCALL rxStartIsr, macTxAckReceivedCallback
        LOCFRAME ISTACK, 0, STACK
        LOCFRAME PSTACK, 0, STACK
        LOCFRAME XSTACK, 17, STACK
        LOCFRAME IOVERLAY, 0, STATIC
        LOCFRAME DOVERLAY, 0, STATIC
        ARGFRAME ISTACK, 0, STACK
        ARGFRAME PSTACK, 0, STACK
        ARGFRAME XSTACK, 17, STACK
        ARGFRAME IOVERLAY, 0, STATIC
        ARGFRAME DOVERLAY, 0, STATIC
        FUNCALL rxStartIsr, macTxAckNotReceivedCallback
        LOCFRAME ISTACK, 0, STACK
        LOCFRAME PSTACK, 0, STACK
        LOCFRAME XSTACK, 17, STACK
        LOCFRAME IOVERLAY, 0, STATIC
        LOCFRAME DOVERLAY, 0, STATIC
        ARGFRAME ISTACK, 0, STACK
        ARGFRAME PSTACK, 0, STACK
        ARGFRAME XSTACK, 17, STACK
        ARGFRAME IOVERLAY, 0, STATIC
        ARGFRAME DOVERLAY, 0, STATIC
        FUNCALL rxStartIsr, rxDone
        LOCFRAME ISTACK, 0, STACK
        LOCFRAME PSTACK, 0, STACK
        LOCFRAME XSTACK, 17, STACK
        LOCFRAME IOVERLAY, 0, STATIC
        LOCFRAME DOVERLAY, 0, STATIC
        ARGFRAME ISTACK, 0, STACK
        ARGFRAME PSTACK, 0, STACK
        ARGFRAME XSTACK, 17, STACK
        ARGFRAME IOVERLAY, 0, STATIC
        ARGFRAME DOVERLAY, 0, STATIC
        FUNCALL rxStartIsr, macTxAckNotReceivedCallback
        LOCFRAME ISTACK, 0, STACK
        LOCFRAME PSTACK, 0, STACK
        LOCFRAME XSTACK, 17, STACK
        LOCFRAME IOVERLAY, 0, STATIC
        LOCFRAME DOVERLAY, 0, STATIC
        ARGFRAME ISTACK, 0, STACK
        ARGFRAME PSTACK, 0, STACK
        ARGFRAME XSTACK, 17, STACK
        ARGFRAME IOVERLAY, 0, STATIC
        ARGFRAME DOVERLAY, 0, STATIC
        FUNCALL rxStartIsr, rxDone
        LOCFRAME ISTACK, 0, STACK
        LOCFRAME PSTACK, 0, STACK
        LOCFRAME XSTACK, 17, STACK
        LOCFRAME IOVERLAY, 0, STATIC
        LOCFRAME DOVERLAY, 0, STATIC
        ARGFRAME ISTACK, 0, STACK
        ARGFRAME PSTACK, 0, STACK
        ARGFRAME XSTACK, 17, STACK
        ARGFRAME IOVERLAY, 0, STATIC
        ARGFRAME DOVERLAY, 0, STATIC
        FUNCALL rxStartIsr, rxDiscardFrame
        LOCFRAME ISTACK, 0, STACK
        LOCFRAME PSTACK, 0, STACK
        LOCFRAME XSTACK, 17, STACK
        LOCFRAME IOVERLAY, 0, STATIC
        LOCFRAME DOVERLAY, 0, STATIC
        ARGFRAME ISTACK, 0, STACK
        ARGFRAME PSTACK, 0, STACK
        ARGFRAME XSTACK, 17, STACK
        ARGFRAME IOVERLAY, 0, STATIC
        ARGFRAME DOVERLAY, 0, STATIC
        FUNCALL rxStartIsr, macDataRxMemAlloc
        LOCFRAME ISTACK, 0, STACK
        LOCFRAME PSTACK, 0, STACK
        LOCFRAME XSTACK, 17, STACK
        LOCFRAME IOVERLAY, 0, STATIC
        LOCFRAME DOVERLAY, 0, STATIC
        ARGFRAME ISTACK, 0, STACK
        ARGFRAME PSTACK, 0, STACK
        ARGFRAME XSTACK, 17, STACK
        ARGFRAME IOVERLAY, 0, STATIC
        ARGFRAME DOVERLAY, 0, STATIC
        FUNCALL rxStartIsr, macRxCheckMACPendingCallback
        LOCFRAME ISTACK, 0, STACK
        LOCFRAME PSTACK, 0, STACK
        LOCFRAME XSTACK, 17, STACK
        LOCFRAME IOVERLAY, 0, STATIC
        LOCFRAME DOVERLAY, 0, STATIC
        ARGFRAME ISTACK, 0, STACK
        ARGFRAME PSTACK, 0, STACK
        ARGFRAME XSTACK, 17, STACK
        ARGFRAME IOVERLAY, 0, STATIC
        ARGFRAME DOVERLAY, 0, STATIC
        FUNCALL rxStartIsr, MAC_SrcMatchCheckAllPending
        LOCFRAME ISTACK, 0, STACK
        LOCFRAME PSTACK, 0, STACK
        LOCFRAME XSTACK, 17, STACK
        LOCFRAME IOVERLAY, 0, STATIC
        LOCFRAME DOVERLAY, 0, STATIC
        ARGFRAME ISTACK, 0, STACK
        ARGFRAME PSTACK, 0, STACK
        ARGFRAME XSTACK, 17, STACK
        ARGFRAME IOVERLAY, 0, STATIC
        ARGFRAME DOVERLAY, 0, STATIC
        FUNCALL rxStartIsr, osal_memcpy
        LOCFRAME ISTACK, 0, STACK
        LOCFRAME PSTACK, 0, STACK
        LOCFRAME XSTACK, 20, STACK
        LOCFRAME IOVERLAY, 0, STATIC
        LOCFRAME DOVERLAY, 0, STATIC
        ARGFRAME ISTACK, 0, STACK
        ARGFRAME PSTACK, 0, STACK
        ARGFRAME XSTACK, 20, STACK
        ARGFRAME IOVERLAY, 0, STATIC
        ARGFRAME DOVERLAY, 0, STATIC
        FUNCALL rxStartIsr, macMcuOverflowCapture
        LOCFRAME ISTACK, 0, STACK
        LOCFRAME PSTACK, 0, STACK
        LOCFRAME XSTACK, 17, STACK
        LOCFRAME IOVERLAY, 0, STATIC
        LOCFRAME DOVERLAY, 0, STATIC
        ARGFRAME ISTACK, 0, STACK
        ARGFRAME PSTACK, 0, STACK
        ARGFRAME XSTACK, 17, STACK
        ARGFRAME IOVERLAY, 0, STATIC
        ARGFRAME DOVERLAY, 0, STATIC
        FUNCALL rxStartIsr, macMcuTimerCapture
        LOCFRAME ISTACK, 0, STACK
        LOCFRAME PSTACK, 0, STACK
        LOCFRAME XSTACK, 17, STACK
        LOCFRAME IOVERLAY, 0, STATIC
        LOCFRAME DOVERLAY, 0, STATIC
        ARGFRAME ISTACK, 0, STACK
        ARGFRAME PSTACK, 0, STACK
        ARGFRAME XSTACK, 17, STACK
        ARGFRAME IOVERLAY, 0, STATIC
        ARGFRAME DOVERLAY, 0, STATIC
        FUNCALL rxStartIsr, rxPrepPayload
        LOCFRAME ISTACK, 0, STACK
        LOCFRAME PSTACK, 0, STACK
        LOCFRAME XSTACK, 17, STACK
        LOCFRAME IOVERLAY, 0, STATIC
        LOCFRAME DOVERLAY, 0, STATIC
        ARGFRAME ISTACK, 0, STACK
        ARGFRAME PSTACK, 0, STACK
        ARGFRAME XSTACK, 17, STACK
        ARGFRAME IOVERLAY, 0, STATIC
        ARGFRAME DOVERLAY, 0, STATIC
        FUNCALL rxStartIsr, macRxCheckPendingCallback
        LOCFRAME ISTACK, 0, STACK
        LOCFRAME PSTACK, 0, STACK
        LOCFRAME XSTACK, 17, STACK
        LOCFRAME IOVERLAY, 0, STATIC
        LOCFRAME DOVERLAY, 0, STATIC
        ARGFRAME ISTACK, 0, STACK
        ARGFRAME PSTACK, 0, STACK
        ARGFRAME XSTACK, 17, STACK
        ARGFRAME IOVERLAY, 0, STATIC
        ARGFRAME DOVERLAY, 0, STATIC
        REQUIRE ?V0
        REQUIRE ?V1
        REQUIRE ?V2
        REQUIRE ?V3
        REQUIRE ?V4
        REQUIRE ?V5
        REQUIRE ?V6
        MOV       A,#-0xf
        LCALL     ?BANKED_ENTER_XDATA
          CFI DPH0 load(1, XDATA, add(CFA_XSP16, literal(-1)))
          CFI DPL0 load(1, XDATA, add(CFA_XSP16, literal(-2)))
          CFI ?BRET_EXT load(1, XDATA, add(CFA_XSP16, literal(-3)))
          CFI ?RET_HIGH load(1, XDATA, add(CFA_XSP16, literal(-4)))
          CFI ?RET_LOW load(1, XDATA, add(CFA_XSP16, literal(-5)))
          CFI R7 load(1, XDATA, add(CFA_XSP16, literal(-6)))
          CFI V6 load(1, XDATA, add(CFA_XSP16, literal(-7)))
          CFI V5 load(1, XDATA, add(CFA_XSP16, literal(-8)))
          CFI V4 load(1, XDATA, add(CFA_XSP16, literal(-9)))
          CFI V3 load(1, XDATA, add(CFA_XSP16, literal(-10)))
          CFI V2 load(1, XDATA, add(CFA_XSP16, literal(-11)))
          CFI V1 load(1, XDATA, add(CFA_XSP16, literal(-12)))
          CFI V0 load(1, XDATA, add(CFA_XSP16, literal(-13)))
          CFI VB load(1, XDATA, add(CFA_XSP16, literal(-14)))
          CFI R6 load(1, XDATA, add(CFA_XSP16, literal(-15)))
          CFI CFA_SP SP+0
          CFI CFA_XSP16 add(XSP16, 15)
        ; Saved register size: 15
        ; Auto size: 2
        MOV       A,#-0x2
        LCALL     ?ALLOC_XSTACK8
          CFI CFA_XSP16 add(XSP16, 17)
//  420   uint8  addrLen;
//  421   uint8  ackWithPending;
//  422   uint8  dstAddrMode;
//  423   uint8  srcAddrMode;
//  424   uint8  mhrLen = 0;
        MOV       ?V2,#0x0
//  425 
//  426   MAC_ASSERT(!macRxActive); /* receive on top of receive */
        MOV       DPTR,#macRxActive
        MOVX      A,@DPTR
        JZ        ??rxStartIsr_0
        ; Setup parameters for call to function halAssertHandler
        LCALL     `??halAssertHandler::?relay`; Banked call to: halAssertHandler
//  427 
//  428   /* indicate rx is active */
//  429   macRxActive = MAC_RX_ACTIVE_STARTED;
??rxStartIsr_0:
        MOV       DPTR,#macRxActive
        MOV       A,#-0x7f
        MOVX      @DPTR,A
//  430 
//  431   /*
//  432    *  For bullet proof functionality, need to see if the receiver was just turned off.
//  433    *  The logic to request turning off the receiver, disables interrupts and then checks
//  434    *  the value of macRxActive.  If it is TRUE, the receiver will not be turned off.
//  435    *
//  436    *  There is a small hole though.  It's possible to attempt turning off the receiver
//  437    *  in the window from when the receive interrupt fires and the point where macRxActive
//  438    *  is set to TRUE.  To plug this hole, the on/off status must be tested *after*
//  439    *  macRxActive has been set.  If the receiver is off at this point, there is nothing
//  440    *  in the RX fifo and the receive is simply aborted.
//  441    *
//  442    *  Also, there are some considerations in case a hard disable just happened.  Usually,
//  443    *  the receiver will just be off at this point after a hard disable.  The check described
//  444    *  above will account for this case too.  However, if a hard disable were immediately
//  445    *  followed by an enable, the receiver would be on.  To catch this case, the receive
//  446    *  FIFO is also tested to see if it is empty.  Recovery is identical to the other cases.
//  447    */
//  448   if (!macRxOnFlag || MAC_RADIO_RX_FIFO_IS_EMPTY())
        MOV       DPTR,#macRxOnFlag
        MOVX      A,@DPTR
        JZ        ??rxStartIsr_1
        MOV       DPTR,#0x6193
        MOVX      A,@DPTR
        MOV       C,0xE0 /* A   */.7
        JC        ??rxStartIsr_2
        MOVX      A,@DPTR
        MOV       C,0xE0 /* A   */.6
        JC        ??rxStartIsr_2
//  449   {
//  450     /* reset active flag */
//  451     macRxActive = MAC_RX_ACTIVE_NO_ACTIVITY;
??rxStartIsr_1:
        MOV       DPTR,#macRxActive
        CLR       A
        MOVX      @DPTR,A
//  452 
//  453     /*
//  454      *  To be absolutely bulletproof, must make sure no transmit queue'ed up during
//  455      *  the tiny, tiny window when macRxActive was not zero.
//  456      */
//  457     rxPostRxUpdates();
        ; Setup parameters for call to function rxPostRxUpdates
        LCALL     `??rxPostRxUpdates::?relay`; Banked call to: rxPostRxUpdates
//  458 
//  459     /* return immediately from here */
//  460     return;
        LJMP      ??rxStartIsr_3 & 0xFFFF
//  461   }
//  462 
//  463   /*
//  464    *  If interrupts are held off for too long it's possible the previous "transmit done"
//  465    *  callback is pending.  If this is the case, it needs to be completed before
//  466    *  continuing with the receive logic.
//  467    */
//  468   MAC_RADIO_FORCE_TX_DONE_IF_PENDING();
??rxStartIsr_2:
        ; Setup parameters for call to function macCspForceTxDoneIfPending
        LCALL     `??macCspForceTxDoneIfPending::?relay`; Banked call to: macCspForceTxDoneIfPending
//  469 
//  470   /*
//  471    *  It's possible receive logic is still waiting for confirmation of an ACK that went out
//  472    *  for the previous receive.  This is OK but the callback needs to be canceled at this point.
//  473    *  That callback execute receive cleanup logic that will run at the completion
//  474    *  of *this* receive.  Also, it is important the flag for the outgoing ACK to be cleared.
//  475    */
//  476   MAC_RADIO_CANCEL_ACK_TX_DONE_CALLBACK();
        LCALL     ?Subroutine6 & 0xFFFF
//  477   macRxOutgoingAckFlag = 0;
//  478 
//  479   /*
//  480    *  Make a module-local copy of macRxFilter.  This prevents the selected
//  481    *  filter from changing in the middle of a receive.
//  482    */
//  483   rxFilter = macRxFilter;
??CrossCallReturnLabel_56:
        MOV       DPTR,#macRxFilter
        MOVX      A,@DPTR
        MOV       DPTR,#rxFilter
        MOVX      @DPTR,A
//  484 
//  485   /*-------------------------------------------------------------------------------
//  486    *  Read initial frame information from FIFO.
//  487    *
//  488    *   This code is not triggered until the following are in the RX FIFO:
//  489    *     frame length          - one byte containing length of MAC frame (excludes this field)
//  490    *     frame control field   - two bytes defining frame type, addressing fields, control flags
//  491    *     sequence number       - one byte unique sequence identifier
//  492    *     additional two bytes  - these bytes are available in case the received frame is an ACK,
//  493    *                             if so, the frame can be verified and responded to immediately,
//  494    *                             if not an ACK, these bytes will be processed normally
//  495    */
//  496 
//  497   /* read frame length, frame control field, and sequence number from FIFO */
//  498   MAC_RADIO_READ_RX_FIFO(rxBuf, MAC_PHY_PHR_LEN + MAC_FCF_FIELD_LEN + MAC_SEQ_NUM_FIELD_LEN);
        ; Setup parameters for call to function macMemReadRxFifo
        MOV       R1,#0x4
        MOV       R2,#rxBuf & 0xff
        MOV       R3,#(rxBuf >> 8) & 0xff
        LCALL     `??macMemReadRxFifo::?relay`; Banked call to: macMemReadRxFifo
//  499 
//  500   /* bytes to read from FIFO equals frame length minus length of MHR fields just read from FIFO */
//  501   rxUnreadLen = (rxBuf[0] & PHY_PACKET_SIZE_MASK) - MAC_FCF_FIELD_LEN - MAC_SEQ_NUM_FIELD_LEN;
        MOV       DPTR,#rxBuf
        MOVX      A,@DPTR
        ANL       A,#0x7f
        ADD       A,#-0x3
        MOV       DPTR,#rxUnreadLen
        MOVX      @DPTR,A
//  502 
//  503   /*
//  504    *  Workaround for chip bug #1547.  The receive buffer can sometimes be corrupted by hardware.
//  505    *  This usually occurs under heavy traffic.  If a corrupted receive buffer is detected
//  506    *  the entire receive buffer is flushed.
//  507    */
//  508   if ((rxUnreadLen > (MAC_A_MAX_PHY_PACKET_SIZE - MAC_FCF_FIELD_LEN - MAC_SEQ_NUM_FIELD_LEN)) ||
//  509       (MAC_FRAME_TYPE(&rxBuf[1]) > MAC_FRAME_TYPE_MAX_VALID))
        CLR       C
        SUBB      A,#0x7d
        JC        $+5
        LJMP      ??rxStartIsr_4 & 0xFFFF
        MOV       DPTR,#rxBuf + 1
        MOVX      A,@DPTR
        ANL       A,#0x7
        CLR       C
        SUBB      A,#0x4
        JC        $+5
        LJMP      ??rxStartIsr_4 & 0xFFFF
//  510   {
//  511     MAC_RADIO_FLUSH_RX_FIFO();
//  512     rxDone();
//  513     return;
//  514   }
//  515 
//  516 
//  517   /*-------------------------------------------------------------------------------
//  518    *  Process ACKs.
//  519    *
//  520    *  If this frame is an ACK, process it immediately and exit from here.
//  521    *  If this frame is not an ACK and transmit is listening for an ACK, let
//  522    *  the transmit logic know an non-ACK was received so transmit can complete.
//  523    *
//  524    *  In promiscuous mode ACKs are treated like any other frame.
//  525    */
//  526   if ((MAC_FRAME_TYPE(&rxBuf[1]) == MAC_FRAME_TYPE_ACK) && (rxPromiscuousMode == PROMISCUOUS_MODE_OFF))
        MOVX      A,@DPTR
        ANL       A,#0x7
        XRL       A,#0x2
        JZ        $+5
        LJMP      ??rxStartIsr_5 & 0xFFFF
        MOV       DPTR,#rxPromiscuousMode
        MOVX      A,@DPTR
        JZ        $+5
        LJMP      ??rxStartIsr_5 & 0xFFFF
//  527   {
//  528     halIntState_t  s;
//  529     uint8 fcsBuf[MAC_FCF_FIELD_LEN];
//  530     /*
//  531      *  There are guaranteed to be two unread bytes in the FIFO.  By defintion, for ACK frames
//  532      *  these two bytes will be the FCS.
//  533      */
//  534 
//  535     /* read FCS from FIFO (threshold set so bytes are guaranteed to be there) */
//  536     MAC_RADIO_READ_RX_FIFO(fcsBuf, MAC_FCS_FIELD_LEN);
        ; Setup parameters for call to function macMemReadRxFifo
        MOV       R1,#0x2
        MOV       R2,?XSP + 0
        MOV       R3,?XSP + 1
        LCALL     `??macMemReadRxFifo::?relay`; Banked call to: macMemReadRxFifo
//  537 
//  538     /*
//  539      *  This critical section ensures that the ACK timeout won't be triggered in the
//  540      *  middle of receiving the ACK frame.
//  541      */
//  542     HAL_ENTER_CRITICAL_SECTION(s);
        MOV       C,0xa8.7
        CLR       A
        RLC       A
        MOV       ?V0,A
        CLR       0xa8.7
//  543 
//  544     /* see if transmit is listening for an ACK */
//  545     if (macTxActive == MAC_TX_ACTIVE_LISTEN_FOR_ACK)
        MOV       DPTR,#macTxActive
        MOVX      A,@DPTR
        XRL       A,#0x86
        JNZ       ??rxStartIsr_6
//  546     {
//  547       MAC_ASSERT(pMacDataTx != NULL); /* transmit buffer must be present */
        MOV       DPTR,#pMacDataTx
        MOVX      A,@DPTR
        MOV       R0,A
        INC       DPTR
        MOVX      A,@DPTR
        MOV       R1,A
        MOV       A,R0
        ORL       A,R1
        JNZ       ??rxStartIsr_7
        ; Setup parameters for call to function halAssertHandler
        LCALL     `??halAssertHandler::?relay`; Banked call to: halAssertHandler
//  548 
//  549       /* record link quality metrics for the receive ACK */
//  550       {
//  551         int8 rssiDbm;
//  552         uint8 corr;
//  553 
//  554         rssiDbm = PROPRIETARY_FCS_RSSI(fcsBuf) + MAC_RADIO_RSSI_OFFSET;
??rxStartIsr_7:
        MOV       DPL,?XSP + 0
        MOV       DPH,?XSP + 1
        MOVX      A,@DPTR
        ADD       A,#-0x49
        MOV       R6,A
//  555         MAC_RADIO_RSSI_LNA_OFFSET(rssiDbm);
//  556         corr = PROPRIETARY_FCS_CORRELATION_VALUE(fcsBuf);
        MOV       A,#0x1
        LCALL     ?XSTACK_DISP0_8
        MOVX      A,@DPTR
        ANL       A,#0x7f
        MOV       R7,A
//  557 
//  558         pMacDataTx->internal.mpduLinkQuality = macRadioComputeLQI(rssiDbm, corr);
        ; Setup parameters for call to function macRadioComputeLQI
        MOV       R2,A
        MOV       A,R6
        MOV       R1,A
        LCALL     `??macRadioComputeLQI::?relay`; Banked call to: macRadioComputeLQI
        MOV       DPTR,#pMacDataTx
        LCALL     ??Subroutine34_0 & 0xFFFF
//  559         pMacDataTx->internal.correlation = corr;
//  560         pMacDataTx->internal.rssi= rssiDbm;
//  561       }
??CrossCallReturnLabel_59:
        ADD       A,#0x15
        MOV       DPL,A
        CLR       A
        ADDC      A,R0
        MOV       DPH,A
        MOV       A,R1
        LCALL     ?Subroutine7 & 0xFFFF
??CrossCallReturnLabel_11:
        ADD       A,#0x16
        MOV       DPL,A
        CLR       A
        ADDC      A,R0
        MOV       DPH,A
        MOV       A,R7
        LCALL     ?Subroutine7 & 0xFFFF
??CrossCallReturnLabel_12:
        ADD       A,#0x17
        MOV       DPL,A
        CLR       A
        ADDC      A,R0
        MOV       DPH,A
        MOV       A,R6
        MOVX      @DPTR,A
//  562 
//  563       /*
//  564        *  It's okay if the ACK timeout is triggered here. The callbacks for ACK received
//  565        *  or ACK not received will check "macTxActive" flag before taking any actions.
//  566        */
//  567       HAL_EXIT_CRITICAL_SECTION(s);
        MOV       A,?V0
        MOV       C,0xE0 /* A   */.0
        MOV       0xa8.7,C
//  568 
//  569       /*
//  570        *  An ACK was received so transmit logic needs to know.  If the FCS failed,
//  571        *  the transmit logic still needs to know.  In that case, treat the frame
//  572        *  as a non-ACK to complete the active transmit.
//  573        */
//  574       if (PROPRIETARY_FCS_CRC_OK(fcsBuf))
        MOV       A,#0x1
        LCALL     ?XSTACK_DISP0_8
        MOVX      A,@DPTR
        MOV       C,0xE0 /* A   */.7
        JNC       ??rxStartIsr_8
//  575       {
//  576         /* call transmit logic to indicate ACK was received */
//  577         macTxAckReceivedCallback(MAC_SEQ_NUMBER(&rxBuf[1]), MAC_FRAME_PENDING(&rxBuf[1]));
        ; Setup parameters for call to function macTxAckReceivedCallback
        MOV       DPTR,#rxBuf + 1
        MOVX      A,@DPTR
        ANL       A,#0x10
        MOV       R2,A
        MOV       DPTR,#rxBuf + 3
        MOVX      A,@DPTR
        MOV       R1,A
        LCALL     `??macTxAckReceivedCallback::?relay`; Banked call to: macTxAckReceivedCallback
        SJMP      ??rxStartIsr_9
//  578       }
//  579       else
//  580       {
//  581         macTxAckNotReceivedCallback();
??rxStartIsr_8:
        ; Setup parameters for call to function macTxAckNotReceivedCallback
        LCALL     `??macTxAckNotReceivedCallback::?relay`; Banked call to: macTxAckNotReceivedCallback
        SJMP      ??rxStartIsr_9
//  582       }
//  583     }
//  584     else
//  585     {
//  586       HAL_EXIT_CRITICAL_SECTION(s);
??rxStartIsr_6:
        MOV       A,?V0
        MOV       C,0xE0 /* A   */.0
        MOV       0xa8.7,C
//  587     }
//  588 
//  589     /* receive is done, exit from here */
//  590     rxDone();
        ; Setup parameters for call to function rxDone
        SJMP      ??rxStartIsr_9
//  591     return;
//  592   }
//  593   else if (macTxActive == MAC_TX_ACTIVE_LISTEN_FOR_ACK)
??rxStartIsr_5:
        MOV       DPTR,#macTxActive
        MOVX      A,@DPTR
        XRL       A,#0x86
        JNZ       ??rxStartIsr_10
//  594   {
//  595     macTxAckNotReceivedCallback();
        ; Setup parameters for call to function macTxAckNotReceivedCallback
        LCALL     `??macTxAckNotReceivedCallback::?relay`; Banked call to: macTxAckNotReceivedCallback
//  596   }
//  597 
//  598   /*-------------------------------------------------------------------------------
//  599    *  Apply filtering.
//  600    *
//  601    *  For efficiency, see if filtering is even 'on' before processing.  Also test
//  602    *  to make sure promiscuous mode is disabled.  If promiscuous mode is enabled,
//  603    *  do not apply filtering.
//  604    */
//  605   if ((rxFilter != RX_FILTER_OFF) && !rxPromiscuousMode)
??rxStartIsr_10:
        MOV       DPTR,#rxFilter
        MOVX      A,@DPTR
        JZ        ??rxStartIsr_11
        MOV       DPTR,#rxPromiscuousMode
        MOVX      A,@DPTR
        JNZ       ??rxStartIsr_11
//  606   {
//  607     if (/* filter all frames */
//  608          (rxFilter == RX_FILTER_ALL) ||
//  609 
//  610          /* filter non-beacon frames */
//  611          ((rxFilter == RX_FILTER_NON_BEACON_FRAMES) &&
//  612           (MAC_FRAME_TYPE(&rxBuf[1]) != MAC_FRAME_TYPE_BEACON)) ||
//  613 
//  614          /* filter non-command frames */
//  615          ((rxFilter == RX_FILTER_NON_COMMAND_FRAMES) &&
//  616           ((MAC_FRAME_TYPE(&rxBuf[1]) != MAC_FRAME_TYPE_COMMAND))))
        MOV       DPTR,#rxFilter
        MOVX      A,@DPTR
        XRL       A,#0x1
        JNZ       $+5
        LJMP      ??rxStartIsr_12 & 0xFFFF
        MOVX      A,@DPTR
        XRL       A,#0x2
        JNZ       ??rxStartIsr_13
        MOV       DPTR,#rxBuf + 1
        MOVX      A,@DPTR
        ANL       A,#0x7
        JNZ       ??rxStartIsr_12
        SJMP      ??rxStartIsr_11
??rxStartIsr_13:
        MOVX      A,@DPTR
        XRL       A,#0x3
        JNZ       ??rxStartIsr_11
        MOV       DPTR,#rxBuf + 1
        MOVX      A,@DPTR
        ANL       A,#0x7
        XRL       A,#0x3
        JNZ       ??rxStartIsr_12
//  617     {
//  618       /* discard rest of frame */
//  619       rxDiscardFrame();
//  620       return;
//  621     }
//  622   }
//  623 
//  624   /*-------------------------------------------------------------------------------
//  625    *  Compute length of addressing fields.  Compute payload length.
//  626    */
//  627 
//  628   /* decode addressing modes */
//  629   dstAddrMode = MAC_DEST_ADDR_MODE(&rxBuf[1]);
??rxStartIsr_11:
        MOV       DPTR,#rxBuf + 2
        MOVX      A,@DPTR
        MOV       R0,A
        RRC       A
        RRC       A
        ANL       A,#0x3f
        ANL       A,#0x3
        MOV       ?V0,A
//  630   srcAddrMode = MAC_SRC_ADDR_MODE(&rxBuf[1]);
        MOV       A,R0
        SWAP      A
        RRC       A
        RRC       A
        ANL       A,#0x3
        MOV       ?V1,A
//  631 
//  632   /*
//  633   *  Workaround for chip bug #1547.  The receive buffer can sometimes be corrupted by hardware.
//  634    *  This usually occurs under heavy traffic.  If a corrupted receive buffer is detected
//  635    *  the entire receive buffer is flushed.
//  636    */
//  637   if (macChipVersion == REV_A)
        MOV       DPTR,#macChipVersion
        MOVX      A,@DPTR
        JNZ       ??rxStartIsr_14
//  638   {
//  639     if ((srcAddrMode == ADDR_MODE_RESERVERED) || (dstAddrMode == ADDR_MODE_RESERVERED))
        MOV       A,#0x1
        XRL       A,?V1
        JZ        ??rxStartIsr_4
        MOV       A,#0x1
        XRL       A,?V0
        JNZ       ??rxStartIsr_14
//  640     {
//  641       MAC_RADIO_FLUSH_RX_FIFO();
??rxStartIsr_4:
        MOV       0xe1,#-0x13
        MOV       0xe1,#-0x13
//  642       rxDone();
        ; Setup parameters for call to function rxDone
??rxStartIsr_9:
        LCALL     `??rxDone::?relay`; Banked call to: rxDone
//  643       return;
        LJMP      ??rxStartIsr_3 & 0xFFFF
//  644     }
//  645   }
//  646 
//  647   /*
//  648    *  Compute the addressing field length.  A lookup table based on addressing
//  649    *  mode is used for efficiency.  If the source address is present and the
//  650    *  frame is intra-PAN, the PAN Id is not repeated.  In this case, the address
//  651    *  length is adjusted to match the smaller length.
//  652    */
//  653   addrLen = macRxAddrLen[dstAddrMode] + macRxAddrLen[srcAddrMode];
??rxStartIsr_14:
        MOV       R0,?V1
        LCALL     ?Subroutine22 & 0xFFFF
??CrossCallReturnLabel_37:
        MOV       R2,A
        MOV       R0,?V0
        LCALL     ?Subroutine22 & 0xFFFF
??CrossCallReturnLabel_38:
        ADD       A,R2
        MOV       R6,A
//  654   if ((srcAddrMode != SADDR_MODE_NONE) && MAC_INTRA_PAN(&rxBuf[1]))
        MOV       A,?V1
        JZ        ??rxStartIsr_15
        MOV       DPTR,#rxBuf + 1
        MOVX      A,@DPTR
        MOV       C,0xE0 /* A   */.6
        JNC       ??rxStartIsr_15
//  655   {
//  656     addrLen -= MAC_PAN_ID_FIELD_LEN;
        DEC       R6
        DEC       R6
//  657   }
//  658 
//  659   /*
//  660    *  If there are not enough unread bytes to include the computed address
//  661    *  plus FCS field, the frame is corrupted and must be discarded.
//  662    */
//  663   if ((addrLen + MAC_FCS_FIELD_LEN) > rxUnreadLen)
??rxStartIsr_15:
        MOV       DPTR,#rxUnreadLen
        MOVX      A,@DPTR
        MOV       R2,A
        MOV       A,R6
        MOV       R1,#0x0
        ADD       A,#0x2
        MOV       R0,A
        JNC       ??rxStartIsr_16
        INC       R1
??rxStartIsr_16:
        CLR       C
        MOV       A,R2
        SUBB      A,R0
        CLR       A
        SUBB      A,R1
        MOV       C,0xD0 /* PSW */.2
        XRL       A,PSW
        RLC       A
        JNC       ??rxStartIsr_17
//  664   {
//  665     /* discard frame and exit */
//  666     rxDiscardFrame();
??rxStartIsr_12:
        ; Setup parameters for call to function rxDiscardFrame
        LCALL     `??rxDiscardFrame::?relay`; Banked call to: rxDiscardFrame
//  667     return;
        LJMP      ??rxStartIsr_3 & 0xFFFF
//  668   }
//  669 
//  670   /* aux security header plus payload length is equal to unread bytes minus
//  671    * address length, minus the FCS
//  672    */
//  673   rxPayloadLen = rxUnreadLen - addrLen - MAC_FCS_FIELD_LEN;
??rxStartIsr_17:
        MOVX      A,@DPTR
        CLR       C
        SUBB      A,R6
        ADD       A,#-0x2
        MOV       DPTR,#rxPayloadLen
        LCALL     ?Subroutine4 & 0xFFFF
//  674 
//  675   /*-------------------------------------------------------------------------------
//  676    *  Allocate memory for the incoming frame.
//  677    */
//  678   if (MAC_SEC_ENABLED(&rxBuf[1]))
??CrossCallReturnLabel_6:
        JNC       ??rxStartIsr_18
//  679   {
//  680     /* increase the allocation size of MAC header for security */
//  681     mhrLen = MAC_MHR_LEN;
        MOV       ?V2,#0x25
//  682   }
//  683 
//  684   pRxBuf = (macRx_t *) MEM_ALLOC(sizeof(macRx_t) + mhrLen + rxPayloadLen);
??rxStartIsr_18:
        ; Setup parameters for call to function macDataRxMemAlloc
        MOV       DPTR,#rxPayloadLen
        MOVX      A,@DPTR
        MOV       R0,A
        MOV       A,?V2
        ADD       A,R0
        MOV       R0,A
        CLR       A
        ADDC      A,#0x0
        MOV       R1,A
        MOV       A,R0
        ADD       A,#0x3a
        MOV       R2,A
        CLR       A
        ADDC      A,R1
        MOV       R3,A
        LCALL     `??macDataRxMemAlloc::?relay`; Banked call to: macDataRxMemAlloc
        MOV       DPTR,#pRxBuf
        LCALL     ??Subroutine35_0 & 0xFFFF
//  685   if (pRxBuf == NULL)
??CrossCallReturnLabel_68:
        MOV       R1,A
        MOV       A,R2
        ORL       A,R1
        JNZ       ??rxStartIsr_19
//  686   {
//  687     /* Cancel the outgoing TX ACK */
//  688     MAC_RADIO_CANCEL_TX_ACK();
        MOV       0xe1,#-0x18
        SJMP      ??rxStartIsr_12
//  689 
//  690     /* buffer allocation failed, discard the frame and exit*/
//  691     rxDiscardFrame();
//  692     return;
//  693   }
//  694 
//  695   /*-------------------------------------------------------------------------------
//  696    *  Set up to process ACK request.  Do not ACK if in promiscuous mode.
//  697    */
//  698   ackWithPending = 0;
??rxStartIsr_19:
        MOV       R7,#0x0
//  699   if (!rxPromiscuousMode)
        MOV       DPTR,#rxPromiscuousMode
        MOVX      A,@DPTR
        JNZ       ??rxStartIsr_20
//  700   {
//  701     macRxOutgoingAckFlag = MAC_ACK_REQUEST(&rxBuf[1]);
        MOV       DPTR,#rxBuf + 1
        MOVX      A,@DPTR
        ANL       A,#0x20
        MOV       DPTR,#macRxOutgoingAckFlag
        MOVX      @DPTR,A
//  702   }
//  703 
//  704   /*-------------------------------------------------------------------------------
//  705    *  Process any ACK request.
//  706    */
//  707   if (macRxOutgoingAckFlag)
??rxStartIsr_20:
        MOV       DPTR,#macRxOutgoingAckFlag
        MOVX      A,@DPTR
        JZ        ??rxStartIsr_21
//  708   {
//  709     halIntState_t  s;
//  710 
//  711     /*
//  712      *  This critical section ensures that the callback ISR is initiated within time
//  713      *  to guarantee correlation with the strobe.
//  714      */
//  715     HAL_ENTER_CRITICAL_SECTION(s);
        MOV       C,0xa8.7
        CLR       A
        RLC       A
        MOV       ?V2,A
        CLR       0xa8.7
//  716 
//  717     /* Do not ack data packet with pending more data */
//  718     if( MAC_FRAME_TYPE(&rxBuf[1]) == MAC_FRAME_TYPE_COMMAND )
        MOV       DPTR,#rxBuf + 1
        MOVX      A,@DPTR
        ANL       A,#0x7
        XRL       A,#0x3
        JNZ       ??rxStartIsr_22
//  719     {
//  720       if( macRxCheckMACPendingCallback())
        ; Setup parameters for call to function macRxCheckMACPendingCallback
        LCALL     `??macRxCheckMACPendingCallback::?relay`; Banked call to: macRxCheckMACPendingCallback
        MOV       A,R1
        JZ        $+5
        LJMP      ??rxStartIsr_23 & 0xFFFF
//  721       {
//  722         /* Check is any mac data pending for end devices */
//  723         ackWithPending = MAC_RX_FLAG_ACK_PENDING;
//  724       }
//  725       else
//  726       {
//  727         if( macSrcMatchIsEnabled )
        MOV       DPTR,#macSrcMatchIsEnabled
        MOVX      A,@DPTR
        JNZ       $+5
        LJMP      ??rxStartIsr_24 & 0xFFFF
//  728         {
//  729           /* When autopend is enabled, check if allpending is set to true */
//  730           if( MAC_SrcMatchCheckAllPending() == MAC_AUTOACK_PENDING_ALL_ON )
        ; Setup parameters for call to function MAC_SrcMatchCheckAllPending
        LCALL     `??MAC_SrcMatchCheckAllPending::?relay`; Banked call to: MAC_SrcMatchCheckAllPending
        MOV       A,R1
        XRL       A,#0xfe
        JNZ       $+5
        LJMP      ??rxStartIsr_23 & 0xFFFF
//  731           {
//  732             ackWithPending = MAC_RX_FLAG_ACK_PENDING;
//  733           }
//  734         }
//  735         else
//  736         {
//  737           /* When autopend is disabled, check the application pending callback */
//  738           if( macRxCheckPendingCallback() )
//  739           {
//  740             ackWithPending = MAC_RX_FLAG_ACK_PENDING;
//  741           }
//  742         }
//  743       }
//  744     }
//  745 
//  746     if( ackWithPending == MAC_RX_FLAG_ACK_PENDING )
//  747     {
//  748       MAC_RADIO_TX_ACK_PEND();
//  749     }
//  750     else
//  751     {
//  752       MAC_RADIO_TX_ACK();
??rxStartIsr_22:
        MOV       DPTR,#0x618a
        MOVX      A,@DPTR
        CLR       0xE0 /* A   */.2
//  753     }
??rxStartIsr_25:
        LCALL     ?Subroutine10 & 0xFFFF
//  754 
//  755 
//  756     /* request a callback to macRxAckTxDoneCallback() when the ACK transmit has finished */
//  757     MAC_RADIO_REQUEST_ACK_TX_DONE_CALLBACK();
??CrossCallReturnLabel_16:
        MOV       0x91,#-0x2
        MOV       A,R0
        MOV       C,0xE0 /* A   */.7
        MOV       0xa8.7,C
        MOV       DPTR,#0x61a4
        MOVX      A,@DPTR
        SETB      0xE0 /* A   */.0
        MOVX      @DPTR,A
//  758     HAL_EXIT_CRITICAL_SECTION(s);
        MOV       A,?V2
        MOV       C,0xE0 /* A   */.0
        MOV       0xa8.7,C
//  759   }
//  760 
//  761  /*-------------------------------------------------------------------------------
//  762   *  Populate the receive buffer going up to high-level.
//  763   */
//  764 
//  765   /* configure the payload buffer
//  766    * save MAC header pointer regardless of security status.
//  767    */
//  768   pRxBuf->mhr.p   = pRxBuf->msdu.p   = (uint8 *) (pRxBuf + 1);
??rxStartIsr_21:
        LCALL     ?Subroutine15 & 0xFFFF
??CrossCallReturnLabel_24:
        MOV       DPH,A
        MOV       DPL,R2
        INC       DPTR
        INC       DPTR
        MOV       A,R0
        MOVX      @DPTR,A
        INC       DPTR
        MOV       A,R1
        LCALL     ?Subroutine8 & 0xFFFF
??CrossCallReturnLabel_14:
        LCALL     ?Subroutine24 & 0xFFFF
//  769   pRxBuf->mhr.len = pRxBuf->msdu.len =  rxPayloadLen;
??CrossCallReturnLabel_51:
        MOV       DPTR,#rxPayloadLen
        MOVX      A,@DPTR
        PUSH      A
          CFI CFA_SP SP+-1
        LCALL     ?Subroutine11 & 0xFFFF
??CrossCallReturnLabel_17:
        POP       A
          CFI CFA_SP SP+0
        MOVX      @DPTR,A
        LCALL     ?Subroutine11 & 0xFFFF
??CrossCallReturnLabel_18:
        MOVX      A,@DPTR
        PUSH      A
          CFI CFA_SP SP+-1
        MOV       DPTR,#pRxBuf + 1
        LCALL     ??Subroutine32_0 & 0xFFFF
??CrossCallReturnLabel_53:
        POP       A
          CFI CFA_SP SP+0
        LCALL     ?Subroutine4 & 0xFFFF
//  770 
//  771   if (MAC_SEC_ENABLED(&rxBuf[1]))
??CrossCallReturnLabel_7:
        JNC       ??CrossCallReturnLabel_69
//  772   {
//  773     /* Copy FCF and sequence number to RX buffer */
//  774     pRxBuf->mhr.len = MAC_FCF_FIELD_LEN + MAC_SEQ_NUM_FIELD_LEN;
        LCALL     ?Subroutine14 & 0xFFFF
??CrossCallReturnLabel_54:
        MOV       A,#0x3
        MOVX      @DPTR,A
//  775     osal_memcpy(pRxBuf->mhr.p, &rxBuf[1], pRxBuf->mhr.len);
        ; Setup parameters for call to function osal_memcpy
        MOV       ?V4,#(rxBuf + 1) & 0xff
        MOV       ?V5,#((rxBuf + 1) >> 8) & 0xff
        MOV       ?V6,#0x0
        MOV       R0,#?V4
        LCALL     ?PUSH_XSTACK_I_THREE
          CFI CFA_XSP16 add(XSP16, 20)
        LCALL     ?Subroutine14 & 0xFFFF
??CrossCallReturnLabel_55:
        MOVX      A,@DPTR
        MOV       R4,A
        MOV       R5,#0x0
        LCALL     ?Subroutine13 & 0xFFFF
??CrossCallReturnLabel_22:
        LCALL     `??osal_memcpy::?relay`; Banked call to: osal_memcpy
        MOV       A,#0x3
        LCALL     ?DEALLOC_XSTACK8
          CFI CFA_XSP16 add(XSP16, 17)
//  776     pRxBuf->mhr.p += pRxBuf->mhr.len;
        MOV       DPTR,#pRxBuf
        MOVX      A,@DPTR
        ADD       A,#0x33
        LCALL     ?Subroutine12 & 0xFFFF
//  777   }
??CrossCallReturnLabel_20:
        LCALL     ?Subroutine9 & 0xFFFF
//  778 
//  779   /* set internal values */
//  780   pRxBuf->mac.srcAddr.addrMode  = srcAddrMode;
??CrossCallReturnLabel_69:
        LCALL     ?Subroutine18 & 0xFFFF
??CrossCallReturnLabel_60:
        ADD       A,#0x1b
        MOV       DPL,A
        CLR       A
        ADDC      A,R0
        MOV       DPH,A
        MOV       A,?V1
        LCALL     ?Subroutine2 & 0xFFFF
//  781   pRxBuf->mac.dstAddr.addrMode  = dstAddrMode;
??CrossCallReturnLabel_0:
        ADD       A,#0x24
        MOV       DPL,A
        CLR       A
        ADDC      A,R0
        MOV       DPH,A
        MOV       A,?V0
        MOVX      @DPTR,A
//  782   pRxBuf->mac.timestamp         = MAC_RADIO_BACKOFF_CAPTURE();
        ; Setup parameters for call to function macMcuOverflowCapture
        LCALL     `??macMcuOverflowCapture::?relay`; Banked call to: macMcuOverflowCapture
        MOV       ?V0,R2
        MOV       ?V1,R3
        MOV       ?V2,R4
        MOV       ?V3,R5
        LCALL     ?Subroutine18 & 0xFFFF
??CrossCallReturnLabel_61:
        ADD       A,#0x25
        MOV       DPL,A
        CLR       A
        ADDC      A,R0
        MOV       DPH,A
        MOV       R0,#?V0
        LCALL     ?L_MOV_TO_X
//  783   pRxBuf->mac.timestamp2        = MAC_RADIO_TIMER_CAPTURE();
        ; Setup parameters for call to function macMcuTimerCapture
        LCALL     `??macMcuTimerCapture::?relay`; Banked call to: macMcuTimerCapture
        MOV       ?V0,R2
        LCALL     ??Subroutine38_0 & 0xFFFF
??CrossCallReturnLabel_72:
        XCH       A,R2
        ADD       A,#0x29
        MOV       DPL,A
        CLR       A
        ADDC      A,R2
        MOV       DPH,A
        MOV       A,?V0
        LCALL     ??Subroutine36_0 & 0xFFFF
//  784 
//  785   /* Special Case for Enhanced Beacon Request which has a different
//  786    * frame version
//  787    */
//  788 #ifdef FEATURE_ENHANCED_BEACON
//  789   if( MAC_FRAME_VERSION(&rxBuf[1]) == 2 )
//  790   {
//  791       pRxBuf->internal.frameType  = MAC_FRAME_TYPE_INTERNAL_MAC_VERSION_E | \ 
//  792                                   MAC_FRAME_TYPE(&rxBuf[1]);
//  793   }
//  794   else
//  795 #endif
//  796   {
//  797     pRxBuf->internal.frameType  = MAC_FRAME_TYPE(&rxBuf[1]);
??CrossCallReturnLabel_65:
        MOV       DPTR,#rxBuf + 1
        MOVX      A,@DPTR
        ANL       A,#0x7
        PUSH      A
          CFI CFA_SP SP+-1
        LCALL     ?Subroutine11 & 0xFFFF
//  798   }
??CrossCallReturnLabel_19:
        INC       DPTR
        POP       A
          CFI CFA_SP SP+0
        MOVX      @DPTR,A
//  799 
//  800   pRxBuf->mac.dsn               = MAC_SEQ_NUMBER(&rxBuf[1]);
        MOV       DPTR,#rxBuf + 3
        MOVX      A,@DPTR
        PUSH      A
          CFI CFA_SP SP+-1
        LCALL     ?Subroutine18 & 0xFFFF
??CrossCallReturnLabel_62:
        ADD       A,#0x32
        MOV       DPL,A
        CLR       A
        ADDC      A,R0
        MOV       DPH,A
        POP       A
          CFI CFA_SP SP+0
        MOVX      @DPTR,A
//  801   pRxBuf->internal.flags        = INTERNAL_FCF_FLAGS(&rxBuf[1]) | ackWithPending;
        MOV       DPTR,#rxBuf + 1
        MOVX      A,@DPTR
        ANL       A,#0x78
        MOV       R0,A
        INC       DPTR
        MOVX      A,@DPTR
        SWAP      A
        ANL       A,#0xf
        ANL       A,#0x3
        ORL       A,R0
        ORL       A,R7
        PUSH      A
          CFI CFA_SP SP+-1
        LCALL     ?Subroutine17 & 0xFFFF
??CrossCallReturnLabel_29:
        POP       A
          CFI CFA_SP SP+0
        MOVX      @DPTR,A
//  802 
//  803   /*-------------------------------------------------------------------------------
//  804    *  If the processing the addressing fields does not require more bytes from
//  805    *  the FIFO go directly address processing function.  Otherwise, configure
//  806    *  interrupt to jump there once bytes are received.
//  807    */
//  808   if (addrLen == 0)
        MOV       A,R6
        JNZ       ??rxStartIsr_26
//  809   {
//  810     /* no addressing fields to read, prepare for payload interrupts */
//  811     pFuncRxState = &rxPayloadIsr;
        LCALL     ?Subroutine5 & 0xFFFF
//  812     rxPrepPayload();
//  813   }
??CrossCallReturnLabel_9:
        SJMP      ??rxStartIsr_3
??rxStartIsr_24:
        ; Setup parameters for call to function macRxCheckPendingCallback
        LCALL     `??macRxCheckPendingCallback::?relay`; Banked call to: macRxCheckPendingCallback
        MOV       A,R1
        JNZ       $+5
        LJMP      ??rxStartIsr_22 & 0xFFFF
??rxStartIsr_23:
        MOV       R7,#0x4
        MOV       DPTR,#0x618a
        MOVX      A,@DPTR
        SETB      0xE0 /* A   */.2
        LJMP      ??rxStartIsr_25 & 0xFFFF
//  814   else
//  815   {
//  816     /* need to read and process addressing fields, prepare for address interrupt */
//  817     rxNextLen = addrLen;
??rxStartIsr_26:
        MOV       DPTR,#rxNextLen
        LCALL     ?Subroutine4 & 0xFFFF
//  818     if (MAC_SEC_ENABLED(&rxBuf[1]))
??CrossCallReturnLabel_8:
        MOV       DPTR,#rxNextLen
        MOVX      A,@DPTR
        JC        ??rxStartIsr_27
//  819     {
//  820       /* When security is enabled, read off security control field as well */
//  821       MAC_RADIO_SET_RX_THRESHOLD(rxNextLen + MAC_SEC_CONTROL_FIELD_LEN);
//  822     }
//  823     else
//  824     {
//  825       MAC_RADIO_SET_RX_THRESHOLD(rxNextLen);
        DEC       A
??rxStartIsr_27:
        MOV       DPTR,#0x6194
        MOVX      @DPTR,A
//  826     }
//  827     pFuncRxState = &rxAddrIsr;
        MOV       DPTR,#pFuncRxState
        MOV       A,#`??rxAddrIsr::?relay` & 0xff
        MOVX      @DPTR,A
        INC       DPTR
        MOV       A,#(`??rxAddrIsr::?relay` >> 8) & 0xff
        MOVX      @DPTR,A
//  828   }
//  829 }
??rxStartIsr_3:
        MOV       A,#0x2
        LCALL     ?DEALLOC_XSTACK8
          CFI CFA_XSP16 add(XSP16, 15)
        MOV       R7,#0x7
        LJMP      ?BANKED_LEAVE_XDATA
          CFI EndBlock cfiBlock9
        REQUIRE RFST
        REQUIRE _A_IEN0
        REQUIRE S1CON
        REQUIRE RFIRQF1

        RSEG BANKED_CODE:HUGECODE:NOROOT(0)
?Subroutine24:
          CFI Block cfiCond10 Using cfiCommon0
          CFI Function rxStartIsr
          CFI Conditional ??CrossCallReturnLabel_51
          CFI R6 load(1, XDATA, add(CFA_XSP16, literal(-15)))
          CFI VB load(1, XDATA, add(CFA_XSP16, literal(-14)))
          CFI V0 load(1, XDATA, add(CFA_XSP16, literal(-13)))
          CFI V1 load(1, XDATA, add(CFA_XSP16, literal(-12)))
          CFI V2 load(1, XDATA, add(CFA_XSP16, literal(-11)))
          CFI V3 load(1, XDATA, add(CFA_XSP16, literal(-10)))
          CFI V4 load(1, XDATA, add(CFA_XSP16, literal(-9)))
          CFI V5 load(1, XDATA, add(CFA_XSP16, literal(-8)))
          CFI V6 load(1, XDATA, add(CFA_XSP16, literal(-7)))
          CFI R7 load(1, XDATA, add(CFA_XSP16, literal(-6)))
          CFI ?RET_LOW load(1, XDATA, add(CFA_XSP16, literal(-5)))
          CFI ?RET_HIGH load(1, XDATA, add(CFA_XSP16, literal(-4)))
          CFI ?BRET_EXT load(1, XDATA, add(CFA_XSP16, literal(-3)))
          CFI DPL0 load(1, XDATA, add(CFA_XSP16, literal(-2)))
          CFI DPH0 load(1, XDATA, add(CFA_XSP16, literal(-1)))
          CFI CFA_SP SP+-2
          CFI CFA_XSP16 add(XSP16, 17)
          CFI Block cfiCond11 Using cfiCommon0
          CFI (cfiCond11) Function rxFcsIsr
          CFI (cfiCond11) Conditional ??CrossCallReturnLabel_52
          CFI (cfiCond11) R6 load(1, XDATA, add(CFA_XSP16, literal(-10)))
          CFI (cfiCond11) VB load(1, XDATA, add(CFA_XSP16, literal(-9)))
          CFI (cfiCond11) V0 load(1, XDATA, add(CFA_XSP16, literal(-8)))
          CFI (cfiCond11) V1 load(1, XDATA, add(CFA_XSP16, literal(-7)))
          CFI (cfiCond11) R7 load(1, XDATA, add(CFA_XSP16, literal(-6)))
          CFI (cfiCond11) ?RET_LOW load(1, XDATA, add(CFA_XSP16, literal(-5)))
          CFI (cfiCond11) ?RET_HIGH load(1, XDATA, add(CFA_XSP16, literal(-4)))
          CFI (cfiCond11) ?BRET_EXT load(1, XDATA, add(CFA_XSP16, literal(-3)))
          CFI (cfiCond11) DPL0 load(1, XDATA, add(CFA_XSP16, literal(-2)))
          CFI (cfiCond11) DPH0 load(1, XDATA, add(CFA_XSP16, literal(-1)))
          CFI (cfiCond11) CFA_SP SP+-2
          CFI (cfiCond11) CFA_XSP16 add(XSP16, 10)
          CFI Block cfiPicker12 Using cfiCommon1
          CFI (cfiPicker12) NoFunction
          CFI (cfiPicker12) Picker
        XCH       A,R2
        ADD       A,#0x33
          CFI EndBlock cfiCond10
          CFI EndBlock cfiCond11
          CFI EndBlock cfiPicker12
        REQUIRE ??Subroutine31_0
        ; // Fall through to label ??Subroutine31_0

        RSEG BANKED_CODE:HUGECODE:NOROOT(0)
??Subroutine31_0:
          CFI Block cfiCond13 Using cfiCommon0
          CFI Function rxAddrIsr
          CFI Conditional ??CrossCallReturnLabel_49
          CFI R6 load(1, XDATA, add(CFA_XSP16, literal(-10)))
          CFI VB load(1, XDATA, add(CFA_XSP16, literal(-9)))
          CFI V0 load(1, XDATA, add(CFA_XSP16, literal(-8)))
          CFI V1 load(1, XDATA, add(CFA_XSP16, literal(-7)))
          CFI R7 load(1, XDATA, add(CFA_XSP16, literal(-6)))
          CFI ?RET_LOW load(1, XDATA, add(CFA_XSP16, literal(-5)))
          CFI ?RET_HIGH load(1, XDATA, add(CFA_XSP16, literal(-4)))
          CFI ?BRET_EXT load(1, XDATA, add(CFA_XSP16, literal(-3)))
          CFI DPL0 load(1, XDATA, add(CFA_XSP16, literal(-2)))
          CFI DPH0 load(1, XDATA, add(CFA_XSP16, literal(-1)))
          CFI CFA_SP SP+-2
          CFI CFA_XSP16 add(XSP16, 30)
          CFI Block cfiCond14 Using cfiCommon0
          CFI (cfiCond14) Function rxAddrIsr
          CFI (cfiCond14) Conditional ??CrossCallReturnLabel_50
          CFI (cfiCond14) R6 load(1, XDATA, add(CFA_XSP16, literal(-10)))
          CFI (cfiCond14) VB load(1, XDATA, add(CFA_XSP16, literal(-9)))
          CFI (cfiCond14) V0 load(1, XDATA, add(CFA_XSP16, literal(-8)))
          CFI (cfiCond14) V1 load(1, XDATA, add(CFA_XSP16, literal(-7)))
          CFI (cfiCond14) R7 load(1, XDATA, add(CFA_XSP16, literal(-6)))
          CFI (cfiCond14) ?RET_LOW load(1, XDATA, add(CFA_XSP16, literal(-5)))
          CFI (cfiCond14) ?RET_HIGH load(1, XDATA, add(CFA_XSP16, literal(-4)))
          CFI (cfiCond14) ?BRET_EXT load(1, XDATA, add(CFA_XSP16, literal(-3)))
          CFI (cfiCond14) DPL0 load(1, XDATA, add(CFA_XSP16, literal(-2)))
          CFI (cfiCond14) DPH0 load(1, XDATA, add(CFA_XSP16, literal(-1)))
          CFI (cfiCond14) CFA_SP SP+-2
          CFI (cfiCond14) CFA_XSP16 add(XSP16, 30)
          CFI Block cfiCond15 Using cfiCommon0
          CFI (cfiCond15) Function rxStartIsr
          CFI (cfiCond15) Conditional ??CrossCallReturnLabel_51
          CFI (cfiCond15) R6 load(1, XDATA, add(CFA_XSP16, literal(-15)))
          CFI (cfiCond15) VB load(1, XDATA, add(CFA_XSP16, literal(-14)))
          CFI (cfiCond15) V0 load(1, XDATA, add(CFA_XSP16, literal(-13)))
          CFI (cfiCond15) V1 load(1, XDATA, add(CFA_XSP16, literal(-12)))
          CFI (cfiCond15) V2 load(1, XDATA, add(CFA_XSP16, literal(-11)))
          CFI (cfiCond15) V3 load(1, XDATA, add(CFA_XSP16, literal(-10)))
          CFI (cfiCond15) V4 load(1, XDATA, add(CFA_XSP16, literal(-9)))
          CFI (cfiCond15) V5 load(1, XDATA, add(CFA_XSP16, literal(-8)))
          CFI (cfiCond15) V6 load(1, XDATA, add(CFA_XSP16, literal(-7)))
          CFI (cfiCond15) R7 load(1, XDATA, add(CFA_XSP16, literal(-6)))
          CFI (cfiCond15) ?RET_LOW load(1, XDATA, add(CFA_XSP16, literal(-5)))
          CFI (cfiCond15) ?RET_HIGH load(1, XDATA, add(CFA_XSP16, literal(-4)))
          CFI (cfiCond15) ?BRET_EXT load(1, XDATA, add(CFA_XSP16, literal(-3)))
          CFI (cfiCond15) DPL0 load(1, XDATA, add(CFA_XSP16, literal(-2)))
          CFI (cfiCond15) DPH0 load(1, XDATA, add(CFA_XSP16, literal(-1)))
          CFI (cfiCond15) CFA_SP SP+-2
          CFI (cfiCond15) CFA_XSP16 add(XSP16, 17)
          CFI Block cfiCond16 Using cfiCommon0
          CFI (cfiCond16) Function rxFcsIsr
          CFI (cfiCond16) Conditional ??CrossCallReturnLabel_52
          CFI (cfiCond16) R6 load(1, XDATA, add(CFA_XSP16, literal(-10)))
          CFI (cfiCond16) VB load(1, XDATA, add(CFA_XSP16, literal(-9)))
          CFI (cfiCond16) V0 load(1, XDATA, add(CFA_XSP16, literal(-8)))
          CFI (cfiCond16) V1 load(1, XDATA, add(CFA_XSP16, literal(-7)))
          CFI (cfiCond16) R7 load(1, XDATA, add(CFA_XSP16, literal(-6)))
          CFI (cfiCond16) ?RET_LOW load(1, XDATA, add(CFA_XSP16, literal(-5)))
          CFI (cfiCond16) ?RET_HIGH load(1, XDATA, add(CFA_XSP16, literal(-4)))
          CFI (cfiCond16) ?BRET_EXT load(1, XDATA, add(CFA_XSP16, literal(-3)))
          CFI (cfiCond16) DPL0 load(1, XDATA, add(CFA_XSP16, literal(-2)))
          CFI (cfiCond16) DPH0 load(1, XDATA, add(CFA_XSP16, literal(-1)))
          CFI (cfiCond16) CFA_SP SP+-2
          CFI (cfiCond16) CFA_XSP16 add(XSP16, 10)
          CFI Block cfiPicker17 Using cfiCommon1
          CFI (cfiPicker17) NoFunction
          CFI (cfiPicker17) Picker
        MOV       DPL,A
        CLR       A
        ADDC      A,R2
        MOV       DPH,A
        MOV       A,R0
        MOVX      @DPTR,A
        INC       DPTR
        MOV       A,R1
        MOVX      @DPTR,A
        RET
          CFI EndBlock cfiCond13
          CFI EndBlock cfiCond14
          CFI EndBlock cfiCond15
          CFI EndBlock cfiCond16
          CFI EndBlock cfiPicker17

        RSEG BANKED_CODE:HUGECODE:NOROOT(0)
?Subroutine22:
          CFI Block cfiCond18 Using cfiCommon0
          CFI Function rxStartIsr
          CFI Conditional ??CrossCallReturnLabel_37
          CFI R6 load(1, XDATA, add(CFA_XSP16, literal(-15)))
          CFI VB load(1, XDATA, add(CFA_XSP16, literal(-14)))
          CFI V0 load(1, XDATA, add(CFA_XSP16, literal(-13)))
          CFI V1 load(1, XDATA, add(CFA_XSP16, literal(-12)))
          CFI V2 load(1, XDATA, add(CFA_XSP16, literal(-11)))
          CFI V3 load(1, XDATA, add(CFA_XSP16, literal(-10)))
          CFI V4 load(1, XDATA, add(CFA_XSP16, literal(-9)))
          CFI V5 load(1, XDATA, add(CFA_XSP16, literal(-8)))
          CFI V6 load(1, XDATA, add(CFA_XSP16, literal(-7)))
          CFI R7 load(1, XDATA, add(CFA_XSP16, literal(-6)))
          CFI ?RET_LOW load(1, XDATA, add(CFA_XSP16, literal(-5)))
          CFI ?RET_HIGH load(1, XDATA, add(CFA_XSP16, literal(-4)))
          CFI ?BRET_EXT load(1, XDATA, add(CFA_XSP16, literal(-3)))
          CFI DPL0 load(1, XDATA, add(CFA_XSP16, literal(-2)))
          CFI DPH0 load(1, XDATA, add(CFA_XSP16, literal(-1)))
          CFI CFA_SP SP+-2
          CFI CFA_XSP16 add(XSP16, 17)
          CFI Block cfiCond19 Using cfiCommon0
          CFI (cfiCond19) Function rxStartIsr
          CFI (cfiCond19) Conditional ??CrossCallReturnLabel_38
          CFI (cfiCond19) R6 load(1, XDATA, add(CFA_XSP16, literal(-15)))
          CFI (cfiCond19) VB load(1, XDATA, add(CFA_XSP16, literal(-14)))
          CFI (cfiCond19) V0 load(1, XDATA, add(CFA_XSP16, literal(-13)))
          CFI (cfiCond19) V1 load(1, XDATA, add(CFA_XSP16, literal(-12)))
          CFI (cfiCond19) V2 load(1, XDATA, add(CFA_XSP16, literal(-11)))
          CFI (cfiCond19) V3 load(1, XDATA, add(CFA_XSP16, literal(-10)))
          CFI (cfiCond19) V4 load(1, XDATA, add(CFA_XSP16, literal(-9)))
          CFI (cfiCond19) V5 load(1, XDATA, add(CFA_XSP16, literal(-8)))
          CFI (cfiCond19) V6 load(1, XDATA, add(CFA_XSP16, literal(-7)))
          CFI (cfiCond19) R7 load(1, XDATA, add(CFA_XSP16, literal(-6)))
          CFI (cfiCond19) ?RET_LOW load(1, XDATA, add(CFA_XSP16, literal(-5)))
          CFI (cfiCond19) ?RET_HIGH load(1, XDATA, add(CFA_XSP16, literal(-4)))
          CFI (cfiCond19) ?BRET_EXT load(1, XDATA, add(CFA_XSP16, literal(-3)))
          CFI (cfiCond19) DPL0 load(1, XDATA, add(CFA_XSP16, literal(-2)))
          CFI (cfiCond19) DPH0 load(1, XDATA, add(CFA_XSP16, literal(-1)))
          CFI (cfiCond19) CFA_SP SP+-2
          CFI (cfiCond19) CFA_XSP16 add(XSP16, 17)
          CFI Block cfiPicker20 Using cfiCommon1
          CFI (cfiPicker20) NoFunction
          CFI (cfiPicker20) Picker
        MOV       A,#macRxAddrLen & 0xff
        ADD       A,R0
        MOV       DPL,A
        CLR       A
        ADDC      A,#(macRxAddrLen >> 8) & 0xff
        MOV       DPH,A
        CLR       A
        MOVC      A,@A+DPTR
        RET
          CFI EndBlock cfiCond18
          CFI EndBlock cfiCond19
          CFI EndBlock cfiPicker20

        RSEG BANKED_CODE:HUGECODE:NOROOT(0)
?Subroutine14:
          CFI Block cfiCond21 Using cfiCommon0
          CFI Function rxStartIsr
          CFI Conditional ??CrossCallReturnLabel_54
          CFI R6 load(1, XDATA, add(CFA_XSP16, literal(-15)))
          CFI VB load(1, XDATA, add(CFA_XSP16, literal(-14)))
          CFI V0 load(1, XDATA, add(CFA_XSP16, literal(-13)))
          CFI V1 load(1, XDATA, add(CFA_XSP16, literal(-12)))
          CFI V2 load(1, XDATA, add(CFA_XSP16, literal(-11)))
          CFI V3 load(1, XDATA, add(CFA_XSP16, literal(-10)))
          CFI V4 load(1, XDATA, add(CFA_XSP16, literal(-9)))
          CFI V5 load(1, XDATA, add(CFA_XSP16, literal(-8)))
          CFI V6 load(1, XDATA, add(CFA_XSP16, literal(-7)))
          CFI R7 load(1, XDATA, add(CFA_XSP16, literal(-6)))
          CFI ?RET_LOW load(1, XDATA, add(CFA_XSP16, literal(-5)))
          CFI ?RET_HIGH load(1, XDATA, add(CFA_XSP16, literal(-4)))
          CFI ?BRET_EXT load(1, XDATA, add(CFA_XSP16, literal(-3)))
          CFI DPL0 load(1, XDATA, add(CFA_XSP16, literal(-2)))
          CFI DPH0 load(1, XDATA, add(CFA_XSP16, literal(-1)))
          CFI CFA_SP SP+-2
          CFI CFA_XSP16 add(XSP16, 17)
          CFI Block cfiCond22 Using cfiCommon0
          CFI (cfiCond22) Function rxStartIsr
          CFI (cfiCond22) Conditional ??CrossCallReturnLabel_55
          CFI (cfiCond22) R6 load(1, XDATA, add(CFA_XSP16, literal(-15)))
          CFI (cfiCond22) VB load(1, XDATA, add(CFA_XSP16, literal(-14)))
          CFI (cfiCond22) V0 load(1, XDATA, add(CFA_XSP16, literal(-13)))
          CFI (cfiCond22) V1 load(1, XDATA, add(CFA_XSP16, literal(-12)))
          CFI (cfiCond22) V2 load(1, XDATA, add(CFA_XSP16, literal(-11)))
          CFI (cfiCond22) V3 load(1, XDATA, add(CFA_XSP16, literal(-10)))
          CFI (cfiCond22) V4 load(1, XDATA, add(CFA_XSP16, literal(-9)))
          CFI (cfiCond22) V5 load(1, XDATA, add(CFA_XSP16, literal(-8)))
          CFI (cfiCond22) V6 load(1, XDATA, add(CFA_XSP16, literal(-7)))
          CFI (cfiCond22) R7 load(1, XDATA, add(CFA_XSP16, literal(-6)))
          CFI (cfiCond22) ?RET_LOW load(1, XDATA, add(CFA_XSP16, literal(-5)))
          CFI (cfiCond22) ?RET_HIGH load(1, XDATA, add(CFA_XSP16, literal(-4)))
          CFI (cfiCond22) ?BRET_EXT load(1, XDATA, add(CFA_XSP16, literal(-3)))
          CFI (cfiCond22) DPL0 load(1, XDATA, add(CFA_XSP16, literal(-2)))
          CFI (cfiCond22) DPH0 load(1, XDATA, add(CFA_XSP16, literal(-1)))
          CFI (cfiCond22) CFA_SP SP+-2
          CFI (cfiCond22) CFA_XSP16 add(XSP16, 20)
          CFI Block cfiPicker23 Using cfiCommon1
          CFI (cfiPicker23) NoFunction
          CFI (cfiPicker23) Picker
        MOV       DPTR,#pRxBuf
        MOVX      A,@DPTR
        MOV       R0,A
        INC       DPTR
          CFI EndBlock cfiCond21
          CFI EndBlock cfiCond22
          CFI EndBlock cfiPicker23
        REQUIRE ??Subroutine32_0
        ; // Fall through to label ??Subroutine32_0

        RSEG BANKED_CODE:HUGECODE:NOROOT(0)
??Subroutine32_0:
          CFI Block cfiCond24 Using cfiCommon0
          CFI Function rxStartIsr
          CFI Conditional ??CrossCallReturnLabel_53
          CFI R6 load(1, XDATA, add(CFA_XSP16, literal(-15)))
          CFI VB load(1, XDATA, add(CFA_XSP16, literal(-14)))
          CFI V0 load(1, XDATA, add(CFA_XSP16, literal(-13)))
          CFI V1 load(1, XDATA, add(CFA_XSP16, literal(-12)))
          CFI V2 load(1, XDATA, add(CFA_XSP16, literal(-11)))
          CFI V3 load(1, XDATA, add(CFA_XSP16, literal(-10)))
          CFI V4 load(1, XDATA, add(CFA_XSP16, literal(-9)))
          CFI V5 load(1, XDATA, add(CFA_XSP16, literal(-8)))
          CFI V6 load(1, XDATA, add(CFA_XSP16, literal(-7)))
          CFI R7 load(1, XDATA, add(CFA_XSP16, literal(-6)))
          CFI ?RET_LOW load(1, XDATA, add(CFA_XSP16, literal(-5)))
          CFI ?RET_HIGH load(1, XDATA, add(CFA_XSP16, literal(-4)))
          CFI ?BRET_EXT load(1, XDATA, add(CFA_XSP16, literal(-3)))
          CFI DPL0 load(1, XDATA, add(CFA_XSP16, literal(-2)))
          CFI DPH0 load(1, XDATA, add(CFA_XSP16, literal(-1)))
          CFI CFA_XSP16 add(XSP16, 17)
          CFI Block cfiCond25 Using cfiCommon0
          CFI (cfiCond25) Function rxStartIsr
          CFI (cfiCond25) Conditional ??CrossCallReturnLabel_54
          CFI (cfiCond25) R6 load(1, XDATA, add(CFA_XSP16, literal(-15)))
          CFI (cfiCond25) VB load(1, XDATA, add(CFA_XSP16, literal(-14)))
          CFI (cfiCond25) V0 load(1, XDATA, add(CFA_XSP16, literal(-13)))
          CFI (cfiCond25) V1 load(1, XDATA, add(CFA_XSP16, literal(-12)))
          CFI (cfiCond25) V2 load(1, XDATA, add(CFA_XSP16, literal(-11)))
          CFI (cfiCond25) V3 load(1, XDATA, add(CFA_XSP16, literal(-10)))
          CFI (cfiCond25) V4 load(1, XDATA, add(CFA_XSP16, literal(-9)))
          CFI (cfiCond25) V5 load(1, XDATA, add(CFA_XSP16, literal(-8)))
          CFI (cfiCond25) V6 load(1, XDATA, add(CFA_XSP16, literal(-7)))
          CFI (cfiCond25) R7 load(1, XDATA, add(CFA_XSP16, literal(-6)))
          CFI (cfiCond25) ?RET_LOW load(1, XDATA, add(CFA_XSP16, literal(-5)))
          CFI (cfiCond25) ?RET_HIGH load(1, XDATA, add(CFA_XSP16, literal(-4)))
          CFI (cfiCond25) ?BRET_EXT load(1, XDATA, add(CFA_XSP16, literal(-3)))
          CFI (cfiCond25) DPL0 load(1, XDATA, add(CFA_XSP16, literal(-2)))
          CFI (cfiCond25) DPH0 load(1, XDATA, add(CFA_XSP16, literal(-1)))
          CFI (cfiCond25) CFA_SP SP+-2
          CFI (cfiCond25) CFA_XSP16 add(XSP16, 17)
          CFI Block cfiCond26 Using cfiCommon0
          CFI (cfiCond26) Function rxStartIsr
          CFI (cfiCond26) Conditional ??CrossCallReturnLabel_55
          CFI (cfiCond26) R6 load(1, XDATA, add(CFA_XSP16, literal(-15)))
          CFI (cfiCond26) VB load(1, XDATA, add(CFA_XSP16, literal(-14)))
          CFI (cfiCond26) V0 load(1, XDATA, add(CFA_XSP16, literal(-13)))
          CFI (cfiCond26) V1 load(1, XDATA, add(CFA_XSP16, literal(-12)))
          CFI (cfiCond26) V2 load(1, XDATA, add(CFA_XSP16, literal(-11)))
          CFI (cfiCond26) V3 load(1, XDATA, add(CFA_XSP16, literal(-10)))
          CFI (cfiCond26) V4 load(1, XDATA, add(CFA_XSP16, literal(-9)))
          CFI (cfiCond26) V5 load(1, XDATA, add(CFA_XSP16, literal(-8)))
          CFI (cfiCond26) V6 load(1, XDATA, add(CFA_XSP16, literal(-7)))
          CFI (cfiCond26) R7 load(1, XDATA, add(CFA_XSP16, literal(-6)))
          CFI (cfiCond26) ?RET_LOW load(1, XDATA, add(CFA_XSP16, literal(-5)))
          CFI (cfiCond26) ?RET_HIGH load(1, XDATA, add(CFA_XSP16, literal(-4)))
          CFI (cfiCond26) ?BRET_EXT load(1, XDATA, add(CFA_XSP16, literal(-3)))
          CFI (cfiCond26) DPL0 load(1, XDATA, add(CFA_XSP16, literal(-2)))
          CFI (cfiCond26) DPH0 load(1, XDATA, add(CFA_XSP16, literal(-1)))
          CFI (cfiCond26) CFA_SP SP+-2
          CFI (cfiCond26) CFA_XSP16 add(XSP16, 20)
          CFI Block cfiPicker27 Using cfiCommon1
          CFI (cfiPicker27) NoFunction
          CFI (cfiPicker27) Picker
        MOVX      A,@DPTR
        XCH       A,R0
        ADD       A,#0x35
        MOV       DPL,A
        CLR       A
        ADDC      A,R0
        MOV       DPH,A
        RET
          CFI EndBlock cfiCond24
          CFI EndBlock cfiCond25
          CFI EndBlock cfiCond26
          CFI EndBlock cfiPicker27

        RSEG BANKED_CODE:HUGECODE:NOROOT(0)
?Subroutine11:
          CFI Block cfiCond28 Using cfiCommon0
          CFI Function rxStartIsr
          CFI Conditional ??CrossCallReturnLabel_17
          CFI R6 load(1, XDATA, add(CFA_XSP16, literal(-15)))
          CFI VB load(1, XDATA, add(CFA_XSP16, literal(-14)))
          CFI V0 load(1, XDATA, add(CFA_XSP16, literal(-13)))
          CFI V1 load(1, XDATA, add(CFA_XSP16, literal(-12)))
          CFI V2 load(1, XDATA, add(CFA_XSP16, literal(-11)))
          CFI V3 load(1, XDATA, add(CFA_XSP16, literal(-10)))
          CFI V4 load(1, XDATA, add(CFA_XSP16, literal(-9)))
          CFI V5 load(1, XDATA, add(CFA_XSP16, literal(-8)))
          CFI V6 load(1, XDATA, add(CFA_XSP16, literal(-7)))
          CFI R7 load(1, XDATA, add(CFA_XSP16, literal(-6)))
          CFI ?RET_LOW load(1, XDATA, add(CFA_XSP16, literal(-5)))
          CFI ?RET_HIGH load(1, XDATA, add(CFA_XSP16, literal(-4)))
          CFI ?BRET_EXT load(1, XDATA, add(CFA_XSP16, literal(-3)))
          CFI DPL0 load(1, XDATA, add(CFA_XSP16, literal(-2)))
          CFI DPH0 load(1, XDATA, add(CFA_XSP16, literal(-1)))
          CFI CFA_XSP16 add(XSP16, 17)
          CFI Block cfiCond29 Using cfiCommon0
          CFI (cfiCond29) Function rxStartIsr
          CFI (cfiCond29) Conditional ??CrossCallReturnLabel_18
          CFI (cfiCond29) R6 load(1, XDATA, add(CFA_XSP16, literal(-15)))
          CFI (cfiCond29) VB load(1, XDATA, add(CFA_XSP16, literal(-14)))
          CFI (cfiCond29) V0 load(1, XDATA, add(CFA_XSP16, literal(-13)))
          CFI (cfiCond29) V1 load(1, XDATA, add(CFA_XSP16, literal(-12)))
          CFI (cfiCond29) V2 load(1, XDATA, add(CFA_XSP16, literal(-11)))
          CFI (cfiCond29) V3 load(1, XDATA, add(CFA_XSP16, literal(-10)))
          CFI (cfiCond29) V4 load(1, XDATA, add(CFA_XSP16, literal(-9)))
          CFI (cfiCond29) V5 load(1, XDATA, add(CFA_XSP16, literal(-8)))
          CFI (cfiCond29) V6 load(1, XDATA, add(CFA_XSP16, literal(-7)))
          CFI (cfiCond29) R7 load(1, XDATA, add(CFA_XSP16, literal(-6)))
          CFI (cfiCond29) ?RET_LOW load(1, XDATA, add(CFA_XSP16, literal(-5)))
          CFI (cfiCond29) ?RET_HIGH load(1, XDATA, add(CFA_XSP16, literal(-4)))
          CFI (cfiCond29) ?BRET_EXT load(1, XDATA, add(CFA_XSP16, literal(-3)))
          CFI (cfiCond29) DPL0 load(1, XDATA, add(CFA_XSP16, literal(-2)))
          CFI (cfiCond29) DPH0 load(1, XDATA, add(CFA_XSP16, literal(-1)))
          CFI (cfiCond29) CFA_SP SP+-2
          CFI (cfiCond29) CFA_XSP16 add(XSP16, 17)
          CFI Block cfiCond30 Using cfiCommon0
          CFI (cfiCond30) Function rxStartIsr
          CFI (cfiCond30) Conditional ??CrossCallReturnLabel_19
          CFI (cfiCond30) R6 load(1, XDATA, add(CFA_XSP16, literal(-15)))
          CFI (cfiCond30) VB load(1, XDATA, add(CFA_XSP16, literal(-14)))
          CFI (cfiCond30) V0 load(1, XDATA, add(CFA_XSP16, literal(-13)))
          CFI (cfiCond30) V1 load(1, XDATA, add(CFA_XSP16, literal(-12)))
          CFI (cfiCond30) V2 load(1, XDATA, add(CFA_XSP16, literal(-11)))
          CFI (cfiCond30) V3 load(1, XDATA, add(CFA_XSP16, literal(-10)))
          CFI (cfiCond30) V4 load(1, XDATA, add(CFA_XSP16, literal(-9)))
          CFI (cfiCond30) V5 load(1, XDATA, add(CFA_XSP16, literal(-8)))
          CFI (cfiCond30) V6 load(1, XDATA, add(CFA_XSP16, literal(-7)))
          CFI (cfiCond30) R7 load(1, XDATA, add(CFA_XSP16, literal(-6)))
          CFI (cfiCond30) ?RET_LOW load(1, XDATA, add(CFA_XSP16, literal(-5)))
          CFI (cfiCond30) ?RET_HIGH load(1, XDATA, add(CFA_XSP16, literal(-4)))
          CFI (cfiCond30) ?BRET_EXT load(1, XDATA, add(CFA_XSP16, literal(-3)))
          CFI (cfiCond30) DPL0 load(1, XDATA, add(CFA_XSP16, literal(-2)))
          CFI (cfiCond30) DPH0 load(1, XDATA, add(CFA_XSP16, literal(-1)))
          CFI (cfiCond30) CFA_XSP16 add(XSP16, 17)
          CFI Block cfiPicker31 Using cfiCommon1
          CFI (cfiPicker31) NoFunction
          CFI (cfiPicker31) Picker
        MOV       DPTR,#pRxBuf
        LCALL     ?Subroutine28 & 0xFFFF
??CrossCallReturnLabel_45:
        INC       DPTR
        INC       DPTR
        INC       DPTR
        INC       DPTR
        RET
          CFI EndBlock cfiCond28
          CFI EndBlock cfiCond29
          CFI EndBlock cfiCond30
          CFI EndBlock cfiPicker31

        RSEG BANKED_CODE:HUGECODE:NOROOT(0)
?Subroutine10:
          CFI Block cfiCond32 Using cfiCommon0
          CFI Function macRxRadioPowerUpInit
          CFI Conditional ??CrossCallReturnLabel_15
          CFI DPL0 Frame(CFA_SP, 4)
          CFI DPH0 Frame(CFA_SP, 5)
          CFI CFA_SP SP+-7
          CFI Block cfiCond33 Using cfiCommon0
          CFI (cfiCond33) Function rxStartIsr
          CFI (cfiCond33) Conditional ??CrossCallReturnLabel_16
          CFI (cfiCond33) R6 load(1, XDATA, add(CFA_XSP16, literal(-15)))
          CFI (cfiCond33) VB load(1, XDATA, add(CFA_XSP16, literal(-14)))
          CFI (cfiCond33) V0 load(1, XDATA, add(CFA_XSP16, literal(-13)))
          CFI (cfiCond33) V1 load(1, XDATA, add(CFA_XSP16, literal(-12)))
          CFI (cfiCond33) V2 load(1, XDATA, add(CFA_XSP16, literal(-11)))
          CFI (cfiCond33) V3 load(1, XDATA, add(CFA_XSP16, literal(-10)))
          CFI (cfiCond33) V4 load(1, XDATA, add(CFA_XSP16, literal(-9)))
          CFI (cfiCond33) V5 load(1, XDATA, add(CFA_XSP16, literal(-8)))
          CFI (cfiCond33) V6 load(1, XDATA, add(CFA_XSP16, literal(-7)))
          CFI (cfiCond33) R7 load(1, XDATA, add(CFA_XSP16, literal(-6)))
          CFI (cfiCond33) ?RET_LOW load(1, XDATA, add(CFA_XSP16, literal(-5)))
          CFI (cfiCond33) ?RET_HIGH load(1, XDATA, add(CFA_XSP16, literal(-4)))
          CFI (cfiCond33) ?BRET_EXT load(1, XDATA, add(CFA_XSP16, literal(-3)))
          CFI (cfiCond33) DPL0 load(1, XDATA, add(CFA_XSP16, literal(-2)))
          CFI (cfiCond33) DPH0 load(1, XDATA, add(CFA_XSP16, literal(-1)))
          CFI (cfiCond33) CFA_SP SP+-2
          CFI (cfiCond33) CFA_XSP16 add(XSP16, 17)
          CFI Block cfiPicker34 Using cfiCommon1
          CFI (cfiPicker34) NoFunction
          CFI (cfiPicker34) Picker
        MOVX      @DPTR,A
        MOV       R0,0xa8+0x0
        CLR       0xa8.7
        MOV       0x9b,#0x0
        RET
          CFI EndBlock cfiCond32
          CFI EndBlock cfiCond33
          CFI EndBlock cfiPicker34

        RSEG BANKED_CODE:HUGECODE:NOROOT(0)
?Subroutine7:
          CFI Block cfiCond35 Using cfiCommon0
          CFI Function rxStartIsr
          CFI Conditional ??CrossCallReturnLabel_11
          CFI R6 load(1, XDATA, add(CFA_XSP16, literal(-15)))
          CFI VB load(1, XDATA, add(CFA_XSP16, literal(-14)))
          CFI V0 load(1, XDATA, add(CFA_XSP16, literal(-13)))
          CFI V1 load(1, XDATA, add(CFA_XSP16, literal(-12)))
          CFI V2 load(1, XDATA, add(CFA_XSP16, literal(-11)))
          CFI V3 load(1, XDATA, add(CFA_XSP16, literal(-10)))
          CFI V4 load(1, XDATA, add(CFA_XSP16, literal(-9)))
          CFI V5 load(1, XDATA, add(CFA_XSP16, literal(-8)))
          CFI V6 load(1, XDATA, add(CFA_XSP16, literal(-7)))
          CFI R7 load(1, XDATA, add(CFA_XSP16, literal(-6)))
          CFI ?RET_LOW load(1, XDATA, add(CFA_XSP16, literal(-5)))
          CFI ?RET_HIGH load(1, XDATA, add(CFA_XSP16, literal(-4)))
          CFI ?BRET_EXT load(1, XDATA, add(CFA_XSP16, literal(-3)))
          CFI DPL0 load(1, XDATA, add(CFA_XSP16, literal(-2)))
          CFI DPH0 load(1, XDATA, add(CFA_XSP16, literal(-1)))
          CFI CFA_SP SP+-2
          CFI CFA_XSP16 add(XSP16, 17)
          CFI Block cfiCond36 Using cfiCommon0
          CFI (cfiCond36) Function rxStartIsr
          CFI (cfiCond36) Conditional ??CrossCallReturnLabel_12
          CFI (cfiCond36) R6 load(1, XDATA, add(CFA_XSP16, literal(-15)))
          CFI (cfiCond36) VB load(1, XDATA, add(CFA_XSP16, literal(-14)))
          CFI (cfiCond36) V0 load(1, XDATA, add(CFA_XSP16, literal(-13)))
          CFI (cfiCond36) V1 load(1, XDATA, add(CFA_XSP16, literal(-12)))
          CFI (cfiCond36) V2 load(1, XDATA, add(CFA_XSP16, literal(-11)))
          CFI (cfiCond36) V3 load(1, XDATA, add(CFA_XSP16, literal(-10)))
          CFI (cfiCond36) V4 load(1, XDATA, add(CFA_XSP16, literal(-9)))
          CFI (cfiCond36) V5 load(1, XDATA, add(CFA_XSP16, literal(-8)))
          CFI (cfiCond36) V6 load(1, XDATA, add(CFA_XSP16, literal(-7)))
          CFI (cfiCond36) R7 load(1, XDATA, add(CFA_XSP16, literal(-6)))
          CFI (cfiCond36) ?RET_LOW load(1, XDATA, add(CFA_XSP16, literal(-5)))
          CFI (cfiCond36) ?RET_HIGH load(1, XDATA, add(CFA_XSP16, literal(-4)))
          CFI (cfiCond36) ?BRET_EXT load(1, XDATA, add(CFA_XSP16, literal(-3)))
          CFI (cfiCond36) DPL0 load(1, XDATA, add(CFA_XSP16, literal(-2)))
          CFI (cfiCond36) DPH0 load(1, XDATA, add(CFA_XSP16, literal(-1)))
          CFI (cfiCond36) CFA_SP SP+-2
          CFI (cfiCond36) CFA_XSP16 add(XSP16, 17)
          CFI Block cfiPicker37 Using cfiCommon1
          CFI (cfiPicker37) NoFunction
          CFI (cfiPicker37) Picker
        MOVX      @DPTR,A
        MOV       DPTR,#pMacDataTx
        LCALL     ??Subroutine40_0 & 0xFFFF
??CrossCallReturnLabel_77:
        RET
          CFI EndBlock cfiCond35
          CFI EndBlock cfiCond36
          CFI EndBlock cfiPicker37

        RSEG BANKED_CODE:HUGECODE:NOROOT(0)
?Subroutine6:
          CFI Block cfiCond38 Using cfiCommon0
          CFI Function rxStartIsr
          CFI Conditional ??CrossCallReturnLabel_56
          CFI R6 load(1, XDATA, add(CFA_XSP16, literal(-15)))
          CFI VB load(1, XDATA, add(CFA_XSP16, literal(-14)))
          CFI V0 load(1, XDATA, add(CFA_XSP16, literal(-13)))
          CFI V1 load(1, XDATA, add(CFA_XSP16, literal(-12)))
          CFI V2 load(1, XDATA, add(CFA_XSP16, literal(-11)))
          CFI V3 load(1, XDATA, add(CFA_XSP16, literal(-10)))
          CFI V4 load(1, XDATA, add(CFA_XSP16, literal(-9)))
          CFI V5 load(1, XDATA, add(CFA_XSP16, literal(-8)))
          CFI V6 load(1, XDATA, add(CFA_XSP16, literal(-7)))
          CFI R7 load(1, XDATA, add(CFA_XSP16, literal(-6)))
          CFI ?RET_LOW load(1, XDATA, add(CFA_XSP16, literal(-5)))
          CFI ?RET_HIGH load(1, XDATA, add(CFA_XSP16, literal(-4)))
          CFI ?BRET_EXT load(1, XDATA, add(CFA_XSP16, literal(-3)))
          CFI DPL0 load(1, XDATA, add(CFA_XSP16, literal(-2)))
          CFI DPH0 load(1, XDATA, add(CFA_XSP16, literal(-1)))
          CFI CFA_SP SP+-2
          CFI CFA_XSP16 add(XSP16, 17)
          CFI Block cfiCond39 Using cfiCommon0
          CFI (cfiCond39) Function rxFcsIsr
          CFI (cfiCond39) Conditional ??CrossCallReturnLabel_57
          CFI (cfiCond39) R6 load(1, XDATA, add(CFA_XSP16, literal(-10)))
          CFI (cfiCond39) VB load(1, XDATA, add(CFA_XSP16, literal(-9)))
          CFI (cfiCond39) V0 load(1, XDATA, add(CFA_XSP16, literal(-8)))
          CFI (cfiCond39) V1 load(1, XDATA, add(CFA_XSP16, literal(-7)))
          CFI (cfiCond39) R7 load(1, XDATA, add(CFA_XSP16, literal(-6)))
          CFI (cfiCond39) ?RET_LOW load(1, XDATA, add(CFA_XSP16, literal(-5)))
          CFI (cfiCond39) ?RET_HIGH load(1, XDATA, add(CFA_XSP16, literal(-4)))
          CFI (cfiCond39) ?BRET_EXT load(1, XDATA, add(CFA_XSP16, literal(-3)))
          CFI (cfiCond39) DPL0 load(1, XDATA, add(CFA_XSP16, literal(-2)))
          CFI (cfiCond39) DPH0 load(1, XDATA, add(CFA_XSP16, literal(-1)))
          CFI (cfiCond39) CFA_SP SP+-2
          CFI (cfiCond39) CFA_XSP16 add(XSP16, 10)
          CFI Block cfiPicker40 Using cfiCommon1
          CFI (cfiPicker40) NoFunction
          CFI (cfiPicker40) Picker
        MOV       DPTR,#0x61a4
        MOVX      A,@DPTR
        CLR       0xE0 /* A   */.0
          CFI EndBlock cfiCond38
          CFI EndBlock cfiCond39
          CFI EndBlock cfiPicker40
        REQUIRE ??Subroutine33_0
        ; // Fall through to label ??Subroutine33_0

        RSEG BANKED_CODE:HUGECODE:NOROOT(0)
??Subroutine33_0:
          CFI Block cfiCond41 Using cfiCommon0
          CFI Function macRxInit
          CFI Conditional ??CrossCallReturnLabel_58
          CFI DPL0 Frame(CFA_SP, 4)
          CFI DPH0 Frame(CFA_SP, 5)
          CFI CFA_SP SP+-7
          CFI Block cfiCond42 Using cfiCommon0
          CFI (cfiCond42) Function rxStartIsr
          CFI (cfiCond42) Conditional ??CrossCallReturnLabel_56
          CFI (cfiCond42) R6 load(1, XDATA, add(CFA_XSP16, literal(-15)))
          CFI (cfiCond42) VB load(1, XDATA, add(CFA_XSP16, literal(-14)))
          CFI (cfiCond42) V0 load(1, XDATA, add(CFA_XSP16, literal(-13)))
          CFI (cfiCond42) V1 load(1, XDATA, add(CFA_XSP16, literal(-12)))
          CFI (cfiCond42) V2 load(1, XDATA, add(CFA_XSP16, literal(-11)))
          CFI (cfiCond42) V3 load(1, XDATA, add(CFA_XSP16, literal(-10)))
          CFI (cfiCond42) V4 load(1, XDATA, add(CFA_XSP16, literal(-9)))
          CFI (cfiCond42) V5 load(1, XDATA, add(CFA_XSP16, literal(-8)))
          CFI (cfiCond42) V6 load(1, XDATA, add(CFA_XSP16, literal(-7)))
          CFI (cfiCond42) R7 load(1, XDATA, add(CFA_XSP16, literal(-6)))
          CFI (cfiCond42) ?RET_LOW load(1, XDATA, add(CFA_XSP16, literal(-5)))
          CFI (cfiCond42) ?RET_HIGH load(1, XDATA, add(CFA_XSP16, literal(-4)))
          CFI (cfiCond42) ?BRET_EXT load(1, XDATA, add(CFA_XSP16, literal(-3)))
          CFI (cfiCond42) DPL0 load(1, XDATA, add(CFA_XSP16, literal(-2)))
          CFI (cfiCond42) DPH0 load(1, XDATA, add(CFA_XSP16, literal(-1)))
          CFI (cfiCond42) CFA_SP SP+-2
          CFI (cfiCond42) CFA_XSP16 add(XSP16, 17)
          CFI Block cfiCond43 Using cfiCommon0
          CFI (cfiCond43) Function rxFcsIsr
          CFI (cfiCond43) Conditional ??CrossCallReturnLabel_57
          CFI (cfiCond43) R6 load(1, XDATA, add(CFA_XSP16, literal(-10)))
          CFI (cfiCond43) VB load(1, XDATA, add(CFA_XSP16, literal(-9)))
          CFI (cfiCond43) V0 load(1, XDATA, add(CFA_XSP16, literal(-8)))
          CFI (cfiCond43) V1 load(1, XDATA, add(CFA_XSP16, literal(-7)))
          CFI (cfiCond43) R7 load(1, XDATA, add(CFA_XSP16, literal(-6)))
          CFI (cfiCond43) ?RET_LOW load(1, XDATA, add(CFA_XSP16, literal(-5)))
          CFI (cfiCond43) ?RET_HIGH load(1, XDATA, add(CFA_XSP16, literal(-4)))
          CFI (cfiCond43) ?BRET_EXT load(1, XDATA, add(CFA_XSP16, literal(-3)))
          CFI (cfiCond43) DPL0 load(1, XDATA, add(CFA_XSP16, literal(-2)))
          CFI (cfiCond43) DPH0 load(1, XDATA, add(CFA_XSP16, literal(-1)))
          CFI (cfiCond43) CFA_SP SP+-2
          CFI (cfiCond43) CFA_XSP16 add(XSP16, 10)
          CFI Block cfiPicker44 Using cfiCommon1
          CFI (cfiPicker44) NoFunction
          CFI (cfiPicker44) Picker
        MOVX      @DPTR,A
        MOV       DPTR,#macRxOutgoingAckFlag
        CLR       A
        MOVX      @DPTR,A
        RET
          CFI EndBlock cfiCond41
          CFI EndBlock cfiCond42
          CFI EndBlock cfiCond43
          CFI EndBlock cfiPicker44

        RSEG BANKED_CODE:HUGECODE:NOROOT(0)
?Subroutine4:
          CFI Block cfiCond45 Using cfiCommon0
          CFI Function rxStartIsr
          CFI Conditional ??CrossCallReturnLabel_6
          CFI R6 load(1, XDATA, add(CFA_XSP16, literal(-15)))
          CFI VB load(1, XDATA, add(CFA_XSP16, literal(-14)))
          CFI V0 load(1, XDATA, add(CFA_XSP16, literal(-13)))
          CFI V1 load(1, XDATA, add(CFA_XSP16, literal(-12)))
          CFI V2 load(1, XDATA, add(CFA_XSP16, literal(-11)))
          CFI V3 load(1, XDATA, add(CFA_XSP16, literal(-10)))
          CFI V4 load(1, XDATA, add(CFA_XSP16, literal(-9)))
          CFI V5 load(1, XDATA, add(CFA_XSP16, literal(-8)))
          CFI V6 load(1, XDATA, add(CFA_XSP16, literal(-7)))
          CFI R7 load(1, XDATA, add(CFA_XSP16, literal(-6)))
          CFI ?RET_LOW load(1, XDATA, add(CFA_XSP16, literal(-5)))
          CFI ?RET_HIGH load(1, XDATA, add(CFA_XSP16, literal(-4)))
          CFI ?BRET_EXT load(1, XDATA, add(CFA_XSP16, literal(-3)))
          CFI DPL0 load(1, XDATA, add(CFA_XSP16, literal(-2)))
          CFI DPH0 load(1, XDATA, add(CFA_XSP16, literal(-1)))
          CFI CFA_SP SP+-2
          CFI CFA_XSP16 add(XSP16, 17)
          CFI Block cfiCond46 Using cfiCommon0
          CFI (cfiCond46) Function rxStartIsr
          CFI (cfiCond46) Conditional ??CrossCallReturnLabel_7
          CFI (cfiCond46) R6 load(1, XDATA, add(CFA_XSP16, literal(-15)))
          CFI (cfiCond46) VB load(1, XDATA, add(CFA_XSP16, literal(-14)))
          CFI (cfiCond46) V0 load(1, XDATA, add(CFA_XSP16, literal(-13)))
          CFI (cfiCond46) V1 load(1, XDATA, add(CFA_XSP16, literal(-12)))
          CFI (cfiCond46) V2 load(1, XDATA, add(CFA_XSP16, literal(-11)))
          CFI (cfiCond46) V3 load(1, XDATA, add(CFA_XSP16, literal(-10)))
          CFI (cfiCond46) V4 load(1, XDATA, add(CFA_XSP16, literal(-9)))
          CFI (cfiCond46) V5 load(1, XDATA, add(CFA_XSP16, literal(-8)))
          CFI (cfiCond46) V6 load(1, XDATA, add(CFA_XSP16, literal(-7)))
          CFI (cfiCond46) R7 load(1, XDATA, add(CFA_XSP16, literal(-6)))
          CFI (cfiCond46) ?RET_LOW load(1, XDATA, add(CFA_XSP16, literal(-5)))
          CFI (cfiCond46) ?RET_HIGH load(1, XDATA, add(CFA_XSP16, literal(-4)))
          CFI (cfiCond46) ?BRET_EXT load(1, XDATA, add(CFA_XSP16, literal(-3)))
          CFI (cfiCond46) DPL0 load(1, XDATA, add(CFA_XSP16, literal(-2)))
          CFI (cfiCond46) DPH0 load(1, XDATA, add(CFA_XSP16, literal(-1)))
          CFI (cfiCond46) CFA_SP SP+-2
          CFI (cfiCond46) CFA_XSP16 add(XSP16, 17)
          CFI Block cfiCond47 Using cfiCommon0
          CFI (cfiCond47) Function rxStartIsr
          CFI (cfiCond47) Conditional ??CrossCallReturnLabel_8
          CFI (cfiCond47) R6 load(1, XDATA, add(CFA_XSP16, literal(-15)))
          CFI (cfiCond47) VB load(1, XDATA, add(CFA_XSP16, literal(-14)))
          CFI (cfiCond47) V0 load(1, XDATA, add(CFA_XSP16, literal(-13)))
          CFI (cfiCond47) V1 load(1, XDATA, add(CFA_XSP16, literal(-12)))
          CFI (cfiCond47) V2 load(1, XDATA, add(CFA_XSP16, literal(-11)))
          CFI (cfiCond47) V3 load(1, XDATA, add(CFA_XSP16, literal(-10)))
          CFI (cfiCond47) V4 load(1, XDATA, add(CFA_XSP16, literal(-9)))
          CFI (cfiCond47) V5 load(1, XDATA, add(CFA_XSP16, literal(-8)))
          CFI (cfiCond47) V6 load(1, XDATA, add(CFA_XSP16, literal(-7)))
          CFI (cfiCond47) R7 load(1, XDATA, add(CFA_XSP16, literal(-6)))
          CFI (cfiCond47) ?RET_LOW load(1, XDATA, add(CFA_XSP16, literal(-5)))
          CFI (cfiCond47) ?RET_HIGH load(1, XDATA, add(CFA_XSP16, literal(-4)))
          CFI (cfiCond47) ?BRET_EXT load(1, XDATA, add(CFA_XSP16, literal(-3)))
          CFI (cfiCond47) DPL0 load(1, XDATA, add(CFA_XSP16, literal(-2)))
          CFI (cfiCond47) DPH0 load(1, XDATA, add(CFA_XSP16, literal(-1)))
          CFI (cfiCond47) CFA_SP SP+-2
          CFI (cfiCond47) CFA_XSP16 add(XSP16, 17)
          CFI Block cfiPicker48 Using cfiCommon1
          CFI (cfiPicker48) NoFunction
          CFI (cfiPicker48) Picker
        MOVX      @DPTR,A
        MOV       DPTR,#rxBuf + 1
        MOVX      A,@DPTR
        MOV       C,0xE0 /* A   */.3
        RET
          CFI EndBlock cfiCond45
          CFI EndBlock cfiCond46
          CFI EndBlock cfiCond47
          CFI EndBlock cfiPicker48
//  830 
//  831 
//  832 /*=================================================================================================
//  833  * @fn          rxAddrIsr
//  834  *
//  835  * @brief       Receive ISR state for decoding address.  Reads and stores the address information
//  836  *              from the incoming packet.
//  837  *
//  838  * @param       none
//  839  *
//  840  * @return      none
//  841  *=================================================================================================
//  842  */

        RSEG BANKED_CODE:HUGECODE:NOROOT(0)
//  843 static void rxAddrIsr(void)
rxAddrIsr:
          CFI Block cfiBlock49 Using cfiCommon0
          CFI Function rxAddrIsr
        CODE
//  844 {
        FUNCALL rxAddrIsr, halAssertHandler
        LOCFRAME ISTACK, 0, STACK
        LOCFRAME PSTACK, 0, STACK
        LOCFRAME XSTACK, 30, STACK
        LOCFRAME IOVERLAY, 0, STATIC
        LOCFRAME DOVERLAY, 0, STATIC
        ARGFRAME ISTACK, 0, STACK
        ARGFRAME PSTACK, 0, STACK
        ARGFRAME XSTACK, 30, STACK
        ARGFRAME IOVERLAY, 0, STATIC
        ARGFRAME DOVERLAY, 0, STATIC
        FUNCALL rxAddrIsr, macMemReadRxFifo
        LOCFRAME ISTACK, 0, STACK
        LOCFRAME PSTACK, 0, STACK
        LOCFRAME XSTACK, 30, STACK
        LOCFRAME IOVERLAY, 0, STATIC
        LOCFRAME DOVERLAY, 0, STATIC
        ARGFRAME ISTACK, 0, STACK
        ARGFRAME PSTACK, 0, STACK
        ARGFRAME XSTACK, 30, STACK
        ARGFRAME IOVERLAY, 0, STATIC
        ARGFRAME DOVERLAY, 0, STATIC
        FUNCALL rxAddrIsr, sAddrExtCpy
        LOCFRAME ISTACK, 0, STACK
        LOCFRAME PSTACK, 0, STACK
        LOCFRAME XSTACK, 30, STACK
        LOCFRAME IOVERLAY, 0, STATIC
        LOCFRAME DOVERLAY, 0, STATIC
        ARGFRAME ISTACK, 0, STACK
        ARGFRAME PSTACK, 0, STACK
        ARGFRAME XSTACK, 30, STACK
        ARGFRAME IOVERLAY, 0, STATIC
        ARGFRAME DOVERLAY, 0, STATIC
        FUNCALL rxAddrIsr, sAddrExtCpy
        LOCFRAME ISTACK, 0, STACK
        LOCFRAME PSTACK, 0, STACK
        LOCFRAME XSTACK, 30, STACK
        LOCFRAME IOVERLAY, 0, STATIC
        LOCFRAME DOVERLAY, 0, STATIC
        ARGFRAME ISTACK, 0, STACK
        ARGFRAME PSTACK, 0, STACK
        ARGFRAME XSTACK, 30, STACK
        ARGFRAME IOVERLAY, 0, STATIC
        ARGFRAME DOVERLAY, 0, STATIC
        FUNCALL rxAddrIsr, rxPrepPayload
        LOCFRAME ISTACK, 0, STACK
        LOCFRAME PSTACK, 0, STACK
        LOCFRAME XSTACK, 30, STACK
        LOCFRAME IOVERLAY, 0, STATIC
        LOCFRAME DOVERLAY, 0, STATIC
        ARGFRAME ISTACK, 0, STACK
        ARGFRAME PSTACK, 0, STACK
        ARGFRAME XSTACK, 30, STACK
        ARGFRAME IOVERLAY, 0, STATIC
        ARGFRAME DOVERLAY, 0, STATIC
        REQUIRE ?V0
        REQUIRE ?V1
        MOV       A,#-0xa
        LCALL     ?BANKED_ENTER_XDATA
          CFI DPH0 load(1, XDATA, add(CFA_XSP16, literal(-1)))
          CFI DPL0 load(1, XDATA, add(CFA_XSP16, literal(-2)))
          CFI ?BRET_EXT load(1, XDATA, add(CFA_XSP16, literal(-3)))
          CFI ?RET_HIGH load(1, XDATA, add(CFA_XSP16, literal(-4)))
          CFI ?RET_LOW load(1, XDATA, add(CFA_XSP16, literal(-5)))
          CFI R7 load(1, XDATA, add(CFA_XSP16, literal(-6)))
          CFI V1 load(1, XDATA, add(CFA_XSP16, literal(-7)))
          CFI V0 load(1, XDATA, add(CFA_XSP16, literal(-8)))
          CFI VB load(1, XDATA, add(CFA_XSP16, literal(-9)))
          CFI R6 load(1, XDATA, add(CFA_XSP16, literal(-10)))
          CFI CFA_SP SP+0
          CFI CFA_XSP16 add(XSP16, 10)
        ; Saved register size: 10
        ; Auto size: 20
        MOV       A,#-0x14
        LCALL     ?ALLOC_XSTACK8
          CFI CFA_XSP16 add(XSP16, 30)
//  845   uint8 buf[MAX_ADDR_FIELDS_LEN];
//  846   uint8 dstAddrMode;
//  847   uint8 srcAddrMode;
//  848 #ifdef FEATURE_MAC_SECURITY
//  849   uint8 securityControl;
//  850 #endif /* MAC_SECURITY */
//  851   uint8  * p;
//  852 
//  853   MAC_ASSERT(rxNextLen != 0); /* logic assumes at least one address byte in buffer */
        MOV       DPTR,#rxNextLen
        MOVX      A,@DPTR
        JNZ       ??rxAddrIsr_0
        ; Setup parameters for call to function halAssertHandler
        LCALL     `??halAssertHandler::?relay`; Banked call to: halAssertHandler
//  854 
//  855   /*  read out address fields into local buffer in one shot */
//  856   MAC_RADIO_READ_RX_FIFO(buf, rxNextLen);
??rxAddrIsr_0:
        ; Setup parameters for call to function macMemReadRxFifo
        LCALL     ?Subroutine20 & 0xFFFF
//  857 
//  858   /* set pointer to buffer with addressing fields */
//  859   p = buf;
??CrossCallReturnLabel_33:
        MOV       R0,?XSP + 0
        MOV       R1,?XSP + 1
        MOV       ?V0,R0
        MOV       ?V1,R1
        MOV       R4,?V0
        MOV       R5,?V1
//  860 
//  861   /* destination address */
//  862   dstAddrMode = MAC_DEST_ADDR_MODE(&rxBuf[1]);
        MOV       DPTR,#rxBuf + 2
        MOVX      A,@DPTR
        RRC       A
        RRC       A
        ANL       A,#0x3f
        ANL       A,#0x3
        MOV       R6,A
//  863   if (dstAddrMode != SADDR_MODE_NONE)
        JZ        ??rxAddrIsr_1
//  864   {
//  865     pRxBuf->mac.srcPanId = pRxBuf->mac.dstPanId = BUILD_UINT16(p[0], p[1]);
        MOV       DPTR,#pRxBuf
        MOVX      A,@DPTR
        ADD       A,#0x2d
        MOV       R0,A
        INC       DPTR
        MOVX      A,@DPTR
        ADDC      A,#0x0
        MOV       R1,A
        MOV       DPL,?XSP + 0
        MOV       DPH,?XSP + 1
        MOVX      A,@DPTR
        MOV       R4,A
        MOV       A,#0x1
        LCALL     ?XSTACK_DISP0_8
        MOVX      A,@DPTR
        MOV       R3,A
        MOV       A,R4
        MOV       DPL,R0
        MOV       DPH,R1
        LCALL     ??Subroutine36_0 & 0xFFFF
??CrossCallReturnLabel_66:
        MOV       DPL,R0
        MOV       DPH,R1
        MOVX      A,@DPTR
        LCALL     ?Subroutine30 & 0xFFFF
??CrossCallReturnLabel_75:
        XCH       A,R2
        ADD       A,#0x2b
        MOV       DPL,A
        CLR       A
        ADDC      A,R2
        MOV       DPH,A
        MOV       A,R0
        LCALL     ??Subroutine36_0 & 0xFFFF
//  866     p += MAC_PAN_ID_FIELD_LEN;
//  867     if (dstAddrMode == SADDR_MODE_EXT)
??CrossCallReturnLabel_67:
        MOV       A,#0x3
        XRL       A,R6
        JNZ       ??rxAddrIsr_2
//  868     {
//  869       sAddrExtCpy(pRxBuf->mac.dstAddr.addr.extAddr, p);
        ; Setup parameters for call to function sAddrExtCpy
        MOV       A,#0x2
        LCALL     ?XSTACK_DISP0_8
        MOV       R4,DPL
        MOV       R5,DPH
        MOV       DPTR,#pRxBuf
        MOVX      A,@DPTR
        ADD       A,#0x1c
        LCALL     ?Subroutine21 & 0xFFFF
//  870       p += MAC_EXT_ADDR_FIELD_LEN;
??CrossCallReturnLabel_35:
        MOV       A,#0xa
        SJMP      ??rxAddrIsr_3
//  871     }
//  872     else
//  873     {
//  874       pRxBuf->mac.dstAddr.addr.shortAddr = BUILD_UINT16(p[0], p[1]);
??rxAddrIsr_2:
        MOV       A,#0x2
        LCALL     ?XSTACK_DISP0_8
        MOVX      A,@DPTR
        MOV       R2,A
        MOV       A,#0x3
        LCALL     ?XSTACK_DISP0_8
        LCALL     ?Subroutine19 & 0xFFFF
??CrossCallReturnLabel_31:
        ADD       A,#0x1c
        LCALL     ??Subroutine31_0 & 0xFFFF
//  875       p += MAC_SHORT_ADDR_FIELD_LEN;
??CrossCallReturnLabel_49:
        MOV       A,#0x4
??rxAddrIsr_3:
        LCALL     ?XSTACK_DISP0_8
        MOV       R4,DPL
        MOV       R5,DPH
//  876     }
//  877   }
//  878 
//  879   /* sources address */
//  880   srcAddrMode = MAC_SRC_ADDR_MODE(&rxBuf[1]);
??rxAddrIsr_1:
        MOV       DPTR,#rxBuf + 2
        MOVX      A,@DPTR
        SWAP      A
        RRC       A
        RRC       A
        ANL       A,#0x3
        MOV       R2,A
//  881   if (srcAddrMode != SADDR_MODE_NONE)
        JZ        ??CrossCallReturnLabel_50
//  882   {
//  883     if (!(pRxBuf->internal.flags & MAC_RX_FLAG_INTRA_PAN))
        LCALL     ?Subroutine17 & 0xFFFF
??CrossCallReturnLabel_30:
        MOVX      A,@DPTR
        MOV       C,0xE0 /* A   */.6
        JC        ??rxAddrIsr_4
//  884     {
//  885       pRxBuf->mac.srcPanId = BUILD_UINT16(p[0], p[1]);
        MOV       DPL,R4
        MOV       DPH,R5
        MOVX      A,@DPTR
        MOV       R6,A
        INC       DPTR
        MOVX      A,@DPTR
        MOV       R1,A
        MOV       DPTR,#pRxBuf
        MOVX      A,@DPTR
        MOV       R3,A
        INC       DPTR
        MOVX      A,@DPTR
        XCH       A,R3
        ADD       A,#0x2b
        MOV       DPL,A
        CLR       A
        ADDC      A,R3
        MOV       DPH,A
        MOV       A,R6
        MOVX      @DPTR,A
        INC       DPTR
        MOV       A,R1
        MOVX      @DPTR,A
//  886       p += MAC_PAN_ID_FIELD_LEN;
        MOV       A,R4
        ADD       A,#0x2
        MOV       R4,A
        JNC       ??rxAddrIsr_4
        INC       R5
//  887     }
//  888     if (srcAddrMode == SADDR_MODE_EXT)
??rxAddrIsr_4:
        MOV       A,#0x3
        XRL       A,R2
        JNZ       ??rxAddrIsr_5
//  889     {
//  890       sAddrExtCpy(pRxBuf->mac.srcAddr.addr.extAddr, p);
        ; Setup parameters for call to function sAddrExtCpy
        MOV       DPTR,#pRxBuf
        MOVX      A,@DPTR
        ADD       A,#0x13
        LCALL     ?Subroutine21 & 0xFFFF
//  891     }
??CrossCallReturnLabel_36:
        SJMP      ??CrossCallReturnLabel_50
//  892     else
//  893     {
//  894       pRxBuf->mac.srcAddr.addr.shortAddr = BUILD_UINT16(p[0], p[1]);
??rxAddrIsr_5:
        MOV       DPL,R4
        MOV       DPH,R5
        MOVX      A,@DPTR
        MOV       R2,A
        INC       DPTR
        LCALL     ?Subroutine19 & 0xFFFF
//  895     }
//  896   }
??CrossCallReturnLabel_32:
        ADD       A,#0x13
        LCALL     ??Subroutine31_0 & 0xFFFF
//  897 
//  898 #ifdef FEATURE_MAC_SECURITY
//  899   if (MAC_SEC_ENABLED(&rxBuf[1]))
//  900   {
//  901     uint8 keyIdMode;
//  902 
//  903     if (MAC_FRAME_VERSION(&rxBuf[1]) == 0)
//  904     {
//  905       /* MAC_UNSUPPORTED_LEGACY - Cancel the outgoing TX ACK.
//  906        * It may be too late but we have to try.
//  907        */
//  908       MAC_RADIO_CANCEL_TX_ACK();
//  909 
//  910       /* clean up after unsupported security legacy */
//  911       macRxHaltCleanup();
//  912       return;
//  913     }
//  914 
//  915     /* Copy addressing fields to RX buffer */
//  916     osal_memcpy(pRxBuf->mhr.p, buf, rxNextLen);
//  917     pRxBuf->mhr.p   += rxNextLen;
//  918     pRxBuf->mhr.len += rxNextLen;
//  919 
//  920     /*-------------------------------------------------------------------------------
//  921      *  Prepare for auxiliary security header interrupts.
//  922      */
//  923 
//  924     /* read out security control field from FIFO (threshold set so bytes are guaranteed to be there) */
//  925     MAC_RADIO_READ_RX_FIFO(&securityControl, MAC_SEC_CONTROL_FIELD_LEN);
//  926 
//  927     /* Copy security fields to MHR buffer */
//  928     *pRxBuf->mhr.p   = securityControl;
//  929     pRxBuf->mhr.p   += MAC_SEC_CONTROL_FIELD_LEN;
//  930     pRxBuf->mhr.len += MAC_SEC_CONTROL_FIELD_LEN;
//  931 
//  932     /* store security level and key ID mode */
//  933     pRxBuf->sec.securityLevel = SECURITY_LEVEL(securityControl);
//  934     pRxBuf->sec.keyIdMode = keyIdMode = KEY_IDENTIFIER_MODE(securityControl);
//  935 
//  936     /* Corrupted RX frame, should never occur. */
//  937     if ((keyIdMode > MAC_KEY_ID_MODE_8)
//  938     /* Get the next RX length according to AuxLen table minus security control field.
//  939      * The security control length is counted already.
//  940      */
//  941     || ((macKeySourceLen[keyIdMode] + MAC_FRAME_COUNTER_LEN) >= rxPayloadLen)
//  942     /* Security Enabled subfield is one, but the Security Level in the header is zero:
//  943      * MAC_UNSUPPORTED_SECURITY - Cancel the outgoing TX ACK.
//  944      */
//  945     || (pRxBuf->sec.securityLevel == MAC_SEC_LEVEL_NONE))
//  946     {
//  947       /* It may be too late but we have to try. */
//  948       MAC_RADIO_CANCEL_TX_ACK();
//  949 
//  950       /* clean up after unsupported security or corrupted RX frame. */
//  951       macRxHaltCleanup();
//  952       return;
//  953     }
//  954 
//  955     /* get the next RX length according to AuxLen table minus security control field.
//  956      * The sceurity control length is counted already.
//  957      */
//  958     rxNextLen = macKeySourceLen[keyIdMode] + MAC_FRAME_COUNTER_LEN;
//  959     MAC_RADIO_SET_RX_THRESHOLD(rxNextLen);
//  960     pFuncRxState = &rxSecurityHdrIsr;
//  961   }
//  962   else
//  963 #endif /* MAC_SECURITY */
//  964   {
//  965     /* clear security level */
//  966     pRxBuf->sec.securityLevel = MAC_SEC_LEVEL_NONE;
??CrossCallReturnLabel_50:
        LCALL     ?Subroutine18 & 0xFFFF
??CrossCallReturnLabel_63:
        ADD       A,#0x10
        MOV       DPL,A
        CLR       A
        ADDC      A,R0
        MOV       DPH,A
        CLR       A
        MOVX      @DPTR,A
//  967 
//  968     /*-------------------------------------------------------------------------------
//  969      *  Prepare for payload interrupts.
//  970      */
//  971     pFuncRxState = &rxPayloadIsr;
        LCALL     ?Subroutine5 & 0xFFFF
//  972     rxPrepPayload();
//  973   }
//  974 }
??CrossCallReturnLabel_10:
        MOV       A,#0x14
        LCALL     ?DEALLOC_XSTACK8
          CFI EndBlock cfiBlock49
        REQUIRE ?Subroutine1
        ; // Fall through to label ?Subroutine1

        RSEG BANKED_CODE:HUGECODE:NOROOT(0)
?Subroutine1:
          CFI Block cfiBlock50 Using cfiCommon0
          CFI NoFunction
          CFI CFA_SP SP+0
          CFI CFA_XSP16 add(XSP16, 10)
          CFI VB load(1, XDATA, add(CFA_XSP16, literal(-9)))
          CFI DPL0 load(1, XDATA, add(CFA_XSP16, literal(-2)))
          CFI DPH0 load(1, XDATA, add(CFA_XSP16, literal(-1)))
          CFI R6 load(1, XDATA, add(CFA_XSP16, literal(-10)))
          CFI R7 load(1, XDATA, add(CFA_XSP16, literal(-6)))
          CFI V0 load(1, XDATA, add(CFA_XSP16, literal(-8)))
          CFI V1 load(1, XDATA, add(CFA_XSP16, literal(-7)))
          CFI ?BRET_EXT load(1, XDATA, add(CFA_XSP16, literal(-3)))
          CFI ?RET_HIGH load(1, XDATA, add(CFA_XSP16, literal(-4)))
          CFI ?RET_LOW load(1, XDATA, add(CFA_XSP16, literal(-5)))
        MOV       R7,#0x2
        LJMP      ?BANKED_LEAVE_XDATA
          CFI EndBlock cfiBlock50

        RSEG BANKED_CODE:HUGECODE:NOROOT(0)
?Subroutine21:
          CFI Block cfiCond51 Using cfiCommon0
          CFI Function rxAddrIsr
          CFI Conditional ??CrossCallReturnLabel_35
          CFI R6 load(1, XDATA, add(CFA_XSP16, literal(-10)))
          CFI VB load(1, XDATA, add(CFA_XSP16, literal(-9)))
          CFI V0 load(1, XDATA, add(CFA_XSP16, literal(-8)))
          CFI V1 load(1, XDATA, add(CFA_XSP16, literal(-7)))
          CFI R7 load(1, XDATA, add(CFA_XSP16, literal(-6)))
          CFI ?RET_LOW load(1, XDATA, add(CFA_XSP16, literal(-5)))
          CFI ?RET_HIGH load(1, XDATA, add(CFA_XSP16, literal(-4)))
          CFI ?BRET_EXT load(1, XDATA, add(CFA_XSP16, literal(-3)))
          CFI DPL0 load(1, XDATA, add(CFA_XSP16, literal(-2)))
          CFI DPH0 load(1, XDATA, add(CFA_XSP16, literal(-1)))
          CFI CFA_SP SP+-2
          CFI CFA_XSP16 add(XSP16, 30)
          CFI Block cfiCond52 Using cfiCommon0
          CFI (cfiCond52) Function rxAddrIsr
          CFI (cfiCond52) Conditional ??CrossCallReturnLabel_36
          CFI (cfiCond52) R6 load(1, XDATA, add(CFA_XSP16, literal(-10)))
          CFI (cfiCond52) VB load(1, XDATA, add(CFA_XSP16, literal(-9)))
          CFI (cfiCond52) V0 load(1, XDATA, add(CFA_XSP16, literal(-8)))
          CFI (cfiCond52) V1 load(1, XDATA, add(CFA_XSP16, literal(-7)))
          CFI (cfiCond52) R7 load(1, XDATA, add(CFA_XSP16, literal(-6)))
          CFI (cfiCond52) ?RET_LOW load(1, XDATA, add(CFA_XSP16, literal(-5)))
          CFI (cfiCond52) ?RET_HIGH load(1, XDATA, add(CFA_XSP16, literal(-4)))
          CFI (cfiCond52) ?BRET_EXT load(1, XDATA, add(CFA_XSP16, literal(-3)))
          CFI (cfiCond52) DPL0 load(1, XDATA, add(CFA_XSP16, literal(-2)))
          CFI (cfiCond52) DPH0 load(1, XDATA, add(CFA_XSP16, literal(-1)))
          CFI (cfiCond52) CFA_SP SP+-2
          CFI (cfiCond52) CFA_XSP16 add(XSP16, 30)
          CFI Block cfiPicker53 Using cfiCommon1
          CFI (cfiPicker53) NoFunction
          CFI (cfiPicker53) Picker
        MOV       R2,A
        INC       DPTR
        MOVX      A,@DPTR
        ADDC      A,#0x0
        MOV       R3,A
        LCALL     `??sAddrExtCpy::?relay`; Banked call to: sAddrExtCpy
        RET
          CFI EndBlock cfiCond51
          CFI EndBlock cfiCond52
          CFI EndBlock cfiPicker53

        RSEG BANKED_CODE:HUGECODE:NOROOT(0)
?Subroutine19:
          CFI Block cfiCond54 Using cfiCommon0
          CFI Function rxAddrIsr
          CFI Conditional ??CrossCallReturnLabel_31
          CFI R6 load(1, XDATA, add(CFA_XSP16, literal(-10)))
          CFI VB load(1, XDATA, add(CFA_XSP16, literal(-9)))
          CFI V0 load(1, XDATA, add(CFA_XSP16, literal(-8)))
          CFI V1 load(1, XDATA, add(CFA_XSP16, literal(-7)))
          CFI R7 load(1, XDATA, add(CFA_XSP16, literal(-6)))
          CFI ?RET_LOW load(1, XDATA, add(CFA_XSP16, literal(-5)))
          CFI ?RET_HIGH load(1, XDATA, add(CFA_XSP16, literal(-4)))
          CFI ?BRET_EXT load(1, XDATA, add(CFA_XSP16, literal(-3)))
          CFI DPL0 load(1, XDATA, add(CFA_XSP16, literal(-2)))
          CFI DPH0 load(1, XDATA, add(CFA_XSP16, literal(-1)))
          CFI CFA_SP SP+-2
          CFI CFA_XSP16 add(XSP16, 30)
          CFI Block cfiCond55 Using cfiCommon0
          CFI (cfiCond55) Function rxAddrIsr
          CFI (cfiCond55) Conditional ??CrossCallReturnLabel_32
          CFI (cfiCond55) R6 load(1, XDATA, add(CFA_XSP16, literal(-10)))
          CFI (cfiCond55) VB load(1, XDATA, add(CFA_XSP16, literal(-9)))
          CFI (cfiCond55) V0 load(1, XDATA, add(CFA_XSP16, literal(-8)))
          CFI (cfiCond55) V1 load(1, XDATA, add(CFA_XSP16, literal(-7)))
          CFI (cfiCond55) R7 load(1, XDATA, add(CFA_XSP16, literal(-6)))
          CFI (cfiCond55) ?RET_LOW load(1, XDATA, add(CFA_XSP16, literal(-5)))
          CFI (cfiCond55) ?RET_HIGH load(1, XDATA, add(CFA_XSP16, literal(-4)))
          CFI (cfiCond55) ?BRET_EXT load(1, XDATA, add(CFA_XSP16, literal(-3)))
          CFI (cfiCond55) DPL0 load(1, XDATA, add(CFA_XSP16, literal(-2)))
          CFI (cfiCond55) DPH0 load(1, XDATA, add(CFA_XSP16, literal(-1)))
          CFI (cfiCond55) CFA_SP SP+-2
          CFI (cfiCond55) CFA_XSP16 add(XSP16, 30)
          CFI Block cfiPicker56 Using cfiCommon1
          CFI (cfiPicker56) NoFunction
          CFI (cfiPicker56) Picker
        MOVX      A,@DPTR
        MOV       R1,A
        MOV       A,R2
        LCALL     ?Subroutine30 & 0xFFFF
??CrossCallReturnLabel_76:
        XCH       A,R2
        RET
          CFI EndBlock cfiCond54
          CFI EndBlock cfiCond55
          CFI EndBlock cfiPicker56

        RSEG BANKED_CODE:HUGECODE:NOROOT(0)
?Subroutine18:
          CFI Block cfiCond57 Using cfiCommon0
          CFI Function rxStartIsr
          CFI Conditional ??CrossCallReturnLabel_60
          CFI R6 load(1, XDATA, add(CFA_XSP16, literal(-15)))
          CFI VB load(1, XDATA, add(CFA_XSP16, literal(-14)))
          CFI V0 load(1, XDATA, add(CFA_XSP16, literal(-13)))
          CFI V1 load(1, XDATA, add(CFA_XSP16, literal(-12)))
          CFI V2 load(1, XDATA, add(CFA_XSP16, literal(-11)))
          CFI V3 load(1, XDATA, add(CFA_XSP16, literal(-10)))
          CFI V4 load(1, XDATA, add(CFA_XSP16, literal(-9)))
          CFI V5 load(1, XDATA, add(CFA_XSP16, literal(-8)))
          CFI V6 load(1, XDATA, add(CFA_XSP16, literal(-7)))
          CFI R7 load(1, XDATA, add(CFA_XSP16, literal(-6)))
          CFI ?RET_LOW load(1, XDATA, add(CFA_XSP16, literal(-5)))
          CFI ?RET_HIGH load(1, XDATA, add(CFA_XSP16, literal(-4)))
          CFI ?BRET_EXT load(1, XDATA, add(CFA_XSP16, literal(-3)))
          CFI DPL0 load(1, XDATA, add(CFA_XSP16, literal(-2)))
          CFI DPH0 load(1, XDATA, add(CFA_XSP16, literal(-1)))
          CFI CFA_SP SP+-2
          CFI CFA_XSP16 add(XSP16, 17)
          CFI Block cfiCond58 Using cfiCommon0
          CFI (cfiCond58) Function rxStartIsr
          CFI (cfiCond58) Conditional ??CrossCallReturnLabel_61
          CFI (cfiCond58) R6 load(1, XDATA, add(CFA_XSP16, literal(-15)))
          CFI (cfiCond58) VB load(1, XDATA, add(CFA_XSP16, literal(-14)))
          CFI (cfiCond58) V0 load(1, XDATA, add(CFA_XSP16, literal(-13)))
          CFI (cfiCond58) V1 load(1, XDATA, add(CFA_XSP16, literal(-12)))
          CFI (cfiCond58) V2 load(1, XDATA, add(CFA_XSP16, literal(-11)))
          CFI (cfiCond58) V3 load(1, XDATA, add(CFA_XSP16, literal(-10)))
          CFI (cfiCond58) V4 load(1, XDATA, add(CFA_XSP16, literal(-9)))
          CFI (cfiCond58) V5 load(1, XDATA, add(CFA_XSP16, literal(-8)))
          CFI (cfiCond58) V6 load(1, XDATA, add(CFA_XSP16, literal(-7)))
          CFI (cfiCond58) R7 load(1, XDATA, add(CFA_XSP16, literal(-6)))
          CFI (cfiCond58) ?RET_LOW load(1, XDATA, add(CFA_XSP16, literal(-5)))
          CFI (cfiCond58) ?RET_HIGH load(1, XDATA, add(CFA_XSP16, literal(-4)))
          CFI (cfiCond58) ?BRET_EXT load(1, XDATA, add(CFA_XSP16, literal(-3)))
          CFI (cfiCond58) DPL0 load(1, XDATA, add(CFA_XSP16, literal(-2)))
          CFI (cfiCond58) DPH0 load(1, XDATA, add(CFA_XSP16, literal(-1)))
          CFI (cfiCond58) CFA_SP SP+-2
          CFI (cfiCond58) CFA_XSP16 add(XSP16, 17)
          CFI Block cfiCond59 Using cfiCommon0
          CFI (cfiCond59) Function rxStartIsr
          CFI (cfiCond59) Conditional ??CrossCallReturnLabel_62
          CFI (cfiCond59) R6 load(1, XDATA, add(CFA_XSP16, literal(-15)))
          CFI (cfiCond59) VB load(1, XDATA, add(CFA_XSP16, literal(-14)))
          CFI (cfiCond59) V0 load(1, XDATA, add(CFA_XSP16, literal(-13)))
          CFI (cfiCond59) V1 load(1, XDATA, add(CFA_XSP16, literal(-12)))
          CFI (cfiCond59) V2 load(1, XDATA, add(CFA_XSP16, literal(-11)))
          CFI (cfiCond59) V3 load(1, XDATA, add(CFA_XSP16, literal(-10)))
          CFI (cfiCond59) V4 load(1, XDATA, add(CFA_XSP16, literal(-9)))
          CFI (cfiCond59) V5 load(1, XDATA, add(CFA_XSP16, literal(-8)))
          CFI (cfiCond59) V6 load(1, XDATA, add(CFA_XSP16, literal(-7)))
          CFI (cfiCond59) R7 load(1, XDATA, add(CFA_XSP16, literal(-6)))
          CFI (cfiCond59) ?RET_LOW load(1, XDATA, add(CFA_XSP16, literal(-5)))
          CFI (cfiCond59) ?RET_HIGH load(1, XDATA, add(CFA_XSP16, literal(-4)))
          CFI (cfiCond59) ?BRET_EXT load(1, XDATA, add(CFA_XSP16, literal(-3)))
          CFI (cfiCond59) DPL0 load(1, XDATA, add(CFA_XSP16, literal(-2)))
          CFI (cfiCond59) DPH0 load(1, XDATA, add(CFA_XSP16, literal(-1)))
          CFI (cfiCond59) CFA_XSP16 add(XSP16, 17)
          CFI Block cfiCond60 Using cfiCommon0
          CFI (cfiCond60) Function rxAddrIsr
          CFI (cfiCond60) Conditional ??CrossCallReturnLabel_63
          CFI (cfiCond60) R6 load(1, XDATA, add(CFA_XSP16, literal(-10)))
          CFI (cfiCond60) VB load(1, XDATA, add(CFA_XSP16, literal(-9)))
          CFI (cfiCond60) V0 load(1, XDATA, add(CFA_XSP16, literal(-8)))
          CFI (cfiCond60) V1 load(1, XDATA, add(CFA_XSP16, literal(-7)))
          CFI (cfiCond60) R7 load(1, XDATA, add(CFA_XSP16, literal(-6)))
          CFI (cfiCond60) ?RET_LOW load(1, XDATA, add(CFA_XSP16, literal(-5)))
          CFI (cfiCond60) ?RET_HIGH load(1, XDATA, add(CFA_XSP16, literal(-4)))
          CFI (cfiCond60) ?BRET_EXT load(1, XDATA, add(CFA_XSP16, literal(-3)))
          CFI (cfiCond60) DPL0 load(1, XDATA, add(CFA_XSP16, literal(-2)))
          CFI (cfiCond60) DPH0 load(1, XDATA, add(CFA_XSP16, literal(-1)))
          CFI (cfiCond60) CFA_SP SP+-2
          CFI (cfiCond60) CFA_XSP16 add(XSP16, 30)
          CFI Block cfiCond61 Using cfiCommon0
          CFI (cfiCond61) Function rxFcsIsr
          CFI (cfiCond61) Conditional ??CrossCallReturnLabel_64
          CFI (cfiCond61) R6 load(1, XDATA, add(CFA_XSP16, literal(-10)))
          CFI (cfiCond61) VB load(1, XDATA, add(CFA_XSP16, literal(-9)))
          CFI (cfiCond61) V0 load(1, XDATA, add(CFA_XSP16, literal(-8)))
          CFI (cfiCond61) V1 load(1, XDATA, add(CFA_XSP16, literal(-7)))
          CFI (cfiCond61) R7 load(1, XDATA, add(CFA_XSP16, literal(-6)))
          CFI (cfiCond61) ?RET_LOW load(1, XDATA, add(CFA_XSP16, literal(-5)))
          CFI (cfiCond61) ?RET_HIGH load(1, XDATA, add(CFA_XSP16, literal(-4)))
          CFI (cfiCond61) ?BRET_EXT load(1, XDATA, add(CFA_XSP16, literal(-3)))
          CFI (cfiCond61) DPL0 load(1, XDATA, add(CFA_XSP16, literal(-2)))
          CFI (cfiCond61) DPH0 load(1, XDATA, add(CFA_XSP16, literal(-1)))
          CFI (cfiCond61) CFA_SP SP+-2
          CFI (cfiCond61) CFA_XSP16 add(XSP16, 10)
          CFI Block cfiPicker62 Using cfiCommon1
          CFI (cfiPicker62) NoFunction
          CFI (cfiPicker62) Picker
        MOV       DPTR,#pRxBuf
          CFI EndBlock cfiCond57
          CFI EndBlock cfiCond58
          CFI EndBlock cfiCond59
          CFI EndBlock cfiCond60
          CFI EndBlock cfiCond61
          CFI EndBlock cfiPicker62
        REQUIRE ??Subroutine34_0
        ; // Fall through to label ??Subroutine34_0

        RSEG BANKED_CODE:HUGECODE:NOROOT(0)
??Subroutine34_0:
          CFI Block cfiCond63 Using cfiCommon0
          CFI Function rxStartIsr
          CFI Conditional ??CrossCallReturnLabel_59
          CFI R6 load(1, XDATA, add(CFA_XSP16, literal(-15)))
          CFI VB load(1, XDATA, add(CFA_XSP16, literal(-14)))
          CFI V0 load(1, XDATA, add(CFA_XSP16, literal(-13)))
          CFI V1 load(1, XDATA, add(CFA_XSP16, literal(-12)))
          CFI V2 load(1, XDATA, add(CFA_XSP16, literal(-11)))
          CFI V3 load(1, XDATA, add(CFA_XSP16, literal(-10)))
          CFI V4 load(1, XDATA, add(CFA_XSP16, literal(-9)))
          CFI V5 load(1, XDATA, add(CFA_XSP16, literal(-8)))
          CFI V6 load(1, XDATA, add(CFA_XSP16, literal(-7)))
          CFI R7 load(1, XDATA, add(CFA_XSP16, literal(-6)))
          CFI ?RET_LOW load(1, XDATA, add(CFA_XSP16, literal(-5)))
          CFI ?RET_HIGH load(1, XDATA, add(CFA_XSP16, literal(-4)))
          CFI ?BRET_EXT load(1, XDATA, add(CFA_XSP16, literal(-3)))
          CFI DPL0 load(1, XDATA, add(CFA_XSP16, literal(-2)))
          CFI DPH0 load(1, XDATA, add(CFA_XSP16, literal(-1)))
          CFI CFA_SP SP+-2
          CFI CFA_XSP16 add(XSP16, 17)
          CFI Block cfiCond64 Using cfiCommon0
          CFI (cfiCond64) Function rxStartIsr
          CFI (cfiCond64) Conditional ??CrossCallReturnLabel_60
          CFI (cfiCond64) R6 load(1, XDATA, add(CFA_XSP16, literal(-15)))
          CFI (cfiCond64) VB load(1, XDATA, add(CFA_XSP16, literal(-14)))
          CFI (cfiCond64) V0 load(1, XDATA, add(CFA_XSP16, literal(-13)))
          CFI (cfiCond64) V1 load(1, XDATA, add(CFA_XSP16, literal(-12)))
          CFI (cfiCond64) V2 load(1, XDATA, add(CFA_XSP16, literal(-11)))
          CFI (cfiCond64) V3 load(1, XDATA, add(CFA_XSP16, literal(-10)))
          CFI (cfiCond64) V4 load(1, XDATA, add(CFA_XSP16, literal(-9)))
          CFI (cfiCond64) V5 load(1, XDATA, add(CFA_XSP16, literal(-8)))
          CFI (cfiCond64) V6 load(1, XDATA, add(CFA_XSP16, literal(-7)))
          CFI (cfiCond64) R7 load(1, XDATA, add(CFA_XSP16, literal(-6)))
          CFI (cfiCond64) ?RET_LOW load(1, XDATA, add(CFA_XSP16, literal(-5)))
          CFI (cfiCond64) ?RET_HIGH load(1, XDATA, add(CFA_XSP16, literal(-4)))
          CFI (cfiCond64) ?BRET_EXT load(1, XDATA, add(CFA_XSP16, literal(-3)))
          CFI (cfiCond64) DPL0 load(1, XDATA, add(CFA_XSP16, literal(-2)))
          CFI (cfiCond64) DPH0 load(1, XDATA, add(CFA_XSP16, literal(-1)))
          CFI (cfiCond64) CFA_SP SP+-2
          CFI (cfiCond64) CFA_XSP16 add(XSP16, 17)
          CFI Block cfiCond65 Using cfiCommon0
          CFI (cfiCond65) Function rxStartIsr
          CFI (cfiCond65) Conditional ??CrossCallReturnLabel_61
          CFI (cfiCond65) R6 load(1, XDATA, add(CFA_XSP16, literal(-15)))
          CFI (cfiCond65) VB load(1, XDATA, add(CFA_XSP16, literal(-14)))
          CFI (cfiCond65) V0 load(1, XDATA, add(CFA_XSP16, literal(-13)))
          CFI (cfiCond65) V1 load(1, XDATA, add(CFA_XSP16, literal(-12)))
          CFI (cfiCond65) V2 load(1, XDATA, add(CFA_XSP16, literal(-11)))
          CFI (cfiCond65) V3 load(1, XDATA, add(CFA_XSP16, literal(-10)))
          CFI (cfiCond65) V4 load(1, XDATA, add(CFA_XSP16, literal(-9)))
          CFI (cfiCond65) V5 load(1, XDATA, add(CFA_XSP16, literal(-8)))
          CFI (cfiCond65) V6 load(1, XDATA, add(CFA_XSP16, literal(-7)))
          CFI (cfiCond65) R7 load(1, XDATA, add(CFA_XSP16, literal(-6)))
          CFI (cfiCond65) ?RET_LOW load(1, XDATA, add(CFA_XSP16, literal(-5)))
          CFI (cfiCond65) ?RET_HIGH load(1, XDATA, add(CFA_XSP16, literal(-4)))
          CFI (cfiCond65) ?BRET_EXT load(1, XDATA, add(CFA_XSP16, literal(-3)))
          CFI (cfiCond65) DPL0 load(1, XDATA, add(CFA_XSP16, literal(-2)))
          CFI (cfiCond65) DPH0 load(1, XDATA, add(CFA_XSP16, literal(-1)))
          CFI (cfiCond65) CFA_SP SP+-2
          CFI (cfiCond65) CFA_XSP16 add(XSP16, 17)
          CFI Block cfiCond66 Using cfiCommon0
          CFI (cfiCond66) Function rxStartIsr
          CFI (cfiCond66) Conditional ??CrossCallReturnLabel_62
          CFI (cfiCond66) R6 load(1, XDATA, add(CFA_XSP16, literal(-15)))
          CFI (cfiCond66) VB load(1, XDATA, add(CFA_XSP16, literal(-14)))
          CFI (cfiCond66) V0 load(1, XDATA, add(CFA_XSP16, literal(-13)))
          CFI (cfiCond66) V1 load(1, XDATA, add(CFA_XSP16, literal(-12)))
          CFI (cfiCond66) V2 load(1, XDATA, add(CFA_XSP16, literal(-11)))
          CFI (cfiCond66) V3 load(1, XDATA, add(CFA_XSP16, literal(-10)))
          CFI (cfiCond66) V4 load(1, XDATA, add(CFA_XSP16, literal(-9)))
          CFI (cfiCond66) V5 load(1, XDATA, add(CFA_XSP16, literal(-8)))
          CFI (cfiCond66) V6 load(1, XDATA, add(CFA_XSP16, literal(-7)))
          CFI (cfiCond66) R7 load(1, XDATA, add(CFA_XSP16, literal(-6)))
          CFI (cfiCond66) ?RET_LOW load(1, XDATA, add(CFA_XSP16, literal(-5)))
          CFI (cfiCond66) ?RET_HIGH load(1, XDATA, add(CFA_XSP16, literal(-4)))
          CFI (cfiCond66) ?BRET_EXT load(1, XDATA, add(CFA_XSP16, literal(-3)))
          CFI (cfiCond66) DPL0 load(1, XDATA, add(CFA_XSP16, literal(-2)))
          CFI (cfiCond66) DPH0 load(1, XDATA, add(CFA_XSP16, literal(-1)))
          CFI (cfiCond66) CFA_XSP16 add(XSP16, 17)
          CFI Block cfiCond67 Using cfiCommon0
          CFI (cfiCond67) Function rxAddrIsr
          CFI (cfiCond67) Conditional ??CrossCallReturnLabel_63
          CFI (cfiCond67) R6 load(1, XDATA, add(CFA_XSP16, literal(-10)))
          CFI (cfiCond67) VB load(1, XDATA, add(CFA_XSP16, literal(-9)))
          CFI (cfiCond67) V0 load(1, XDATA, add(CFA_XSP16, literal(-8)))
          CFI (cfiCond67) V1 load(1, XDATA, add(CFA_XSP16, literal(-7)))
          CFI (cfiCond67) R7 load(1, XDATA, add(CFA_XSP16, literal(-6)))
          CFI (cfiCond67) ?RET_LOW load(1, XDATA, add(CFA_XSP16, literal(-5)))
          CFI (cfiCond67) ?RET_HIGH load(1, XDATA, add(CFA_XSP16, literal(-4)))
          CFI (cfiCond67) ?BRET_EXT load(1, XDATA, add(CFA_XSP16, literal(-3)))
          CFI (cfiCond67) DPL0 load(1, XDATA, add(CFA_XSP16, literal(-2)))
          CFI (cfiCond67) DPH0 load(1, XDATA, add(CFA_XSP16, literal(-1)))
          CFI (cfiCond67) CFA_SP SP+-2
          CFI (cfiCond67) CFA_XSP16 add(XSP16, 30)
          CFI Block cfiCond68 Using cfiCommon0
          CFI (cfiCond68) Function rxFcsIsr
          CFI (cfiCond68) Conditional ??CrossCallReturnLabel_64
          CFI (cfiCond68) R6 load(1, XDATA, add(CFA_XSP16, literal(-10)))
          CFI (cfiCond68) VB load(1, XDATA, add(CFA_XSP16, literal(-9)))
          CFI (cfiCond68) V0 load(1, XDATA, add(CFA_XSP16, literal(-8)))
          CFI (cfiCond68) V1 load(1, XDATA, add(CFA_XSP16, literal(-7)))
          CFI (cfiCond68) R7 load(1, XDATA, add(CFA_XSP16, literal(-6)))
          CFI (cfiCond68) ?RET_LOW load(1, XDATA, add(CFA_XSP16, literal(-5)))
          CFI (cfiCond68) ?RET_HIGH load(1, XDATA, add(CFA_XSP16, literal(-4)))
          CFI (cfiCond68) ?BRET_EXT load(1, XDATA, add(CFA_XSP16, literal(-3)))
          CFI (cfiCond68) DPL0 load(1, XDATA, add(CFA_XSP16, literal(-2)))
          CFI (cfiCond68) DPH0 load(1, XDATA, add(CFA_XSP16, literal(-1)))
          CFI (cfiCond68) CFA_SP SP+-2
          CFI (cfiCond68) CFA_XSP16 add(XSP16, 10)
          CFI Block cfiPicker69 Using cfiCommon1
          CFI (cfiPicker69) NoFunction
          CFI (cfiPicker69) Picker
        LCALL     ??Subroutine40_0 & 0xFFFF
??CrossCallReturnLabel_81:
        RET
          CFI EndBlock cfiCond63
          CFI EndBlock cfiCond64
          CFI EndBlock cfiCond65
          CFI EndBlock cfiCond66
          CFI EndBlock cfiCond67
          CFI EndBlock cfiCond68
          CFI EndBlock cfiPicker69

        RSEG BANKED_CODE:HUGECODE:NOROOT(0)
?Subroutine17:
          CFI Block cfiCond70 Using cfiCommon0
          CFI Function rxStartIsr
          CFI Conditional ??CrossCallReturnLabel_29
          CFI R6 load(1, XDATA, add(CFA_XSP16, literal(-15)))
          CFI VB load(1, XDATA, add(CFA_XSP16, literal(-14)))
          CFI V0 load(1, XDATA, add(CFA_XSP16, literal(-13)))
          CFI V1 load(1, XDATA, add(CFA_XSP16, literal(-12)))
          CFI V2 load(1, XDATA, add(CFA_XSP16, literal(-11)))
          CFI V3 load(1, XDATA, add(CFA_XSP16, literal(-10)))
          CFI V4 load(1, XDATA, add(CFA_XSP16, literal(-9)))
          CFI V5 load(1, XDATA, add(CFA_XSP16, literal(-8)))
          CFI V6 load(1, XDATA, add(CFA_XSP16, literal(-7)))
          CFI R7 load(1, XDATA, add(CFA_XSP16, literal(-6)))
          CFI ?RET_LOW load(1, XDATA, add(CFA_XSP16, literal(-5)))
          CFI ?RET_HIGH load(1, XDATA, add(CFA_XSP16, literal(-4)))
          CFI ?BRET_EXT load(1, XDATA, add(CFA_XSP16, literal(-3)))
          CFI DPL0 load(1, XDATA, add(CFA_XSP16, literal(-2)))
          CFI DPH0 load(1, XDATA, add(CFA_XSP16, literal(-1)))
          CFI CFA_XSP16 add(XSP16, 17)
          CFI Block cfiCond71 Using cfiCommon0
          CFI (cfiCond71) Function rxAddrIsr
          CFI (cfiCond71) Conditional ??CrossCallReturnLabel_30
          CFI (cfiCond71) R6 load(1, XDATA, add(CFA_XSP16, literal(-10)))
          CFI (cfiCond71) VB load(1, XDATA, add(CFA_XSP16, literal(-9)))
          CFI (cfiCond71) V0 load(1, XDATA, add(CFA_XSP16, literal(-8)))
          CFI (cfiCond71) V1 load(1, XDATA, add(CFA_XSP16, literal(-7)))
          CFI (cfiCond71) R7 load(1, XDATA, add(CFA_XSP16, literal(-6)))
          CFI (cfiCond71) ?RET_LOW load(1, XDATA, add(CFA_XSP16, literal(-5)))
          CFI (cfiCond71) ?RET_HIGH load(1, XDATA, add(CFA_XSP16, literal(-4)))
          CFI (cfiCond71) ?BRET_EXT load(1, XDATA, add(CFA_XSP16, literal(-3)))
          CFI (cfiCond71) DPL0 load(1, XDATA, add(CFA_XSP16, literal(-2)))
          CFI (cfiCond71) DPH0 load(1, XDATA, add(CFA_XSP16, literal(-1)))
          CFI (cfiCond71) CFA_SP SP+-2
          CFI (cfiCond71) CFA_XSP16 add(XSP16, 30)
          CFI Block cfiPicker72 Using cfiCommon1
          CFI (cfiPicker72) NoFunction
          CFI (cfiPicker72) Picker
        LCALL     ?Subroutine26 & 0xFFFF
??CrossCallReturnLabel_80:
        LCALL     ?Subroutine29 & 0xFFFF
??CrossCallReturnLabel_48:
        RET
          CFI EndBlock cfiCond70
          CFI EndBlock cfiCond71
          CFI EndBlock cfiPicker72

        RSEG BANKED_CODE:HUGECODE:NOROOT(0)
?Subroutine29:
          CFI Block cfiCond73 Using cfiCommon0
          CFI Function rxStartIsr
          CFI Conditional ??CrossCallReturnLabel_48, ??CrossCallReturnLabel_29
          CFI R6 load(1, XDATA, add(CFA_XSP16, literal(-15)))
          CFI VB load(1, XDATA, add(CFA_XSP16, literal(-14)))
          CFI V0 load(1, XDATA, add(CFA_XSP16, literal(-13)))
          CFI V1 load(1, XDATA, add(CFA_XSP16, literal(-12)))
          CFI V2 load(1, XDATA, add(CFA_XSP16, literal(-11)))
          CFI V3 load(1, XDATA, add(CFA_XSP16, literal(-10)))
          CFI V4 load(1, XDATA, add(CFA_XSP16, literal(-9)))
          CFI V5 load(1, XDATA, add(CFA_XSP16, literal(-8)))
          CFI V6 load(1, XDATA, add(CFA_XSP16, literal(-7)))
          CFI R7 load(1, XDATA, add(CFA_XSP16, literal(-6)))
          CFI ?RET_LOW load(1, XDATA, add(CFA_XSP16, literal(-5)))
          CFI ?RET_HIGH load(1, XDATA, add(CFA_XSP16, literal(-4)))
          CFI ?BRET_EXT load(1, XDATA, add(CFA_XSP16, literal(-3)))
          CFI DPL0 load(1, XDATA, add(CFA_XSP16, literal(-2)))
          CFI DPH0 load(1, XDATA, add(CFA_XSP16, literal(-1)))
          CFI CFA_SP SP+-5
          CFI CFA_XSP16 add(XSP16, 17)
          CFI Block cfiCond74 Using cfiCommon0
          CFI (cfiCond74) Function rxAddrIsr
          CFI (cfiCond74) Conditional ??CrossCallReturnLabel_48, ??CrossCallReturnLabel_30
          CFI (cfiCond74) R6 load(1, XDATA, add(CFA_XSP16, literal(-10)))
          CFI (cfiCond74) VB load(1, XDATA, add(CFA_XSP16, literal(-9)))
          CFI (cfiCond74) V0 load(1, XDATA, add(CFA_XSP16, literal(-8)))
          CFI (cfiCond74) V1 load(1, XDATA, add(CFA_XSP16, literal(-7)))
          CFI (cfiCond74) R7 load(1, XDATA, add(CFA_XSP16, literal(-6)))
          CFI (cfiCond74) ?RET_LOW load(1, XDATA, add(CFA_XSP16, literal(-5)))
          CFI (cfiCond74) ?RET_HIGH load(1, XDATA, add(CFA_XSP16, literal(-4)))
          CFI (cfiCond74) ?BRET_EXT load(1, XDATA, add(CFA_XSP16, literal(-3)))
          CFI (cfiCond74) DPL0 load(1, XDATA, add(CFA_XSP16, literal(-2)))
          CFI (cfiCond74) DPH0 load(1, XDATA, add(CFA_XSP16, literal(-1)))
          CFI (cfiCond74) CFA_SP SP+-4
          CFI (cfiCond74) CFA_XSP16 add(XSP16, 30)
          CFI Block cfiCond75 Using cfiCommon0
          CFI (cfiCond75) Function rxFcsIsr
          CFI (cfiCond75) Conditional ??CrossCallReturnLabel_47
          CFI (cfiCond75) R6 load(1, XDATA, add(CFA_XSP16, literal(-10)))
          CFI (cfiCond75) VB load(1, XDATA, add(CFA_XSP16, literal(-9)))
          CFI (cfiCond75) V0 load(1, XDATA, add(CFA_XSP16, literal(-8)))
          CFI (cfiCond75) V1 load(1, XDATA, add(CFA_XSP16, literal(-7)))
          CFI (cfiCond75) R7 load(1, XDATA, add(CFA_XSP16, literal(-6)))
          CFI (cfiCond75) ?RET_LOW load(1, XDATA, add(CFA_XSP16, literal(-5)))
          CFI (cfiCond75) ?RET_HIGH load(1, XDATA, add(CFA_XSP16, literal(-4)))
          CFI (cfiCond75) ?BRET_EXT load(1, XDATA, add(CFA_XSP16, literal(-3)))
          CFI (cfiCond75) DPL0 load(1, XDATA, add(CFA_XSP16, literal(-2)))
          CFI (cfiCond75) DPH0 load(1, XDATA, add(CFA_XSP16, literal(-1)))
          CFI (cfiCond75) CFA_SP SP+-2
          CFI (cfiCond75) CFA_XSP16 add(XSP16, 10)
          CFI Block cfiPicker76 Using cfiCommon1
          CFI (cfiPicker76) NoFunction
          CFI (cfiPicker76) Picker
        ADD       A,#0x7
        MOV       DPL,A
        CLR       A
        ADDC      A,R0
        MOV       DPH,A
        RET
          CFI EndBlock cfiCond73
          CFI EndBlock cfiCond74
          CFI EndBlock cfiCond75
          CFI EndBlock cfiPicker76

        RSEG BANKED_CODE:HUGECODE:NOROOT(0)
?Subroutine9:
          CFI Block cfiCond77 Using cfiCommon0
          CFI Function rxStartIsr
          CFI Conditional ??CrossCallReturnLabel_69
          CFI R6 load(1, XDATA, add(CFA_XSP16, literal(-15)))
          CFI VB load(1, XDATA, add(CFA_XSP16, literal(-14)))
          CFI V0 load(1, XDATA, add(CFA_XSP16, literal(-13)))
          CFI V1 load(1, XDATA, add(CFA_XSP16, literal(-12)))
          CFI V2 load(1, XDATA, add(CFA_XSP16, literal(-11)))
          CFI V3 load(1, XDATA, add(CFA_XSP16, literal(-10)))
          CFI V4 load(1, XDATA, add(CFA_XSP16, literal(-9)))
          CFI V5 load(1, XDATA, add(CFA_XSP16, literal(-8)))
          CFI V6 load(1, XDATA, add(CFA_XSP16, literal(-7)))
          CFI R7 load(1, XDATA, add(CFA_XSP16, literal(-6)))
          CFI ?RET_LOW load(1, XDATA, add(CFA_XSP16, literal(-5)))
          CFI ?RET_HIGH load(1, XDATA, add(CFA_XSP16, literal(-4)))
          CFI ?BRET_EXT load(1, XDATA, add(CFA_XSP16, literal(-3)))
          CFI DPL0 load(1, XDATA, add(CFA_XSP16, literal(-2)))
          CFI DPH0 load(1, XDATA, add(CFA_XSP16, literal(-1)))
          CFI CFA_SP SP+-2
          CFI CFA_XSP16 add(XSP16, 17)
          CFI Block cfiCond78 Using cfiCommon0
          CFI (cfiCond78) Function rxPayloadIsr
          CFI (cfiCond78) Conditional ??CrossCallReturnLabel_70
          CFI (cfiCond78) DPL0 Frame(CFA_SP, 4)
          CFI (cfiCond78) DPH0 Frame(CFA_SP, 5)
          CFI (cfiCond78) CFA_SP SP+-7
          CFI Block cfiPicker79 Using cfiCommon1
          CFI (cfiPicker79) NoFunction
          CFI (cfiPicker79) Picker
        MOVX      A,@DPTR
        MOV       R2,A
        MOV       DPL,R0
        MOV       DPH,R1
        MOVX      A,@DPTR
        ADD       A,R2
        MOV       R2,A
        INC       DPTR
        MOVX      A,@DPTR
        ADDC      A,#0x0
        MOV       R3,A
        MOV       DPL,R0
        MOV       DPH,R1
          CFI EndBlock cfiCond77
          CFI EndBlock cfiCond78
          CFI EndBlock cfiPicker79
        REQUIRE ??Subroutine35_0
        ; // Fall through to label ??Subroutine35_0

        RSEG BANKED_CODE:HUGECODE:NOROOT(0)
??Subroutine35_0:
          CFI Block cfiCond80 Using cfiCommon0
          CFI Function rxStartIsr
          CFI Conditional ??CrossCallReturnLabel_68
          CFI R6 load(1, XDATA, add(CFA_XSP16, literal(-15)))
          CFI VB load(1, XDATA, add(CFA_XSP16, literal(-14)))
          CFI V0 load(1, XDATA, add(CFA_XSP16, literal(-13)))
          CFI V1 load(1, XDATA, add(CFA_XSP16, literal(-12)))
          CFI V2 load(1, XDATA, add(CFA_XSP16, literal(-11)))
          CFI V3 load(1, XDATA, add(CFA_XSP16, literal(-10)))
          CFI V4 load(1, XDATA, add(CFA_XSP16, literal(-9)))
          CFI V5 load(1, XDATA, add(CFA_XSP16, literal(-8)))
          CFI V6 load(1, XDATA, add(CFA_XSP16, literal(-7)))
          CFI R7 load(1, XDATA, add(CFA_XSP16, literal(-6)))
          CFI ?RET_LOW load(1, XDATA, add(CFA_XSP16, literal(-5)))
          CFI ?RET_HIGH load(1, XDATA, add(CFA_XSP16, literal(-4)))
          CFI ?BRET_EXT load(1, XDATA, add(CFA_XSP16, literal(-3)))
          CFI DPL0 load(1, XDATA, add(CFA_XSP16, literal(-2)))
          CFI DPH0 load(1, XDATA, add(CFA_XSP16, literal(-1)))
          CFI CFA_SP SP+-2
          CFI CFA_XSP16 add(XSP16, 17)
          CFI Block cfiCond81 Using cfiCommon0
          CFI (cfiCond81) Function rxStartIsr
          CFI (cfiCond81) Conditional ??CrossCallReturnLabel_69
          CFI (cfiCond81) R6 load(1, XDATA, add(CFA_XSP16, literal(-15)))
          CFI (cfiCond81) VB load(1, XDATA, add(CFA_XSP16, literal(-14)))
          CFI (cfiCond81) V0 load(1, XDATA, add(CFA_XSP16, literal(-13)))
          CFI (cfiCond81) V1 load(1, XDATA, add(CFA_XSP16, literal(-12)))
          CFI (cfiCond81) V2 load(1, XDATA, add(CFA_XSP16, literal(-11)))
          CFI (cfiCond81) V3 load(1, XDATA, add(CFA_XSP16, literal(-10)))
          CFI (cfiCond81) V4 load(1, XDATA, add(CFA_XSP16, literal(-9)))
          CFI (cfiCond81) V5 load(1, XDATA, add(CFA_XSP16, literal(-8)))
          CFI (cfiCond81) V6 load(1, XDATA, add(CFA_XSP16, literal(-7)))
          CFI (cfiCond81) R7 load(1, XDATA, add(CFA_XSP16, literal(-6)))
          CFI (cfiCond81) ?RET_LOW load(1, XDATA, add(CFA_XSP16, literal(-5)))
          CFI (cfiCond81) ?RET_HIGH load(1, XDATA, add(CFA_XSP16, literal(-4)))
          CFI (cfiCond81) ?BRET_EXT load(1, XDATA, add(CFA_XSP16, literal(-3)))
          CFI (cfiCond81) DPL0 load(1, XDATA, add(CFA_XSP16, literal(-2)))
          CFI (cfiCond81) DPH0 load(1, XDATA, add(CFA_XSP16, literal(-1)))
          CFI (cfiCond81) CFA_SP SP+-2
          CFI (cfiCond81) CFA_XSP16 add(XSP16, 17)
          CFI Block cfiCond82 Using cfiCommon0
          CFI (cfiCond82) Function rxPayloadIsr
          CFI (cfiCond82) Conditional ??CrossCallReturnLabel_70
          CFI (cfiCond82) DPL0 Frame(CFA_SP, 4)
          CFI (cfiCond82) DPH0 Frame(CFA_SP, 5)
          CFI (cfiCond82) CFA_SP SP+-7
          CFI Block cfiPicker83 Using cfiCommon1
          CFI (cfiPicker83) NoFunction
          CFI (cfiPicker83) Picker
        MOV       A,R2
          CFI EndBlock cfiCond80
          CFI EndBlock cfiCond81
          CFI EndBlock cfiCond82
          CFI EndBlock cfiPicker83
        REQUIRE ??Subroutine36_0
        ; // Fall through to label ??Subroutine36_0

        RSEG BANKED_CODE:HUGECODE:NOROOT(0)
??Subroutine36_0:
          CFI Block cfiCond84 Using cfiCommon0
          CFI Function rxStartIsr
          CFI Conditional ??CrossCallReturnLabel_65
          CFI R6 load(1, XDATA, add(CFA_XSP16, literal(-15)))
          CFI VB load(1, XDATA, add(CFA_XSP16, literal(-14)))
          CFI V0 load(1, XDATA, add(CFA_XSP16, literal(-13)))
          CFI V1 load(1, XDATA, add(CFA_XSP16, literal(-12)))
          CFI V2 load(1, XDATA, add(CFA_XSP16, literal(-11)))
          CFI V3 load(1, XDATA, add(CFA_XSP16, literal(-10)))
          CFI V4 load(1, XDATA, add(CFA_XSP16, literal(-9)))
          CFI V5 load(1, XDATA, add(CFA_XSP16, literal(-8)))
          CFI V6 load(1, XDATA, add(CFA_XSP16, literal(-7)))
          CFI R7 load(1, XDATA, add(CFA_XSP16, literal(-6)))
          CFI ?RET_LOW load(1, XDATA, add(CFA_XSP16, literal(-5)))
          CFI ?RET_HIGH load(1, XDATA, add(CFA_XSP16, literal(-4)))
          CFI ?BRET_EXT load(1, XDATA, add(CFA_XSP16, literal(-3)))
          CFI DPL0 load(1, XDATA, add(CFA_XSP16, literal(-2)))
          CFI DPH0 load(1, XDATA, add(CFA_XSP16, literal(-1)))
          CFI CFA_SP SP+-2
          CFI CFA_XSP16 add(XSP16, 17)
          CFI Block cfiCond85 Using cfiCommon0
          CFI (cfiCond85) Function rxAddrIsr
          CFI (cfiCond85) Conditional ??CrossCallReturnLabel_66
          CFI (cfiCond85) R6 load(1, XDATA, add(CFA_XSP16, literal(-10)))
          CFI (cfiCond85) VB load(1, XDATA, add(CFA_XSP16, literal(-9)))
          CFI (cfiCond85) V0 load(1, XDATA, add(CFA_XSP16, literal(-8)))
          CFI (cfiCond85) V1 load(1, XDATA, add(CFA_XSP16, literal(-7)))
          CFI (cfiCond85) R7 load(1, XDATA, add(CFA_XSP16, literal(-6)))
          CFI (cfiCond85) ?RET_LOW load(1, XDATA, add(CFA_XSP16, literal(-5)))
          CFI (cfiCond85) ?RET_HIGH load(1, XDATA, add(CFA_XSP16, literal(-4)))
          CFI (cfiCond85) ?BRET_EXT load(1, XDATA, add(CFA_XSP16, literal(-3)))
          CFI (cfiCond85) DPL0 load(1, XDATA, add(CFA_XSP16, literal(-2)))
          CFI (cfiCond85) DPH0 load(1, XDATA, add(CFA_XSP16, literal(-1)))
          CFI (cfiCond85) CFA_SP SP+-2
          CFI (cfiCond85) CFA_XSP16 add(XSP16, 30)
          CFI Block cfiCond86 Using cfiCommon0
          CFI (cfiCond86) Function rxAddrIsr
          CFI (cfiCond86) Conditional ??CrossCallReturnLabel_67
          CFI (cfiCond86) R6 load(1, XDATA, add(CFA_XSP16, literal(-10)))
          CFI (cfiCond86) VB load(1, XDATA, add(CFA_XSP16, literal(-9)))
          CFI (cfiCond86) V0 load(1, XDATA, add(CFA_XSP16, literal(-8)))
          CFI (cfiCond86) V1 load(1, XDATA, add(CFA_XSP16, literal(-7)))
          CFI (cfiCond86) R7 load(1, XDATA, add(CFA_XSP16, literal(-6)))
          CFI (cfiCond86) ?RET_LOW load(1, XDATA, add(CFA_XSP16, literal(-5)))
          CFI (cfiCond86) ?RET_HIGH load(1, XDATA, add(CFA_XSP16, literal(-4)))
          CFI (cfiCond86) ?BRET_EXT load(1, XDATA, add(CFA_XSP16, literal(-3)))
          CFI (cfiCond86) DPL0 load(1, XDATA, add(CFA_XSP16, literal(-2)))
          CFI (cfiCond86) DPH0 load(1, XDATA, add(CFA_XSP16, literal(-1)))
          CFI (cfiCond86) CFA_SP SP+-2
          CFI (cfiCond86) CFA_XSP16 add(XSP16, 30)
          CFI Block cfiCond87 Using cfiCommon0
          CFI (cfiCond87) Function rxStartIsr
          CFI (cfiCond87) Conditional ??CrossCallReturnLabel_68
          CFI (cfiCond87) R6 load(1, XDATA, add(CFA_XSP16, literal(-15)))
          CFI (cfiCond87) VB load(1, XDATA, add(CFA_XSP16, literal(-14)))
          CFI (cfiCond87) V0 load(1, XDATA, add(CFA_XSP16, literal(-13)))
          CFI (cfiCond87) V1 load(1, XDATA, add(CFA_XSP16, literal(-12)))
          CFI (cfiCond87) V2 load(1, XDATA, add(CFA_XSP16, literal(-11)))
          CFI (cfiCond87) V3 load(1, XDATA, add(CFA_XSP16, literal(-10)))
          CFI (cfiCond87) V4 load(1, XDATA, add(CFA_XSP16, literal(-9)))
          CFI (cfiCond87) V5 load(1, XDATA, add(CFA_XSP16, literal(-8)))
          CFI (cfiCond87) V6 load(1, XDATA, add(CFA_XSP16, literal(-7)))
          CFI (cfiCond87) R7 load(1, XDATA, add(CFA_XSP16, literal(-6)))
          CFI (cfiCond87) ?RET_LOW load(1, XDATA, add(CFA_XSP16, literal(-5)))
          CFI (cfiCond87) ?RET_HIGH load(1, XDATA, add(CFA_XSP16, literal(-4)))
          CFI (cfiCond87) ?BRET_EXT load(1, XDATA, add(CFA_XSP16, literal(-3)))
          CFI (cfiCond87) DPL0 load(1, XDATA, add(CFA_XSP16, literal(-2)))
          CFI (cfiCond87) DPH0 load(1, XDATA, add(CFA_XSP16, literal(-1)))
          CFI (cfiCond87) CFA_SP SP+-2
          CFI (cfiCond87) CFA_XSP16 add(XSP16, 17)
          CFI Block cfiCond88 Using cfiCommon0
          CFI (cfiCond88) Function rxStartIsr
          CFI (cfiCond88) Conditional ??CrossCallReturnLabel_69
          CFI (cfiCond88) R6 load(1, XDATA, add(CFA_XSP16, literal(-15)))
          CFI (cfiCond88) VB load(1, XDATA, add(CFA_XSP16, literal(-14)))
          CFI (cfiCond88) V0 load(1, XDATA, add(CFA_XSP16, literal(-13)))
          CFI (cfiCond88) V1 load(1, XDATA, add(CFA_XSP16, literal(-12)))
          CFI (cfiCond88) V2 load(1, XDATA, add(CFA_XSP16, literal(-11)))
          CFI (cfiCond88) V3 load(1, XDATA, add(CFA_XSP16, literal(-10)))
          CFI (cfiCond88) V4 load(1, XDATA, add(CFA_XSP16, literal(-9)))
          CFI (cfiCond88) V5 load(1, XDATA, add(CFA_XSP16, literal(-8)))
          CFI (cfiCond88) V6 load(1, XDATA, add(CFA_XSP16, literal(-7)))
          CFI (cfiCond88) R7 load(1, XDATA, add(CFA_XSP16, literal(-6)))
          CFI (cfiCond88) ?RET_LOW load(1, XDATA, add(CFA_XSP16, literal(-5)))
          CFI (cfiCond88) ?RET_HIGH load(1, XDATA, add(CFA_XSP16, literal(-4)))
          CFI (cfiCond88) ?BRET_EXT load(1, XDATA, add(CFA_XSP16, literal(-3)))
          CFI (cfiCond88) DPL0 load(1, XDATA, add(CFA_XSP16, literal(-2)))
          CFI (cfiCond88) DPH0 load(1, XDATA, add(CFA_XSP16, literal(-1)))
          CFI (cfiCond88) CFA_SP SP+-2
          CFI (cfiCond88) CFA_XSP16 add(XSP16, 17)
          CFI Block cfiCond89 Using cfiCommon0
          CFI (cfiCond89) Function rxPayloadIsr
          CFI (cfiCond89) Conditional ??CrossCallReturnLabel_70
          CFI (cfiCond89) DPL0 Frame(CFA_SP, 4)
          CFI (cfiCond89) DPH0 Frame(CFA_SP, 5)
          CFI (cfiCond89) CFA_SP SP+-7
          CFI Block cfiPicker90 Using cfiCommon1
          CFI (cfiPicker90) NoFunction
          CFI (cfiPicker90) Picker
        MOVX      @DPTR,A
        INC       DPTR
        MOV       A,R3
        MOVX      @DPTR,A
        RET
          CFI EndBlock cfiCond84
          CFI EndBlock cfiCond85
          CFI EndBlock cfiCond86
          CFI EndBlock cfiCond87
          CFI EndBlock cfiCond88
          CFI EndBlock cfiCond89
          CFI EndBlock cfiPicker90

        RSEG BANKED_CODE:HUGECODE:NOROOT(0)
?Subroutine5:
          CFI Block cfiCond91 Using cfiCommon0
          CFI Function rxStartIsr
          CFI Conditional ??CrossCallReturnLabel_9
          CFI R6 load(1, XDATA, add(CFA_XSP16, literal(-15)))
          CFI VB load(1, XDATA, add(CFA_XSP16, literal(-14)))
          CFI V0 load(1, XDATA, add(CFA_XSP16, literal(-13)))
          CFI V1 load(1, XDATA, add(CFA_XSP16, literal(-12)))
          CFI V2 load(1, XDATA, add(CFA_XSP16, literal(-11)))
          CFI V3 load(1, XDATA, add(CFA_XSP16, literal(-10)))
          CFI V4 load(1, XDATA, add(CFA_XSP16, literal(-9)))
          CFI V5 load(1, XDATA, add(CFA_XSP16, literal(-8)))
          CFI V6 load(1, XDATA, add(CFA_XSP16, literal(-7)))
          CFI R7 load(1, XDATA, add(CFA_XSP16, literal(-6)))
          CFI ?RET_LOW load(1, XDATA, add(CFA_XSP16, literal(-5)))
          CFI ?RET_HIGH load(1, XDATA, add(CFA_XSP16, literal(-4)))
          CFI ?BRET_EXT load(1, XDATA, add(CFA_XSP16, literal(-3)))
          CFI DPL0 load(1, XDATA, add(CFA_XSP16, literal(-2)))
          CFI DPH0 load(1, XDATA, add(CFA_XSP16, literal(-1)))
          CFI CFA_SP SP+-2
          CFI CFA_XSP16 add(XSP16, 17)
          CFI Block cfiCond92 Using cfiCommon0
          CFI (cfiCond92) Function rxAddrIsr
          CFI (cfiCond92) Conditional ??CrossCallReturnLabel_10
          CFI (cfiCond92) R6 load(1, XDATA, add(CFA_XSP16, literal(-10)))
          CFI (cfiCond92) VB load(1, XDATA, add(CFA_XSP16, literal(-9)))
          CFI (cfiCond92) V0 load(1, XDATA, add(CFA_XSP16, literal(-8)))
          CFI (cfiCond92) V1 load(1, XDATA, add(CFA_XSP16, literal(-7)))
          CFI (cfiCond92) R7 load(1, XDATA, add(CFA_XSP16, literal(-6)))
          CFI (cfiCond92) ?RET_LOW load(1, XDATA, add(CFA_XSP16, literal(-5)))
          CFI (cfiCond92) ?RET_HIGH load(1, XDATA, add(CFA_XSP16, literal(-4)))
          CFI (cfiCond92) ?BRET_EXT load(1, XDATA, add(CFA_XSP16, literal(-3)))
          CFI (cfiCond92) DPL0 load(1, XDATA, add(CFA_XSP16, literal(-2)))
          CFI (cfiCond92) DPH0 load(1, XDATA, add(CFA_XSP16, literal(-1)))
          CFI (cfiCond92) CFA_SP SP+-2
          CFI (cfiCond92) CFA_XSP16 add(XSP16, 30)
          CFI Block cfiPicker93 Using cfiCommon1
          CFI (cfiPicker93) NoFunction
          CFI (cfiPicker93) Picker
        MOV       DPTR,#pFuncRxState
        MOV       A,#`??rxPayloadIsr::?relay` & 0xff
        MOVX      @DPTR,A
        INC       DPTR
        MOV       A,#(`??rxPayloadIsr::?relay` >> 8) & 0xff
        MOVX      @DPTR,A
        ; Setup parameters for call to function rxPrepPayload
        ; Setup parameters for call to function rxPrepPayload
        LCALL     `??rxPrepPayload::?relay`; Banked call to: rxPrepPayload
        RET
          CFI EndBlock cfiCond91
          CFI EndBlock cfiCond92
          CFI EndBlock cfiPicker93
//  975 
//  976 
//  977 #ifdef FEATURE_MAC_SECURITY
//  978 /*=================================================================================================
//  979  * @fn          rxSecurityHdrIsr
//  980  *
//  981  * @brief       Receive ISR state for reading out and storing the auxiliary security header.
//  982  *
//  983  * @param       none
//  984  *
//  985  * @return      none
//  986  *=================================================================================================
//  987  */
//  988 static void rxSecurityHdrIsr(void)
//  989 {
//  990   uint8 buf[MAC_FRAME_COUNTER_LEN + MAC_KEY_ID_8_LEN];
//  991 
//  992   /* read out frame counter and key ID */
//  993   MAC_RADIO_READ_RX_FIFO(buf, rxNextLen);
//  994 
//  995   /* Incoming frame counter */
//  996   pRxBuf->frameCounter = BUILD_UINT32(buf[0], buf[1], buf[2], buf[3]);
//  997   if (rxNextLen - MAC_FRAME_COUNTER_LEN > 0)
//  998   {
//  999     /* Explicit mode */
// 1000     osal_memcpy(pRxBuf->sec.keySource, &buf[MAC_FRAME_COUNTER_LEN], rxNextLen - MAC_FRAME_COUNTER_LEN - 1);
// 1001     pRxBuf->sec.keyIndex = buf[rxNextLen - MAC_KEY_INDEX_LEN];
// 1002   }
// 1003 
// 1004   /* Copy security fields to RX buffer */
// 1005   osal_memcpy(pRxBuf->mhr.p, buf, rxNextLen);
// 1006   pRxBuf->mhr.p   += rxNextLen;
// 1007   pRxBuf->mhr.len += rxNextLen;
// 1008 
// 1009   /* Update payload pointer and payload length. The rxPayloadLen includes security header length
// 1010    * and SCF byte. The security header and SCF length must be deducted from the rxPayloadLen.
// 1011    */
// 1012   rxPayloadLen    -= (rxNextLen + MAC_SEC_CONTROL_FIELD_LEN);
// 1013   pRxBuf->msdu.len = rxPayloadLen;
// 1014   pRxBuf->mhr.len += rxPayloadLen;
// 1015 
// 1016   /*-------------------------------------------------------------------------------
// 1017    *  Prepare for payload interrupts.
// 1018    */
// 1019   pFuncRxState = &rxPayloadIsr;
// 1020   rxPrepPayload();
// 1021 }
// 1022 #endif /* MAC_SECURITY */
// 1023 
// 1024 
// 1025 /*=================================================================================================
// 1026  * @fn          rxPrepPayload
// 1027  *
// 1028  * @brief       Common code to prepare for the payload ISR.
// 1029  *
// 1030  * @param       none
// 1031  *
// 1032  * @return      none
// 1033  *=================================================================================================
// 1034  */

        RSEG BANKED_CODE:HUGECODE:NOROOT(0)
// 1035 static void rxPrepPayload(void)
rxPrepPayload:
          CFI Block cfiBlock94 Using cfiCommon0
          CFI Function rxPrepPayload
        CODE
// 1036 {
        PUSH      DPL
          CFI DPL0 Frame(CFA_SP, 4)
          CFI CFA_SP SP+-4
        PUSH      DPH
          CFI DPH0 Frame(CFA_SP, 5)
          CFI CFA_SP SP+-5
        ; Saved register size: 2
        ; Auto size: 0
// 1037   if (rxPayloadLen == 0)
        MOV       DPTR,#rxPayloadLen
        MOVX      A,@DPTR
        JNZ       ??rxPrepPayload_0
// 1038   {
// 1039     MAC_RADIO_SET_RX_THRESHOLD(MAC_FCS_FIELD_LEN);
        MOV       DPTR,#0x6194
        MOV       A,#0x1
        MOVX      @DPTR,A
// 1040     pFuncRxState = &rxFcsIsr;
        MOV       DPTR,#pFuncRxState
        MOV       A,#`??rxFcsIsr::?relay` & 0xff
        MOVX      @DPTR,A
        INC       DPTR
        MOV       A,#(`??rxFcsIsr::?relay` >> 8) & 0xff
        SJMP      ??rxPrepPayload_1
// 1041   }
// 1042   else
// 1043   {
// 1044     rxNextLen = MIN(rxPayloadLen, MAX_PAYLOAD_BYTES_READ_PER_INTERRUPT);
??rxPrepPayload_0:
        CLR       C
        SUBB      A,#0x10
        JNC       ??rxPrepPayload_2
        MOVX      A,@DPTR
        MOV       DPTR,#rxNextLen
        SJMP      ??rxPrepPayload_3
??rxPrepPayload_2:
        MOV       DPTR,#rxNextLen
        MOV       A,#0x10
??rxPrepPayload_3:
        MOVX      @DPTR,A
// 1045     MAC_RADIO_SET_RX_THRESHOLD(rxNextLen);
        MOVX      A,@DPTR
        DEC       A
        MOV       DPTR,#0x6194
// 1046   }
??rxPrepPayload_1:
        SJMP      ?Subroutine0
// 1047 }
          CFI EndBlock cfiBlock94
// 1048 
// 1049 
// 1050 /*=================================================================================================
// 1051  * @fn          rxPayloadIsr
// 1052  *
// 1053  * @brief       Receive ISR state for reading out and storing the packet payload.
// 1054  *
// 1055  * @param       none
// 1056  *
// 1057  * @return      none
// 1058  *=================================================================================================
// 1059  */

        RSEG BANKED_CODE:HUGECODE:NOROOT(0)
// 1060 static void rxPayloadIsr(void)
rxPayloadIsr:
          CFI Block cfiBlock95 Using cfiCommon0
          CFI Function rxPayloadIsr
        CODE
// 1061 {
        FUNCALL rxPayloadIsr, macMemReadRxFifo
        LOCFRAME ISTACK, 2, STACK
        LOCFRAME PSTACK, 0, STACK
        LOCFRAME XSTACK, 0, STACK
        LOCFRAME IOVERLAY, 0, STATIC
        LOCFRAME DOVERLAY, 0, STATIC
        ARGFRAME ISTACK, 2, STACK
        ARGFRAME PSTACK, 0, STACK
        ARGFRAME XSTACK, 0, STACK
        ARGFRAME IOVERLAY, 0, STATIC
        ARGFRAME DOVERLAY, 0, STATIC
        FUNCALL rxPayloadIsr, rxPrepPayload
        LOCFRAME ISTACK, 2, STACK
        LOCFRAME PSTACK, 0, STACK
        LOCFRAME XSTACK, 0, STACK
        LOCFRAME IOVERLAY, 0, STATIC
        LOCFRAME DOVERLAY, 0, STATIC
        ARGFRAME ISTACK, 2, STACK
        ARGFRAME PSTACK, 0, STACK
        ARGFRAME XSTACK, 0, STACK
        ARGFRAME IOVERLAY, 0, STATIC
        ARGFRAME DOVERLAY, 0, STATIC
        PUSH      DPL
          CFI DPL0 Frame(CFA_SP, 4)
          CFI CFA_SP SP+-4
        PUSH      DPH
          CFI DPH0 Frame(CFA_SP, 5)
          CFI CFA_SP SP+-5
        ; Saved register size: 2
        ; Auto size: 0
// 1062   MAC_RADIO_READ_RX_FIFO(pRxBuf->mhr.p, rxNextLen);
        ; Setup parameters for call to function macMemReadRxFifo
        MOV       DPTR,#rxNextLen
        MOVX      A,@DPTR
        MOV       R1,A
        LCALL     ?Subroutine13 & 0xFFFF
??CrossCallReturnLabel_23:
        LCALL     `??macMemReadRxFifo::?relay`; Banked call to: macMemReadRxFifo
// 1063   pRxBuf->mhr.p += rxNextLen;
        MOV       DPTR,#pRxBuf
        MOVX      A,@DPTR
        ADD       A,#0x33
        MOV       R0,A
        INC       DPTR
        MOVX      A,@DPTR
        ADDC      A,#0x0
        MOV       R1,A
        MOV       DPTR,#rxNextLen
        LCALL     ?Subroutine9 & 0xFFFF
// 1064 
// 1065   rxPayloadLen -= rxNextLen;
??CrossCallReturnLabel_70:
        MOV       DPTR,#rxNextLen
        MOVX      A,@DPTR
        MOV       R0,A
        MOV       DPTR,#rxPayloadLen
        MOVX      A,@DPTR
        CLR       C
        SUBB      A,R0
        MOVX      @DPTR,A
// 1066 
// 1067   rxPrepPayload();
        ; Setup parameters for call to function rxPrepPayload
        LCALL     `??rxPrepPayload::?relay`; Banked call to: rxPrepPayload
// 1068 }
        SJMP      ??Subroutine37_0
          CFI EndBlock cfiBlock95

        RSEG BANKED_CODE:HUGECODE:NOROOT(0)
?Subroutine13:
          CFI Block cfiCond96 Using cfiCommon0
          CFI Function rxStartIsr
          CFI Conditional ??CrossCallReturnLabel_22
          CFI R6 load(1, XDATA, add(CFA_XSP16, literal(-15)))
          CFI VB load(1, XDATA, add(CFA_XSP16, literal(-14)))
          CFI V0 load(1, XDATA, add(CFA_XSP16, literal(-13)))
          CFI V1 load(1, XDATA, add(CFA_XSP16, literal(-12)))
          CFI V2 load(1, XDATA, add(CFA_XSP16, literal(-11)))
          CFI V3 load(1, XDATA, add(CFA_XSP16, literal(-10)))
          CFI V4 load(1, XDATA, add(CFA_XSP16, literal(-9)))
          CFI V5 load(1, XDATA, add(CFA_XSP16, literal(-8)))
          CFI V6 load(1, XDATA, add(CFA_XSP16, literal(-7)))
          CFI R7 load(1, XDATA, add(CFA_XSP16, literal(-6)))
          CFI ?RET_LOW load(1, XDATA, add(CFA_XSP16, literal(-5)))
          CFI ?RET_HIGH load(1, XDATA, add(CFA_XSP16, literal(-4)))
          CFI ?BRET_EXT load(1, XDATA, add(CFA_XSP16, literal(-3)))
          CFI DPL0 load(1, XDATA, add(CFA_XSP16, literal(-2)))
          CFI DPH0 load(1, XDATA, add(CFA_XSP16, literal(-1)))
          CFI CFA_SP SP+-2
          CFI CFA_XSP16 add(XSP16, 20)
          CFI Block cfiCond97 Using cfiCommon0
          CFI (cfiCond97) Function rxPayloadIsr
          CFI (cfiCond97) Conditional ??CrossCallReturnLabel_23
          CFI (cfiCond97) DPL0 Frame(CFA_SP, 4)
          CFI (cfiCond97) DPH0 Frame(CFA_SP, 5)
          CFI (cfiCond97) CFA_SP SP+-7
          CFI Block cfiPicker98 Using cfiCommon1
          CFI (cfiPicker98) NoFunction
          CFI (cfiPicker98) Picker
        LCALL     ?Subroutine26 & 0xFFFF
??CrossCallReturnLabel_79:
        ADD       A,#0x33
        MOV       DPL,A
        CLR       A
        ADDC      A,R0
        MOV       DPH,A
        LCALL     ??Subroutine39_0 & 0xFFFF
??CrossCallReturnLabel_71:
        MOV       R3,A
        RET
          CFI EndBlock cfiCond96
          CFI EndBlock cfiCond97
          CFI EndBlock cfiPicker98

        RSEG BANKED_CODE:HUGECODE:NOROOT(0)
?Subroutine0:
          CFI Block cfiBlock99 Using cfiCommon0
          CFI NoFunction
          CFI CFA_SP SP+-5
          CFI DPL0 Frame(CFA_SP, 4)
          CFI DPH0 Frame(CFA_SP, 5)
        MOVX      @DPTR,A
          CFI EndBlock cfiBlock99
        REQUIRE ??Subroutine37_0
        ; // Fall through to label ??Subroutine37_0

        RSEG BANKED_CODE:HUGECODE:NOROOT(0)
??Subroutine37_0:
          CFI Block cfiBlock100 Using cfiCommon0
          CFI NoFunction
          CFI CFA_SP SP+-5
          CFI DPL0 Frame(CFA_SP, 4)
          CFI DPH0 Frame(CFA_SP, 5)
        POP       DPH
          CFI CFA_SP SP+-4
          CFI DPH0 SameValue
        POP       DPL
          CFI CFA_SP SP+-3
          CFI DPL0 SameValue
        LJMP      ?BRET
          CFI EndBlock cfiBlock100
// 1069 
// 1070 
// 1071 /*=================================================================================================
// 1072  * @fn          rxFcsIsr
// 1073  *
// 1074  * @brief       Receive ISR state for handling the FCS.
// 1075  *
// 1076  * @param       none
// 1077  *
// 1078  * @return      none
// 1079  *=================================================================================================
// 1080  */

        RSEG BANKED_CODE:HUGECODE:NOROOT(0)
// 1081 static void rxFcsIsr(void)
rxFcsIsr:
          CFI Block cfiBlock101 Using cfiCommon0
          CFI Function rxFcsIsr
        CODE
// 1082 {
        FUNCALL rxFcsIsr, macMemReadRxFifo
        LOCFRAME ISTACK, 0, STACK
        LOCFRAME PSTACK, 0, STACK
        LOCFRAME XSTACK, 10, STACK
        LOCFRAME IOVERLAY, 0, STATIC
        LOCFRAME DOVERLAY, 0, STATIC
        ARGFRAME ISTACK, 0, STACK
        ARGFRAME PSTACK, 0, STACK
        ARGFRAME XSTACK, 10, STACK
        ARGFRAME IOVERLAY, 0, STATIC
        ARGFRAME DOVERLAY, 0, STATIC
        FUNCALL rxFcsIsr, macLowLevelDiags
        LOCFRAME ISTACK, 0, STACK
        LOCFRAME PSTACK, 0, STACK
        LOCFRAME XSTACK, 10, STACK
        LOCFRAME IOVERLAY, 0, STATIC
        LOCFRAME DOVERLAY, 0, STATIC
        ARGFRAME ISTACK, 0, STACK
        ARGFRAME PSTACK, 0, STACK
        ARGFRAME XSTACK, 10, STACK
        ARGFRAME IOVERLAY, 0, STATIC
        ARGFRAME DOVERLAY, 0, STATIC
        FUNCALL rxFcsIsr, macRxOffRequest
        LOCFRAME ISTACK, 0, STACK
        LOCFRAME PSTACK, 0, STACK
        LOCFRAME XSTACK, 10, STACK
        LOCFRAME IOVERLAY, 0, STATIC
        LOCFRAME DOVERLAY, 0, STATIC
        ARGFRAME ISTACK, 0, STACK
        ARGFRAME PSTACK, 0, STACK
        ARGFRAME XSTACK, 10, STACK
        ARGFRAME IOVERLAY, 0, STATIC
        ARGFRAME DOVERLAY, 0, STATIC
        FUNCALL rxFcsIsr, macRadioComputeLQI
        LOCFRAME ISTACK, 0, STACK
        LOCFRAME PSTACK, 0, STACK
        LOCFRAME XSTACK, 10, STACK
        LOCFRAME IOVERLAY, 0, STATIC
        LOCFRAME DOVERLAY, 0, STATIC
        ARGFRAME ISTACK, 0, STACK
        ARGFRAME PSTACK, 0, STACK
        ARGFRAME XSTACK, 10, STACK
        ARGFRAME IOVERLAY, 0, STATIC
        ARGFRAME DOVERLAY, 0, STATIC
        FUNCALL rxFcsIsr, MAC_SrcMatchCheckResult
        LOCFRAME ISTACK, 0, STACK
        LOCFRAME PSTACK, 0, STACK
        LOCFRAME XSTACK, 10, STACK
        LOCFRAME IOVERLAY, 0, STATIC
        LOCFRAME DOVERLAY, 0, STATIC
        ARGFRAME ISTACK, 0, STACK
        ARGFRAME PSTACK, 0, STACK
        ARGFRAME XSTACK, 10, STACK
        ARGFRAME IOVERLAY, 0, STATIC
        ARGFRAME DOVERLAY, 0, STATIC
        FUNCALL rxFcsIsr, macRxCompleteCallback
        LOCFRAME ISTACK, 0, STACK
        LOCFRAME PSTACK, 0, STACK
        LOCFRAME XSTACK, 10, STACK
        LOCFRAME IOVERLAY, 0, STATIC
        LOCFRAME DOVERLAY, 0, STATIC
        ARGFRAME ISTACK, 0, STACK
        ARGFRAME PSTACK, 0, STACK
        ARGFRAME XSTACK, 10, STACK
        ARGFRAME IOVERLAY, 0, STATIC
        ARGFRAME DOVERLAY, 0, STATIC
        FUNCALL rxFcsIsr, macLowLevelDiags
        LOCFRAME ISTACK, 0, STACK
        LOCFRAME PSTACK, 0, STACK
        LOCFRAME XSTACK, 10, STACK
        LOCFRAME IOVERLAY, 0, STATIC
        LOCFRAME DOVERLAY, 0, STATIC
        ARGFRAME ISTACK, 0, STACK
        ARGFRAME PSTACK, 0, STACK
        ARGFRAME XSTACK, 10, STACK
        ARGFRAME IOVERLAY, 0, STATIC
        ARGFRAME DOVERLAY, 0, STATIC
        FUNCALL rxFcsIsr, macDataRxMemFree
        LOCFRAME ISTACK, 0, STACK
        LOCFRAME PSTACK, 0, STACK
        LOCFRAME XSTACK, 10, STACK
        LOCFRAME IOVERLAY, 0, STATIC
        LOCFRAME DOVERLAY, 0, STATIC
        ARGFRAME ISTACK, 0, STACK
        ARGFRAME PSTACK, 0, STACK
        ARGFRAME XSTACK, 10, STACK
        ARGFRAME IOVERLAY, 0, STATIC
        ARGFRAME DOVERLAY, 0, STATIC
        FUNCALL rxFcsIsr, rxDone
        LOCFRAME ISTACK, 0, STACK
        LOCFRAME PSTACK, 0, STACK
        LOCFRAME XSTACK, 10, STACK
        LOCFRAME IOVERLAY, 0, STATIC
        LOCFRAME DOVERLAY, 0, STATIC
        ARGFRAME ISTACK, 0, STACK
        ARGFRAME PSTACK, 0, STACK
        ARGFRAME XSTACK, 10, STACK
        ARGFRAME IOVERLAY, 0, STATIC
        ARGFRAME DOVERLAY, 0, STATIC
        REQUIRE ?V0
        REQUIRE ?V1
        MOV       A,#-0xa
        LCALL     ?BANKED_ENTER_XDATA
          CFI DPH0 load(1, XDATA, add(CFA_XSP16, literal(-1)))
          CFI DPL0 load(1, XDATA, add(CFA_XSP16, literal(-2)))
          CFI ?BRET_EXT load(1, XDATA, add(CFA_XSP16, literal(-3)))
          CFI ?RET_HIGH load(1, XDATA, add(CFA_XSP16, literal(-4)))
          CFI ?RET_LOW load(1, XDATA, add(CFA_XSP16, literal(-5)))
          CFI R7 load(1, XDATA, add(CFA_XSP16, literal(-6)))
          CFI V1 load(1, XDATA, add(CFA_XSP16, literal(-7)))
          CFI V0 load(1, XDATA, add(CFA_XSP16, literal(-8)))
          CFI VB load(1, XDATA, add(CFA_XSP16, literal(-9)))
          CFI R6 load(1, XDATA, add(CFA_XSP16, literal(-10)))
          CFI CFA_SP SP+0
          CFI CFA_XSP16 add(XSP16, 10)
        ; Saved register size: 10
        ; Auto size: 0
// 1083   uint8 crcOK;
// 1084   uint8 ackWithPending = 0;
        MOV       R6,#0x0
// 1085 
// 1086   /* read FCS, rxBuf is now available storage */
// 1087   MAC_RADIO_READ_RX_FIFO(rxBuf, MAC_FCS_FIELD_LEN);
        ; Setup parameters for call to function macMemReadRxFifo
        MOV       R1,#0x2
        MOV       R2,#rxBuf & 0xff
        MOV       R3,#(rxBuf >> 8) & 0xff
        LCALL     `??macMemReadRxFifo::?relay`; Banked call to: macMemReadRxFifo
// 1088 
// 1089   /*
// 1090    *  The FCS has actually been replaced within the radio by a proprietary version of the FCS.
// 1091    *  This proprietary FCS is two bytes (same length as the real FCS) and contains:
// 1092    *    1) the RSSI value
// 1093    *    2) the average correlation value (used for LQI)
// 1094    *    3) a CRC passed bit
// 1095    */
// 1096 
// 1097   /* save the "CRC-is-OK" status */
// 1098   crcOK = PROPRIETARY_FCS_CRC_OK(rxBuf);
        MOV       DPTR,#rxBuf + 1
        MOVX      A,@DPTR
        ANL       A,#0x80
        MOV       ?V1,A
// 1099 
// 1100   /*
// 1101    *  See if the frame should be passed up to high-level MAC.  If the CRC is OK, the
// 1102    *  the frame is always passed up.  Frames with a bad CRC are also passed up *if*
// 1103    *  a special variant of promiscuous mode is active.
// 1104    */
// 1105   if (crcOK || (rxPromiscuousMode == MAC_PROMISCUOUS_MODE_WITH_BAD_CRC))
        JNZ       ??rxFcsIsr_0
        MOV       DPTR,#rxPromiscuousMode
        MOVX      A,@DPTR
        XRL       A,#0x2
        JZ        $+5
        LJMP      ??rxFcsIsr_1 & 0xFFFF
// 1106   {
// 1107     int8 rssiDbm;
// 1108     uint8 corr;
// 1109 
// 1110 #ifdef FEATURE_SYSTEM_STATS
// 1111     /* Increment diagnostic CRC success counter */
// 1112     macLowLevelDiags( MAC_DIAGS_RX_CRC_PASS );
??rxFcsIsr_0:
        ; Setup parameters for call to function macLowLevelDiags
        MOV       R1,#-0x19
        LCALL     `??macLowLevelDiags::?relay`; Banked call to: macLowLevelDiags
// 1113 #endif /* FEATURE_SYSTEM_STATS */
// 1114 
// 1115     /*
// 1116      *  As power saving optimization, set state variable to indicate physical receive
// 1117      *  has completed and then request turning of the receiver.  This means the receiver
// 1118      *  can be off (if other conditions permit) during execution of the callback function.
// 1119      *
// 1120      *  The receiver will be requested to turn off once again at the end of the receive
// 1121      *  logic.  There is no harm in doing this.
// 1122      */
// 1123     macRxActive = MAC_RX_ACTIVE_DONE;
        MOV       DPTR,#macRxActive
        MOV       A,#0x2
        MOVX      @DPTR,A
// 1124     macRxOffRequest();
        ; Setup parameters for call to function macRxOffRequest
        LCALL     `??macRxOffRequest::?relay`; Banked call to: macRxOffRequest
// 1125 
// 1126     /* decode RSSI and correlation values */
// 1127     rssiDbm = PROPRIETARY_FCS_RSSI(rxBuf) + MAC_RADIO_RSSI_OFFSET;
        MOV       DPTR,#rxBuf
        MOVX      A,@DPTR
        ADD       A,#-0x49
        MOV       ?V0,A
// 1128     MAC_RADIO_RSSI_LNA_OFFSET(rssiDbm);
// 1129     corr = PROPRIETARY_FCS_CORRELATION_VALUE(rxBuf);
        INC       DPTR
        MOVX      A,@DPTR
        ANL       A,#0x7f
        MOV       R7,A
// 1130 
// 1131     /* record parameters that get passed up to high-level */
// 1132     pRxBuf->mac.mpduLinkQuality = macRadioComputeLQI(rssiDbm, corr);
        ; Setup parameters for call to function macRadioComputeLQI
        MOV       R2,A
        MOV       R1,?V0
        LCALL     `??macRadioComputeLQI::?relay`; Banked call to: macRadioComputeLQI
        LCALL     ?Subroutine18 & 0xFFFF
??CrossCallReturnLabel_64:
        ADD       A,#0x2f
        MOV       DPL,A
        CLR       A
        ADDC      A,R0
        MOV       DPH,A
        MOV       A,R1
        LCALL     ?Subroutine2 & 0xFFFF
// 1133     pRxBuf->mac.rssi = rssiDbm;
??CrossCallReturnLabel_1:
        ADD       A,#0x31
        MOV       DPL,A
        CLR       A
        ADDC      A,R0
        MOV       DPH,A
        MOV       A,?V0
        LCALL     ?Subroutine2 & 0xFFFF
// 1134     pRxBuf->mac.correlation = corr;
??CrossCallReturnLabel_2:
        ADD       A,#0x30
        MOV       DPL,A
        CLR       A
        ADDC      A,R0
        MOV       DPH,A
        MOV       A,R7
        MOVX      @DPTR,A
// 1135 
// 1136     /* set the MSDU pointer to point at start of data */
// 1137     pRxBuf->mhr.p   = (uint8 *) (pRxBuf + 1);
        LCALL     ?Subroutine15 & 0xFFFF
??CrossCallReturnLabel_25:
        LCALL     ?Subroutine24 & 0xFFFF
// 1138     pRxBuf->msdu.p += (pRxBuf->mhr.len - pRxBuf->msdu.len);
??CrossCallReturnLabel_52:
        MOV       DPTR,#pRxBuf
        MOVX      A,@DPTR
        ADD       A,#0x2
        LCALL     ?Subroutine12 & 0xFFFF
??CrossCallReturnLabel_21:
        MOVX      A,@DPTR
        MOV       R2,A
        MOV       DPTR,#pRxBuf
        MOVX      A,@DPTR
        MOV       R4,A
        INC       DPTR
        MOVX      A,@DPTR
        MOV       DPH,A
        MOV       DPL,R4
        INC       DPTR
        INC       DPTR
        INC       DPTR
        INC       DPTR
        MOVX      A,@DPTR
        MOV       R4,A
        MOV       A,R2
        CLR       C
        SUBB      A,R4
        MOV       R2,A
        SUBB      A,0xE0 /* A   */
        MOV       R3,A
        MOV       DPL,R0
        MOV       DPH,R1
        MOVX      A,@DPTR
        ADD       A,R2
        MOV       R2,A
        INC       DPTR
        MOVX      A,@DPTR
        ADDC      A,R3
        MOV       R3,A
        MOV       DPL,R0
        MOV       DPH,R1
        MOV       A,R2
        MOVX      @DPTR,A
        INC       DPTR
        MOV       A,R3
        LCALL     ?Subroutine2 & 0xFFFF
// 1139 
// 1140     if ((pRxBuf->internal.flags & MAC_RX_FLAG_ACK_PENDING) && (*pRxBuf->msdu.p != MAC_DATA_REQ_FRAME))
??CrossCallReturnLabel_3:
        LCALL     ?Subroutine29 & 0xFFFF
??CrossCallReturnLabel_47:
        MOVX      A,@DPTR
        MOV       C,0xE0 /* A   */.2
        JNC       ??rxFcsIsr_2
        MOV       DPTR,#pRxBuf
        LCALL     ?Subroutine16 & 0xFFFF
??CrossCallReturnLabel_27:
        INC       DPTR
        INC       DPTR
        LCALL     ?Subroutine16 & 0xFFFF
??CrossCallReturnLabel_28:
        MOVX      A,@DPTR
        XRL       A,#0x4
        JZ        ??rxFcsIsr_2
// 1141     {
// 1142       /* For non-data request commands, cancel the pending bit in the ACK. */
// 1143       MAC_RADIO_TX_ACK();
        MOV       DPTR,#0x618a
        MOVX      A,@DPTR
        CLR       0xE0 /* A   */.2
        MOVX      @DPTR,A
// 1144     }
// 1145 
// 1146     /* Read the source matching result back */
// 1147     if( macSrcMatchIsEnabled && MAC_RADIO_SRC_MATCH_RESULT() )
??rxFcsIsr_2:
        MOV       DPTR,#macSrcMatchIsEnabled
        MOVX      A,@DPTR
        JZ        ??rxFcsIsr_3
        ; Setup parameters for call to function MAC_SrcMatchCheckResult
        LCALL     `??MAC_SrcMatchCheckResult::?relay`; Banked call to: MAC_SrcMatchCheckResult
        MOV       A,R1
        JZ        ??rxFcsIsr_3
// 1148     {
// 1149       /* This result will not overwrite the previously determined pRxBuf->internal.flags */
// 1150       ackWithPending = MAC_RX_FLAG_ACK_PENDING;
        MOV       R6,#0x4
// 1151     }
// 1152     pRxBuf->internal.flags |= ( crcOK | ackWithPending );
??rxFcsIsr_3:
        MOV       A,?V1
        ORL       A,R6
        MOV       R0,A
        MOV       DPTR,#pRxBuf
        MOVX      A,@DPTR
        MOV       R1,A
        INC       DPTR
        MOVX      A,@DPTR
        XCH       A,R1
        ADD       A,#0x7
        MOV       DPL,A
        CLR       A
        ADDC      A,R1
        MOV       DPH,A
        MOVX      A,@DPTR
        ORL       A,R0
        LCALL     ?Subroutine8 & 0xFFFF
// 1153 
// 1154     /* finally... execute callback function */
// 1155     macRxCompleteCallback(pRxBuf);
??CrossCallReturnLabel_13:
        MOV       R3,A
        LCALL     `??macRxCompleteCallback::?relay`; Banked call to: macRxCompleteCallback
// 1156     pRxBuf = NULL; /* needed to indicate buffer is no longer allocated */
        SJMP      ??rxFcsIsr_4
// 1157   }
// 1158   else
// 1159   {
// 1160 #ifdef FEATURE_SYSTEM_STATS
// 1161     /* Increment diagnostic CRC failure counter */
// 1162     macLowLevelDiags( MAC_DIAGS_RX_CRC_FAIL );
??rxFcsIsr_1:
        ; Setup parameters for call to function macLowLevelDiags
        MOV       R1,#-0x18
        LCALL     `??macLowLevelDiags::?relay`; Banked call to: macLowLevelDiags
// 1163 #endif /* FEATURE_SYSTEM_STATS */
// 1164 
// 1165     /*
// 1166      *  The CRC is bad so no ACK was sent.  Cancel any callback and clear the flag.
// 1167      *  (It's OK to cancel the outgoing ACK even if an ACK was not requested.  It's
// 1168      *  slightly more efficient to do so.)
// 1169      */
// 1170     MAC_RADIO_CANCEL_ACK_TX_DONE_CALLBACK();
        LCALL     ?Subroutine6 & 0xFFFF
// 1171     macRxOutgoingAckFlag = 0;
// 1172 
// 1173     /* the CRC failed so the packet must be discarded */
// 1174     MEM_FREE((uint8 **)&pRxBuf);
??CrossCallReturnLabel_57:
        ; Setup parameters for call to function macDataRxMemFree
        MOV       R2,#pRxBuf & 0xff
        MOV       R3,#(pRxBuf >> 8) & 0xff
        LCALL     `??macDataRxMemFree::?relay`; Banked call to: macDataRxMemFree
// 1175     pRxBuf = NULL;  /* needed to indicate buffer is no longer allocated */
??rxFcsIsr_4:
        MOV       DPTR,#pRxBuf
        CLR       A
        MOVX      @DPTR,A
        INC       DPTR
        MOVX      @DPTR,A
// 1176   }
// 1177 
// 1178   /* reset threshold level, reset receive state, and complete receive logic */
// 1179   MAC_RADIO_SET_RX_THRESHOLD(RX_THRESHOLD_START_LEN);
        LCALL     ?Subroutine3 & 0xFFFF
// 1180   pFuncRxState = &rxStartIsr;
// 1181   rxDone();
// 1182 }
??CrossCallReturnLabel_4:
        LJMP      ?Subroutine1 & 0xFFFF
          CFI EndBlock cfiBlock101

        RSEG BANKED_CODE:HUGECODE:NOROOT(0)
?Subroutine16:
          CFI Block cfiCond102 Using cfiCommon0
          CFI Function macRxThresholdIsr
          CFI Conditional ??CrossCallReturnLabel_26
          CFI DPL0 Frame(CFA_SP, 4)
          CFI DPH0 Frame(CFA_SP, 5)
          CFI CFA_SP SP+-7
          CFI Block cfiCond103 Using cfiCommon0
          CFI (cfiCond103) Function rxFcsIsr
          CFI (cfiCond103) Conditional ??CrossCallReturnLabel_27
          CFI (cfiCond103) R6 load(1, XDATA, add(CFA_XSP16, literal(-10)))
          CFI (cfiCond103) VB load(1, XDATA, add(CFA_XSP16, literal(-9)))
          CFI (cfiCond103) V0 load(1, XDATA, add(CFA_XSP16, literal(-8)))
          CFI (cfiCond103) V1 load(1, XDATA, add(CFA_XSP16, literal(-7)))
          CFI (cfiCond103) R7 load(1, XDATA, add(CFA_XSP16, literal(-6)))
          CFI (cfiCond103) ?RET_LOW load(1, XDATA, add(CFA_XSP16, literal(-5)))
          CFI (cfiCond103) ?RET_HIGH load(1, XDATA, add(CFA_XSP16, literal(-4)))
          CFI (cfiCond103) ?BRET_EXT load(1, XDATA, add(CFA_XSP16, literal(-3)))
          CFI (cfiCond103) DPL0 load(1, XDATA, add(CFA_XSP16, literal(-2)))
          CFI (cfiCond103) DPH0 load(1, XDATA, add(CFA_XSP16, literal(-1)))
          CFI (cfiCond103) CFA_SP SP+-2
          CFI (cfiCond103) CFA_XSP16 add(XSP16, 10)
          CFI Block cfiCond104 Using cfiCommon0
          CFI (cfiCond104) Function rxFcsIsr
          CFI (cfiCond104) Conditional ??CrossCallReturnLabel_28
          CFI (cfiCond104) R6 load(1, XDATA, add(CFA_XSP16, literal(-10)))
          CFI (cfiCond104) VB load(1, XDATA, add(CFA_XSP16, literal(-9)))
          CFI (cfiCond104) V0 load(1, XDATA, add(CFA_XSP16, literal(-8)))
          CFI (cfiCond104) V1 load(1, XDATA, add(CFA_XSP16, literal(-7)))
          CFI (cfiCond104) R7 load(1, XDATA, add(CFA_XSP16, literal(-6)))
          CFI (cfiCond104) ?RET_LOW load(1, XDATA, add(CFA_XSP16, literal(-5)))
          CFI (cfiCond104) ?RET_HIGH load(1, XDATA, add(CFA_XSP16, literal(-4)))
          CFI (cfiCond104) ?BRET_EXT load(1, XDATA, add(CFA_XSP16, literal(-3)))
          CFI (cfiCond104) DPL0 load(1, XDATA, add(CFA_XSP16, literal(-2)))
          CFI (cfiCond104) DPH0 load(1, XDATA, add(CFA_XSP16, literal(-1)))
          CFI (cfiCond104) CFA_SP SP+-2
          CFI (cfiCond104) CFA_XSP16 add(XSP16, 10)
          CFI Block cfiPicker105 Using cfiCommon1
          CFI (cfiPicker105) NoFunction
          CFI (cfiPicker105) Picker
        LCALL     ?Subroutine28 & 0xFFFF
??CrossCallReturnLabel_46:
        RET
          CFI EndBlock cfiCond102
          CFI EndBlock cfiCond103
          CFI EndBlock cfiCond104
          CFI EndBlock cfiPicker105

        RSEG BANKED_CODE:HUGECODE:NOROOT(0)
?Subroutine28:
          CFI Block cfiCond106 Using cfiCommon0
          CFI Function rxStartIsr
          CFI Conditional ??CrossCallReturnLabel_45, ??CrossCallReturnLabel_17
          CFI R6 load(1, XDATA, add(CFA_XSP16, literal(-15)))
          CFI VB load(1, XDATA, add(CFA_XSP16, literal(-14)))
          CFI V0 load(1, XDATA, add(CFA_XSP16, literal(-13)))
          CFI V1 load(1, XDATA, add(CFA_XSP16, literal(-12)))
          CFI V2 load(1, XDATA, add(CFA_XSP16, literal(-11)))
          CFI V3 load(1, XDATA, add(CFA_XSP16, literal(-10)))
          CFI V4 load(1, XDATA, add(CFA_XSP16, literal(-9)))
          CFI V5 load(1, XDATA, add(CFA_XSP16, literal(-8)))
          CFI V6 load(1, XDATA, add(CFA_XSP16, literal(-7)))
          CFI R7 load(1, XDATA, add(CFA_XSP16, literal(-6)))
          CFI ?RET_LOW load(1, XDATA, add(CFA_XSP16, literal(-5)))
          CFI ?RET_HIGH load(1, XDATA, add(CFA_XSP16, literal(-4)))
          CFI ?BRET_EXT load(1, XDATA, add(CFA_XSP16, literal(-3)))
          CFI DPL0 load(1, XDATA, add(CFA_XSP16, literal(-2)))
          CFI DPH0 load(1, XDATA, add(CFA_XSP16, literal(-1)))
          CFI CFA_SP SP+-5
          CFI CFA_XSP16 add(XSP16, 17)
          CFI Block cfiCond107 Using cfiCommon0
          CFI (cfiCond107) Function rxStartIsr
          CFI (cfiCond107) Conditional ??CrossCallReturnLabel_45, ??CrossCallReturnLabel_18
          CFI (cfiCond107) R6 load(1, XDATA, add(CFA_XSP16, literal(-15)))
          CFI (cfiCond107) VB load(1, XDATA, add(CFA_XSP16, literal(-14)))
          CFI (cfiCond107) V0 load(1, XDATA, add(CFA_XSP16, literal(-13)))
          CFI (cfiCond107) V1 load(1, XDATA, add(CFA_XSP16, literal(-12)))
          CFI (cfiCond107) V2 load(1, XDATA, add(CFA_XSP16, literal(-11)))
          CFI (cfiCond107) V3 load(1, XDATA, add(CFA_XSP16, literal(-10)))
          CFI (cfiCond107) V4 load(1, XDATA, add(CFA_XSP16, literal(-9)))
          CFI (cfiCond107) V5 load(1, XDATA, add(CFA_XSP16, literal(-8)))
          CFI (cfiCond107) V6 load(1, XDATA, add(CFA_XSP16, literal(-7)))
          CFI (cfiCond107) R7 load(1, XDATA, add(CFA_XSP16, literal(-6)))
          CFI (cfiCond107) ?RET_LOW load(1, XDATA, add(CFA_XSP16, literal(-5)))
          CFI (cfiCond107) ?RET_HIGH load(1, XDATA, add(CFA_XSP16, literal(-4)))
          CFI (cfiCond107) ?BRET_EXT load(1, XDATA, add(CFA_XSP16, literal(-3)))
          CFI (cfiCond107) DPL0 load(1, XDATA, add(CFA_XSP16, literal(-2)))
          CFI (cfiCond107) DPH0 load(1, XDATA, add(CFA_XSP16, literal(-1)))
          CFI (cfiCond107) CFA_SP SP+-4
          CFI (cfiCond107) CFA_XSP16 add(XSP16, 17)
          CFI Block cfiCond108 Using cfiCommon0
          CFI (cfiCond108) Function rxStartIsr
          CFI (cfiCond108) Conditional ??CrossCallReturnLabel_45, ??CrossCallReturnLabel_19
          CFI (cfiCond108) R6 load(1, XDATA, add(CFA_XSP16, literal(-15)))
          CFI (cfiCond108) VB load(1, XDATA, add(CFA_XSP16, literal(-14)))
          CFI (cfiCond108) V0 load(1, XDATA, add(CFA_XSP16, literal(-13)))
          CFI (cfiCond108) V1 load(1, XDATA, add(CFA_XSP16, literal(-12)))
          CFI (cfiCond108) V2 load(1, XDATA, add(CFA_XSP16, literal(-11)))
          CFI (cfiCond108) V3 load(1, XDATA, add(CFA_XSP16, literal(-10)))
          CFI (cfiCond108) V4 load(1, XDATA, add(CFA_XSP16, literal(-9)))
          CFI (cfiCond108) V5 load(1, XDATA, add(CFA_XSP16, literal(-8)))
          CFI (cfiCond108) V6 load(1, XDATA, add(CFA_XSP16, literal(-7)))
          CFI (cfiCond108) R7 load(1, XDATA, add(CFA_XSP16, literal(-6)))
          CFI (cfiCond108) ?RET_LOW load(1, XDATA, add(CFA_XSP16, literal(-5)))
          CFI (cfiCond108) ?RET_HIGH load(1, XDATA, add(CFA_XSP16, literal(-4)))
          CFI (cfiCond108) ?BRET_EXT load(1, XDATA, add(CFA_XSP16, literal(-3)))
          CFI (cfiCond108) DPL0 load(1, XDATA, add(CFA_XSP16, literal(-2)))
          CFI (cfiCond108) DPH0 load(1, XDATA, add(CFA_XSP16, literal(-1)))
          CFI (cfiCond108) CFA_SP SP+-5
          CFI (cfiCond108) CFA_XSP16 add(XSP16, 17)
          CFI Block cfiCond109 Using cfiCommon0
          CFI (cfiCond109) Function macRxThresholdIsr
          CFI (cfiCond109) Conditional ??CrossCallReturnLabel_46, ??CrossCallReturnLabel_26
          CFI (cfiCond109) DPL0 Frame(CFA_SP, 4)
          CFI (cfiCond109) DPH0 Frame(CFA_SP, 5)
          CFI (cfiCond109) CFA_SP SP+-9
          CFI Block cfiCond110 Using cfiCommon0
          CFI (cfiCond110) Function rxFcsIsr
          CFI (cfiCond110) Conditional ??CrossCallReturnLabel_46, ??CrossCallReturnLabel_27
          CFI (cfiCond110) R6 load(1, XDATA, add(CFA_XSP16, literal(-10)))
          CFI (cfiCond110) VB load(1, XDATA, add(CFA_XSP16, literal(-9)))
          CFI (cfiCond110) V0 load(1, XDATA, add(CFA_XSP16, literal(-8)))
          CFI (cfiCond110) V1 load(1, XDATA, add(CFA_XSP16, literal(-7)))
          CFI (cfiCond110) R7 load(1, XDATA, add(CFA_XSP16, literal(-6)))
          CFI (cfiCond110) ?RET_LOW load(1, XDATA, add(CFA_XSP16, literal(-5)))
          CFI (cfiCond110) ?RET_HIGH load(1, XDATA, add(CFA_XSP16, literal(-4)))
          CFI (cfiCond110) ?BRET_EXT load(1, XDATA, add(CFA_XSP16, literal(-3)))
          CFI (cfiCond110) DPL0 load(1, XDATA, add(CFA_XSP16, literal(-2)))
          CFI (cfiCond110) DPH0 load(1, XDATA, add(CFA_XSP16, literal(-1)))
          CFI (cfiCond110) CFA_SP SP+-4
          CFI (cfiCond110) CFA_XSP16 add(XSP16, 10)
          CFI Block cfiCond111 Using cfiCommon0
          CFI (cfiCond111) Function rxFcsIsr
          CFI (cfiCond111) Conditional ??CrossCallReturnLabel_46, ??CrossCallReturnLabel_28
          CFI (cfiCond111) R6 load(1, XDATA, add(CFA_XSP16, literal(-10)))
          CFI (cfiCond111) VB load(1, XDATA, add(CFA_XSP16, literal(-9)))
          CFI (cfiCond111) V0 load(1, XDATA, add(CFA_XSP16, literal(-8)))
          CFI (cfiCond111) V1 load(1, XDATA, add(CFA_XSP16, literal(-7)))
          CFI (cfiCond111) R7 load(1, XDATA, add(CFA_XSP16, literal(-6)))
          CFI (cfiCond111) ?RET_LOW load(1, XDATA, add(CFA_XSP16, literal(-5)))
          CFI (cfiCond111) ?RET_HIGH load(1, XDATA, add(CFA_XSP16, literal(-4)))
          CFI (cfiCond111) ?BRET_EXT load(1, XDATA, add(CFA_XSP16, literal(-3)))
          CFI (cfiCond111) DPL0 load(1, XDATA, add(CFA_XSP16, literal(-2)))
          CFI (cfiCond111) DPH0 load(1, XDATA, add(CFA_XSP16, literal(-1)))
          CFI (cfiCond111) CFA_SP SP+-4
          CFI (cfiCond111) CFA_XSP16 add(XSP16, 10)
          CFI Block cfiPicker112 Using cfiCommon1
          CFI (cfiPicker112) NoFunction
          CFI (cfiPicker112) Picker
        MOVX      A,@DPTR
        MOV       R0,A
        INC       DPTR
        MOVX      A,@DPTR
        MOV       DPH,A
        MOV       DPL,R0
        RET
          CFI EndBlock cfiCond106
          CFI EndBlock cfiCond107
          CFI EndBlock cfiCond108
          CFI EndBlock cfiCond109
          CFI EndBlock cfiCond110
          CFI EndBlock cfiCond111
          CFI EndBlock cfiPicker112

        RSEG BANKED_CODE:HUGECODE:NOROOT(0)
?Subroutine15:
          CFI Block cfiCond113 Using cfiCommon0
          CFI Function rxStartIsr
          CFI Conditional ??CrossCallReturnLabel_24
          CFI R6 load(1, XDATA, add(CFA_XSP16, literal(-15)))
          CFI VB load(1, XDATA, add(CFA_XSP16, literal(-14)))
          CFI V0 load(1, XDATA, add(CFA_XSP16, literal(-13)))
          CFI V1 load(1, XDATA, add(CFA_XSP16, literal(-12)))
          CFI V2 load(1, XDATA, add(CFA_XSP16, literal(-11)))
          CFI V3 load(1, XDATA, add(CFA_XSP16, literal(-10)))
          CFI V4 load(1, XDATA, add(CFA_XSP16, literal(-9)))
          CFI V5 load(1, XDATA, add(CFA_XSP16, literal(-8)))
          CFI V6 load(1, XDATA, add(CFA_XSP16, literal(-7)))
          CFI R7 load(1, XDATA, add(CFA_XSP16, literal(-6)))
          CFI ?RET_LOW load(1, XDATA, add(CFA_XSP16, literal(-5)))
          CFI ?RET_HIGH load(1, XDATA, add(CFA_XSP16, literal(-4)))
          CFI ?BRET_EXT load(1, XDATA, add(CFA_XSP16, literal(-3)))
          CFI DPL0 load(1, XDATA, add(CFA_XSP16, literal(-2)))
          CFI DPH0 load(1, XDATA, add(CFA_XSP16, literal(-1)))
          CFI CFA_SP SP+-2
          CFI CFA_XSP16 add(XSP16, 17)
          CFI Block cfiCond114 Using cfiCommon0
          CFI (cfiCond114) Function rxFcsIsr
          CFI (cfiCond114) Conditional ??CrossCallReturnLabel_25
          CFI (cfiCond114) R6 load(1, XDATA, add(CFA_XSP16, literal(-10)))
          CFI (cfiCond114) VB load(1, XDATA, add(CFA_XSP16, literal(-9)))
          CFI (cfiCond114) V0 load(1, XDATA, add(CFA_XSP16, literal(-8)))
          CFI (cfiCond114) V1 load(1, XDATA, add(CFA_XSP16, literal(-7)))
          CFI (cfiCond114) R7 load(1, XDATA, add(CFA_XSP16, literal(-6)))
          CFI (cfiCond114) ?RET_LOW load(1, XDATA, add(CFA_XSP16, literal(-5)))
          CFI (cfiCond114) ?RET_HIGH load(1, XDATA, add(CFA_XSP16, literal(-4)))
          CFI (cfiCond114) ?BRET_EXT load(1, XDATA, add(CFA_XSP16, literal(-3)))
          CFI (cfiCond114) DPL0 load(1, XDATA, add(CFA_XSP16, literal(-2)))
          CFI (cfiCond114) DPH0 load(1, XDATA, add(CFA_XSP16, literal(-1)))
          CFI (cfiCond114) CFA_SP SP+-2
          CFI (cfiCond114) CFA_XSP16 add(XSP16, 10)
          CFI Block cfiPicker115 Using cfiCommon1
          CFI (cfiPicker115) NoFunction
          CFI (cfiPicker115) Picker
        MOV       DPTR,#pRxBuf
        MOVX      A,@DPTR
        ADD       A,#0x3a
        LCALL     ?Subroutine27 & 0xFFFF
??CrossCallReturnLabel_44:
        RET
          CFI EndBlock cfiCond113
          CFI EndBlock cfiCond114
          CFI EndBlock cfiPicker115

        RSEG BANKED_CODE:HUGECODE:NOROOT(0)
?Subroutine27:
          CFI Block cfiCond116 Using cfiCommon0
          CFI Function rxStartIsr
          CFI Conditional ??CrossCallReturnLabel_44, ??CrossCallReturnLabel_24
          CFI R6 load(1, XDATA, add(CFA_XSP16, literal(-15)))
          CFI VB load(1, XDATA, add(CFA_XSP16, literal(-14)))
          CFI V0 load(1, XDATA, add(CFA_XSP16, literal(-13)))
          CFI V1 load(1, XDATA, add(CFA_XSP16, literal(-12)))
          CFI V2 load(1, XDATA, add(CFA_XSP16, literal(-11)))
          CFI V3 load(1, XDATA, add(CFA_XSP16, literal(-10)))
          CFI V4 load(1, XDATA, add(CFA_XSP16, literal(-9)))
          CFI V5 load(1, XDATA, add(CFA_XSP16, literal(-8)))
          CFI V6 load(1, XDATA, add(CFA_XSP16, literal(-7)))
          CFI R7 load(1, XDATA, add(CFA_XSP16, literal(-6)))
          CFI ?RET_LOW load(1, XDATA, add(CFA_XSP16, literal(-5)))
          CFI ?RET_HIGH load(1, XDATA, add(CFA_XSP16, literal(-4)))
          CFI ?BRET_EXT load(1, XDATA, add(CFA_XSP16, literal(-3)))
          CFI DPL0 load(1, XDATA, add(CFA_XSP16, literal(-2)))
          CFI DPH0 load(1, XDATA, add(CFA_XSP16, literal(-1)))
          CFI CFA_SP SP+-4
          CFI CFA_XSP16 add(XSP16, 17)
          CFI Block cfiCond117 Using cfiCommon0
          CFI (cfiCond117) Function rxFcsIsr
          CFI (cfiCond117) Conditional ??CrossCallReturnLabel_44, ??CrossCallReturnLabel_25
          CFI (cfiCond117) R6 load(1, XDATA, add(CFA_XSP16, literal(-10)))
          CFI (cfiCond117) VB load(1, XDATA, add(CFA_XSP16, literal(-9)))
          CFI (cfiCond117) V0 load(1, XDATA, add(CFA_XSP16, literal(-8)))
          CFI (cfiCond117) V1 load(1, XDATA, add(CFA_XSP16, literal(-7)))
          CFI (cfiCond117) R7 load(1, XDATA, add(CFA_XSP16, literal(-6)))
          CFI (cfiCond117) ?RET_LOW load(1, XDATA, add(CFA_XSP16, literal(-5)))
          CFI (cfiCond117) ?RET_HIGH load(1, XDATA, add(CFA_XSP16, literal(-4)))
          CFI (cfiCond117) ?BRET_EXT load(1, XDATA, add(CFA_XSP16, literal(-3)))
          CFI (cfiCond117) DPL0 load(1, XDATA, add(CFA_XSP16, literal(-2)))
          CFI (cfiCond117) DPH0 load(1, XDATA, add(CFA_XSP16, literal(-1)))
          CFI (cfiCond117) CFA_SP SP+-4
          CFI (cfiCond117) CFA_XSP16 add(XSP16, 10)
          CFI Block cfiCond118 Using cfiCommon0
          CFI (cfiCond118) Function rxStartIsr
          CFI (cfiCond118) Conditional ??CrossCallReturnLabel_43, ??CrossCallReturnLabel_20
          CFI (cfiCond118) R6 load(1, XDATA, add(CFA_XSP16, literal(-15)))
          CFI (cfiCond118) VB load(1, XDATA, add(CFA_XSP16, literal(-14)))
          CFI (cfiCond118) V0 load(1, XDATA, add(CFA_XSP16, literal(-13)))
          CFI (cfiCond118) V1 load(1, XDATA, add(CFA_XSP16, literal(-12)))
          CFI (cfiCond118) V2 load(1, XDATA, add(CFA_XSP16, literal(-11)))
          CFI (cfiCond118) V3 load(1, XDATA, add(CFA_XSP16, literal(-10)))
          CFI (cfiCond118) V4 load(1, XDATA, add(CFA_XSP16, literal(-9)))
          CFI (cfiCond118) V5 load(1, XDATA, add(CFA_XSP16, literal(-8)))
          CFI (cfiCond118) V6 load(1, XDATA, add(CFA_XSP16, literal(-7)))
          CFI (cfiCond118) R7 load(1, XDATA, add(CFA_XSP16, literal(-6)))
          CFI (cfiCond118) ?RET_LOW load(1, XDATA, add(CFA_XSP16, literal(-5)))
          CFI (cfiCond118) ?RET_HIGH load(1, XDATA, add(CFA_XSP16, literal(-4)))
          CFI (cfiCond118) ?BRET_EXT load(1, XDATA, add(CFA_XSP16, literal(-3)))
          CFI (cfiCond118) DPL0 load(1, XDATA, add(CFA_XSP16, literal(-2)))
          CFI (cfiCond118) DPH0 load(1, XDATA, add(CFA_XSP16, literal(-1)))
          CFI (cfiCond118) CFA_SP SP+-4
          CFI (cfiCond118) CFA_XSP16 add(XSP16, 17)
          CFI Block cfiCond119 Using cfiCommon0
          CFI (cfiCond119) Function rxFcsIsr
          CFI (cfiCond119) Conditional ??CrossCallReturnLabel_43, ??CrossCallReturnLabel_21
          CFI (cfiCond119) R6 load(1, XDATA, add(CFA_XSP16, literal(-10)))
          CFI (cfiCond119) VB load(1, XDATA, add(CFA_XSP16, literal(-9)))
          CFI (cfiCond119) V0 load(1, XDATA, add(CFA_XSP16, literal(-8)))
          CFI (cfiCond119) V1 load(1, XDATA, add(CFA_XSP16, literal(-7)))
          CFI (cfiCond119) R7 load(1, XDATA, add(CFA_XSP16, literal(-6)))
          CFI (cfiCond119) ?RET_LOW load(1, XDATA, add(CFA_XSP16, literal(-5)))
          CFI (cfiCond119) ?RET_HIGH load(1, XDATA, add(CFA_XSP16, literal(-4)))
          CFI (cfiCond119) ?BRET_EXT load(1, XDATA, add(CFA_XSP16, literal(-3)))
          CFI (cfiCond119) DPL0 load(1, XDATA, add(CFA_XSP16, literal(-2)))
          CFI (cfiCond119) DPH0 load(1, XDATA, add(CFA_XSP16, literal(-1)))
          CFI (cfiCond119) CFA_SP SP+-4
          CFI (cfiCond119) CFA_XSP16 add(XSP16, 10)
          CFI Block cfiPicker120 Using cfiCommon1
          CFI (cfiPicker120) NoFunction
          CFI (cfiPicker120) Picker
        MOV       R0,A
        INC       DPTR
        MOVX      A,@DPTR
        ADDC      A,#0x0
        MOV       R1,A
        LCALL     ??Subroutine38_0 & 0xFFFF
??CrossCallReturnLabel_74:
        RET
          CFI EndBlock cfiCond116
          CFI EndBlock cfiCond117
          CFI EndBlock cfiCond118
          CFI EndBlock cfiCond119
          CFI EndBlock cfiPicker120

        RSEG BANKED_CODE:HUGECODE:NOROOT(0)
?Subroutine12:
          CFI Block cfiCond121 Using cfiCommon0
          CFI Function rxStartIsr
          CFI Conditional ??CrossCallReturnLabel_20
          CFI R6 load(1, XDATA, add(CFA_XSP16, literal(-15)))
          CFI VB load(1, XDATA, add(CFA_XSP16, literal(-14)))
          CFI V0 load(1, XDATA, add(CFA_XSP16, literal(-13)))
          CFI V1 load(1, XDATA, add(CFA_XSP16, literal(-12)))
          CFI V2 load(1, XDATA, add(CFA_XSP16, literal(-11)))
          CFI V3 load(1, XDATA, add(CFA_XSP16, literal(-10)))
          CFI V4 load(1, XDATA, add(CFA_XSP16, literal(-9)))
          CFI V5 load(1, XDATA, add(CFA_XSP16, literal(-8)))
          CFI V6 load(1, XDATA, add(CFA_XSP16, literal(-7)))
          CFI R7 load(1, XDATA, add(CFA_XSP16, literal(-6)))
          CFI ?RET_LOW load(1, XDATA, add(CFA_XSP16, literal(-5)))
          CFI ?RET_HIGH load(1, XDATA, add(CFA_XSP16, literal(-4)))
          CFI ?BRET_EXT load(1, XDATA, add(CFA_XSP16, literal(-3)))
          CFI DPL0 load(1, XDATA, add(CFA_XSP16, literal(-2)))
          CFI DPH0 load(1, XDATA, add(CFA_XSP16, literal(-1)))
          CFI CFA_SP SP+-2
          CFI CFA_XSP16 add(XSP16, 17)
          CFI Block cfiCond122 Using cfiCommon0
          CFI (cfiCond122) Function rxFcsIsr
          CFI (cfiCond122) Conditional ??CrossCallReturnLabel_21
          CFI (cfiCond122) R6 load(1, XDATA, add(CFA_XSP16, literal(-10)))
          CFI (cfiCond122) VB load(1, XDATA, add(CFA_XSP16, literal(-9)))
          CFI (cfiCond122) V0 load(1, XDATA, add(CFA_XSP16, literal(-8)))
          CFI (cfiCond122) V1 load(1, XDATA, add(CFA_XSP16, literal(-7)))
          CFI (cfiCond122) R7 load(1, XDATA, add(CFA_XSP16, literal(-6)))
          CFI (cfiCond122) ?RET_LOW load(1, XDATA, add(CFA_XSP16, literal(-5)))
          CFI (cfiCond122) ?RET_HIGH load(1, XDATA, add(CFA_XSP16, literal(-4)))
          CFI (cfiCond122) ?BRET_EXT load(1, XDATA, add(CFA_XSP16, literal(-3)))
          CFI (cfiCond122) DPL0 load(1, XDATA, add(CFA_XSP16, literal(-2)))
          CFI (cfiCond122) DPH0 load(1, XDATA, add(CFA_XSP16, literal(-1)))
          CFI (cfiCond122) CFA_SP SP+-2
          CFI (cfiCond122) CFA_XSP16 add(XSP16, 10)
          CFI Block cfiPicker123 Using cfiCommon1
          CFI (cfiPicker123) NoFunction
          CFI (cfiPicker123) Picker
        LCALL     ?Subroutine27 & 0xFFFF
??CrossCallReturnLabel_43:
        XCH       A,R2
        ADD       A,#0x35
        MOV       DPL,A
        CLR       A
        ADDC      A,R2
        MOV       DPH,A
        RET
          CFI EndBlock cfiCond121
          CFI EndBlock cfiCond122
          CFI EndBlock cfiPicker123

        RSEG BANKED_CODE:HUGECODE:NOROOT(0)
?Subroutine8:
          CFI Block cfiCond124 Using cfiCommon0
          CFI Function rxStartIsr
          CFI Conditional ??CrossCallReturnLabel_14
          CFI R6 load(1, XDATA, add(CFA_XSP16, literal(-15)))
          CFI VB load(1, XDATA, add(CFA_XSP16, literal(-14)))
          CFI V0 load(1, XDATA, add(CFA_XSP16, literal(-13)))
          CFI V1 load(1, XDATA, add(CFA_XSP16, literal(-12)))
          CFI V2 load(1, XDATA, add(CFA_XSP16, literal(-11)))
          CFI V3 load(1, XDATA, add(CFA_XSP16, literal(-10)))
          CFI V4 load(1, XDATA, add(CFA_XSP16, literal(-9)))
          CFI V5 load(1, XDATA, add(CFA_XSP16, literal(-8)))
          CFI V6 load(1, XDATA, add(CFA_XSP16, literal(-7)))
          CFI R7 load(1, XDATA, add(CFA_XSP16, literal(-6)))
          CFI ?RET_LOW load(1, XDATA, add(CFA_XSP16, literal(-5)))
          CFI ?RET_HIGH load(1, XDATA, add(CFA_XSP16, literal(-4)))
          CFI ?BRET_EXT load(1, XDATA, add(CFA_XSP16, literal(-3)))
          CFI DPL0 load(1, XDATA, add(CFA_XSP16, literal(-2)))
          CFI DPH0 load(1, XDATA, add(CFA_XSP16, literal(-1)))
          CFI CFA_SP SP+-2
          CFI CFA_XSP16 add(XSP16, 17)
          CFI Block cfiCond125 Using cfiCommon0
          CFI (cfiCond125) Function rxFcsIsr
          CFI (cfiCond125) Conditional ??CrossCallReturnLabel_13
          CFI (cfiCond125) R6 load(1, XDATA, add(CFA_XSP16, literal(-10)))
          CFI (cfiCond125) VB load(1, XDATA, add(CFA_XSP16, literal(-9)))
          CFI (cfiCond125) V0 load(1, XDATA, add(CFA_XSP16, literal(-8)))
          CFI (cfiCond125) V1 load(1, XDATA, add(CFA_XSP16, literal(-7)))
          CFI (cfiCond125) R7 load(1, XDATA, add(CFA_XSP16, literal(-6)))
          CFI (cfiCond125) ?RET_LOW load(1, XDATA, add(CFA_XSP16, literal(-5)))
          CFI (cfiCond125) ?RET_HIGH load(1, XDATA, add(CFA_XSP16, literal(-4)))
          CFI (cfiCond125) ?BRET_EXT load(1, XDATA, add(CFA_XSP16, literal(-3)))
          CFI (cfiCond125) DPL0 load(1, XDATA, add(CFA_XSP16, literal(-2)))
          CFI (cfiCond125) DPH0 load(1, XDATA, add(CFA_XSP16, literal(-1)))
          CFI (cfiCond125) CFA_SP SP+-2
          CFI (cfiCond125) CFA_XSP16 add(XSP16, 10)
          CFI Block cfiPicker126 Using cfiCommon1
          CFI (cfiPicker126) NoFunction
          CFI (cfiPicker126) Picker
        MOVX      @DPTR,A
        ; Setup parameters for call to function macRxCompleteCallback
        LCALL     ??Subroutine38_0 & 0xFFFF
??CrossCallReturnLabel_73:
        RET
          CFI EndBlock cfiCond124
          CFI EndBlock cfiCond125
          CFI EndBlock cfiPicker126

        RSEG BANKED_CODE:HUGECODE:NOROOT(0)
?Subroutine30:
          CFI Block cfiCond127 Using cfiCommon0
          CFI Function rxAddrIsr
          CFI Conditional ??CrossCallReturnLabel_75
          CFI R6 load(1, XDATA, add(CFA_XSP16, literal(-10)))
          CFI VB load(1, XDATA, add(CFA_XSP16, literal(-9)))
          CFI V0 load(1, XDATA, add(CFA_XSP16, literal(-8)))
          CFI V1 load(1, XDATA, add(CFA_XSP16, literal(-7)))
          CFI R7 load(1, XDATA, add(CFA_XSP16, literal(-6)))
          CFI ?RET_LOW load(1, XDATA, add(CFA_XSP16, literal(-5)))
          CFI ?RET_HIGH load(1, XDATA, add(CFA_XSP16, literal(-4)))
          CFI ?BRET_EXT load(1, XDATA, add(CFA_XSP16, literal(-3)))
          CFI DPL0 load(1, XDATA, add(CFA_XSP16, literal(-2)))
          CFI DPH0 load(1, XDATA, add(CFA_XSP16, literal(-1)))
          CFI CFA_SP SP+-2
          CFI CFA_XSP16 add(XSP16, 30)
          CFI Block cfiCond128 Using cfiCommon0
          CFI (cfiCond128) Function rxAddrIsr
          CFI (cfiCond128) Conditional ??CrossCallReturnLabel_76, ??CrossCallReturnLabel_31
          CFI (cfiCond128) R6 load(1, XDATA, add(CFA_XSP16, literal(-10)))
          CFI (cfiCond128) VB load(1, XDATA, add(CFA_XSP16, literal(-9)))
          CFI (cfiCond128) V0 load(1, XDATA, add(CFA_XSP16, literal(-8)))
          CFI (cfiCond128) V1 load(1, XDATA, add(CFA_XSP16, literal(-7)))
          CFI (cfiCond128) R7 load(1, XDATA, add(CFA_XSP16, literal(-6)))
          CFI (cfiCond128) ?RET_LOW load(1, XDATA, add(CFA_XSP16, literal(-5)))
          CFI (cfiCond128) ?RET_HIGH load(1, XDATA, add(CFA_XSP16, literal(-4)))
          CFI (cfiCond128) ?BRET_EXT load(1, XDATA, add(CFA_XSP16, literal(-3)))
          CFI (cfiCond128) DPL0 load(1, XDATA, add(CFA_XSP16, literal(-2)))
          CFI (cfiCond128) DPH0 load(1, XDATA, add(CFA_XSP16, literal(-1)))
          CFI (cfiCond128) CFA_SP SP+-4
          CFI (cfiCond128) CFA_XSP16 add(XSP16, 30)
          CFI Block cfiCond129 Using cfiCommon0
          CFI (cfiCond129) Function rxAddrIsr
          CFI (cfiCond129) Conditional ??CrossCallReturnLabel_76, ??CrossCallReturnLabel_32
          CFI (cfiCond129) R6 load(1, XDATA, add(CFA_XSP16, literal(-10)))
          CFI (cfiCond129) VB load(1, XDATA, add(CFA_XSP16, literal(-9)))
          CFI (cfiCond129) V0 load(1, XDATA, add(CFA_XSP16, literal(-8)))
          CFI (cfiCond129) V1 load(1, XDATA, add(CFA_XSP16, literal(-7)))
          CFI (cfiCond129) R7 load(1, XDATA, add(CFA_XSP16, literal(-6)))
          CFI (cfiCond129) ?RET_LOW load(1, XDATA, add(CFA_XSP16, literal(-5)))
          CFI (cfiCond129) ?RET_HIGH load(1, XDATA, add(CFA_XSP16, literal(-4)))
          CFI (cfiCond129) ?BRET_EXT load(1, XDATA, add(CFA_XSP16, literal(-3)))
          CFI (cfiCond129) DPL0 load(1, XDATA, add(CFA_XSP16, literal(-2)))
          CFI (cfiCond129) DPH0 load(1, XDATA, add(CFA_XSP16, literal(-1)))
          CFI (cfiCond129) CFA_SP SP+-4
          CFI (cfiCond129) CFA_XSP16 add(XSP16, 30)
          CFI Block cfiPicker130 Using cfiCommon1
          CFI (cfiPicker130) NoFunction
          CFI (cfiPicker130) Picker
        MOV       R0,A
          CFI EndBlock cfiCond127
          CFI EndBlock cfiCond128
          CFI EndBlock cfiCond129
          CFI EndBlock cfiPicker130
        REQUIRE ??Subroutine38_0
        ; // Fall through to label ??Subroutine38_0

        RSEG BANKED_CODE:HUGECODE:NOROOT(0)
??Subroutine38_0:
          CFI Block cfiCond131 Using cfiCommon0
          CFI Function rxStartIsr
          CFI Conditional ??CrossCallReturnLabel_72
          CFI R6 load(1, XDATA, add(CFA_XSP16, literal(-15)))
          CFI VB load(1, XDATA, add(CFA_XSP16, literal(-14)))
          CFI V0 load(1, XDATA, add(CFA_XSP16, literal(-13)))
          CFI V1 load(1, XDATA, add(CFA_XSP16, literal(-12)))
          CFI V2 load(1, XDATA, add(CFA_XSP16, literal(-11)))
          CFI V3 load(1, XDATA, add(CFA_XSP16, literal(-10)))
          CFI V4 load(1, XDATA, add(CFA_XSP16, literal(-9)))
          CFI V5 load(1, XDATA, add(CFA_XSP16, literal(-8)))
          CFI V6 load(1, XDATA, add(CFA_XSP16, literal(-7)))
          CFI R7 load(1, XDATA, add(CFA_XSP16, literal(-6)))
          CFI ?RET_LOW load(1, XDATA, add(CFA_XSP16, literal(-5)))
          CFI ?RET_HIGH load(1, XDATA, add(CFA_XSP16, literal(-4)))
          CFI ?BRET_EXT load(1, XDATA, add(CFA_XSP16, literal(-3)))
          CFI DPL0 load(1, XDATA, add(CFA_XSP16, literal(-2)))
          CFI DPH0 load(1, XDATA, add(CFA_XSP16, literal(-1)))
          CFI CFA_SP SP+-2
          CFI CFA_XSP16 add(XSP16, 17)
          CFI Block cfiCond132 Using cfiCommon0
          CFI (cfiCond132) Function rxStartIsr
          CFI (cfiCond132) Conditional ??CrossCallReturnLabel_74, ??CrossCallReturnLabel_44, ??CrossCallReturnLabel_24
          CFI (cfiCond132) R6 load(1, XDATA, add(CFA_XSP16, literal(-15)))
          CFI (cfiCond132) VB load(1, XDATA, add(CFA_XSP16, literal(-14)))
          CFI (cfiCond132) V0 load(1, XDATA, add(CFA_XSP16, literal(-13)))
          CFI (cfiCond132) V1 load(1, XDATA, add(CFA_XSP16, literal(-12)))
          CFI (cfiCond132) V2 load(1, XDATA, add(CFA_XSP16, literal(-11)))
          CFI (cfiCond132) V3 load(1, XDATA, add(CFA_XSP16, literal(-10)))
          CFI (cfiCond132) V4 load(1, XDATA, add(CFA_XSP16, literal(-9)))
          CFI (cfiCond132) V5 load(1, XDATA, add(CFA_XSP16, literal(-8)))
