###############################################################################
#
# IAR C/C++ Compiler V10.40.1.7397 for 8051               01/May/2021  16:39:55
# Copyright 2004-2021 IAR Systems AB.
#
#    Core               =  plain
#    Code model         =  banked
#    Data model         =  large
#    Calling convention =  xdata reentrant
#    Constant location  =  data_rom
#    Dptr setup         =  1,16
#                          
#    Source file        =  
#        E:\Texas Instruments\Z-Stack 3.0.2\Components\stack\nwk\BindingTable.c
#    Command line       =  
#        -f C:\Users\asus\AppData\Local\Temp\EWEB58.tmp ("E:\Texas
#        Instruments\Z-Stack 3.0.2\Components\stack\nwk\BindingTable.c" -D
#        BDB_FINDING_BINDING_CAPABILITY_ENABLED=0 -D TC_LINKKEY_JOIN -D
#        HAL_UART_DMA_RX_MAX=128 -D MAXMEMHEAP=2765 -D NWK_MAX_DEVICE_LIST=10
#        -D ZDSECMGR_TC_DEVICE_MAX=30 -D DISABLE_GREENPOWER_BASIC_PROXY -D
#        FEATURE_SYSTEM_STATS -D MT_GP_CB_FUNC -D ASSERT_RESET -D FAKE_CRC_SHDW
#        -lC "E:\Texas Instruments\Z-Stack
#        3.0.2\Projects\zstack\ZNP\CC253x\CC2530-ZNP-with-SBL\List" -lA
#        "E:\Texas Instruments\Z-Stack
#        3.0.2\Projects\zstack\ZNP\CC253x\CC2530-ZNP-with-SBL\List"
#        --diag_suppress Pe001,Pa010 -o "E:\Texas Instruments\Z-Stack
#        3.0.2\Projects\zstack\ZNP\CC253x\CC2530-ZNP-with-SBL\Obj" -e --debug
#        --core=plain --dptr=16,1 --data_model=large --code_model=banked
#        --calling_convention=xdata_reentrant --place_constants=data_rom
#        --nr_virtual_regs 16 -f "E:\Texas Instruments\Z-Stack
#        3.0.2\Projects\zstack\ZNP\CC253x\..\Source\znp.cfg"
#        (-DMAC_CFG_APP_PENDING_QUEUE=TRUE
#        "-DZSTACK_DEVICE_BUILD=(DEVICE_BUILD_COORDINATOR | DEVICE_BUILD_ROUTER
#        | DEVICE_BUILD_ENDDEVICE)" -DNWK_AUTO_POLL -DZNP_RUN_WDOG=FALSE
#        -DZNP_UART_BAUD=HAL_UART_BR_115200 -DZIGBEEPRO -DZIGBEE_FRAGMENTATION
#        -DINTER_PAN -DOSAL_CLOCK -DOSAL_SAPI=FALSE -DSAPI_CB_FUNC=FALSE
#        -DHOLD_AUTO_START -DNV_RESTORE -DNV_INIT -DNUM_DISC_ATTEMPTS=0
#        -DMT_UTIL_FUNC -DMT_SYS_FUNC -DMT_AF_FUNC -DMT_SAPI_FUNC
#        -DMT_SAPI_CB_FUNC -DMT_ZDO_CB_FUNC -DMT_ZDO_FUNC -DMT_ZDO_MGMT
#        -DMT_ZDO_EXTENSIONS -DMT_GP_CB_FUNC -DMT_APP_FUNC -DMT_APP_CNF_FUNC
#        -DZNP_ALT) -f "E:\Texas Instruments\Z-Stack
#        3.0.2\Projects\zstack\ZNP\CC253x\..\..\Tools\CC2530DB\f8wConfig.cfg"
#        (-DZIGBEEPRO -DSECURE=1 -DZG_SECURE_DYNAMIC=0 -DREFLECTOR
#        -DDEFAULT_CHANLIST=0x00000800 -DZDAPP_CONFIG_PAN_ID=0xFFFF
#        -DNWK_START_DELAY=100 -DEXTENDED_JOINING_RANDOM_MASK=0x007F
#        -DBEACON_REQUEST_DELAY=100 -DBEACON_REQ_DELAY_MASK=0x00FF
#        -DLINK_STATUS_JITTER_MASK=0x007F -DROUTE_EXPIRY_TIME=30
#        -DAPSC_ACK_WAIT_DURATION_POLLED=3000 -DNWK_INDIRECT_MSG_TIMEOUT=7
#        -DMAX_RREQ_ENTRIES=8 -DAPSC_MAX_FRAME_RETRIES=3
#        -DNWK_MAX_DATA_RETRIES=2 -DMAX_POLL_FAILURE_RETRIES=2 -DMAX_BCAST=9
#        -DAPS_MAX_GROUPS=16 -DMAX_RTG_ENTRIES=40 -DNWK_MAX_BINDING_ENTRIES=4
#        -DMAX_BINDING_CLUSTER_IDS=4 -DDEFAULT_KEY={0} -DMAC_MAX_FRAME_SIZE=116
#        -DZDNWKMGR_MIN_TRANSMISSIONS=20 "-DCONST=const __code"
#        -DGENERIC=__generic -DRFD_RCVC_ALWAYS_ON=FALSE -DPOLL_RATE=1000
#        -DQUEUED_POLL_RATE=100 -DRESPONSE_POLL_RATE=100 -DREJOIN_POLL_RATE=440
#        -DREJOIN_BACKOFF=900000 -DREJOIN_SCAN=900000 -DENABLE_LED4_DISABLE_S1)
#        -f "E:\Texas Instruments\Z-Stack
#        3.0.2\Projects\zstack\ZNP\CC253x\..\..\Tools\CC2530DB\f8wZCL.cfg" -I
#        "E:\Texas Instruments\Z-Stack 3.0.2\Projects\zstack\ZNP\CC253x\" -I
#        "E:\Texas Instruments\Z-Stack
#        3.0.2\Projects\zstack\ZNP\CC253x\Source\" -I "E:\Texas
#        Instruments\Z-Stack 3.0.2\Projects\zstack\ZNP\CC253x\..\Source\" -I
#        "E:\Texas Instruments\Z-Stack
#        3.0.2\Projects\zstack\ZNP\CC253x\..\..\SE\Source\" -I "E:\Texas
#        Instruments\Z-Stack
#        3.0.2\Projects\zstack\ZNP\CC253x\..\..\Utilities\BootLoad\Source\" -I
#        "E:\Texas Instruments\Z-Stack
#        3.0.2\Projects\zstack\ZNP\CC253x\..\..\ZMain\TI2530ZNP\" -I "E:\Texas
#        Instruments\Z-Stack
#        3.0.2\Projects\zstack\ZNP\CC253x\..\..\..\..\Components\hal\include\"
#        -I "E:\Texas Instruments\Z-Stack
#        3.0.2\Projects\zstack\ZNP\CC253x\..\..\..\..\Components\hal\target\CC2530ZNP\"
#        -I "E:\Texas Instruments\Z-Stack
#        3.0.2\Projects\zstack\ZNP\CC253x\..\..\..\..\Components\mac\include\"
#        -I "E:\Texas Instruments\Z-Stack
#        3.0.2\Projects\zstack\ZNP\CC253x\..\..\..\..\Components\mac\high_level\"
#        -I "E:\Texas Instruments\Z-Stack
#        3.0.2\Projects\zstack\ZNP\CC253x\..\..\..\..\Components\mac\low_level\srf04\"
#        -I "E:\Texas Instruments\Z-Stack
#        3.0.2\Projects\zstack\ZNP\CC253x\..\..\..\..\Components\mac\low_level\srf04\single_chip\"
#        -I "E:\Texas Instruments\Z-Stack
#        3.0.2\Projects\zstack\ZNP\CC253x\..\..\..\..\Components\mt\" -I
#        "E:\Texas Instruments\Z-Stack
#        3.0.2\Projects\zstack\ZNP\CC253x\..\..\..\..\Components\osal\include\"
#        -I "E:\Texas Instruments\Z-Stack
#        3.0.2\Projects\zstack\ZNP\CC253x\..\..\..\..\Components\services\ecc\binary163\"
#        -I "E:\Texas Instruments\Z-Stack
#        3.0.2\Projects\zstack\ZNP\CC253x\..\..\..\..\Components\services\ecc\binary283\"
#        -I "E:\Texas Instruments\Z-Stack
#        3.0.2\Projects\zstack\ZNP\CC253x\..\..\..\..\Components\services\saddr\"
#        -I "E:\Texas Instruments\Z-Stack
#        3.0.2\Projects\zstack\ZNP\CC253x\..\..\..\..\Components\services\sdata\"
#        -I "E:\Texas Instruments\Z-Stack
#        3.0.2\Projects\zstack\ZNP\CC253x\..\..\..\..\Components\stack\af\" -I
#        "E:\Texas Instruments\Z-Stack
#        3.0.2\Projects\zstack\ZNP\CC253x\..\..\..\..\Components\stack\gp\" -I
#        "E:\Texas Instruments\Z-Stack
#        3.0.2\Projects\zstack\ZNP\CC253x\..\..\..\..\Components\stack\bdb\" -I
#        "E:\Texas Instruments\Z-Stack
#        3.0.2\Projects\zstack\ZNP\CC253x\..\..\..\..\Components\stack\nwk\" -I
#        "E:\Texas Instruments\Z-Stack
#        3.0.2\Projects\zstack\ZNP\CC253x\..\..\..\..\Components\stack\sapi\"
#        -I "E:\Texas Instruments\Z-Stack
#        3.0.2\Projects\zstack\ZNP\CC253x\..\..\..\..\Components\stack\sec\" -I
#        "E:\Texas Instruments\Z-Stack
#        3.0.2\Projects\zstack\ZNP\CC253x\..\..\..\..\Components\stack\sys\" -I
#        "E:\Texas Instruments\Z-Stack
#        3.0.2\Projects\zstack\ZNP\CC253x\..\..\..\..\Components\stack\zcl\" -I
#        "E:\Texas Instruments\Z-Stack
#        3.0.2\Projects\zstack\ZNP\CC253x\..\..\..\..\Components\stack\zdo\" -I
#        "E:\Texas Instruments\Z-Stack
#        3.0.2\Projects\zstack\ZNP\CC253x\..\..\..\..\Components\zmac\" -I
#        "E:\Texas Instruments\Z-Stack
#        3.0.2\Projects\zstack\ZNP\CC253x\..\..\..\..\Components\zmac\f8w\"
#        -Ohz --require_prototypes --no_code_motion)
#    Locale             =  English_USA.1252
#    List file          =  
#        E:\Texas Instruments\Z-Stack
#        3.0.2\Projects\zstack\ZNP\CC253x\CC2530-ZNP-with-SBL\List\BindingTable.lst
#    Object file        =  
#        E:\Texas Instruments\Z-Stack
#        3.0.2\Projects\zstack\ZNP\CC253x\CC2530-ZNP-with-SBL\Obj\BindingTable.r51
#
###############################################################################

E:\Texas Instruments\Z-Stack 3.0.2\Components\stack\nwk\BindingTable.c
      1          /**************************************************************************************************
      2            Filename:       BindingTable.c
      3            Revised:        $Date: 2014-10-08 08:37:03 -0700 (Wed, 08 Oct 2014) $
      4            Revision:       $Revision: 40512 $
      5          
      6            Description:    Device binding table functions.
      7          
      8          
      9            Copyright 2004-2014 Texas Instruments Incorporated. All rights reserved.
     10          
     11            IMPORTANT: Your use of this Software is limited to those specific rights
     12            granted under the terms of a software license agreement between the user
     13            who downloaded the software, his/her employer (which must be your employer)
     14            and Texas Instruments Incorporated (the "License"). You may not use this
     15            Software unless you agree to abide by the terms of the License. The License
     16            limits your use, and you acknowledge, that the Software may not be modified,
     17            copied or distributed unless embedded on a Texas Instruments microcontroller
     18            or used solely and exclusively in conjunction with a Texas Instruments radio
     19            frequency transceiver, which is integrated into your product. Other than for
     20            the foregoing purpose, you may not use, reproduce, copy, prepare derivative
     21            works of, modify, distribute, perform, display or sell this Software and/or
     22            its documentation for any purpose.
     23          
     24            YOU FURTHER ACKNOWLEDGE AND AGREE THAT THE SOFTWARE AND DOCUMENTATION ARE
     25            PROVIDED "AS IS" WITHOUT WARRANTY OF ANY KIND, EITHER EXPRESS OR IMPLIED,
     26            INCLUDING WITHOUT LIMITATION, ANY WARRANTY OF MERCHANTABILITY, TITLE,
     27            NON-INFRINGEMENT AND FITNESS FOR A PARTICULAR PURPOSE. IN NO EVENT SHALL
     28            TEXAS INSTRUMENTS OR ITS LICENSORS BE LIABLE OR OBLIGATED UNDER CONTRACT,
     29            NEGLIGENCE, STRICT LIABILITY, CONTRIBUTION, BREACH OF WARRANTY, OR OTHER
     30            LEGAL EQUITABLE THEORY ANY DIRECT OR INDIRECT DAMAGES OR EXPENSES
     31            INCLUDING BUT NOT LIMITED TO ANY INCIDENTAL, SPECIAL, INDIRECT, PUNITIVE
     32            OR CONSEQUENTIAL DAMAGES, LOST PROFITS OR LOST DATA, COST OF PROCUREMENT
     33            OF SUBSTITUTE GOODS, TECHNOLOGY, SERVICES, OR ANY CLAIMS BY THIRD PARTIES
     34            (INCLUDING BUT NOT LIMITED TO ANY DEFENSE THEREOF), OR OTHER SIMILAR COSTS.
     35          
     36            Should you have any questions regarding your right to use this Software,
     37            contact Texas Instruments Incorporated at www.TI.com.
     38          **************************************************************************************************/
     39          
     40          /*********************************************************************
     41           * INCLUDES
     42           */
     43          #include "ZComDef.h"
     44          #include "OSAL.h"
     45          #include "OSAL_Nv.h"
     46          #include "nwk_globals.h"
     47          #include "AddrMgr.h"
     48          #include "BindingTable.h"
     49          #include "nwk_util.h"
     50          #include "bdb.h"
     51          #include "bdb_interface.h"
     52          #if BDB_REPORTING  
     53          #include "bdb_Reporting.h"
     54          #endif
     55          
     56          /*********************************************************************
     57           * MACROS
     58           */
     59          
     60          /*********************************************************************
     61           * CONSTANTS
     62           */
     63          #define NV_BIND_EMPTY   0xFF
     64          #define NV_BIND_REC_SIZE (gBIND_REC_SIZE)
     65          #define NV_BIND_ITEM_SIZE  (gBIND_REC_SIZE * gNWK_MAX_BINDING_ENTRIES)
     66          
     67          /*********************************************************************
     68           * TYPEDEFS
     69           */
     70          typedef struct
     71          {
     72            uint8        srcEP;
     73            uint16       dstIndex;
     74            uint8        dstEP;
     75            uint8        dstAddrMode;
     76            uint8        clusterIDs;
     77            uint16*      clusterIDList;
     78          } bindFields_t;
     79          
     80          /*********************************************************************
     81           * GLOBAL VARIABLES
     82           */
     83          #if (BDB_FINDING_BINDING_CAPABILITY_ENABLED==1) 
     84          extern bdbGCB_BindNotification_t        pfnBindNotificationCB;
     85          #endif
     86          
     87          /*********************************************************************
     88           * LOCAL FUNCTIONS
     89           */
     90          void BindAddrMgrCB( uint8 update, AddrMgrEntry_t *entryOld,
     91                              AddrMgrEntry_t *entryNew );
     92          BindingEntry_t *bindFindEmpty( void );
     93          uint16 bindingAddrMgsHelperFind( zAddrType_t *addr );
     94          uint8 bindingAddrMgsHelperConvert( uint16 idx, zAddrType_t *addr );
     95          void bindAddrMgrLocalLoad( void );
     96          
     97          #if !defined ( BINDINGTABLE_NV_SINGLES )
     98            #if !defined ( DONT_UPGRADE_BIND )
     99              static uint8 BindCopyBackupToNewNV( uint16 dupLen, uint16 newLen );
    100              static uint8 BindUpgradeTableInNV( void );
    101            #endif
    102          #endif // !BINDINGTABLE_NV_SINGLES
    103          
    104          
    105          /*********************************************************************
    106           * LOCAL VARIABLES
    107           */

   \                                 In  segment XDATA_Z, align 1, keep-with-next
    108          static uint8 bindAddrMgrLocalLoaded = FALSE;
   \                     bindAddrMgrLocalLoaded:
   \   000000                DS 1
   \   000001                REQUIRE __INIT_XDATA_Z
    109          
    110          /*********************************************************************
    111           * Function Pointers
    112           */
    113          

   \                                 In  segment XDATA_Z, align 1, keep-with-next
    114          BindingEntry_t *(*pbindAddEntry)( byte srcEpInt,
   \                     pbindAddEntry:
   \   000000                DS 2
   \   000002                REQUIRE __INIT_XDATA_Z
    115                                            zAddrType_t *dstAddr, byte dstEpInt,
    116                                            byte numClusterIds, uint16 *clusterIds ) = (void*)NULL;

   \                                 In  segment XDATA_Z, align 1, keep-with-next
    117          uint16 (*pbindNumOfEntries)( void ) = (void*)NULL;
   \                     pbindNumOfEntries:
   \   000000                DS 2
   \   000002                REQUIRE __INIT_XDATA_Z

   \                                 In  segment XDATA_Z, align 1, keep-with-next
    118          void (*pbindRemoveDev)( zAddrType_t *Addr ) = (void*)NULL;
   \                     pbindRemoveDev:
   \   000000                DS 2
   \   000002                REQUIRE __INIT_XDATA_Z

   \                                 In  segment XDATA_Z, align 1, keep-with-next
    119          byte (*pBindInitNV)( void ) = (void*)NULL;
   \                     pBindInitNV:
   \   000000                DS 2
   \   000002                REQUIRE __INIT_XDATA_Z

   \                                 In  segment XDATA_Z, align 1, keep-with-next
    120          void (*pBindSetDefaultNV)( void ) = (void*)NULL;
   \                     pBindSetDefaultNV:
   \   000000                DS 2
   \   000002                REQUIRE __INIT_XDATA_Z

   \                                 In  segment XDATA_Z, align 1, keep-with-next
    121          uint16 (*pBindRestoreFromNV)( void ) = (void*)NULL;
   \                     pBindRestoreFromNV:
   \   000000                DS 2
   \   000002                REQUIRE __INIT_XDATA_Z

   \                                 In  segment XDATA_Z, align 1, keep-with-next
    122          void (*pBindWriteNV)( void ) = (void*)NULL;
   \                     pBindWriteNV:
   \   000000                DS 2
   \   000002                REQUIRE __INIT_XDATA_Z
    123          
    124          #if ( ADDRMGR_CALLBACK_ENABLED == 1 )
    125          /*********************************************************************
    126           * @fn      BindAddrMgrCB()
    127           *
    128           * @brief   Address Manager Callback function
    129           *
    130           * @param   update -
    131           * @param   entry -
    132           *
    133           * @return  pointer to
    134           */
    135          void BindAddrMgrCB( uint8 update, AddrMgrEntry_t *entryNew,
    136                              AddrMgrEntry_t *entryOld )
    137          {
    138            // Check for either deleted items or changed Extended (Duplicate) addresses
    139          }
    140          #endif // ( ADDRMGR_CALLBACK_ENABLED == 1 )
    141          
    142          /*********************************************************************
    143           * @fn      InitBindingTable()
    144           *
    145           * @brief
    146           *
    147           *   This function is used to initialise the binding table
    148           *
    149           * @param   none
    150           *
    151           * @return  none
    152           */

   \                                 In  segment BANKED_CODE, align 1, keep-with-next
    153          void InitBindingTable( void )
   \                     InitBindingTable:
    154          {
   \   000000                REQUIRE ?V0
   \   000000                REQUIRE ?V1
   \   000000   74F6         MOV       A,#-0xa
   \   000002   12....       LCALL     ?BANKED_ENTER_XDATA
   \   000005                ; Saved register size: 10
   \   000005                ; Auto size: 0
    155            osal_memset( BindingTable, 0xFF, gBIND_REC_SIZE * gNWK_MAX_BINDING_ENTRIES );
   \   000005                ; Setup parameters for call to function osal_memset
   \   000005   12....       LCALL     ?Subroutine14 & 0xFFFF
   \                     ??CrossCallReturnLabel_17:
   \   000008   90....       MOV       DPTR,#gNWK_MAX_BINDING_ENTRIES
   \   00000B   E4           CLR       A
   \   00000C   93           MOVC      A,@A+DPTR
   \   00000D   F5..         MOV       ?V0,A
   \   00000F   EC           MOV       A,R4
   \   000010   85....       MOV       ?B,?V0
   \   000013   A4           MUL       AB
   \   000014   FC           MOV       R4,A
   \   000015   A8..         MOV       R0,?B
   \   000017   85....       MOV       ?B,?V0
   \   00001A   ED           MOV       A,R5
   \   00001B   A4           MUL       AB
   \   00001C   28           ADD       A,R0
   \   00001D   FD           MOV       R5,A
   \   00001E   79FF         MOV       R1,#-0x1
   \   000020   7A..         MOV       R2,#BindingTable & 0xff
   \   000022   7B..         MOV       R3,#(BindingTable >> 8) & 0xff
   \   000024   12....       LCALL     `??osal_memset::?relay`; Banked call to: osal_memset
    156          
    157            pbindAddEntry = bindAddEntry;
   \   000027   90....       MOV       DPTR,#pbindAddEntry
   \   00002A   74..         MOV       A,#`??bindAddEntry::?relay` & 0xff
   \   00002C   F0           MOVX      @DPTR,A
   \   00002D   A3           INC       DPTR
   \   00002E   74..         MOV       A,#(`??bindAddEntry::?relay` >> 8) & 0xff
   \   000030   F0           MOVX      @DPTR,A
    158            pbindNumOfEntries = bindNumOfEntries;
   \   000031   90....       MOV       DPTR,#pbindNumOfEntries
   \   000034   74..         MOV       A,#`??bindNumOfEntries::?relay` & 0xff
   \   000036   F0           MOVX      @DPTR,A
   \   000037   A3           INC       DPTR
   \   000038   74..         MOV       A,#(`??bindNumOfEntries::?relay` >> 8) & 0xff
   \   00003A   F0           MOVX      @DPTR,A
    159            pbindRemoveDev = bindRemoveDev;
   \   00003B   90....       MOV       DPTR,#pbindRemoveDev
   \   00003E   74..         MOV       A,#`??bindRemoveDev::?relay` & 0xff
   \   000040   F0           MOVX      @DPTR,A
   \   000041   A3           INC       DPTR
   \   000042   74..         MOV       A,#(`??bindRemoveDev::?relay` >> 8) & 0xff
   \   000044   F0           MOVX      @DPTR,A
    160            pBindInitNV = BindInitNV;
   \   000045   90....       MOV       DPTR,#pBindInitNV
   \   000048   74..         MOV       A,#`??BindInitNV::?relay` & 0xff
   \   00004A   F0           MOVX      @DPTR,A
   \   00004B   A3           INC       DPTR
   \   00004C   74..         MOV       A,#(`??BindInitNV::?relay` >> 8) & 0xff
   \   00004E   F0           MOVX      @DPTR,A
    161            pBindSetDefaultNV = BindSetDefaultNV;
   \   00004F   90....       MOV       DPTR,#pBindSetDefaultNV
   \   000052   74..         MOV       A,#`??BindSetDefaultNV::?relay` & 0xff
   \   000054   F0           MOVX      @DPTR,A
   \   000055   A3           INC       DPTR
   \   000056   74..         MOV       A,#(`??BindSetDefaultNV::?relay` >> 8) & 0xff
   \   000058   F0           MOVX      @DPTR,A
    162            pBindRestoreFromNV = BindRestoreFromNV;
   \   000059   90....       MOV       DPTR,#pBindRestoreFromNV
   \   00005C   74..         MOV       A,#`??BindRestoreFromNV::?relay` & 0xff
   \   00005E   F0           MOVX      @DPTR,A
   \   00005F   A3           INC       DPTR
   \   000060   74..         MOV       A,#(`??BindRestoreFromNV::?relay` >> 8) & 0xff
   \   000062   F0           MOVX      @DPTR,A
    163            pBindWriteNV = BindWriteNV;
   \   000063   90....       MOV       DPTR,#pBindWriteNV
   \   000066   74..         MOV       A,#`??BindWriteNV::?relay` & 0xff
   \   000068   F0           MOVX      @DPTR,A
   \   000069   A3           INC       DPTR
   \   00006A   74..         MOV       A,#(`??BindWriteNV::?relay` >> 8) & 0xff
   \   00006C   F0           MOVX      @DPTR,A
    164          
    165            bindAddrMgrLocalLoaded = FALSE;
   \   00006D   90....       MOV       DPTR,#bindAddrMgrLocalLoaded
   \   000070   E4           CLR       A
   \   000071   F0           MOVX      @DPTR,A
    166          
    167          #if ( ADDRMGR_CALLBACK_ENABLED == 1 )
    168            // Register with the address manager
    169            AddrMgrRegister( ADDRMGR_REG_BINDING, BindAddrMgrCB );
    170          #endif
    171          }
   \   000072   80..         SJMP      ??Subroutine42_0

   \                                 In  segment BANKED_CODE, align 1, keep-with-next
   \                     ??Subroutine42_0:
   \   000000   7F02         MOV       R7,#0x2
   \   000002   02....       LJMP      ?BANKED_LEAVE_XDATA

   \                                 In  segment BANKED_CODE, align 1, keep-with-next
   \                     ?Subroutine14:
   \   000000   90....       MOV       DPTR,#gBIND_REC_SIZE
   \   000003   E4           CLR       A
   \   000004   93           MOVC      A,@A+DPTR
   \   000005   FC           MOV       R4,A
   \   000006   7401         MOV       A,#0x1
   \   000008   93           MOVC      A,@A+DPTR
   \   000009   FD           MOV       R5,A
   \   00000A   22           RET
    172          
    173          /*********************************************************************
    174           * @fn      bindFindEmpty()
    175           *
    176           * @brief   This function returns a pointer to an empty binding slot
    177           *
    178           * @param   none
    179           *
    180           * @return  pointer to binding table entry, NULL if not added
    181           */

   \                                 In  segment BANKED_CODE, align 1, keep-with-next
    182          BindingEntry_t *bindFindEmpty( void )
   \                     bindFindEmpty:
    183          {
   \   000000   C082         PUSH      DPL
   \   000002   C083         PUSH      DPH
   \   000004                ; Saved register size: 2
   \   000004                ; Auto size: 0
    184            bindTableIndex_t x;
    185          
    186            for ( x = 0; x < gNWK_MAX_BINDING_ENTRIES; x++ )
   \   000004   7A00         MOV       R2,#0x0
   \   000006   8001         SJMP      ??bindFindEmpty_0
   \                     ??bindFindEmpty_1:
   \   000008   0A           INC       R2
   \                     ??bindFindEmpty_0:
   \   000009   90....       MOV       DPTR,#gNWK_MAX_BINDING_ENTRIES
   \   00000C   E4           CLR       A
   \   00000D   93           MOVC      A,@A+DPTR
   \   00000E   F8           MOV       R0,A
   \   00000F   EA           MOV       A,R2
   \   000010   C3           CLR       C
   \   000011   98           SUBB      A,R0
   \   000012   500B         JNC       ??bindFindEmpty_2
    187            {
    188              // It's empty if the index is "Not Found"
    189              if ( BindingTable[x].srcEP == NV_BIND_EMPTY )
   \   000014   EA           MOV       A,R2
   \   000015   12....       LCALL     ?Subroutine7 & 0xFFFF
   \                     ??CrossCallReturnLabel_55:
   \   000018   70EE         JNZ       ??bindFindEmpty_1
    190              {
    191                return ( &BindingTable[x] );
   \   00001A   12....       LCALL     ?Subroutine15 & 0xFFFF
    192              }
    193            }
   \                     ??CrossCallReturnLabel_20:
   \   00001D   8004         SJMP      ??bindFindEmpty_3
    194          
    195            return ( (BindingEntry_t *)NULL );
   \                     ??bindFindEmpty_2:
   \   00001F   7A00         MOV       R2,#0x0
   \   000021   7B00         MOV       R3,#0x0
   \                     ??bindFindEmpty_3:
   \   000023   02....       LJMP      ??Subroutine52_0 & 0xFFFF
    196          }

   \                                 In  segment BANKED_CODE, align 1, keep-with-next
   \                     ?Subroutine7:
   \   000000   75..0E       MOV       ?B,#0xe
   \   000003   A4           MUL       AB
   \   000004   F8           MOV       R0,A
   \   000005   A9..         MOV       R1,?B
   \   000007                REQUIRE ??Subroutine43_0
   \   000007                ; // Fall through to label ??Subroutine43_0

   \                                 In  segment BANKED_CODE, align 1, keep-with-next
   \                     ??Subroutine43_0:
   \   000000   12....       LCALL     ?Subroutine34 & 0xFFFF
   \                     ??CrossCallReturnLabel_59:
   \   000003   F4           CPL       A
   \   000004   22           RET

   \                                 In  segment BANKED_CODE, align 1, keep-with-next
   \                     ?Subroutine15:
   \   000000   74..         MOV       A,#BindingTable & 0xff
   \   000002   28           ADD       A,R0
   \   000003   FA           MOV       R2,A
   \   000004   74..         MOV       A,#(BindingTable >> 8) & 0xff
   \   000006   39           ADDC      A,R1
   \   000007   FB           MOV       R3,A
   \   000008   22           RET

   \                                 In  segment BANKED_CODE, align 1, keep-with-next
   \                     ?Subroutine34:
   \   000000   74..         MOV       A,#BindingTable & 0xff
   \   000002   28           ADD       A,R0
   \   000003   F582         MOV       DPL,A
   \   000005   74..         MOV       A,#(BindingTable >> 8) & 0xff
   \   000007   12....       LCALL     ?Subroutine41 & 0xFFFF
   \                     ??CrossCallReturnLabel_60:
   \   00000A   22           RET

   \                                 In  segment BANKED_CODE, align 1, keep-with-next
   \                     ?Subroutine41:
   \   000000   39           ADDC      A,R1
   \   000001   F583         MOV       DPH,A
   \   000003   E0           MOVX      A,@DPTR
   \   000004   22           RET

   \                                 In  segment BANKED_CODE, align 1, keep-with-next
   \                     ??Subroutine52_0:
   \   000000   D083         POP       DPH
   \   000002   D082         POP       DPL
   \   000004   02....       LJMP      ?BRET
    197          
    198          /*********************************************************************
    199           * @fn      bindNumOfEntries()
    200           *
    201           * @brief   This function returns the number of binding table entries.
    202           *          The return for this is the number of clusters in the
    203           *          table NOT the number of entries.
    204           *
    205           * @param   none
    206           *
    207           * @return  number of entries
    208           */

   \                                 In  segment BANKED_CODE, align 1, keep-with-next
    209          uint16 bindNumOfEntries( void )
   \                     bindNumOfEntries:
    210          {
   \   000000   C082         PUSH      DPL
   \   000002   C083         PUSH      DPH
   \   000004                ; Saved register size: 2
   \   000004                ; Auto size: 0
    211            bindTableIndex_t x;
    212            uint16 found;
    213          
    214            for ( found = 0, x = 0; x < gNWK_MAX_BINDING_ENTRIES; x++ )
   \   000004   7A00         MOV       R2,#0x0
   \   000006   7B00         MOV       R3,#0x0
   \   000008   7C00         MOV       R4,#0x0
   \   00000A   8018         SJMP      ??bindNumOfEntries_0
    215            {
    216              // It's empty if the index is "Not Found"
    217              if ( BindingTable[x].srcEP != NV_BIND_EMPTY )
   \                     ??bindNumOfEntries_1:
   \   00000C   EC           MOV       A,R4
   \   00000D   12....       LCALL     ?Subroutine7 & 0xFFFF
   \                     ??CrossCallReturnLabel_56:
   \   000010   6011         JZ        ??bindNumOfEntries_2
    218              {
    219                found += BindingTable[x].numClusterIds;
   \   000012   74..         MOV       A,#(BindingTable + 5) & 0xff
   \   000014   28           ADD       A,R0
   \   000015   F582         MOV       DPL,A
   \   000017   74..         MOV       A,#((BindingTable + 5) >> 8) & 0xff
   \   000019   12....       LCALL     ?Subroutine41 & 0xFFFF
    220              }
    221            }
   \                     ??CrossCallReturnLabel_61:
   \   00001C   F8           MOV       R0,A
   \   00001D   EA           MOV       A,R2
   \   00001E   28           ADD       A,R0
   \   00001F   FA           MOV       R2,A
   \   000020   E4           CLR       A
   \   000021   3B           ADDC      A,R3
   \   000022   FB           MOV       R3,A
   \                     ??bindNumOfEntries_2:
   \   000023   0C           INC       R4
   \                     ??bindNumOfEntries_0:
   \   000024   90....       MOV       DPTR,#gNWK_MAX_BINDING_ENTRIES
   \   000027   E4           CLR       A
   \   000028   93           MOVC      A,@A+DPTR
   \   000029   F8           MOV       R0,A
   \   00002A   EC           MOV       A,R4
   \   00002B   C3           CLR       C
   \   00002C   98           SUBB      A,R0
   \   00002D   40DD         JC        ??bindNumOfEntries_1
    222          
    223            return ( found );
   \   00002F   02....       LJMP      ??Subroutine52_0 & 0xFFFF
    224          }
    225          
    226          /*********************************************************************
    227           * @fn      bindCapacity()
    228           *
    229           * @brief   This function returns the number of binding entries
    230           *          possible and used.
    231           *
    232           * @param   maxEntries - pointer to a place to put the max entries
    233           * @param   usedEntries - pointer to a place to put the number
    234           *               of used entries
    235           *
    236           * @return  none
    237           */

   \                                 In  segment BANKED_CODE, align 1, keep-with-next
    238          void bindCapacity( uint16 *maxEntries, uint16 *usedEntries  )
   \                     bindCapacity:
    239          {
   \   000000                REQUIRE ?V0
   \   000000   74F7         MOV       A,#-0x9
   \   000002   12....       LCALL     ?BANKED_ENTER_XDATA
   \   000005                ; Saved register size: 9
   \   000005                ; Auto size: 0
    240            bindTableIndex_t x;
    241            bindTableIndex_t used;
    242          
    243            for ( used = 0, x = 0; x < gNWK_MAX_BINDING_ENTRIES; x++ )
   \   000005   7F00         MOV       R7,#0x0
   \   000007   7E00         MOV       R6,#0x0
   \   000009   8012         SJMP      ??bindCapacity_0
    244            {
    245              // It's empty if the index is "Not Found"
    246              if ( BindingTable[x].srcEP != NV_BIND_EMPTY )
   \                     ??bindCapacity_1:
   \   00000B   EE           MOV       A,R6
   \   00000C   75..0E       MOV       ?B,#0xe
   \   00000F   A4           MUL       AB
   \   000010   F8           MOV       R0,A
   \   000011   85....       MOV       ?V0,?B
   \   000014   A9..         MOV       R1,?V0
   \   000016   12....       LCALL     ??Subroutine43_0 & 0xFFFF
   \                     ??CrossCallReturnLabel_54:
   \   000019   6001         JZ        ??bindCapacity_2
    247              {
    248                used++;
   \   00001B   0F           INC       R7
    249              }
    250            }
   \                     ??bindCapacity_2:
   \   00001C   0E           INC       R6
   \                     ??bindCapacity_0:
   \   00001D   90....       MOV       DPTR,#gNWK_MAX_BINDING_ENTRIES
   \   000020   E4           CLR       A
   \   000021   93           MOVC      A,@A+DPTR
   \   000022   F8           MOV       R0,A
   \   000023   EE           MOV       A,R6
   \   000024   C3           CLR       C
   \   000025   98           SUBB      A,R0
   \   000026   40E3         JC        ??bindCapacity_1
    251          
    252            *maxEntries = gNWK_MAX_BINDING_ENTRIES;
   \   000028   E4           CLR       A
   \   000029   93           MOVC      A,@A+DPTR
   \   00002A   8A82         MOV       DPL,R2
   \   00002C   8B83         MOV       DPH,R3
   \   00002E   F0           MOVX      @DPTR,A
   \   00002F   A3           INC       DPTR
   \   000030   E4           CLR       A
   \   000031   F0           MOVX      @DPTR,A
    253            *usedEntries = used;
   \   000032   EF           MOV       A,R7
   \   000033   8C82         MOV       DPL,R4
   \   000035   8D83         MOV       DPH,R5
   \   000037   F0           MOVX      @DPTR,A
   \   000038   A3           INC       DPTR
   \   000039   E4           CLR       A
   \   00003A   F0           MOVX      @DPTR,A
    254          }
   \   00003B   02....       LJMP      ?Subroutine2 & 0xFFFF

   \                                 In  segment BANKED_CODE, align 1, keep-with-next
   \                     ?Subroutine2:
   \   000000   7F01         MOV       R7,#0x1
   \   000002   02....       LJMP      ?BANKED_LEAVE_XDATA
    255          
    256          /*********************************************************************
    257           * @fn      bindAddEntry()
    258           *
    259           * @brief   This function is used to Add an entry to the binding table
    260           *
    261           * @param       srcEpInt - source endpoint
    262           * @param       dstAddr - destination Address
    263           * @param       dstEpInt - destination endpoint
    264           * @param       numClusterIds - number of cluster Ids in the list
    265           * @param       clusterIds - pointer to the Object ID list
    266           *
    267           * @return  pointer to binding table entry, NULL if not added
    268           */

   \                                 In  segment BANKED_CODE, align 1, keep-with-next
    269          BindingEntry_t *bindAddEntry( byte srcEpInt,
   \                     bindAddEntry:
    270                                        zAddrType_t *dstAddr, byte dstEpInt,
    271                                        byte numClusterIds, uint16 *clusterIds )
    272          {
   \   000000                REQUIRE ?V0
   \   000000                REQUIRE ?V1
   \   000000                REQUIRE ?V2
   \   000000                REQUIRE ?V3
   \   000000                REQUIRE ?V4
   \   000000                REQUIRE ?V5
   \   000000                REQUIRE ?V6
   \   000000                REQUIRE ?V7
   \   000000                REQUIRE ?V8
   \   000000                REQUIRE ?V10
   \   000000                REQUIRE ?V11
   \   000000   74EC         MOV       A,#-0x14
   \   000002   12....       LCALL     ?BANKED_ENTER_XDATA
   \   000005                ; Saved register size: 20
   \   000005                ; Auto size: 12
   \   000005   74F4         MOV       A,#-0xc
   \   000007   12....       LCALL     ?ALLOC_XSTACK8
   \   00000A   89..         MOV       ?V7,R1
   \   00000C   8A..         MOV       ?V2,R2
   \   00000E   8B..         MOV       ?V3,R3
   \   000010   8C..         MOV       ?V8,R4
   \   000012   8D..         MOV       ?V0,R5
    273            uint8            index;
    274            bindTableIndex_t bindIdx;
    275            BindingEntry_t*  entry;
    276            bindFields_t     fields;
    277            bdbBindNotificationData_t bindData;
    278          #ifdef BDB_REPORTING  
    279            uint8 bindAdded = FALSE;
    280          #endif
    281          
    282            //Zigbee Spec 2.2.4.3.1.1
    283            //Cannot create an endpoint for invalid endpoint index, neither for non-Group 
    284            //or Non-Extended IEEE Address modes
    285            if( (dstAddr->addrMode != AddrGroup) && (dstAddr->addrMode != Addr64Bit) ||
    286                (srcEpInt == 0) || (srcEpInt == 0xFF) )
   \   000014   8A82         MOV       DPL,R2
   \   000016   8B83         MOV       DPH,R3
   \   000018   A3           INC       DPTR
   \   000019   A3           INC       DPTR
   \   00001A   A3           INC       DPTR
   \   00001B   A3           INC       DPTR
   \   00001C   A3           INC       DPTR
   \   00001D   A3           INC       DPTR
   \   00001E   A3           INC       DPTR
   \   00001F   A3           INC       DPTR
   \   000020   E0           MOVX      A,@DPTR
   \   000021   6401         XRL       A,#0x1
   \   000023   6011         JZ        ??bindAddEntry_0
   \   000025   8A82         MOV       DPL,R2
   \   000027   8B83         MOV       DPH,R3
   \   000029   A3           INC       DPTR
   \   00002A   A3           INC       DPTR
   \   00002B   A3           INC       DPTR
   \   00002C   A3           INC       DPTR
   \   00002D   A3           INC       DPTR
   \   00002E   A3           INC       DPTR
   \   00002F   A3           INC       DPTR
   \   000030   A3           INC       DPTR
   \   000031   E0           MOVX      A,@DPTR
   \   000032   6403         XRL       A,#0x3
   \   000034   701C         JNZ       ??bindAddEntry_1
   \                     ??bindAddEntry_0:
   \   000036   E9           MOV       A,R1
   \   000037   6019         JZ        ??bindAddEntry_1
   \   000039   74FF         MOV       A,#-0x1
   \   00003B   69           XRL       A,R1
   \   00003C   6014         JZ        ??bindAddEntry_1
    287            {
    288              return NULL;
    289            }
    290            //Do not accept neither binds to IEEE Addr with invalid endpoints
    291            if(( dstAddr->addrMode == Addr64Bit ) && (dstEpInt == 0))
   \   00003E   8A82         MOV       DPL,R2
   \   000040   8B83         MOV       DPH,R3
   \   000042   A3           INC       DPTR
   \   000043   A3           INC       DPTR
   \   000044   A3           INC       DPTR
   \   000045   A3           INC       DPTR
   \   000046   A3           INC       DPTR
   \   000047   A3           INC       DPTR
   \   000048   A3           INC       DPTR
   \   000049   A3           INC       DPTR
   \   00004A   E0           MOVX      A,@DPTR
   \   00004B   6403         XRL       A,#0x3
   \   00004D   700A         JNZ       ??bindAddEntry_2
   \   00004F   EC           MOV       A,R4
   \   000050   7007         JNZ       ??bindAddEntry_2
    292            {
    293              return NULL;
   \                     ??bindAddEntry_1:
   \   000052   7A00         MOV       R2,#0x0
   \   000054   7B00         MOV       R3,#0x0
   \   000056   02....       LJMP      ??bindAddEntry_3 & 0xFFFF
    294            }
    295            
    296              
    297            osal_memcpy( &bindData.dstAddr, dstAddr, sizeof( zAddrType_t) );
   \                     ??bindAddEntry_2:
   \   000059                ; Setup parameters for call to function osal_memcpy
   \   000059   8A..         MOV       ?V4,R2
   \   00005B   8B..         MOV       ?V5,R3
   \   00005D   75..00       MOV       ?V6,#0x0
   \   000060   78..         MOV       R0,#?V4
   \   000062   12....       LCALL     ?PUSH_XSTACK_I_THREE
   \   000065   7C09         MOV       R4,#0x9
   \   000067   7D00         MOV       R5,#0x0
   \   000069   7403         MOV       A,#0x3
   \   00006B   12....       LCALL     ?XSTACK_DISP101_8
   \   00006E   12....       LCALL     `??osal_memcpy::?relay`; Banked call to: osal_memcpy
   \   000071   7403         MOV       A,#0x3
   \   000073   12....       LCALL     ?DEALLOC_XSTACK8
    298            bindData.ep = dstEpInt;
   \   000076   7409         MOV       A,#0x9
   \   000078   12....       LCALL     ?XSTACK_DISP0_8
   \   00007B   E5..         MOV       A,?V8
   \   00007D   F0           MOVX      @DPTR,A
    299              
    300            // initialize results
    301            entry = NULL;
   \   00007E   7E00         MOV       R6,#0x0
   \   000080   7F00         MOV       R7,#0x0
    302          
    303            // make sure local addresses have been loaded
    304            bindAddrMgrLocalLoad();
   \   000082                ; Setup parameters for call to function bindAddrMgrLocalLoad
   \   000082   12....       LCALL     `??bindAddrMgrLocalLoad::?relay`; Banked call to: bindAddrMgrLocalLoad
    305          
    306            // setup fields
    307            fields.dstIndex = bindAddrIndexGet( dstAddr );
   \   000085                ; Setup parameters for call to function bindAddrIndexGet
   \   000085   AA..         MOV       R2,?V2
   \   000087   AB..         MOV       R3,?V3
   \   000089   12....       LCALL     `??bindAddrIndexGet::?relay`; Banked call to: bindAddrIndexGet
   \   00008C   8A..         MOV       ?V4,R2
   \   00008E   8B..         MOV       ?V5,R3
    308            fields.srcEP    = srcEpInt;
    309          
    310            if ( dstAddr->addrMode == AddrGroup )
   \   000090   85..82       MOV       DPL,?V2
   \   000093   85..83       MOV       DPH,?V3
   \   000096   A3           INC       DPTR
   \   000097   A3           INC       DPTR
   \   000098   A3           INC       DPTR
   \   000099   A3           INC       DPTR
   \   00009A   A3           INC       DPTR
   \   00009B   A3           INC       DPTR
   \   00009C   A3           INC       DPTR
   \   00009D   A3           INC       DPTR
   \   00009E   E0           MOVX      A,@DPTR
   \   00009F   6401         XRL       A,#0x1
   \   0000A1   7008         JNZ       ??bindAddEntry_4
    311            {
    312              fields.dstAddrMode = DSTGROUPMODE_GROUP;
   \   0000A3   75..01       MOV       ?V6,#0x1
    313              fields.dstEP       = 0;
   \   0000A6   75..00       MOV       ?V1,#0x0
   \   0000A9   8006         SJMP      ??bindAddEntry_5
    314            }
    315            else
    316            {
    317              fields.dstAddrMode = DSTGROUPMODE_ADDR;
   \                     ??bindAddEntry_4:
   \   0000AB   75..00       MOV       ?V6,#0x0
    318              fields.dstEP       = dstEpInt;
   \   0000AE   85....       MOV       ?V1,?V8
    319            }
    320          
    321            if ( fields.dstIndex != INVALID_NODE_ADDR  )
   \                     ??bindAddEntry_5:
   \   0000B1   74FE         MOV       A,#-0x2
   \   0000B3   6A           XRL       A,R2
   \   0000B4   7003         JNZ       ??bindAddEntry_6
   \   0000B6   74FF         MOV       A,#-0x1
   \   0000B8   6B           XRL       A,R3
   \                     ??bindAddEntry_6:
   \   0000B9   7003         JNZ       $+5
   \   0000BB   02....       LJMP      ??bindAddEntry_7 & 0xFFFF
    322            {
    323              for ( bindIdx = 0; bindIdx < gNWK_MAX_BINDING_ENTRIES; bindIdx++ )
   \   0000BE   7A00         MOV       R2,#0x0
   \   0000C0   7420         MOV       A,#0x20
   \   0000C2   12....       LCALL     ?XSTACK_DISP0_8
   \   0000C5   E0           MOVX      A,@DPTR
   \   0000C6   F5..         MOV       ?V2,A
   \   0000C8   A3           INC       DPTR
   \   0000C9   E0           MOVX      A,@DPTR
   \   0000CA   F5..         MOV       ?V3,A
   \   0000CC   8001         SJMP      ??bindAddEntry_8
   \                     ??bindAddEntry_9:
   \   0000CE   0A           INC       R2
   \                     ??bindAddEntry_8:
   \   0000CF   90....       MOV       DPTR,#gNWK_MAX_BINDING_ENTRIES
   \   0000D2   E4           CLR       A
   \   0000D3   93           MOVC      A,@A+DPTR
   \   0000D4   F8           MOV       R0,A
   \   0000D5   EA           MOV       A,R2
   \   0000D6   C3           CLR       C
   \   0000D7   98           SUBB      A,R0
   \   0000D8   5065         JNC       ??bindAddEntry_10
    324              {
    325                if ( ( fields.srcEP       == BindingTable[bindIdx].srcEP        ) &&
    326                     ( fields.dstAddrMode == BindingTable[bindIdx].dstGroupMode ) &&
    327                     ( fields.dstIndex    == BindingTable[bindIdx].dstIdx       ) &&
    328                     ( fields.dstEP       == BindingTable[bindIdx].dstEP        )    )
   \   0000DA   EA           MOV       A,R2
   \   0000DB   12....       LCALL     ?Subroutine11 & 0xFFFF
   \                     ??CrossCallReturnLabel_11:
   \   0000DE   65..         XRL       A,?V7
   \   0000E0   70EC         JNZ       ??bindAddEntry_9
   \   0000E2   12....       LCALL     ?Subroutine16 & 0xFFFF
   \                     ??CrossCallReturnLabel_23:
   \   0000E5   65..         XRL       A,?V6
   \   0000E7   70E5         JNZ       ??bindAddEntry_9
   \   0000E9   12....       LCALL     ?Subroutine17 & 0xFFFF
   \                     ??CrossCallReturnLabel_25:
   \   0000EC   65..         XRL       A,?V4
   \   0000EE   7003         JNZ       ??bindAddEntry_11
   \   0000F0   A3           INC       DPTR
   \   0000F1   E0           MOVX      A,@DPTR
   \   0000F2   6B           XRL       A,R3
   \                     ??bindAddEntry_11:
   \   0000F3   70D9         JNZ       ??bindAddEntry_9
   \   0000F5   74..         MOV       A,#(BindingTable + 4) & 0xff
   \   0000F7   28           ADD       A,R0
   \   0000F8   F582         MOV       DPL,A
   \   0000FA   74..         MOV       A,#((BindingTable + 4) >> 8) & 0xff
   \   0000FC   12....       LCALL     ?Subroutine41 & 0xFFFF
   \                     ??CrossCallReturnLabel_62:
   \   0000FF   65..         XRL       A,?V1
   \   000101   70CB         JNZ       ??bindAddEntry_9
    329                {
    330                  entry = &BindingTable[bindIdx];
   \   000103   74..         MOV       A,#BindingTable & 0xff
   \   000105   28           ADD       A,R0
   \   000106   FE           MOV       R6,A
   \   000107   74..         MOV       A,#(BindingTable >> 8) & 0xff
   \   000109   39           ADDC      A,R1
   \   00010A   FF           MOV       R7,A
    331          
    332                  // break from loop
    333                  break;
    334                }
    335              }
    336          
    337              if ( entry != NULL )
    338              {
    339                // Loop through the cluster IDs
    340                for ( index = 0; index < numClusterIds; index++ )
   \   00010B   75..00       MOV       ?V4,#0x0
   \   00010E   800D         SJMP      ??bindAddEntry_12
    341                {
    342                  // Found - is the cluster already defined?
    343                  if ( bindIsClusterIDinList( entry, clusterIds[index] ) == FALSE )
    344                  {
    345                    // Nope, add this cluster
    346                    if ( bindAddClusterIdToList( entry, clusterIds[index] ) == FALSE )
    347                    {
    348                      // Indicate error if cluster list was full
    349                      entry = NULL;
    350                    }
    351                    else
    352                    {
    353                      // new bind added - notify application
    354                      bindData.clusterId = clusterIds[index];
   \                     ??bindAddEntry_13:
   \   000110   12....       LCALL     ?Subroutine9 & 0xFFFF
    355          #if (BDB_FINDING_BINDING_CAPABILITY_ENABLED==1)             
    356                      if ( pfnBindNotificationCB != NULL )
    357                      {
    358                        pfnBindNotificationCB( &bindData );
    359                      }
    360          #endif
    361          #ifdef BDB_REPORTING  
    362                      bdb_RepMarkHasBindingInEndpointClusterArray(srcEpInt, clusterIds[index], BDBREPORTING_FALSE, BDBREPORTING_TRUE); 
    363                      bindAdded = TRUE;
    364          #endif
    365                    }
   \                     ??CrossCallReturnLabel_6:
   \   000113   12....       LCALL     ?XSTACK_DISP0_8
   \   000116   E8           MOV       A,R0
   \   000117   F0           MOVX      @DPTR,A
   \   000118   A3           INC       DPTR
   \   000119   E9           MOV       A,R1
   \   00011A   F0           MOVX      @DPTR,A
   \                     ??bindAddEntry_14:
   \   00011B   05..         INC       ?V4
   \                     ??bindAddEntry_12:
   \   00011D   E5..         MOV       A,?V4
   \   00011F   C3           CLR       C
   \   000120   95..         SUBB      A,?V0
   \   000122   4003         JC        $+5
   \   000124   02....       LJMP      ??bindAddEntry_7 & 0xFFFF
   \   000127                ; Setup parameters for call to function bindIsClusterIDinList
   \   000127   12....       LCALL     ?Subroutine8 & 0xFFFF
   \                     ??CrossCallReturnLabel_4:
   \   00012A   12....       LCALL     `??bindIsClusterIDinList::?relay`; Banked call to: bindIsClusterIDinList
   \   00012D   E9           MOV       A,R1
   \   00012E   70EB         JNZ       ??bindAddEntry_14
   \   000130                ; Setup parameters for call to function bindAddClusterIdToList
   \   000130   12....       LCALL     ?Subroutine8 & 0xFFFF
   \                     ??CrossCallReturnLabel_5:
   \   000133   12....       LCALL     `??bindAddClusterIdToList::?relay`; Banked call to: bindAddClusterIdToList
   \   000136   E9           MOV       A,R1
   \   000137   70D7         JNZ       ??bindAddEntry_13
   \   000139   7E00         MOV       R6,#0x0
   \   00013B   7F00         MOV       R7,#0x0
   \   00013D   80DC         SJMP      ??bindAddEntry_14
    366                  }
    367                }
    368              }
    369              else
    370              {
    371                // Find an empty slot
    372                entry = bindFindEmpty();
   \                     ??bindAddEntry_10:
   \   00013F                ; Setup parameters for call to function bindFindEmpty
   \   00013F   12....       LCALL     `??bindFindEmpty::?relay`; Banked call to: bindFindEmpty
   \   000142   8A..         MOV       ?V10,R2
   \   000144   8B..         MOV       ?V11,R3
   \   000146   AE..         MOV       R6,?V10
   \   000148   AF..         MOV       R7,?V11
    373          
    374                // Check against the maximum number allowed
    375                if ( entry != NULL )
   \   00014A   EA           MOV       A,R2
   \   00014B   4F           ORL       A,R7
   \   00014C   6075         JZ        ??bindAddEntry_7
    376                {
    377                  // Add new entry
    378                  entry->srcEP         = fields.srcEP;
   \   00014E   8A82         MOV       DPL,R2
   \   000150   8B83         MOV       DPH,R3
   \   000152   E5..         MOV       A,?V7
   \   000154   F0           MOVX      @DPTR,A
    379                  entry->dstGroupMode  = fields.dstAddrMode;
   \   000155   A3           INC       DPTR
   \   000156   E5..         MOV       A,?V6
   \   000158   F0           MOVX      @DPTR,A
    380                  entry->dstIdx        = fields.dstIndex;
   \   000159   8A82         MOV       DPL,R2
   \   00015B   8B83         MOV       DPH,R3
   \   00015D   A3           INC       DPTR
   \   00015E   A3           INC       DPTR
   \   00015F   E5..         MOV       A,?V4
   \   000161   F0           MOVX      @DPTR,A
   \   000162   A3           INC       DPTR
   \   000163   E5..         MOV       A,?V5
   \   000165   12....       LCALL     ?Subroutine37 & 0xFFFF
    381                  entry->dstEP         = fields.dstEP;
   \                     ??CrossCallReturnLabel_50:
   \   000168   E5..         MOV       A,?V1
   \   00016A   F0           MOVX      @DPTR,A
    382          
    383                  if ( numClusterIds > gMAX_BINDING_CLUSTER_IDS )
   \   00016B   90....       MOV       DPTR,#gMAX_BINDING_CLUSTER_IDS
   \   00016E   E4           CLR       A
   \   00016F   93           MOVC      A,@A+DPTR
   \   000170   C3           CLR       C
   \   000171   95..         SUBB      A,?V0
   \   000173   5004         JNC       ??bindAddEntry_15
    384                  {
    385                    numClusterIds = gMAX_BINDING_CLUSTER_IDS;
   \   000175   E4           CLR       A
   \   000176   93           MOVC      A,@A+DPTR
   \   000177   F5..         MOV       ?V0,A
    386                  }
    387                  
    388                  for(index = 0; index < numClusterIds; index++)
   \                     ??bindAddEntry_15:
   \   000179   75..00       MOV       ?V4,#0x0
   \   00017C   800D         SJMP      ??bindAddEntry_16
    389                  {
    390                    // new bind added - notify application
    391                    bindData.clusterId = clusterIds[index];
   \                     ??bindAddEntry_17:
   \   00017E   12....       LCALL     ?Subroutine9 & 0xFFFF
    392          #if (BDB_FINDING_BINDING_CAPABILITY_ENABLED==1) 
    393                    if ( pfnBindNotificationCB != NULL )
    394                    {
    395                      pfnBindNotificationCB( &bindData );
    396                    }
    397          #endif
    398          #ifdef BDB_REPORTING   
    399                      bdb_RepMarkHasBindingInEndpointClusterArray(srcEpInt, clusterIds[index], BDBREPORTING_FALSE, BDBREPORTING_TRUE); 
    400                      bindAdded = TRUE;
    401          #endif
    402                  }
   \                     ??CrossCallReturnLabel_7:
   \   000181   12....       LCALL     ?XSTACK_DISP0_8
   \   000184   E8           MOV       A,R0
   \   000185   F0           MOVX      @DPTR,A
   \   000186   A3           INC       DPTR
   \   000187   E9           MOV       A,R1
   \   000188   F0           MOVX      @DPTR,A
   \   000189   05..         INC       ?V4
   \                     ??bindAddEntry_16:
   \   00018B   E5..         MOV       A,?V4
   \   00018D   C3           CLR       C
   \   00018E   95..         SUBB      A,?V0
   \   000190   40EC         JC        ??bindAddEntry_17
    403          
    404                  entry->numClusterIds = numClusterIds;
   \   000192   8A82         MOV       DPL,R2
   \   000194   8B83         MOV       DPH,R3
   \   000196   A3           INC       DPTR
   \   000197   A3           INC       DPTR
   \   000198   A3           INC       DPTR
   \   000199   A3           INC       DPTR
   \   00019A   A3           INC       DPTR
   \   00019B   E5..         MOV       A,?V0
   \   00019D   F0           MOVX      @DPTR,A
    405          
    406                  osal_memcpy( entry->clusterIdList,
    407                               clusterIds,
    408                               numClusterIds * sizeof(uint16) );
   \   00019E                ; Setup parameters for call to function osal_memcpy
   \   00019E   85....       MOV       ?V4,?V2
   \   0001A1   85....       MOV       ?V5,?V3
   \   0001A4   75..00       MOV       ?V6,#0x0
   \   0001A7   78..         MOV       R0,#?V4
   \   0001A9   12....       LCALL     ?PUSH_XSTACK_I_THREE
   \   0001AC   AC..         MOV       R4,?V0
   \   0001AE   EC           MOV       A,R4
   \   0001AF   2C           ADD       A,R4
   \   0001B0   FC           MOV       R4,A
   \   0001B1   E4           CLR       A
   \   0001B2   33           RLC       A
   \   0001B3   FD           MOV       R5,A
   \   0001B4   EA           MOV       A,R2
   \   0001B5   2406         ADD       A,#0x6
   \   0001B7   FA           MOV       R2,A
   \   0001B8   E4           CLR       A
   \   0001B9   3F           ADDC      A,R7
   \   0001BA   FB           MOV       R3,A
   \   0001BB   12....       LCALL     `??osal_memcpy::?relay`; Banked call to: osal_memcpy
   \   0001BE   7403         MOV       A,#0x3
   \   0001C0   12....       LCALL     ?DEALLOC_XSTACK8
    409                }
    410              }
    411            }
    412          #ifdef BDB_REPORTING
    413            if(bindAdded == TRUE)
    414            {
    415              bdb_RepStartOrContinueReporting( );
    416            }
    417          #endif
    418            return entry;
   \                     ??bindAddEntry_7:
   \   0001C3   EE           MOV       A,R6
   \   0001C4   FA           MOV       R2,A
   \   0001C5   EF           MOV       A,R7
   \   0001C6   FB           MOV       R3,A
   \                     ??bindAddEntry_3:
   \   0001C7   740C         MOV       A,#0xc
   \   0001C9   12....       LCALL     ?DEALLOC_XSTACK8
   \   0001CC   7F0C         MOV       R7,#0xc
   \   0001CE   02....       LJMP      ?BANKED_LEAVE_XDATA
    419          }

   \                                 In  segment BANKED_CODE, align 1, keep-with-next
   \                     ?Subroutine9:
   \   000000   12....       LCALL     ?Subroutine33 & 0xFFFF
   \                     ??CrossCallReturnLabel_45:
   \   000003   F8           MOV       R0,A
   \   000004   A3           INC       DPTR
   \   000005   E0           MOVX      A,@DPTR
   \   000006   F9           MOV       R1,A
   \   000007   740A         MOV       A,#0xa
   \   000009   22           RET

   \                                 In  segment BANKED_CODE, align 1, keep-with-next
   \                     ?Subroutine8:
   \   000000   12....       LCALL     ?Subroutine33 & 0xFFFF
   \                     ??CrossCallReturnLabel_44:
   \   000003   FC           MOV       R4,A
   \   000004   A3           INC       DPTR
   \   000005   E0           MOVX      A,@DPTR
   \   000006   FD           MOV       R5,A
   \   000007   EE           MOV       A,R6
   \   000008   FA           MOV       R2,A
   \   000009   EF           MOV       A,R7
   \   00000A   FB           MOV       R3,A
   \   00000B   22           RET

   \                                 In  segment BANKED_CODE, align 1, keep-with-next
   \                     ?Subroutine33:
   \   000000   A8..         MOV       R0,?V4
   \   000002   E8           MOV       A,R0
   \   000003   28           ADD       A,R0
   \   000004   F8           MOV       R0,A
   \   000005   E4           CLR       A
   \   000006   33           RLC       A
   \   000007   F9           MOV       R1,A
   \   000008   E5..         MOV       A,?V2
   \   00000A   28           ADD       A,R0
   \   00000B   F582         MOV       DPL,A
   \   00000D   E5..         MOV       A,?V3
   \   00000F   12....       LCALL     ?Subroutine41 & 0xFFFF
   \                     ??CrossCallReturnLabel_63:
   \   000012   22           RET

   \                                 In  segment BANKED_CODE, align 1, keep-with-next
   \                     ?Subroutine16:
   \   000000   12....       LCALL     ?Subroutine35 & 0xFFFF
   \                     ??CrossCallReturnLabel_47:
   \   000003   22           RET

   \                                 In  segment BANKED_CODE, align 1, keep-with-next
   \                     ?Subroutine35:
   \   000000   74..         MOV       A,#(BindingTable + 1) & 0xff
   \   000002   28           ADD       A,R0
   \   000003   F582         MOV       DPL,A
   \   000005   74..         MOV       A,#((BindingTable + 1) >> 8) & 0xff
   \   000007   12....       LCALL     ?Subroutine41 & 0xFFFF
   \                     ??CrossCallReturnLabel_64:
   \   00000A   22           RET

   \                                 In  segment BANKED_CODE, align 1, keep-with-next
   \                     ?Subroutine11:
   \   000000   75..0E       MOV       ?B,#0xe
   \   000003   A4           MUL       AB
   \   000004   F8           MOV       R0,A
   \   000005   A9..         MOV       R1,?B
   \   000007   12....       LCALL     ?Subroutine34 & 0xFFFF
   \                     ??CrossCallReturnLabel_58:
   \   00000A   22           RET

   \                                 In  segment BANKED_CODE, align 1, keep-with-next
   \                     ?Subroutine17:
   \   000000   12....       LCALL     ?Subroutine36 & 0xFFFF
   \                     ??CrossCallReturnLabel_49:
   \   000003   22           RET

   \                                 In  segment BANKED_CODE, align 1, keep-with-next
   \                     ?Subroutine36:
   \   000000   74..         MOV       A,#(BindingTable + 2) & 0xff
   \   000002   28           ADD       A,R0
   \   000003   F582         MOV       DPL,A
   \   000005   74..         MOV       A,#((BindingTable + 2) >> 8) & 0xff
   \   000007   12....       LCALL     ?Subroutine41 & 0xFFFF
   \                     ??CrossCallReturnLabel_65:
   \   00000A   22           RET

   \                                 In  segment BANKED_CODE, align 1, keep-with-next
   \                     ?Subroutine37:
   \   000000   F0           MOVX      @DPTR,A
   \   000001   8A82         MOV       DPL,R2
   \   000003   8B83         MOV       DPH,R3
   \   000005   A3           INC       DPTR
   \   000006   A3           INC       DPTR
   \   000007   A3           INC       DPTR
   \   000008   A3           INC       DPTR
   \   000009   22           RET
    420          
    421          /*********************************************************************
    422           * @fn      bindRemoveEntry
    423           *
    424           * @brief   Removes a binding table entry.
    425           *
    426           * @param   pBind - pointer to binding table entry to delete
    427           *
    428           * @return  TRUE if Removed, FALSE if not
    429           */

   \                                 In  segment BANKED_CODE, align 1, keep-with-next
    430          byte bindRemoveEntry( BindingEntry_t *pBind )
   \                     bindRemoveEntry:
    431          {
   \   000000   C082         PUSH      DPL
   \   000002   C083         PUSH      DPH
   \   000004                ; Saved register size: 2
   \   000004                ; Auto size: 0
    432            osal_memset( pBind, 0xFF, gBIND_REC_SIZE );
   \   000004                ; Setup parameters for call to function osal_memset
   \   000004   12....       LCALL     ?Subroutine14 & 0xFFFF
   \                     ??CrossCallReturnLabel_18:
   \   000007   79FF         MOV       R1,#-0x1
   \   000009   12....       LCALL     `??osal_memset::?relay`; Banked call to: osal_memset
    433          #ifdef BDB_REPORTING
    434            bdb_RepUpdateMarkBindings();
    435          #endif
    436            return ( TRUE );
   \   00000C   7901         MOV       R1,#0x1
   \   00000E   02....       LJMP      ??Subroutine52_0 & 0xFFFF
    437          }
    438          
    439          /*********************************************************************
    440           * @fn      bindIsClusterIDinList()
    441           *
    442           * @brief   Is the clusterID in the clusterID list?
    443           *
    444           * @param   enter - binding table entry
    445           * @param   clusterId  - Cluster ID to look for
    446           *
    447           * @return  TRUE if found, FALSE if not found
    448           */

   \                                 In  segment BANKED_CODE, align 1, keep-with-next
    449          byte bindIsClusterIDinList( BindingEntry_t *entry, uint16 clusterId )
   \                     bindIsClusterIDinList:
    450          {
   \   000000   74F7         MOV       A,#-0x9
   \   000002   12....       LCALL     ?BANKED_ENTER_XDATA
   \   000005                ; Saved register size: 9
   \   000005                ; Auto size: 0
    451            uint8 x;
    452          
    453            if ( entry != NULL )
   \   000005   EA           MOV       A,R2
   \   000006   4B           ORL       A,R3
   \   000007   6037         JZ        ??bindIsClusterIDinList_0
    454            {
    455              for ( x = 0; x < entry->numClusterIds; x++ )
   \   000009   7E00         MOV       R6,#0x0
   \   00000B   8001         SJMP      ??bindIsClusterIDinList_1
   \                     ??bindIsClusterIDinList_2:
   \   00000D   0E           INC       R6
   \                     ??bindIsClusterIDinList_1:
   \   00000E   8A82         MOV       DPL,R2
   \   000010   8B83         MOV       DPH,R3
   \   000012   A3           INC       DPTR
   \   000013   A3           INC       DPTR
   \   000014   A3           INC       DPTR
   \   000015   A3           INC       DPTR
   \   000016   A3           INC       DPTR
   \   000017   E0           MOVX      A,@DPTR
   \   000018   F8           MOV       R0,A
   \   000019   EE           MOV       A,R6
   \   00001A   C3           CLR       C
   \   00001B   98           SUBB      A,R0
   \   00001C   5022         JNC       ??bindIsClusterIDinList_0
    456              {
    457                if ( entry->clusterIdList[x] == clusterId )
   \   00001E   EE           MOV       A,R6
   \   00001F   25E0         ADD       A,0xE0 /* A   */
   \   000021   F8           MOV       R0,A
   \   000022   E4           CLR       A
   \   000023   33           RLC       A
   \   000024   F9           MOV       R1,A
   \   000025   EA           MOV       A,R2
   \   000026   28           ADD       A,R0
   \   000027   F582         MOV       DPL,A
   \   000029   EB           MOV       A,R3
   \   00002A   39           ADDC      A,R1
   \   00002B   F583         MOV       DPH,A
   \   00002D   A3           INC       DPTR
   \   00002E   A3           INC       DPTR
   \   00002F   A3           INC       DPTR
   \   000030   A3           INC       DPTR
   \   000031   A3           INC       DPTR
   \   000032   A3           INC       DPTR
   \   000033   E0           MOVX      A,@DPTR
   \   000034   6C           XRL       A,R4
   \   000035   7003         JNZ       ??bindIsClusterIDinList_3
   \   000037   A3           INC       DPTR
   \   000038   E0           MOVX      A,@DPTR
   \   000039   6D           XRL       A,R5
   \                     ??bindIsClusterIDinList_3:
   \   00003A   70D1         JNZ       ??bindIsClusterIDinList_2
    458                {
    459                  return ( TRUE );
   \   00003C   7901         MOV       R1,#0x1
   \   00003E   8002         SJMP      ??bindIsClusterIDinList_4
    460                }
    461              }
    462            }
    463          
    464            return ( FALSE );
   \                     ??bindIsClusterIDinList_0:
   \   000040   7900         MOV       R1,#0x0
   \                     ??bindIsClusterIDinList_4:
   \   000042   02....       LJMP      ?Subroutine2 & 0xFFFF
    465          }
    466          
    467          /*********************************************************************
    468           * @fn      bindRemoveClusterIdFromList()
    469           *
    470           * @brief   Removes a ClusterID from a list of ClusterIDs.
    471           *
    472           * @param   enter - binding table entry
    473           * @param   clusterId  - Cluster ID to look for
    474           *
    475           * @return  TRUE if there are at least 1 clusterID left, FALSE if none
    476           */

   \                                 In  segment BANKED_CODE, align 1, keep-with-next
    477          byte bindRemoveClusterIdFromList( BindingEntry_t *entry, uint16 clusterId )
   \                     bindRemoveClusterIdFromList:
    478          {
   \   000000                REQUIRE ?V0
   \   000000                REQUIRE ?V1
   \   000000                REQUIRE ?V2
   \   000000   74F5         MOV       A,#-0xb
   \   000002   12....       LCALL     ?BANKED_ENTER_XDATA
   \   000005                ; Saved register size: 11
   \   000005                ; Auto size: 0
    479            byte x;
    480            uint16 *listPtr;
    481            byte numIds;
    482          
    483          #ifdef BDB_REPORTING
    484            uint8 numRemoved = 0;
    485          #endif
    486            if ( entry )
   \   000005   EA           MOV       A,R2
   \   000006   4B           ORL       A,R3
   \   000007   607B         JZ        ??bindRemoveClusterIdFromList_0
    487            {
    488              if ( entry->numClusterIds > 0 )
   \   000009   8A82         MOV       DPL,R2
   \   00000B   8B83         MOV       DPH,R3
   \   00000D   A3           INC       DPTR
   \   00000E   A3           INC       DPTR
   \   00000F   A3           INC       DPTR
   \   000010   A3           INC       DPTR
   \   000011   A3           INC       DPTR
   \   000012   E0           MOVX      A,@DPTR
   \   000013   606F         JZ        ??bindRemoveClusterIdFromList_0
    489              {
    490                listPtr = entry->clusterIdList;
   \   000015   EA           MOV       A,R2
   \   000016   2406         ADD       A,#0x6
   \   000018   F8           MOV       R0,A
   \   000019   E4           CLR       A
   \   00001A   3B           ADDC      A,R3
   \   00001B   F9           MOV       R1,A
    491                numIds = entry->numClusterIds;
   \   00001C   8A82         MOV       DPL,R2
   \   00001E   8B83         MOV       DPH,R3
   \   000020   A3           INC       DPTR
   \   000021   A3           INC       DPTR
   \   000022   A3           INC       DPTR
   \   000023   A3           INC       DPTR
   \   000024   A3           INC       DPTR
   \   000025   E0           MOVX      A,@DPTR
   \   000026   F5..         MOV       ?V1,A
    492          
    493                // Copy the new list over
    494                for ( x = 0; x < numIds; x++ )
   \   000028   75..00       MOV       ?V0,#0x0
   \   00002B   800F         SJMP      ??bindRemoveClusterIdFromList_1
    495                {
    496                  if ( entry->clusterIdList[x] != clusterId )
    497                  {
    498                    *listPtr++ = entry->clusterIdList[x];
    499                  }
    500                  else
    501                  {
    502                    entry->numClusterIds--;
   \                     ??bindRemoveClusterIdFromList_2:
   \   00002D   EA           MOV       A,R2
   \   00002E   2405         ADD       A,#0x5
   \   000030   F582         MOV       DPL,A
   \   000032   E4           CLR       A
   \   000033   12....       LCALL     ??Subroutine44_0 & 0xFFFF
   \                     ??CrossCallReturnLabel_66:
   \   000036   14           DEC       A
   \   000037   F0           MOVX      @DPTR,A
    503                    
    504          #ifdef BDB_REPORTING
    505                     numRemoved++;
    506          #endif          
    507                    if ( entry->numClusterIds == 0 )
   \   000038   604A         JZ        ??bindRemoveClusterIdFromList_0
    508                    {
    509                      break;
    510                    }
    511                  }
   \                     ??bindRemoveClusterIdFromList_3:
   \   00003A   05..         INC       ?V0
   \                     ??bindRemoveClusterIdFromList_1:
   \   00003C   E5..         MOV       A,?V0
   \   00003E   C3           CLR       C
   \   00003F   95..         SUBB      A,?V1
   \   000041   5031         JNC       ??bindRemoveClusterIdFromList_4
   \   000043   AE..         MOV       R6,?V0
   \   000045   EE           MOV       A,R6
   \   000046   2E           ADD       A,R6
   \   000047   FE           MOV       R6,A
   \   000048   E4           CLR       A
   \   000049   33           RLC       A
   \   00004A   FF           MOV       R7,A
   \   00004B   12....       LCALL     ?Subroutine27 & 0xFFFF
   \                     ??CrossCallReturnLabel_40:
   \   00004E   6C           XRL       A,R4
   \   00004F   7003         JNZ       ??bindRemoveClusterIdFromList_5
   \   000051   A3           INC       DPTR
   \   000052   E0           MOVX      A,@DPTR
   \   000053   6D           XRL       A,R5
   \                     ??bindRemoveClusterIdFromList_5:
   \   000054   60D7         JZ        ??bindRemoveClusterIdFromList_2
   \   000056   AE..         MOV       R6,?V0
   \   000058   EE           MOV       A,R6
   \   000059   2E           ADD       A,R6
   \   00005A   FE           MOV       R6,A
   \   00005B   12....       LCALL     ?Subroutine27 & 0xFFFF
    512                }
    513                
    514              }
    515            }
   \                     ??CrossCallReturnLabel_41:
   \   00005E   FE           MOV       R6,A
   \   00005F   A3           INC       DPTR
   \   000060   E0           MOVX      A,@DPTR
   \   000061   FF           MOV       R7,A
   \   000062   8882         MOV       DPL,R0
   \   000064   8983         MOV       DPH,R1
   \   000066   EE           MOV       A,R6
   \   000067   F0           MOVX      @DPTR,A
   \   000068   A3           INC       DPTR
   \   000069   EF           MOV       A,R7
   \   00006A   F0           MOVX      @DPTR,A
   \   00006B   E8           MOV       A,R0
   \   00006C   2402         ADD       A,#0x2
   \   00006E   F8           MOV       R0,A
   \   00006F   50C9         JNC       ??bindRemoveClusterIdFromList_3
   \   000071   09           INC       R1
   \   000072   80C6         SJMP      ??bindRemoveClusterIdFromList_3
   \                     ??bindRemoveClusterIdFromList_4:
   \   000074   8A82         MOV       DPL,R2
   \   000076   8B83         MOV       DPH,R3
   \   000078   A3           INC       DPTR
   \   000079   A3           INC       DPTR
   \   00007A   A3           INC       DPTR
   \   00007B   A3           INC       DPTR
   \   00007C   A3           INC       DPTR
   \   00007D   E0           MOVX      A,@DPTR
   \   00007E   6004         JZ        ??bindRemoveClusterIdFromList_0
    516          
    517          #ifdef BDB_REPORTING
    518            if(numRemoved>0)
    519              bdb_RepUpdateMarkBindings();
    520          #endif 
    521            
    522            if ( entry && (entry->numClusterIds > 0) )
    523            {
    524              return ( TRUE );
   \   000080   7901         MOV       R1,#0x1
   \   000082   8002         SJMP      ??bindRemoveClusterIdFromList_6
    525            }
    526            else
    527            {
    528              return ( FALSE );
   \                     ??bindRemoveClusterIdFromList_0:
   \   000084   7900         MOV       R1,#0x0
   \                     ??bindRemoveClusterIdFromList_6:
   \   000086   7F03         MOV       R7,#0x3
   \   000088   02....       LJMP      ?BANKED_LEAVE_XDATA
    529            }
    530          }

   \                                 In  segment BANKED_CODE, align 1, keep-with-next
   \                     ?Subroutine27:
   \   000000   12....       LCALL     ?Subroutine39 & 0xFFFF
   \                     ??CrossCallReturnLabel_53:
   \   000003   E0           MOVX      A,@DPTR
   \   000004   22           RET

   \                                 In  segment BANKED_CODE, align 1, keep-with-next
   \                     ?Subroutine39:
   \   000000   EA           MOV       A,R2
   \   000001   2E           ADD       A,R6
   \   000002   F582         MOV       DPL,A
   \   000004   EB           MOV       A,R3
   \   000005   3F           ADDC      A,R7
   \   000006   F583         MOV       DPH,A
   \   000008   A3           INC       DPTR
   \   000009   A3           INC       DPTR
   \   00000A   A3           INC       DPTR
   \   00000B   A3           INC       DPTR
   \   00000C   A3           INC       DPTR
   \   00000D   A3           INC       DPTR
   \   00000E   22           RET

   \                                 In  segment BANKED_CODE, align 1, keep-with-next
   \                     ??Subroutine44_0:
   \   000000   3B           ADDC      A,R3
   \   000001   F583         MOV       DPH,A
   \   000003   E0           MOVX      A,@DPTR
   \   000004   22           RET
    531          
    532          /*********************************************************************
    533           * @fn      bindAddClusterIdToList()
    534           *
    535           * @brief   Adds a ClusterID to a list of ClusterIDs.
    536           *
    537           * @param   enter - binding table entry
    538           * @param   clusterId  - Cluster ID to Add
    539           *
    540           * @return  TRUE if Added, FALSE if not
    541           */

   \                                 In  segment BANKED_CODE, align 1, keep-with-next
    542          byte bindAddClusterIdToList( BindingEntry_t *entry, uint16 clusterId )
   \                     bindAddClusterIdToList:
    543          {
   \   000000   74F7         MOV       A,#-0x9
   \   000002   12....       LCALL     ?BANKED_ENTER_XDATA
   \   000005                ; Saved register size: 9
   \   000005                ; Auto size: 0
    544            if ( entry && entry->numClusterIds < gMAX_BINDING_CLUSTER_IDS )
   \   000005   EA           MOV       A,R2
   \   000006   4B           ORL       A,R3
   \   000007   6039         JZ        ??bindAddClusterIdToList_0
   \   000009   90....       MOV       DPTR,#gMAX_BINDING_CLUSTER_IDS
   \   00000C   E4           CLR       A
   \   00000D   93           MOVC      A,@A+DPTR
   \   00000E   F8           MOV       R0,A
   \   00000F   8A82         MOV       DPL,R2
   \   000011   8B83         MOV       DPH,R3
   \   000013   A3           INC       DPTR
   \   000014   A3           INC       DPTR
   \   000015   A3           INC       DPTR
   \   000016   A3           INC       DPTR
   \   000017   A3           INC       DPTR
   \   000018   E0           MOVX      A,@DPTR
   \   000019   C3           CLR       C
   \   00001A   98           SUBB      A,R0
   \   00001B   5025         JNC       ??bindAddClusterIdToList_0
    545            {
    546              // Add the new one
    547              entry->clusterIdList[entry->numClusterIds] = clusterId;
   \   00001D   EA           MOV       A,R2
   \   00001E   2405         ADD       A,#0x5
   \   000020   F8           MOV       R0,A
   \   000021   E4           CLR       A
   \   000022   3B           ADDC      A,R3
   \   000023   F9           MOV       R1,A
   \   000024   8882         MOV       DPL,R0
   \   000026   F583         MOV       DPH,A
   \   000028   E0           MOVX      A,@DPTR
   \   000029   25E0         ADD       A,0xE0 /* A   */
   \   00002B   FE           MOV       R6,A
   \   00002C   E4           CLR       A
   \   00002D   33           RLC       A
   \   00002E   FF           MOV       R7,A
   \   00002F   12....       LCALL     ?Subroutine39 & 0xFFFF
   \                     ??CrossCallReturnLabel_52:
   \   000032   EC           MOV       A,R4
   \   000033   F0           MOVX      @DPTR,A
   \   000034   A3           INC       DPTR
   \   000035   ED           MOV       A,R5
   \   000036   F0           MOVX      @DPTR,A
    548              entry->numClusterIds++;
   \   000037   8882         MOV       DPL,R0
   \   000039   8983         MOV       DPH,R1
   \   00003B   E0           MOVX      A,@DPTR
   \   00003C   04           INC       A
   \   00003D   F0           MOVX      @DPTR,A
    549              return ( TRUE );
   \   00003E   7901         MOV       R1,#0x1
   \   000040   8002         SJMP      ??bindAddClusterIdToList_1
    550            }
    551            return ( FALSE );
   \                     ??bindAddClusterIdToList_0:
   \   000042   7900         MOV       R1,#0x0
   \                     ??bindAddClusterIdToList_1:
   \   000044                REQUIRE ?Subroutine2
   \   000044                ; // Fall through to label ?Subroutine2
    552          }
    553          
    554          /*********************************************************************
    555           * @fn      bindFindExisting
    556           *
    557           * @brief   Finds an existing src/epint to dst/epint bind record
    558           *
    559           * @param   srcEpInt - Source Endpoint/Interface
    560           * @param   dstAddr - Destination address
    561           * @param   dstEpInt - Destination Endpoint/Interface
    562           *
    563           * @return  pointer to existing entry or NULL
    564           */

   \                                 In  segment BANKED_CODE, align 1, keep-with-next
    565          BindingEntry_t *bindFindExisting( byte srcEpInt,
   \                     bindFindExisting:
    566                                            zAddrType_t *dstAddr, byte dstEpInt )
    567          {
   \   000000                REQUIRE ?V0
   \   000000                REQUIRE ?V1
   \   000000                REQUIRE ?V2
   \   000000                REQUIRE ?V3
   \   000000   74F4         MOV       A,#-0xc
   \   000002   12....       LCALL     ?BANKED_ENTER_XDATA
   \   000005                ; Saved register size: 12
   \   000005                ; Auto size: 0
   \   000005   89..         MOV       ?V0,R1
   \   000007   EA           MOV       A,R2
   \   000008   FE           MOV       R6,A
   \   000009   EB           MOV       A,R3
   \   00000A   FF           MOV       R7,A
   \   00000B   8C..         MOV       ?V1,R4
    568            uint16 dstIdx;
    569            bindTableIndex_t x;
    570          
    571            // Find the records in the assoc list
    572            if ( dstAddr->addrMode == AddrGroup )
   \   00000D   8A82         MOV       DPL,R2
   \   00000F   F583         MOV       DPH,A
   \   000011   A3           INC       DPTR
   \   000012   A3           INC       DPTR
   \   000013   A3           INC       DPTR
   \   000014   A3           INC       DPTR
   \   000015   A3           INC       DPTR
   \   000016   A3           INC       DPTR
   \   000017   A3           INC       DPTR
   \   000018   A3           INC       DPTR
   \   000019   E0           MOVX      A,@DPTR
   \   00001A   6401         XRL       A,#0x1
   \   00001C   7005         JNZ       ??bindFindExisting_0
    573            {
    574              dstIdx = dstAddr->addr.shortAddr;
   \   00001E   12....       LCALL     ?Subroutine24 & 0xFFFF
    575            }
   \                     ??CrossCallReturnLabel_76:
   \   000021   800B         SJMP      ??bindFindExisting_1
    576            else
    577            {
    578              dstIdx = bindingAddrMgsHelperFind( dstAddr );
   \                     ??bindFindExisting_0:
   \   000023                ; Setup parameters for call to function bindingAddrMgsHelperFind
   \   000023   12....       LCALL     `??bindingAddrMgsHelperFind::?relay`; Banked call to: bindingAddrMgsHelperFind
   \   000026   8A..         MOV       ?V2,R2
   \   000028   8B..         MOV       ?V3,R3
   \   00002A   A8..         MOV       R0,?V2
   \   00002C   A9..         MOV       R1,?V3
    579            }
    580          
    581            if ( dstIdx == INVALID_NODE_ADDR )
   \                     ??bindFindExisting_1:
   \   00002E   74FE         MOV       A,#-0x2
   \   000030   68           XRL       A,R0
   \   000031   7003         JNZ       ??bindFindExisting_2
   \   000033   74FF         MOV       A,#-0x1
   \   000035   69           XRL       A,R1
   \                     ??bindFindExisting_2:
   \   000036   7003         JNZ       $+5
   \   000038   02....       LJMP      ??bindFindExisting_3 & 0xFFFF
    582            {
    583              return ( (BindingEntry_t *)NULL );
    584            }
    585          
    586            // Start at the beginning
    587            for ( x = 0; x < gNWK_MAX_BINDING_ENTRIES; x++ )
   \   00003B   7C00         MOV       R4,#0x0
   \   00003D   801A         SJMP      ??bindFindExisting_4
    588            {
    589              if ( (BindingTable[x].srcEP == srcEpInt) )
    590              {
    591                if ( ((dstAddr->addrMode == AddrGroup)
    592                        && (BindingTable[x].dstGroupMode == DSTGROUPMODE_GROUP)
    593                        && (dstIdx == BindingTable[x].dstIdx))
    594                   || ((dstAddr->addrMode != AddrGroup)
    595                       && (BindingTable[x].dstGroupMode == DSTGROUPMODE_ADDR)
    596                       && (dstIdx == BindingTable[x].dstIdx) && (BindingTable[x].dstEP == dstEpInt)) )
   \                     ??bindFindExisting_5:
   \   00003F   12....       LCALL     ?Subroutine28 & 0xFFFF
   \                     ??CrossCallReturnLabel_71:
   \   000042   6401         XRL       A,#0x1
   \   000044   7012         JNZ       ??bindFindExisting_6
   \   000046   74..         MOV       A,#(BindingTable + 2) & 0xff
   \   000048   2A           ADD       A,R2
   \   000049   F582         MOV       DPL,A
   \   00004B   74..         MOV       A,#((BindingTable + 2) >> 8) & 0xff
   \   00004D   12....       LCALL     ??Subroutine44_0 & 0xFFFF
   \                     ??CrossCallReturnLabel_67:
   \   000050   68           XRL       A,R0
   \   000051   7003         JNZ       ??bindFindExisting_7
   \   000053   A3           INC       DPTR
   \   000054   E0           MOVX      A,@DPTR
   \   000055   69           XRL       A,R1
   \                     ??bindFindExisting_7:
   \   000056   605A         JZ        ??bindFindExisting_8
   \                     ??bindFindExisting_6:
   \   000058   0C           INC       R4
   \                     ??bindFindExisting_4:
   \   000059   90....       MOV       DPTR,#gNWK_MAX_BINDING_ENTRIES
   \   00005C   E4           CLR       A
   \   00005D   93           MOVC      A,@A+DPTR
   \   00005E   FA           MOV       R2,A
   \   00005F   EC           MOV       A,R4
   \   000060   C3           CLR       C
   \   000061   9A           SUBB      A,R2
   \   000062   505A         JNC       ??bindFindExisting_3
   \   000064   EC           MOV       A,R4
   \   000065   75..0E       MOV       ?B,#0xe
   \   000068   A4           MUL       AB
   \   000069   FA           MOV       R2,A
   \   00006A   AD..         MOV       R5,?B
   \   00006C   ED           MOV       A,R5
   \   00006D   FB           MOV       R3,A
   \   00006E   74..         MOV       A,#BindingTable & 0xff
   \   000070   2A           ADD       A,R2
   \   000071   F582         MOV       DPL,A
   \   000073   74..         MOV       A,#(BindingTable >> 8) & 0xff
   \   000075   12....       LCALL     ??Subroutine44_0 & 0xFFFF
   \                     ??CrossCallReturnLabel_68:
   \   000078   65..         XRL       A,?V0
   \   00007A   70DC         JNZ       ??bindFindExisting_6
   \   00007C   8E82         MOV       DPL,R6
   \   00007E   8F83         MOV       DPH,R7
   \   000080   A3           INC       DPTR
   \   000081   A3           INC       DPTR
   \   000082   A3           INC       DPTR
   \   000083   A3           INC       DPTR
   \   000084   A3           INC       DPTR
   \   000085   A3           INC       DPTR
   \   000086   A3           INC       DPTR
   \   000087   A3           INC       DPTR
   \   000088   E0           MOVX      A,@DPTR
   \   000089   6401         XRL       A,#0x1
   \   00008B   60B2         JZ        ??bindFindExisting_5
   \   00008D   12....       LCALL     ?Subroutine28 & 0xFFFF
   \                     ??CrossCallReturnLabel_72:
   \   000090   70C6         JNZ       ??bindFindExisting_6
   \   000092   74..         MOV       A,#(BindingTable + 2) & 0xff
   \   000094   2A           ADD       A,R2
   \   000095   F582         MOV       DPL,A
   \   000097   74..         MOV       A,#((BindingTable + 2) >> 8) & 0xff
   \   000099   12....       LCALL     ??Subroutine44_0 & 0xFFFF
   \                     ??CrossCallReturnLabel_69:
   \   00009C   68           XRL       A,R0
   \   00009D   7003         JNZ       ??bindFindExisting_9
   \   00009F   A3           INC       DPTR
   \   0000A0   E0           MOVX      A,@DPTR
   \   0000A1   69           XRL       A,R1
   \                     ??bindFindExisting_9:
   \   0000A2   70B4         JNZ       ??bindFindExisting_6
   \   0000A4   74..         MOV       A,#(BindingTable + 4) & 0xff
   \   0000A6   2A           ADD       A,R2
   \   0000A7   F582         MOV       DPL,A
   \   0000A9   74..         MOV       A,#((BindingTable + 4) >> 8) & 0xff
   \   0000AB   12....       LCALL     ??Subroutine44_0 & 0xFFFF
   \                     ??CrossCallReturnLabel_70:
   \   0000AE   65..         XRL       A,?V1
   \   0000B0   70A6         JNZ       ??bindFindExisting_6
    597                {
    598                  return ( &BindingTable[x] );
   \                     ??bindFindExisting_8:
   \   0000B2   ED           MOV       A,R5
   \   0000B3   F9           MOV       R1,A
   \   0000B4   74..         MOV       A,#BindingTable & 0xff
   \   0000B6   2A           ADD       A,R2
   \   0000B7   FA           MOV       R2,A
   \   0000B8   74..         MOV       A,#(BindingTable >> 8) & 0xff
   \   0000BA   39           ADDC      A,R1
   \   0000BB   FB           MOV       R3,A
   \   0000BC   8004         SJMP      ??bindFindExisting_10
    599                }
    600              }
    601            }
    602          
    603            return ( (BindingEntry_t *)NULL );
   \                     ??bindFindExisting_3:
   \   0000BE   7A00         MOV       R2,#0x0
   \   0000C0   7B00         MOV       R3,#0x0
   \                     ??bindFindExisting_10:
   \   0000C2   80..         SJMP      ??Subroutine46_0
    604          }

   \                                 In  segment BANKED_CODE, align 1, keep-with-next
   \                     ?Subroutine28:
   \   000000   74..         MOV       A,#(BindingTable + 1) & 0xff
   \   000002   2A           ADD       A,R2
   \   000003   F582         MOV       DPL,A
   \   000005   74..         MOV       A,#((BindingTable + 1) >> 8) & 0xff
   \   000007                REQUIRE ??Subroutine44_0
   \   000007                ; // Fall through to label ??Subroutine44_0

   \                                 In  segment BANKED_CODE, align 1, keep-with-next
   \                     ?Subroutine24:
   \   000000   8A82         MOV       DPL,R2
   \   000002   8B83         MOV       DPH,R3
   \   000004                REQUIRE ??Subroutine45_0
   \   000004                ; // Fall through to label ??Subroutine45_0

   \                                 In  segment BANKED_CODE, align 1, keep-with-next
   \                     ??Subroutine45_0:
   \   000000   E0           MOVX      A,@DPTR
   \   000001   F8           MOV       R0,A
   \   000002   A3           INC       DPTR
   \   000003   E0           MOVX      A,@DPTR
   \   000004   F9           MOV       R1,A
   \   000005   22           RET

   \                                 In  segment BANKED_CODE, align 1, keep-with-next
   \                     ??Subroutine46_0:
   \   000000   7F04         MOV       R7,#0x4
   \   000002   02....       LJMP      ?BANKED_LEAVE_XDATA
    605          
    606          /*********************************************************************
    607           * @fn       bindRemoveDev()
    608           *
    609           * @brief
    610           *
    611           *   Remove all bind(s) entries associated to a device address (destination).
    612           *   Updates binding table.
    613           *
    614           * @param   Addr - address of device to be removed from Binding Table
    615           *
    616           * @return  none
    617           */

   \                                 In  segment BANKED_CODE, align 1, keep-with-next
    618          void bindRemoveDev( zAddrType_t *Addr )
   \                     bindRemoveDev:
    619          {
   \   000000                REQUIRE ?V0
   \   000000                REQUIRE ?V1
   \   000000                REQUIRE ?V2
   \   000000                REQUIRE ?V3
   \   000000   74F4         MOV       A,#-0xc
   \   000002   12....       LCALL     ?BANKED_ENTER_XDATA
   \   000005                ; Saved register size: 12
   \   000005                ; Auto size: 0
   \   000005   EA           MOV       A,R2
   \   000006   FE           MOV       R6,A
   \   000007   EB           MOV       A,R3
   \   000008   FF           MOV       R7,A
    620            uint16 idx;
    621            bindTableIndex_t x;
    622          
    623            if ( Addr->addrMode == AddrGroup )
   \   000009   8A82         MOV       DPL,R2
   \   00000B   F583         MOV       DPH,A
   \   00000D   A3           INC       DPTR
   \   00000E   A3           INC       DPTR
   \   00000F   A3           INC       DPTR
   \   000010   A3           INC       DPTR
   \   000011   A3           INC       DPTR
   \   000012   A3           INC       DPTR
   \   000013   A3           INC       DPTR
   \   000014   A3           INC       DPTR
   \   000015   E0           MOVX      A,@DPTR
   \   000016   6401         XRL       A,#0x1
   \   000018   700D         JNZ       ??bindRemoveDev_0
    624            {
    625              idx = Addr->addr.shortAddr;
   \   00001A   8A82         MOV       DPL,R2
   \   00001C   8B83         MOV       DPH,R3
   \   00001E   E0           MOVX      A,@DPTR
   \   00001F   F5..         MOV       ?V0,A
   \   000021   A3           INC       DPTR
   \   000022   E0           MOVX      A,@DPTR
   \   000023   F5..         MOV       ?V1,A
   \   000025   8007         SJMP      ??bindRemoveDev_1
    626            }
    627            else
    628            {
    629              idx = bindingAddrMgsHelperFind( Addr );
   \                     ??bindRemoveDev_0:
   \   000027                ; Setup parameters for call to function bindingAddrMgsHelperFind
   \   000027   12....       LCALL     `??bindingAddrMgsHelperFind::?relay`; Banked call to: bindingAddrMgsHelperFind
   \   00002A   8A..         MOV       ?V0,R2
   \   00002C   8B..         MOV       ?V1,R3
    630            }
    631          
    632            if ( idx == INVALID_NODE_ADDR )
   \                     ??bindRemoveDev_1:
   \   00002E   74FE         MOV       A,#-0x2
   \   000030   65..         XRL       A,?V0
   \   000032   7004         JNZ       ??bindRemoveDev_2
   \   000034   74FF         MOV       A,#-0x1
   \   000036   65..         XRL       A,?V1
   \                     ??bindRemoveDev_2:
   \   000038   605E         JZ        ??bindRemoveDev_3
    633            {
    634              return;
    635            }
    636          
    637            // Removes all the entries that match the destination Address/Index
    638            for ( x = 0; x < gNWK_MAX_BINDING_ENTRIES; x++ )
   \   00003A   75..00       MOV       ?V2,#0x0
   \   00003D   8021         SJMP      ??bindRemoveDev_4
    639            {
    640              if ( ( (Addr->addrMode == AddrGroup) && (BindingTable[x].dstGroupMode == DSTGROUPMODE_GROUP)
    641                                                   && (BindingTable[x].dstIdx == idx) ) ||
    642                   ( (Addr->addrMode != AddrGroup) && (BindingTable[x].dstGroupMode == DSTGROUPMODE_ADDR)
    643                                                   && (BindingTable[x].dstIdx == idx) ) )
   \                     ??bindRemoveDev_5:
   \   00003F   E5..         MOV       A,?V2
   \   000041   75..0E       MOV       ?B,#0xe
   \   000044   A4           MUL       AB
   \   000045   F8           MOV       R0,A
   \   000046   A9..         MOV       R1,?B
   \   000048   12....       LCALL     ?Subroutine16 & 0xFFFF
   \                     ??CrossCallReturnLabel_24:
   \   00004B   7011         JNZ       ??bindRemoveDev_6
   \   00004D   12....       LCALL     ?Subroutine13 & 0xFFFF
   \                     ??CrossCallReturnLabel_15:
   \   000050   7004         JNZ       ??bindRemoveDev_7
   \   000052   A3           INC       DPTR
   \   000053   E0           MOVX      A,@DPTR
   \   000054   65..         XRL       A,?V1
   \                     ??bindRemoveDev_7:
   \   000056   7006         JNZ       ??bindRemoveDev_6
    644              {
    645                bindRemoveEntry( &BindingTable[x] );
   \                     ??bindRemoveDev_8:
   \   000058                ; Setup parameters for call to function bindRemoveEntry
   \   000058   12....       LCALL     ?Subroutine15 & 0xFFFF
    646              }
   \                     ??CrossCallReturnLabel_21:
   \   00005B   12....       LCALL     `??bindRemoveEntry::?relay`; Banked call to: bindRemoveEntry
   \                     ??bindRemoveDev_6:
   \   00005E   05..         INC       ?V2
   \                     ??bindRemoveDev_4:
   \   000060   90....       MOV       DPTR,#gNWK_MAX_BINDING_ENTRIES
   \   000063   E4           CLR       A
   \   000064   93           MOVC      A,@A+DPTR
   \   000065   F8           MOV       R0,A
   \   000066   E5..         MOV       A,?V2
   \   000068   C3           CLR       C
   \   000069   98           SUBB      A,R0
   \   00006A   5025         JNC       ??bindRemoveDev_9
   \   00006C   8E82         MOV       DPL,R6
   \   00006E   8F83         MOV       DPH,R7
   \   000070   A3           INC       DPTR
   \   000071   A3           INC       DPTR
   \   000072   A3           INC       DPTR
   \   000073   A3           INC       DPTR
   \   000074   A3           INC       DPTR
   \   000075   A3           INC       DPTR
   \   000076   A3           INC       DPTR
   \   000077   A3           INC       DPTR
   \   000078   E0           MOVX      A,@DPTR
   \   000079   6401         XRL       A,#0x1
   \   00007B   70C2         JNZ       ??bindRemoveDev_5
   \   00007D   E5..         MOV       A,?V2
   \   00007F   12....       LCALL     ?Subroutine12 & 0xFFFF
    647            }
   \                     ??CrossCallReturnLabel_13:
   \   000082   70DA         JNZ       ??bindRemoveDev_6
   \   000084   12....       LCALL     ?Subroutine13 & 0xFFFF
   \                     ??CrossCallReturnLabel_16:
   \   000087   7004         JNZ       ??bindRemoveDev_10
   \   000089   A3           INC       DPTR
   \   00008A   E0           MOVX      A,@DPTR
   \   00008B   65..         XRL       A,?V1
   \                     ??bindRemoveDev_10:
   \   00008D   60C9         JZ        ??bindRemoveDev_8
   \   00008F   80CD         SJMP      ??bindRemoveDev_6
    648          
    649            // If this is the last Bind Entry for that idx then clear BINDING
    650            // user from Address Manager
    651            bindAddressClear( idx );
   \                     ??bindRemoveDev_9:
   \   000091                ; Setup parameters for call to function bindAddressClear
   \   000091   AA..         MOV       R2,?V0
   \   000093   AB..         MOV       R3,?V1
   \   000095   12....       LCALL     `??bindAddressClear::?relay`; Banked call to: bindAddressClear
    652          }
   \                     ??bindRemoveDev_3:
   \   000098   02....       LJMP      ??Subroutine46_0 & 0xFFFF

   \                                 In  segment BANKED_CODE, align 1, keep-with-next
   \                     ?Subroutine13:
   \   000000   12....       LCALL     ?Subroutine36 & 0xFFFF
   \                     ??CrossCallReturnLabel_48:
   \   000003   65..         XRL       A,?V0
   \   000005   22           RET

   \                                 In  segment BANKED_CODE, align 1, keep-with-next
   \                     ?Subroutine12:
   \   000000   75..0E       MOV       ?B,#0xe
   \   000003   A4           MUL       AB
   \   000004   F8           MOV       R0,A
   \   000005   A9..         MOV       R1,?B
   \   000007   12....       LCALL     ?Subroutine35 & 0xFFFF
   \                     ??CrossCallReturnLabel_46:
   \   00000A   6401         XRL       A,#0x1
   \   00000C   22           RET
    653          
    654          /*********************************************************************
    655           * @fn       bindRemoveSrcDev()
    656           *
    657           * @brief
    658           *
    659           *   Remove binds(s) associated to device address (source).
    660           *   Updates binding table.
    661           *
    662           * @param   ep - endpoint to remove, 0xFF is all endpoints
    663           *
    664           * @return  none
    665           */

   \                                 In  segment BANKED_CODE, align 1, keep-with-next
    666          void bindRemoveSrcDev( uint8 ep )
   \                     bindRemoveSrcDev:
    667          {
   \   000000                REQUIRE ?V0
   \   000000                REQUIRE ?V1
   \   000000   74F6         MOV       A,#-0xa
   \   000002   12....       LCALL     ?BANKED_ENTER_XDATA
   \   000005                ; Saved register size: 10
   \   000005                ; Auto size: 0
   \   000005   89..         MOV       ?V1,R1
    668            bindTableIndex_t x;
    669          
    670            for ( x = 0; x < gNWK_MAX_BINDING_ENTRIES; x++ )
   \   000007   75..00       MOV       ?V0,#0x0
   \   00000A   8032         SJMP      ??bindRemoveSrcDev_0
    671            {
    672              if ( (ep == 0xFF) || (ep == BindingTable[x].srcEP) )
   \                     ??bindRemoveSrcDev_1:
   \   00000C   74FF         MOV       A,#-0x1
   \   00000E   65..         XRL       A,?V1
   \   000010   6009         JZ        ??bindRemoveSrcDev_2
   \   000012   E5..         MOV       A,?V0
   \   000014   12....       LCALL     ?Subroutine11 & 0xFFFF
   \                     ??CrossCallReturnLabel_12:
   \   000017   65..         XRL       A,?V1
   \   000019   7021         JNZ       ??bindRemoveSrcDev_3
    673              {
    674                uint16 idx = BindingTable[x].dstIdx;
   \                     ??bindRemoveSrcDev_2:
   \   00001B   E5..         MOV       A,?V0
   \   00001D   75..0E       MOV       ?B,#0xe
   \   000020   A4           MUL       AB
   \   000021   F8           MOV       R0,A
   \   000022   A9..         MOV       R1,?B
   \   000024   12....       LCALL     ?Subroutine15 & 0xFFFF
   \                     ??CrossCallReturnLabel_22:
   \   000027   8A82         MOV       DPL,R2
   \   000029   F583         MOV       DPH,A
   \   00002B   A3           INC       DPTR
   \   00002C   A3           INC       DPTR
   \   00002D   E0           MOVX      A,@DPTR
   \   00002E   FE           MOV       R6,A
   \   00002F   A3           INC       DPTR
   \   000030   E0           MOVX      A,@DPTR
   \   000031   FF           MOV       R7,A
    675          
    676                bindRemoveEntry( &BindingTable[x] );
   \   000032                ; Setup parameters for call to function bindRemoveEntry
   \   000032   12....       LCALL     `??bindRemoveEntry::?relay`; Banked call to: bindRemoveEntry
    677          
    678                // If this is the last Bind Entry for that idx then clear BINDING
    679                // user from Address Manager
    680                bindAddressClear( idx );
   \   000035                ; Setup parameters for call to function bindAddressClear
   \   000035   EE           MOV       A,R6
   \   000036   FA           MOV       R2,A
   \   000037   EF           MOV       A,R7
   \   000038   FB           MOV       R3,A
   \   000039   12....       LCALL     `??bindAddressClear::?relay`; Banked call to: bindAddressClear
    681              }
    682            }
   \                     ??bindRemoveSrcDev_3:
   \   00003C   05..         INC       ?V0
   \                     ??bindRemoveSrcDev_0:
   \   00003E   90....       MOV       DPTR,#gNWK_MAX_BINDING_ENTRIES
   \   000041   E4           CLR       A
   \   000042   93           MOVC      A,@A+DPTR
   \   000043   F8           MOV       R0,A
   \   000044   E5..         MOV       A,?V0
   \   000046   C3           CLR       C
   \   000047   98           SUBB      A,R0
   \   000048   40C2         JC        ??bindRemoveSrcDev_1
    683          }
   \   00004A   02....       LJMP      ??Subroutine42_0 & 0xFFFF
    684          
    685          /*********************************************************************
    686           * @fn          bindNumBoundTo
    687           *
    688           * @brief       Calculate the number items this device is bound to.
    689           *              When srcMode is set to TRUE, discard what value devAddr
    690           *              has, it returns number count bound to the local dev.
    691           *
    692           * @param       devAddr - device Address
    693           * @param       devEP - endpoint
    694           * @param       srcMode - TRUE - assume devHandle is a source address
    695           *                        FALSE - destination address
    696           *
    697           * @return      status
    698           */

   \                                 In  segment BANKED_CODE, align 1, keep-with-next
    699          byte bindNumBoundTo( zAddrType_t *devAddr, byte devEpInt, byte srcMode )
   \                     bindNumBoundTo:
    700          {
   \   000000                REQUIRE ?V0
   \   000000                REQUIRE ?V1
   \   000000                REQUIRE ?V2
   \   000000                REQUIRE ?V4
   \   000000                REQUIRE ?V5
   \   000000   74F2         MOV       A,#-0xe
   \   000002   12....       LCALL     ?BANKED_ENTER_XDATA
   \   000005                ; Saved register size: 14
   \   000005                ; Auto size: 0
   \   000005   EA           MOV       A,R2
   \   000006   FE           MOV       R6,A
   \   000007   EB           MOV       A,R3
   \   000008   FF           MOV       R7,A
   \   000009   89..         MOV       ?V1,R1
   \   00000B   8C..         MOV       ?V2,R4
    701            BindingEntry_t *pBind;
    702            uint16 idx;
    703            byte   num;
    704            bindTableIndex_t x;
    705          
    706            // Init
    707            num = 0;
   \   00000D   75..00       MOV       ?V0,#0x0
    708          
    709            if ( devAddr->addrMode == AddrGroup )
   \   000010   8A82         MOV       DPL,R2
   \   000012   F583         MOV       DPH,A
   \   000014   A3           INC       DPTR
   \   000015   A3           INC       DPTR
   \   000016   A3           INC       DPTR
   \   000017   A3           INC       DPTR
   \   000018   A3           INC       DPTR
   \   000019   A3           INC       DPTR
   \   00001A   A3           INC       DPTR
   \   00001B   A3           INC       DPTR
   \   00001C   E0           MOVX      A,@DPTR
   \   00001D   6401         XRL       A,#0x1
   \   00001F   7009         JNZ       ??bindNumBoundTo_0
    710            {
    711              idx = devAddr->addr.shortAddr;
   \   000021   8A82         MOV       DPL,R2
   \   000023   8B83         MOV       DPH,R3
   \   000025   12....       LCALL     ??Subroutine56_0 & 0xFFFF
    712            }
   \                     ??CrossCallReturnLabel_93:
   \   000028   8003         SJMP      ??bindNumBoundTo_1
    713            else
    714            {
    715              idx = bindingAddrMgsHelperFind( devAddr );
   \                     ??bindNumBoundTo_0:
   \   00002A                ; Setup parameters for call to function bindingAddrMgsHelperFind
   \   00002A   12....       LCALL     `??bindingAddrMgsHelperFind::?relay`; Banked call to: bindingAddrMgsHelperFind
    716            }
    717          
    718            for ( x = 0; x < gNWK_MAX_BINDING_ENTRIES; x++ )
   \                     ??bindNumBoundTo_1:
   \   00002D   7C00         MOV       R4,#0x0
   \   00002F   8022         SJMP      ??bindNumBoundTo_2
    719            {
    720              pBind = &BindingTable[x];
    721              if ( srcMode )
    722              {
    723                if ( pBind->srcEP == devEpInt )
    724                {
    725                  num++;
    726                }
    727              }
    728              else
    729              {
    730                if ( ((devAddr->addrMode == AddrGroup)
    731                        && (pBind->dstGroupMode == DSTGROUPMODE_GROUP) && (pBind->dstIdx == idx))
    732                    || ((devAddr->addrMode != AddrGroup) && (pBind->dstGroupMode == DSTGROUPMODE_ADDR)
    733                                          && (pBind->dstIdx == idx) && (pBind->dstEP == devEpInt)) )
   \                     ??bindNumBoundTo_3:
   \   000031   E0           MOVX      A,@DPTR
   \   000032   701E         JNZ       ??bindNumBoundTo_4
   \   000034   8882         MOV       DPL,R0
   \   000036   8983         MOV       DPH,R1
   \   000038   A3           INC       DPTR
   \   000039   A3           INC       DPTR
   \   00003A   E0           MOVX      A,@DPTR
   \   00003B   6A           XRL       A,R2
   \   00003C   7003         JNZ       ??bindNumBoundTo_5
   \   00003E   A3           INC       DPTR
   \   00003F   E0           MOVX      A,@DPTR
   \   000040   6B           XRL       A,R3
   \                     ??bindNumBoundTo_5:
   \   000041   700F         JNZ       ??bindNumBoundTo_4
   \   000043   8882         MOV       DPL,R0
   \   000045   8983         MOV       DPH,R1
   \   000047   A3           INC       DPTR
   \   000048   A3           INC       DPTR
   \   000049   A3           INC       DPTR
   \   00004A   A3           INC       DPTR
   \   00004B   E0           MOVX      A,@DPTR
   \   00004C   65..         XRL       A,?V1
   \   00004E   7002         JNZ       ??bindNumBoundTo_4
    734                {
    735                  num++;
   \                     ??bindNumBoundTo_6:
   \   000050   05..         INC       ?V0
    736                }
   \                     ??bindNumBoundTo_4:
   \   000052   0C           INC       R4
   \                     ??bindNumBoundTo_2:
   \   000053   90....       MOV       DPTR,#gNWK_MAX_BINDING_ENTRIES
   \   000056   E4           CLR       A
   \   000057   93           MOVC      A,@A+DPTR
   \   000058   F8           MOV       R0,A
   \   000059   EC           MOV       A,R4
   \   00005A   C3           CLR       C
   \   00005B   98           SUBB      A,R0
   \   00005C   503F         JNC       ??bindNumBoundTo_7
   \   00005E   EC           MOV       A,R4
   \   00005F   12....       LCALL     ?Subroutine18 & 0xFFFF
   \                     ??CrossCallReturnLabel_79:
   \   000062   E5..         MOV       A,?V2
   \   000064   600B         JZ        ??bindNumBoundTo_8
   \   000066   8882         MOV       DPL,R0
   \   000068   8983         MOV       DPH,R1
   \   00006A   E0           MOVX      A,@DPTR
   \   00006B   65..         XRL       A,?V1
   \   00006D   70E3         JNZ       ??bindNumBoundTo_4
   \   00006F   80DF         SJMP      ??bindNumBoundTo_6
   \                     ??bindNumBoundTo_8:
   \   000071   8E82         MOV       DPL,R6
   \   000073   8F83         MOV       DPH,R7
   \   000075   A3           INC       DPTR
   \   000076   A3           INC       DPTR
   \   000077   A3           INC       DPTR
   \   000078   A3           INC       DPTR
   \   000079   A3           INC       DPTR
   \   00007A   A3           INC       DPTR
   \   00007B   A3           INC       DPTR
   \   00007C   A3           INC       DPTR
   \   00007D   E0           MOVX      A,@DPTR
   \   00007E   6401         XRL       A,#0x1
   \   000080   8882         MOV       DPL,R0
   \   000082   8983         MOV       DPH,R1
   \   000084   A3           INC       DPTR
   \   000085   70AA         JNZ       ??bindNumBoundTo_3
   \   000087   E0           MOVX      A,@DPTR
   \   000088   6401         XRL       A,#0x1
   \   00008A   70C6         JNZ       ??bindNumBoundTo_4
   \   00008C   8882         MOV       DPL,R0
   \   00008E   8983         MOV       DPH,R1
   \   000090   A3           INC       DPTR
   \   000091   A3           INC       DPTR
   \   000092   E0           MOVX      A,@DPTR
   \   000093   6A           XRL       A,R2
   \   000094   7003         JNZ       ??bindNumBoundTo_9
   \   000096   A3           INC       DPTR
   \   000097   E0           MOVX      A,@DPTR
   \   000098   6B           XRL       A,R3
   \                     ??bindNumBoundTo_9:
   \   000099   60B5         JZ        ??bindNumBoundTo_6
   \   00009B   80B5         SJMP      ??bindNumBoundTo_4
    737              }
    738            }
    739          
    740            return num;
   \                     ??bindNumBoundTo_7:
   \   00009D   A9..         MOV       R1,?V0
   \   00009F   80..         SJMP      ??Subroutine48_0
    741          }

   \                                 In  segment BANKED_CODE, align 1, keep-with-next
   \                     ?Subroutine18:
   \   000000   75..0E       MOV       ?B,#0xe
   \   000003   A4           MUL       AB
   \   000004   F8           MOV       R0,A
   \   000005   A9..         MOV       R1,?B
   \   000007                REQUIRE ??Subroutine47_0
   \   000007                ; // Fall through to label ??Subroutine47_0

   \                                 In  segment BANKED_CODE, align 1, keep-with-next
   \                     ??Subroutine47_0:
   \   000000   74..         MOV       A,#BindingTable & 0xff
   \   000002   28           ADD       A,R0
   \   000003   F8           MOV       R0,A
   \   000004   74..         MOV       A,#(BindingTable >> 8) & 0xff
   \   000006   39           ADDC      A,R1
   \   000007   F9           MOV       R1,A
   \   000008   22           RET

   \                                 In  segment BANKED_CODE, align 1, keep-with-next
   \                     ??Subroutine48_0:
   \   000000   7F06         MOV       R7,#0x6
   \   000002   02....       LJMP      ?BANKED_LEAVE_XDATA

   \                                 In  segment BANKED_CODE, align 1, keep-with-next
   \                     ??Subroutine56_0:
   \   000000   E0           MOVX      A,@DPTR
   \   000001   FA           MOV       R2,A
   \   000002   A3           INC       DPTR
   \   000003   E0           MOVX      A,@DPTR
   \   000004   FB           MOV       R3,A
   \   000005   22           RET
    742          
    743          /*********************************************************************
    744           * @fn          bindNumReflections
    745           *
    746           * @brief       Counts the number of reflections needed for a
    747           *              endpoint and cluster ID combo.
    748           *
    749           * @param       ep - source endpoint
    750           * @param       clusterID - matching clusterID
    751           *
    752           * @return      number of reflections needed.
    753           */

   \                                 In  segment BANKED_CODE, align 1, keep-with-next
    754          uint16 bindNumReflections( uint8 ep, uint16 clusterID )
   \                     bindNumReflections:
    755          {
   \   000000                REQUIRE ?V0
   \   000000                REQUIRE ?V1
   \   000000                REQUIRE ?V2
   \   000000                REQUIRE ?V3
   \   000000   74F4         MOV       A,#-0xc
   \   000002   12....       LCALL     ?BANKED_ENTER_XDATA
   \   000005                ; Saved register size: 12
   \   000005                ; Auto size: 0
   \   000005   89..         MOV       ?V3,R1
   \   000007   8A..         MOV       ?V0,R2
   \   000009   8B..         MOV       ?V1,R3
    756            bindTableIndex_t x;
    757            BindingEntry_t *pBind;
    758            uint16 cnt = 0;
   \   00000B   7E00         MOV       R6,#0x0
   \   00000D   7F00         MOV       R7,#0x0
    759            uint8 bindEP;
    760          
    761            for ( x = 0; x < gNWK_MAX_BINDING_ENTRIES; x++ )
   \   00000F   75..00       MOV       ?V2,#0x0
   \   000012   801E         SJMP      ??bindNumReflections_0
    762            {
    763              pBind = &BindingTable[x];
   \                     ??bindNumReflections_1:
   \   000014   E5..         MOV       A,?V2
   \   000016   12....       LCALL     ?Subroutine11 & 0xFFFF
    764              bindEP = pBind->srcEP;
    765          
    766              if ( (bindEP == ep) && (bindIsClusterIDinList( pBind, clusterID )) )
   \                     ??CrossCallReturnLabel_10:
   \   000019   65..         XRL       A,?V3
   \   00001B   7013         JNZ       ??bindNumReflections_2
   \   00001D                ; Setup parameters for call to function bindIsClusterIDinList
   \   00001D   AC..         MOV       R4,?V0
   \   00001F   AD..         MOV       R5,?V1
   \   000021   AA82         MOV       R2,DPL
   \   000023   AB83         MOV       R3,DPH
   \   000025   12....       LCALL     `??bindIsClusterIDinList::?relay`; Banked call to: bindIsClusterIDinList
   \   000028   E9           MOV       A,R1
   \   000029   6005         JZ        ??bindNumReflections_2
    767              {
    768                cnt++;
   \   00002B   0E           INC       R6
   \   00002C   EE           MOV       A,R6
   \   00002D   7001         JNZ       ??bindNumReflections_2
   \   00002F   0F           INC       R7
    769              }
    770            }
   \                     ??bindNumReflections_2:
   \   000030   05..         INC       ?V2
   \                     ??bindNumReflections_0:
   \   000032   90....       MOV       DPTR,#gNWK_MAX_BINDING_ENTRIES
   \   000035   E4           CLR       A
   \   000036   93           MOVC      A,@A+DPTR
   \   000037   F8           MOV       R0,A
   \   000038   E5..         MOV       A,?V2
   \   00003A   C3           CLR       C
   \   00003B   98           SUBB      A,R0
   \   00003C   40D6         JC        ??bindNumReflections_1
    771          
    772            return ( cnt );
   \   00003E   EE           MOV       A,R6
   \   00003F   FA           MOV       R2,A
   \   000040   EF           MOV       A,R7
   \   000041   FB           MOV       R3,A
   \   000042   02....       LJMP      ??Subroutine46_0 & 0xFFFF
    773          }
    774          
    775          /*********************************************************************
    776           * @fn          bindFind
    777           *
    778           * @brief       Finds the binding entry for the source address, endpoint
    779           *              and cluster ID passed in as a parameter.
    780           *
    781           * @param       ep - source endpoint
    782           * @param       clusterID - matching clusterID
    783           * @param       skip - number of matches to skip before returning
    784           *
    785           * @return      pointer to the binding table entry, NULL if not found
    786           */

   \                                 In  segment BANKED_CODE, align 1, keep-with-next
    787          BindingEntry_t *bindFind( uint8 ep, uint16 clusterID, uint8 skipping )
   \                     bindFind:
    788          {
   \   000000                REQUIRE ?V0
   \   000000                REQUIRE ?V1
   \   000000                REQUIRE ?V2
   \   000000                REQUIRE ?V3
   \   000000                REQUIRE ?V4
   \   000000                REQUIRE ?V5
   \   000000   74F2         MOV       A,#-0xe
   \   000002   12....       LCALL     ?BANKED_ENTER_XDATA
   \   000005                ; Saved register size: 14
   \   000005                ; Auto size: 0
   \   000005   89..         MOV       ?V4,R1
   \   000007   8A..         MOV       ?V0,R2
   \   000009   8B..         MOV       ?V1,R3
   \   00000B   8C..         MOV       ?V5,R4
    789            BindingEntry_t *pBind;
    790            byte skipped = 0;
   \   00000D   75..00       MOV       ?V2,#0x0
    791            bindTableIndex_t x;
    792          
    793            for ( x = 0; x < gNWK_MAX_BINDING_ENTRIES; x++ )
   \   000010   75..00       MOV       ?V3,#0x0
   \   000013   8004         SJMP      ??bindFind_0
    794            {
    795              pBind = &BindingTable[x];
    796          
    797              if ( ( pBind->srcEP == ep) && bindIsClusterIDinList( pBind, clusterID ))
    798              {
    799                if ( skipped < skipping )
    800                {
    801                  skipped++;
   \                     ??bindFind_1:
   \   000015   05..         INC       ?V2
    802                }
   \                     ??bindFind_2:
   \   000017   05..         INC       ?V3
   \                     ??bindFind_0:
   \   000019   90....       MOV       DPTR,#gNWK_MAX_BINDING_ENTRIES
   \   00001C   E4           CLR       A
   \   00001D   93           MOVC      A,@A+DPTR
   \   00001E   F8           MOV       R0,A
   \   00001F   E5..         MOV       A,?V3
   \   000021   C3           CLR       C
   \   000022   98           SUBB      A,R0
   \   000023   5035         JNC       ??bindFind_3
   \   000025   E5..         MOV       A,?V3
   \   000027   75..0E       MOV       ?B,#0xe
   \   00002A   A4           MUL       AB
   \   00002B   F8           MOV       R0,A
   \   00002C   A9..         MOV       R1,?B
   \   00002E   74..         MOV       A,#BindingTable & 0xff
   \   000030   28           ADD       A,R0
   \   000031   FE           MOV       R6,A
   \   000032   74..         MOV       A,#(BindingTable >> 8) & 0xff
   \   000034   39           ADDC      A,R1
   \   000035   FF           MOV       R7,A
   \   000036   8E82         MOV       DPL,R6
   \   000038   F583         MOV       DPH,A
   \   00003A   E0           MOVX      A,@DPTR
   \   00003B   65..         XRL       A,?V4
   \   00003D   70D8         JNZ       ??bindFind_2
   \   00003F                ; Setup parameters for call to function bindIsClusterIDinList
   \   00003F   AC..         MOV       R4,?V0
   \   000041   AD..         MOV       R5,?V1
   \   000043   EE           MOV       A,R6
   \   000044   FA           MOV       R2,A
   \   000045   EF           MOV       A,R7
   \   000046   FB           MOV       R3,A
   \   000047   12....       LCALL     `??bindIsClusterIDinList::?relay`; Banked call to: bindIsClusterIDinList
   \   00004A   E9           MOV       A,R1
   \   00004B   60CA         JZ        ??bindFind_2
   \   00004D   E5..         MOV       A,?V2
   \   00004F   C3           CLR       C
   \   000050   95..         SUBB      A,?V5
   \   000052   40C1         JC        ??bindFind_1
    803                else
    804                {
    805                  return ( pBind );
   \   000054   EE           MOV       A,R6
   \   000055   FA           MOV       R2,A
   \   000056   EF           MOV       A,R7
   \   000057   FB           MOV       R3,A
   \   000058   8004         SJMP      ??bindFind_4
    806                }
    807              }
    808            }
    809          
    810            return ( (BindingEntry_t *)NULL );
   \                     ??bindFind_3:
   \   00005A   7A00         MOV       R2,#0x0
   \   00005C   7B00         MOV       R3,#0x0
   \                     ??bindFind_4:
   \   00005E   02....       LJMP      ??Subroutine48_0 & 0xFFFF
    811          }
    812          
    813          /*********************************************************************
    814           * @fn      bindAddressClear
    815           *
    816           * @brief   Lookup a binding entry by specific Idx, if none is found
    817           *          clears the BINDING user from Address Manager.
    818           *
    819           * @param   dstIdx - Source Address Manager Index
    820           *
    821           * @return  none
    822           */

   \                                 In  segment BANKED_CODE, align 1, keep-with-next
    823          void bindAddressClear( uint16 dstIdx )
   \                     bindAddressClear:
    824          {
   \   000000   C082         PUSH      DPL
   \   000002   C083         PUSH      DPH
   \   000004                ; Saved register size: 2
   \   000004                ; Auto size: 13
   \   000004   74F3         MOV       A,#-0xd
   \   000006   12....       LCALL     ?ALLOC_XSTACK8
    825            bindTableIndex_t i;
    826          
    827            if ( dstIdx != INVALID_NODE_ADDR )
   \   000009   74FE         MOV       A,#-0x2
   \   00000B   6A           XRL       A,R2
   \   00000C   7003         JNZ       ??bindAddressClear_0
   \   00000E   74FF         MOV       A,#-0x1
   \   000010   6B           XRL       A,R3
   \                     ??bindAddressClear_0:
   \   000011   603D         JZ        ??bindAddressClear_1
    828            {
    829              // Looks for a specific Idx
    830              for ( i = 0; i < gNWK_MAX_BINDING_ENTRIES; i++ )
   \   000013   7C00         MOV       R4,#0x0
   \   000015   8015         SJMP      ??bindAddressClear_2
    831              {
    832                if ( ( BindingTable[i].dstGroupMode != AddrGroup ) &&
    833                     ( BindingTable[i].dstGroupMode == DSTGROUPMODE_ADDR ) &&
    834                     ( BindingTable[i].dstIdx == dstIdx ) )
   \                     ??bindAddressClear_3:
   \   000017   EC           MOV       A,R4
   \   000018   12....       LCALL     ?Subroutine12 & 0xFFFF
    835                {
    836                  break;  // found at least one
    837                }
    838              }
   \                     ??CrossCallReturnLabel_14:
   \   00001B   600E         JZ        ??bindAddressClear_4
   \   00001D   E0           MOVX      A,@DPTR
   \   00001E   700B         JNZ       ??bindAddressClear_4
   \   000020   12....       LCALL     ?Subroutine17 & 0xFFFF
   \                     ??CrossCallReturnLabel_26:
   \   000023   6A           XRL       A,R2
   \   000024   7003         JNZ       ??bindAddressClear_5
   \   000026   A3           INC       DPTR
   \   000027   E0           MOVX      A,@DPTR
   \   000028   6B           XRL       A,R3
   \                     ??bindAddressClear_5:
   \   000029   6025         JZ        ??bindAddressClear_1
   \                     ??bindAddressClear_4:
   \   00002B   0C           INC       R4
   \                     ??bindAddressClear_2:
   \   00002C   90....       MOV       DPTR,#gNWK_MAX_BINDING_ENTRIES
   \   00002F   E4           CLR       A
   \   000030   93           MOVC      A,@A+DPTR
   \   000031   F8           MOV       R0,A
   \   000032   EC           MOV       A,R4
   \   000033   C3           CLR       C
   \   000034   98           SUBB      A,R0
   \   000035   40E0         JC        ??bindAddressClear_3
    839          
    840              if ( i == gNWK_MAX_BINDING_ENTRIES )
   \   000037   E4           CLR       A
   \   000038   93           MOVC      A,@A+DPTR
   \   000039   6C           XRL       A,R4
   \   00003A   7014         JNZ       ??bindAddressClear_1
    841              {
    842                // No binding entry is associated with dstIdx.
    843                // Remove user binding bit from the address manager entry corresponding to dstIdx.
    844                AddrMgrEntry_t addrEntry;
    845          
    846                addrEntry.user = ADDRMGR_USER_BINDING;
   \   00003C   85..82       MOV       DPL,?XSP + 0
   \   00003F   85..83       MOV       DPH,?XSP + 1
   \   000042   7404         MOV       A,#0x4
   \   000044   F0           MOVX      @DPTR,A
    847                addrEntry.index = dstIdx;
   \   000045   740B         MOV       A,#0xb
   \   000047   12....       LCALL     ?XSTACK_DISP0_8
   \   00004A   12....       LCALL     ?Subroutine38 & 0xFFFF
    848          
    849                AddrMgrEntryRelease( &addrEntry );
    850              }
    851            }
   \                     ??CrossCallReturnLabel_81:
   \   00004D   12....       LCALL     `??AddrMgrEntryRelease::?relay`; Banked call to: AddrMgrEntryRelease
    852          }
   \                     ??bindAddressClear_1:
   \   000050   80..         SJMP      ??Subroutine51_0

   \                                 In  segment BANKED_CODE, align 1, keep-with-next
   \                     ?Subroutine38:
   \   000000   EA           MOV       A,R2
   \   000001   F0           MOVX      @DPTR,A
   \   000002   A3           INC       DPTR
   \   000003   EB           MOV       A,R3
   \   000004                REQUIRE ??Subroutine49_0
   \   000004                ; // Fall through to label ??Subroutine49_0

   \                                 In  segment BANKED_CODE, align 1, keep-with-next
   \                     ??Subroutine49_0:
   \   000000   F0           MOVX      @DPTR,A
   \   000001                ; Setup parameters for call to function AddrMgrEntryRelease
   \   000001                ; Setup parameters for call to function AddrMgrEntryGet
   \   000001                ; Setup parameters for call to function AddrMgrEntryGet
   \   000001                ; Setup parameters for call to function bindingAddrMgsHelperFind
   \   000001                ; Setup parameters for call to function bindingAddrMgsHelperFind
   \   000001                ; Setup parameters for call to function AddrMgrEntryLookupNwk
   \   000001                ; Setup parameters for call to function AddrMgrEntryLookupNwk
   \   000001   AA..         MOV       R2,?XSP + 0
   \   000003   AB..         MOV       R3,?XSP + 1
   \   000005   22           RET

   \                                 In  segment BANKED_CODE, align 1, keep-with-next
   \                     ??Subroutine51_0:
   \   000000   740D         MOV       A,#0xd
   \   000002   12....       LCALL     ?DEALLOC_XSTACK8
   \   000005                REQUIRE ??Subroutine52_0
   \   000005                ; // Fall through to label ??Subroutine52_0
    853          
    854          /*********************************************************************
    855           * @fn          bindUpdateAddr
    856           *
    857           * @brief       Update the network address in the binding table.
    858           *
    859           * @param       oldAddr - old network address
    860           * @param       newAddr - new network address
    861           *
    862           * @return      none
    863           */

   \                                 In  segment BANKED_CODE, align 1, keep-with-next
   \                     ?Subroutine3:
   \   000000   12....       LCALL     ?DEALLOC_XSTACK8
   \   000003                REQUIRE ??Subroutine46_0
   \   000003                ; // Fall through to label ??Subroutine46_0

   \                                 In  segment BANKED_CODE, align 1, keep-with-next
    864          void bindUpdateAddr( uint16 oldAddr, uint16 newAddr )
   \                     bindUpdateAddr:
    865          {
   \   000000                REQUIRE ?V0
   \   000000                REQUIRE ?V1
   \   000000                REQUIRE ?V2
   \   000000                REQUIRE ?V3
   \   000000   74F4         MOV       A,#-0xc
   \   000002   12....       LCALL     ?BANKED_ENTER_XDATA
   \   000005                ; Saved register size: 12
   \   000005                ; Auto size: 9
   \   000005   74F7         MOV       A,#-0x9
   \   000007   12....       LCALL     ?ALLOC_XSTACK8
   \   00000A   EC           MOV       A,R4
   \   00000B   FE           MOV       R6,A
   \   00000C   ED           MOV       A,R5
   \   00000D   FF           MOV       R7,A
    866            uint16 oldIdx;
    867            uint16 newIdx;
    868            zAddrType_t addr;
    869            bindTableIndex_t x;
    870            BindingEntry_t *pBind;
    871          
    872            addr.addrMode = Addr16Bit;
   \   00000E   7408         MOV       A,#0x8
   \   000010   12....       LCALL     ?XSTACK_DISP0_8
   \   000013   7402         MOV       A,#0x2
   \   000015   F0           MOVX      @DPTR,A
    873            addr.addr.shortAddr = oldAddr;
   \   000016   85..82       MOV       DPL,?XSP + 0
   \   000019   85..83       MOV       DPH,?XSP + 1
   \   00001C   EA           MOV       A,R2
   \   00001D   F0           MOVX      @DPTR,A
   \   00001E   A3           INC       DPTR
   \   00001F   EB           MOV       A,R3
   \   000020   12....       LCALL     ?Subroutine22 & 0xFFFF
    874            oldIdx = bindingAddrMgsHelperFind( &addr );
   \                     ??CrossCallReturnLabel_33:
   \   000023   8A..         MOV       ?V0,R2
   \   000025   8B..         MOV       ?V1,R3
    875            addr.addr.shortAddr = newAddr;
   \   000027   85..82       MOV       DPL,?XSP + 0
   \   00002A   85..83       MOV       DPH,?XSP + 1
   \   00002D   EE           MOV       A,R6
   \   00002E   F0           MOVX      @DPTR,A
   \   00002F   A3           INC       DPTR
   \   000030   EF           MOV       A,R7
   \   000031   12....       LCALL     ?Subroutine22 & 0xFFFF
    876            newIdx = bindingAddrMgsHelperFind( &addr );
   \                     ??CrossCallReturnLabel_34:
   \   000034   8A..         MOV       ?V2,R2
    877          
    878            for ( x = 0; x < gNWK_MAX_BINDING_ENTRIES; x++ )
   \   000036   7A00         MOV       R2,#0x0
   \   000038   8022         SJMP      ??bindUpdateAddr_0
    879            {
    880              pBind = &BindingTable[x];
   \                     ??bindUpdateAddr_1:
   \   00003A   EA           MOV       A,R2
   \   00003B   12....       LCALL     ?Subroutine18 & 0xFFFF
    881          
    882              if ( pBind->dstIdx == oldIdx )
   \                     ??CrossCallReturnLabel_80:
   \   00003E   8882         MOV       DPL,R0
   \   000040   F583         MOV       DPH,A
   \   000042   A3           INC       DPTR
   \   000043   A3           INC       DPTR
   \   000044   E0           MOVX      A,@DPTR
   \   000045   65..         XRL       A,?V0
   \   000047   7004         JNZ       ??bindUpdateAddr_2
   \   000049   A3           INC       DPTR
   \   00004A   E0           MOVX      A,@DPTR
   \   00004B   65..         XRL       A,?V1
   \                     ??bindUpdateAddr_2:
   \   00004D   700C         JNZ       ??bindUpdateAddr_3
    883              {
    884                pBind->dstIdx = newIdx;
   \   00004F   8882         MOV       DPL,R0
   \   000051   8983         MOV       DPH,R1
   \   000053   A3           INC       DPTR
   \   000054   A3           INC       DPTR
   \   000055   E5..         MOV       A,?V2
   \   000057   F0           MOVX      @DPTR,A
   \   000058   A3           INC       DPTR
   \   000059   EB           MOV       A,R3
   \   00005A   F0           MOVX      @DPTR,A
    885              }
    886            }
   \                     ??bindUpdateAddr_3:
   \   00005B   0A           INC       R2
   \                     ??bindUpdateAddr_0:
   \   00005C   90....       MOV       DPTR,#gNWK_MAX_BINDING_ENTRIES
   \   00005F   E4           CLR       A
   \   000060   93           MOVC      A,@A+DPTR
   \   000061   F8           MOV       R0,A
   \   000062   EA           MOV       A,R2
   \   000063   C3           CLR       C
   \   000064   98           SUBB      A,R0
   \   000065   40D3         JC        ??bindUpdateAddr_1
    887          }
   \   000067   7409         MOV       A,#0x9
   \   000069   02....       LJMP      ?Subroutine3 & 0xFFFF

   \                                 In  segment BANKED_CODE, align 1, keep-with-next
   \                     ?Subroutine22:
   \   000000   12....       LCALL     ??Subroutine49_0 & 0xFFFF
   \                     ??CrossCallReturnLabel_83:
   \   000003   12....       LCALL     `??bindingAddrMgsHelperFind::?relay`; Banked call to: bindingAddrMgsHelperFind
   \   000006   22           RET
    888          
    889          /*********************************************************************
    890           * @fn      bindingAddrMgsHelperFind
    891           *
    892           * @brief   Turns an zAddrType_t to an Addr Manager index
    893           *
    894           * @param   addr - zAddrType_t
    895           *
    896           * @return  INVALID_NODE_ADDR if not found, otherwise an index
    897           */

   \                                 In  segment BANKED_CODE, align 1, keep-with-next
   \                     ?Subroutine1:
   \   000000   740B         MOV       A,#0xb
   \   000002                REQUIRE ??Subroutine50_0
   \   000002                ; // Fall through to label ??Subroutine50_0

   \                                 In  segment BANKED_CODE, align 1, keep-with-next
   \                     ??Subroutine50_0:
   \   000000   12....       LCALL     ?XSTACK_DISP0_8
   \   000003   12....       LCALL     ??Subroutine56_0 & 0xFFFF
   \                     ??CrossCallReturnLabel_96:
   \   000006                REQUIRE ??Subroutine51_0
   \   000006                ; // Fall through to label ??Subroutine51_0

   \                                 In  segment BANKED_CODE, align 1, keep-with-next
    898          uint16 bindingAddrMgsHelperFind( zAddrType_t *addr )
   \                     bindingAddrMgsHelperFind:
    899          {
   \   000000   C082         PUSH      DPL
   \   000002   C083         PUSH      DPH
   \   000004                ; Saved register size: 2
   \   000004                ; Auto size: 13
   \   000004   74F3         MOV       A,#-0xd
   \   000006   12....       LCALL     ?ALLOC_XSTACK8
    900            AddrMgrEntry_t entry;
    901          
    902            // Resolve addresses with the address manager
    903            entry.user = ADDRMGR_USER_BINDING;
   \   000009   12....       LCALL     ?Subroutine19 & 0xFFFF
    904            if ( addr->addrMode == Addr16Bit )
   \                     ??CrossCallReturnLabel_27:
   \   00000C   700F         JNZ       ??bindingAddrMgsHelperFind_0
    905            {
    906              entry.nwkAddr = addr->addr.shortAddr;
   \   00000E   8A82         MOV       DPL,R2
   \   000010   8B83         MOV       DPH,R3
   \   000012   12....       LCALL     ?Subroutine23 & 0xFFFF
    907              AddrMgrEntryLookupNwk( &entry );
    908            }
   \                     ??CrossCallReturnLabel_35:
   \   000015   12....       LCALL     ?XSTACK_DISP0_8
   \   000018   12....       LCALL     ?Subroutine20 & 0xFFFF
   \                     ??CrossCallReturnLabel_29:
   \   00001B   800C         SJMP      ??CrossCallReturnLabel_42
    909            else
    910            {
    911              AddrMgrExtAddrSet( entry.extAddr, addr->addr.extAddr );
   \                     ??bindingAddrMgsHelperFind_0:
   \   00001D                ; Setup parameters for call to function AddrMgrExtAddrSet
   \   00001D   EA           MOV       A,R2
   \   00001E   FC           MOV       R4,A
   \   00001F   EB           MOV       A,R3
   \   000020   FD           MOV       R5,A
   \   000021   7403         MOV       A,#0x3
   \   000023   12....       LCALL     ?XSTACK_DISP0_8
   \   000026   12....       LCALL     ?Subroutine29 & 0xFFFF
    912              AddrMgrEntryLookupExt( &entry );
    913            }
    914          
    915            return ( entry.index );
   \                     ??CrossCallReturnLabel_42:
   \   000029   02....       LJMP      ?Subroutine1 & 0xFFFF
    916          }

   \                                 In  segment BANKED_CODE, align 1, keep-with-next
   \                     ?Subroutine23:
   \   000000   E0           MOVX      A,@DPTR
   \   000001   F8           MOV       R0,A
   \   000002   A3           INC       DPTR
   \   000003   E0           MOVX      A,@DPTR
   \   000004   F9           MOV       R1,A
   \   000005   7401         MOV       A,#0x1
   \   000007   22           RET

   \                                 In  segment BANKED_CODE, align 1, keep-with-next
   \                     ?Subroutine29:
   \   000000   AA82         MOV       R2,DPL
   \   000002   AB83         MOV       R3,DPH
   \   000004   12....       LCALL     `??AddrMgrExtAddrSet::?relay`; Banked call to: AddrMgrExtAddrSet
   \   000007                ; Setup parameters for call to function AddrMgrEntryLookupExt
   \   000007                ; Setup parameters for call to function AddrMgrEntryLookupExt
   \   000007   AA..         MOV       R2,?XSP + 0
   \   000009   AB..         MOV       R3,?XSP + 1
   \   00000B   12....       LCALL     `??AddrMgrEntryLookupExt::?relay`; Banked call to: AddrMgrEntryLookupExt
   \   00000E   22           RET

   \                                 In  segment BANKED_CODE, align 1, keep-with-next
   \                     ?Subroutine20:
   \   000000   E8           MOV       A,R0
   \   000001   F0           MOVX      @DPTR,A
   \   000002   A3           INC       DPTR
   \   000003   E9           MOV       A,R1
   \   000004   12....       LCALL     ??Subroutine49_0 & 0xFFFF
   \                     ??CrossCallReturnLabel_84:
   \   000007   12....       LCALL     `??AddrMgrEntryLookupNwk::?relay`; Banked call to: AddrMgrEntryLookupNwk
   \   00000A   22           RET

   \                                 In  segment BANKED_CODE, align 1, keep-with-next
   \                     ?Subroutine19:
   \   000000   85..82       MOV       DPL,?XSP + 0
   \   000003   85..83       MOV       DPH,?XSP + 1
   \   000006   7404         MOV       A,#0x4
   \   000008   12....       LCALL     ?Subroutine37 & 0xFFFF
   \                     ??CrossCallReturnLabel_51:
   \   00000B   A3           INC       DPTR
   \   00000C   A3           INC       DPTR
   \   00000D   A3           INC       DPTR
   \   00000E   A3           INC       DPTR
   \   00000F   E0           MOVX      A,@DPTR
   \   000010   6402         XRL       A,#0x2
   \   000012   22           RET
    917          
    918          /*********************************************************************
    919           * @fn      bindingAddrMgsHelperConvert
    920           *
    921           * @brief   Convert an index into an zAddrType_t
    922           *
    923           * @param   idx -
    924           * @param   addr - zAddrType_t
    925           *
    926           * @return  TRUE if found, FALSE if not
    927           */

   \                                 In  segment BANKED_CODE, align 1, keep-with-next
    928          uint8 bindingAddrMgsHelperConvert( uint16 idx, zAddrType_t *addr )
   \                     bindingAddrMgsHelperConvert:
    929          {
   \   000000                REQUIRE ?V0
   \   000000   74F7         MOV       A,#-0x9
   \   000002   12....       LCALL     ?BANKED_ENTER_XDATA
   \   000005                ; Saved register size: 9
   \   000005                ; Auto size: 13
   \   000005   74F3         MOV       A,#-0xd
   \   000007   12....       LCALL     ?ALLOC_XSTACK8
   \   00000A   EC           MOV       A,R4
   \   00000B   FE           MOV       R6,A
   \   00000C   ED           MOV       A,R5
   \   00000D   FF           MOV       R7,A
    930            AddrMgrEntry_t entry;
    931            uint8 stat;
    932          
    933            // Resolve addresses with the address manager
    934            entry.user = ADDRMGR_USER_BINDING;
   \   00000E   85..82       MOV       DPL,?XSP + 0
   \   000011   85..83       MOV       DPH,?XSP + 1
   \   000014   7404         MOV       A,#0x4
   \   000016   F0           MOVX      @DPTR,A
    935            entry.index = idx;
   \   000017   740B         MOV       A,#0xb
   \   000019   12....       LCALL     ?XSTACK_DISP0_8
   \   00001C   12....       LCALL     ?Subroutine21 & 0xFFFF
    936            stat = AddrMgrEntryGet( &entry );
   \                     ??CrossCallReturnLabel_31:
   \   00001F   E9           MOV       A,R1
   \   000020   F5..         MOV       ?V0,A
    937            if ( stat )
   \   000022   601D         JZ        ??bindingAddrMgsHelperConvert_0
    938            {
    939              addr->addrMode = Addr64Bit;
   \   000024   8E82         MOV       DPL,R6
   \   000026   8F83         MOV       DPH,R7
   \   000028   A3           INC       DPTR
   \   000029   A3           INC       DPTR
   \   00002A   A3           INC       DPTR
   \   00002B   A3           INC       DPTR
   \   00002C   A3           INC       DPTR
   \   00002D   A3           INC       DPTR
   \   00002E   A3           INC       DPTR
   \   00002F   A3           INC       DPTR
   \   000030   7403         MOV       A,#0x3
   \   000032   F0           MOVX      @DPTR,A
    940              osal_cpyExtAddr( addr->addr.extAddr, entry.extAddr );
   \   000033                ; Setup parameters for call to function sAddrExtCpy
   \   000033   12....       LCALL     ?XSTACK_DISP0_8
   \   000036   AC82         MOV       R4,DPL
   \   000038   AD83         MOV       R5,DPH
   \   00003A   EE           MOV       A,R6
   \   00003B   FA           MOV       R2,A
   \   00003C   EF           MOV       A,R7
   \   00003D   FB           MOV       R3,A
   \   00003E   12....       LCALL     `??sAddrExtCpy::?relay`; Banked call to: sAddrExtCpy
    941            }
    942          
    943            return ( stat );
   \                     ??bindingAddrMgsHelperConvert_0:
   \   000041   A9..         MOV       R1,?V0
   \   000043   740D         MOV       A,#0xd
   \   000045   12....       LCALL     ?DEALLOC_XSTACK8
   \   000048   02....       LJMP      ?Subroutine2 & 0xFFFF
    944          }

   \                                 In  segment BANKED_CODE, align 1, keep-with-next
   \                     ?Subroutine21:
   \   000000   12....       LCALL     ?Subroutine38 & 0xFFFF
   \                     ??CrossCallReturnLabel_82:
   \   000003   12....       LCALL     `??AddrMgrEntryGet::?relay`; Banked call to: AddrMgrEntryGet
   \   000006   22           RET
    945          
    946          /*********************************************************************
    947           * @fn      bindingAddrMgsHelperConvertShort
    948           *
    949           * @brief   Convert an index into a short address
    950           *
    951           * @param   idx -
    952           *
    953           * @return  INVALID_NODE_ADDR if not available, otherwise the short address
    954           */

   \                                 In  segment BANKED_CODE, align 1, keep-with-next
    955          uint16 bindingAddrMgsHelperConvertShort( uint16 idx )
   \                     bindingAddrMgsHelperConvertShort:
    956          {
   \   000000   C082         PUSH      DPL
   \   000002   C083         PUSH      DPH
   \   000004                ; Saved register size: 2
   \   000004                ; Auto size: 13
   \   000004   74F3         MOV       A,#-0xd
   \   000006   12....       LCALL     ?ALLOC_XSTACK8
    957            AddrMgrEntry_t entry;
    958          
    959            // Resolve addresses with the address manager
    960            entry.user = ADDRMGR_USER_BINDING;
   \   000009   85..82       MOV       DPL,?XSP + 0
   \   00000C   85..83       MOV       DPH,?XSP + 1
   \   00000F   7404         MOV       A,#0x4
   \   000011   F0           MOVX      @DPTR,A
    961            entry.index = idx;
   \   000012   740B         MOV       A,#0xb
   \   000014   12....       LCALL     ?XSTACK_DISP0_8
   \   000017   12....       LCALL     ?Subroutine21 & 0xFFFF
    962            AddrMgrEntryGet( &entry );
    963          
    964            return ( entry.nwkAddr );
   \                     ??CrossCallReturnLabel_32:
   \   00001A   7401         MOV       A,#0x1
   \   00001C   02....       LJMP      ??Subroutine50_0 & 0xFFFF
    965          }
    966          
    967          /*********************************************************************
    968           * @fn      bindAddrMgrLocalLoad
    969           *
    970           * @brief   Load local(self and parent) address information into
    971           *          Address Manager
    972           *
    973           * @param   none
    974           *
    975           * @return  none
    976           */

   \                                 In  segment BANKED_CODE, align 1, keep-with-next
   \                     ?Subroutine0:
   \   000000   12....       LCALL     ?DEALLOC_XSTACK8
   \   000003                REQUIRE ??Subroutine42_0
   \   000003                ; // Fall through to label ??Subroutine42_0

   \                                 In  segment BANKED_CODE, align 1, keep-with-next
    977          void bindAddrMgrLocalLoad( void )
   \                     bindAddrMgrLocalLoad:
    978          {
   \   000000                REQUIRE ?V0
   \   000000                REQUIRE ?V1
   \   000000   74F6         MOV       A,#-0xa
   \   000002   12....       LCALL     ?BANKED_ENTER_XDATA
   \   000005                ; Saved register size: 10
   \   000005                ; Auto size: 13
   \   000005   74F3         MOV       A,#-0xd
   \   000007   12....       LCALL     ?ALLOC_XSTACK8
    979            AddrMgrEntry_t entry;
    980            uint16         parent;
    981          
    982            // add "local"(self and parent) address informtion into the Address
    983            // Manager
    984            if ( bindAddrMgrLocalLoaded == FALSE )
   \   00000A   90....       MOV       DPTR,#bindAddrMgrLocalLoaded
   \   00000D   E0           MOVX      A,@DPTR
   \   00000E   707B         JNZ       ??bindAddrMgrLocalLoad_0
    985            {
    986              // add the device's address information
    987              entry.user    = ADDRMGR_USER_BINDING;
   \   000010   85..82       MOV       DPL,?XSP + 0
   \   000013   85..83       MOV       DPH,?XSP + 1
   \   000016   7404         MOV       A,#0x4
   \   000018   F0           MOVX      @DPTR,A
    988              entry.nwkAddr = _NIB.nwkDevAddress;
   \   000019   90....       MOV       DPTR,#_NIB + 20
   \   00001C   12....       LCALL     ?Subroutine23 & 0xFFFF
   \                     ??CrossCallReturnLabel_36:
   \   00001F   12....       LCALL     ?XSTACK_DISP0_8
   \   000022   E8           MOV       A,R0
   \   000023   F0           MOVX      @DPTR,A
   \   000024   A3           INC       DPTR
   \   000025   E9           MOV       A,R1
   \   000026   F0           MOVX      @DPTR,A
    989              AddrMgrExtAddrSet( entry.extAddr, NLME_GetExtAddr() );
   \   000027                ; Setup parameters for call to function NLME_GetExtAddr
   \   000027   12....       LCALL     `??NLME_GetExtAddr::?relay`; Banked call to: NLME_GetExtAddr
   \   00002A   8A..         MOV       ?V0,R2
   \   00002C   8B..         MOV       ?V1,R3
   \   00002E   AC..         MOV       R4,?V0
   \   000030   AD..         MOV       R5,?V1
   \   000032                ; Setup parameters for call to function AddrMgrExtAddrSet
   \   000032   7403         MOV       A,#0x3
   \   000034   12....       LCALL     ?XSTACK_DISP0_8
   \   000037   AA82         MOV       R2,DPL
   \   000039   AB83         MOV       R3,DPH
   \   00003B   12....       LCALL     `??AddrMgrExtAddrSet::?relay`; Banked call to: AddrMgrExtAddrSet
    990              AddrMgrEntryUpdate( &entry );
   \   00003E                ; Setup parameters for call to function AddrMgrEntryUpdate
   \   00003E   AA..         MOV       R2,?XSP + 0
   \   000040   AB..         MOV       R3,?XSP + 1
   \   000042   12....       LCALL     `??AddrMgrEntryUpdate::?relay`; Banked call to: AddrMgrEntryUpdate
    991          
    992              // make sure parent address is valid
    993              parent = NLME_GetCoordShortAddr();
   \   000045                ; Setup parameters for call to function NLME_GetCoordShortAddr
   \   000045   12....       LCALL     `??NLME_GetCoordShortAddr::?relay`; Banked call to: NLME_GetCoordShortAddr
   \   000048   8A..         MOV       ?V0,R2
   \   00004A   8B..         MOV       ?V1,R3
   \   00004C   A8..         MOV       R0,?V0
   \   00004E   A9..         MOV       R1,?V1
    994              if ( ( parent != entry.nwkAddr     ) &&
    995                   ( parent != INVALID_NODE_ADDR )    )
   \   000050   7401         MOV       A,#0x1
   \   000052   12....       LCALL     ?XSTACK_DISP0_8
   \   000055   E0           MOVX      A,@DPTR
   \   000056   68           XRL       A,R0
   \   000057   7003         JNZ       ??bindAddrMgrLocalLoad_1
   \   000059   A3           INC       DPTR
   \   00005A   E0           MOVX      A,@DPTR
   \   00005B   69           XRL       A,R1
   \                     ??bindAddrMgrLocalLoad_1:
   \   00005C   6027         JZ        ??bindAddrMgrLocalLoad_2
   \   00005E   74FE         MOV       A,#-0x2
   \   000060   68           XRL       A,R0
   \   000061   7003         JNZ       ??bindAddrMgrLocalLoad_3
   \   000063   74FF         MOV       A,#-0x1
   \   000065   69           XRL       A,R1
   \                     ??bindAddrMgrLocalLoad_3:
   \   000066   601D         JZ        ??bindAddrMgrLocalLoad_2
    996              {
    997                // add the parent's address information
    998                entry.nwkAddr = parent;
   \   000068   7401         MOV       A,#0x1
   \   00006A   12....       LCALL     ?XSTACK_DISP0_8
   \   00006D   EA           MOV       A,R2
   \   00006E   F0           MOVX      @DPTR,A
   \   00006F   A3           INC       DPTR
   \   000070   EB           MOV       A,R3
   \   000071   F0           MOVX      @DPTR,A
    999                NLME_GetCoordExtAddr( entry.extAddr );
   \   000072                ; Setup parameters for call to function NLME_GetCoordExtAddr
   \   000072   7403         MOV       A,#0x3
   \   000074   12....       LCALL     ?XSTACK_DISP0_8
   \   000077   AA82         MOV       R2,DPL
   \   000079   AB83         MOV       R3,DPH
   \   00007B   12....       LCALL     `??NLME_GetCoordExtAddr::?relay`; Banked call to: NLME_GetCoordExtAddr
   1000                AddrMgrEntryUpdate( &entry );
   \   00007E                ; Setup parameters for call to function AddrMgrEntryUpdate
   \   00007E   AA..         MOV       R2,?XSP + 0
   \   000080   AB..         MOV       R3,?XSP + 1
   \   000082   12....       LCALL     `??AddrMgrEntryUpdate::?relay`; Banked call to: AddrMgrEntryUpdate
   1001              }
   1002          
   1003              bindAddrMgrLocalLoaded = TRUE;
   \                     ??bindAddrMgrLocalLoad_2:
   \   000085   90....       MOV       DPTR,#bindAddrMgrLocalLoaded
   \   000088   7401         MOV       A,#0x1
   \   00008A   F0           MOVX      @DPTR,A
   1004            }
   1005          }
   \                     ??bindAddrMgrLocalLoad_0:
   \   00008B   740D         MOV       A,#0xd
   \   00008D   02....       LJMP      ?Subroutine0 & 0xFFFF
   1006          
   1007          /*********************************************************************
   1008           * @fn      bindAddrIndexGet
   1009           *
   1010           * @brief   Get bind address index.
   1011           *
   1012           * @param   addr - <zAddrType_t>
   1013           *
   1014           * @return  (uint16) address index
   1015           */

   \                                 In  segment BANKED_CODE, align 1, keep-with-next
   1016          uint16 bindAddrIndexGet( zAddrType_t* addr )
   \                     bindAddrIndexGet:
   1017          {
   \   000000   C082         PUSH      DPL
   \   000002   C083         PUSH      DPH
   \   000004                ; Saved register size: 2
   \   000004                ; Auto size: 13
   \   000004   74F3         MOV       A,#-0xd
   \   000006   12....       LCALL     ?ALLOC_XSTACK8
   1018            AddrMgrEntry_t entry;
   1019            uint8          update;
   1020          
   1021            update = FALSE;
   1022          
   1023            // sync binding addresses with the address manager
   1024            entry.user = ADDRMGR_USER_BINDING;
   \   000009   12....       LCALL     ?Subroutine19 & 0xFFFF
   1025          
   1026            if ( addr->addrMode == Addr16Bit )
   \                     ??CrossCallReturnLabel_28:
   \   00000C   8A82         MOV       DPL,R2
   \   00000E   8B83         MOV       DPH,R3
   \   000010   700E         JNZ       ??bindAddrIndexGet_0
   1027            {
   1028              entry.nwkAddr = addr->addr.shortAddr;
   \   000012   12....       LCALL     ?Subroutine23 & 0xFFFF
   1029          
   1030              if ( AddrMgrEntryLookupNwk( &entry ) == FALSE )
   1031              {
   1032                update = TRUE;
   1033              }
   1034            }
   \                     ??CrossCallReturnLabel_37:
   \   000015   12....       LCALL     ?XSTACK_DISP0_8
   \   000018   12....       LCALL     ?Subroutine20 & 0xFFFF
   \                     ??CrossCallReturnLabel_30:
   \   00001B   E9           MOV       A,R1
   \   00001C   7051         JNZ       ??bindAddrIndexGet_1
   \   00001E   801C         SJMP      ??bindAddrIndexGet_2
   1035            else if ( addr->addrMode == Addr64Bit )
   \                     ??bindAddrIndexGet_0:
   \   000020   A3           INC       DPTR
   \   000021   A3           INC       DPTR
   \   000022   A3           INC       DPTR
   \   000023   A3           INC       DPTR
   \   000024   A3           INC       DPTR
   \   000025   A3           INC       DPTR
   \   000026   A3           INC       DPTR
   \   000027   A3           INC       DPTR
   \   000028   E0           MOVX      A,@DPTR
   \   000029   6403         XRL       A,#0x3
   \   00002B   7018         JNZ       ??bindAddrIndexGet_3
   1036            {
   1037              AddrMgrExtAddrSet( entry.extAddr, addr->addr.extAddr );
   \   00002D                ; Setup parameters for call to function AddrMgrExtAddrSet
   \   00002D   EA           MOV       A,R2
   \   00002E   FC           MOV       R4,A
   \   00002F   EB           MOV       A,R3
   \   000030   FD           MOV       R5,A
   \   000031   7403         MOV       A,#0x3
   \   000033   12....       LCALL     ?XSTACK_DISP0_8
   \   000036   12....       LCALL     ?Subroutine29 & 0xFFFF
   1038          
   1039              if ( AddrMgrEntryLookupExt( &entry ) == FALSE )
   \                     ??CrossCallReturnLabel_43:
   \   000039   E9           MOV       A,R1
   \   00003A   7033         JNZ       ??bindAddrIndexGet_1
   1040              {
   1041                update = TRUE;
   1042              }
   1043            }
   1044            else if ( addr->addrMode == AddrGroup )
   1045            {
   1046              entry.index = addr->addr.shortAddr;
   1047            }
   1048            else
   1049            {
   1050              entry.index = INVALID_NODE_ADDR;
   1051            }
   1052          
   1053            if ( update )
   1054            {
   1055              AddrMgrEntryUpdate( &entry );
   \                     ??bindAddrIndexGet_2:
   \   00003C                ; Setup parameters for call to function AddrMgrEntryUpdate
   \   00003C   AA..         MOV       R2,?XSP + 0
   \   00003E   AB..         MOV       R3,?XSP + 1
   \   000040   12....       LCALL     `??AddrMgrEntryUpdate::?relay`; Banked call to: AddrMgrEntryUpdate
   \   000043   802A         SJMP      ??bindAddrIndexGet_1
   1056            }
   \                     ??bindAddrIndexGet_3:
   \   000045   8A82         MOV       DPL,R2
   \   000047   8B83         MOV       DPH,R3
   \   000049   A3           INC       DPTR
   \   00004A   A3           INC       DPTR
   \   00004B   A3           INC       DPTR
   \   00004C   A3           INC       DPTR
   \   00004D   A3           INC       DPTR
   \   00004E   A3           INC       DPTR
   \   00004F   A3           INC       DPTR
   \   000050   A3           INC       DPTR
   \   000051   E0           MOVX      A,@DPTR
   \   000052   6401         XRL       A,#0x1
   \   000054   700E         JNZ       ??bindAddrIndexGet_4
   \   000056   12....       LCALL     ?Subroutine24 & 0xFFFF
   \                     ??CrossCallReturnLabel_77:
   \   000059   740B         MOV       A,#0xb
   \   00005B   12....       LCALL     ?XSTACK_DISP0_8
   \   00005E   E8           MOV       A,R0
   \   00005F   F0           MOVX      @DPTR,A
   \   000060   A3           INC       DPTR
   \   000061   E9           MOV       A,R1
   \   000062   800A         SJMP      ??bindAddrIndexGet_5
   \                     ??bindAddrIndexGet_4:
   \   000064   740B         MOV       A,#0xb
   \   000066   12....       LCALL     ?XSTACK_DISP0_8
   \   000069   74FE         MOV       A,#-0x2
   \   00006B   F0           MOVX      @DPTR,A
   \   00006C   A3           INC       DPTR
   \   00006D   04           INC       A
   \                     ??bindAddrIndexGet_5:
   \   00006E   F0           MOVX      @DPTR,A
   1057          
   1058            return entry.index;
   \                     ??bindAddrIndexGet_1:
   \   00006F   02....       LJMP      ?Subroutine1 & 0xFFFF
   1059          }
   1060          
   1061          /*********************************************************************
   1062           * @fn      GetBindingTableEntry
   1063           *
   1064           * @brief   Get a pointer to the Nth valid binding table entry.
   1065           *
   1066           * @param   Nth valid entry being requested.
   1067           *
   1068           * @return  The Nth valid binding table entry.
   1069           */

   \                                 In  segment BANKED_CODE, align 1, keep-with-next
   1070          BindingEntry_t *GetBindingTableEntry( uint16 Nth )
   \                     GetBindingTableEntry:
   1071          {
   \   000000                REQUIRE ?V0
   \   000000   74F7         MOV       A,#-0x9
   \   000002   12....       LCALL     ?BANKED_ENTER_XDATA
   \   000005                ; Saved register size: 9
   \   000005                ; Auto size: 0
   1072            BindingEntry_t *rtrn = NULL;
   \   000005   7800         MOV       R0,#0x0
   \   000007   7900         MOV       R1,#0x0
   1073          
   1074          #if defined ( REFLECTOR )
   1075            bindTableIndex_t idx, cnt = 0;
   \   000009   7C00         MOV       R4,#0x0
   1076          
   1077            for ( idx = 0; idx < gNWK_MAX_BINDING_ENTRIES; idx++ )
   \   00000B   7D00         MOV       R5,#0x0
   \   00000D   8001         SJMP      ??GetBindingTableEntry_0
   \                     ??GetBindingTableEntry_1:
   \   00000F   0D           INC       R5
   \                     ??GetBindingTableEntry_0:
   \   000010   90....       MOV       DPTR,#gNWK_MAX_BINDING_ENTRIES
   \   000013   E4           CLR       A
   \   000014   93           MOVC      A,@A+DPTR
   \   000015   FE           MOV       R6,A
   \   000016   ED           MOV       A,R5
   \   000017   C3           CLR       C
   \   000018   9E           SUBB      A,R6
   \   000019   5031         JNC       ??CrossCallReturnLabel_78
   1078            {
   1079              if ( BindingTable[idx].srcEP != NV_BIND_EMPTY )
   \   00001B   ED           MOV       A,R5
   \   00001C   75..0E       MOV       ?B,#0xe
   \   00001F   A4           MUL       AB
   \   000020   FE           MOV       R6,A
   \   000021   85....       MOV       ?V0,?B
   \   000024   AF..         MOV       R7,?V0
   \   000026   74..         MOV       A,#BindingTable & 0xff
   \   000028   2E           ADD       A,R6
   \   000029   F582         MOV       DPL,A
   \   00002B   74..         MOV       A,#(BindingTable >> 8) & 0xff
   \   00002D   3F           ADDC      A,R7
   \   00002E   F583         MOV       DPH,A
   \   000030   E0           MOVX      A,@DPTR
   \   000031   F4           CPL       A
   \   000032   60DB         JZ        ??GetBindingTableEntry_1
   1080              {
   1081                if ( cnt++ == Nth )
   \   000034   8C..         MOV       ?V0,R4
   \   000036   7401         MOV       A,#0x1
   \   000038   2C           ADD       A,R4
   \   000039   FC           MOV       R4,A
   \   00003A   AE..         MOV       R6,?V0
   \   00003C   EA           MOV       A,R2
   \   00003D   6E           XRL       A,R6
   \   00003E   4B           ORL       A,R3
   \   00003F   70CE         JNZ       ??GetBindingTableEntry_1
   1082                {
   1083                  rtrn = BindingTable+idx;
   \   000041   ED           MOV       A,R5
   \   000042   75..0E       MOV       ?B,#0xe
   \   000045   A4           MUL       AB
   \   000046   F8           MOV       R0,A
   \   000047   EF           MOV       A,R7
   \   000048   F9           MOV       R1,A
   \   000049   12....       LCALL     ??Subroutine47_0 & 0xFFFF
   1084                  break;
   1085                }
   1086              }
   1087            }
   1088          #else
   1089            (void)Nth;
   1090          #endif
   1091          
   1092            return rtrn;
   \                     ??CrossCallReturnLabel_78:
   \   00004C   E8           MOV       A,R0
   \   00004D   FA           MOV       R2,A
   \   00004E   E9           MOV       A,R1
   \   00004F   FB           MOV       R3,A
   \   000050   02....       LJMP      ?Subroutine2 & 0xFFFF
   1093          }
   1094          
   1095          #if !defined ( BINDINGTABLE_NV_SINGLES )
   1096          /*********************************************************************
   1097           * @fn          BindInitNV
   1098           *
   1099           * @brief       Initialize the Binding NV Item
   1100           *
   1101           * @param       none
   1102           *
   1103           * @return      ZSUCCESS if successful, NV_ITEM_UNINIT if item did not
   1104           *              exist in NV, NV_OPER_FAILED if failure.
   1105           */

   \                                 In  segment BANKED_CODE, align 1, keep-with-next
   1106          byte BindInitNV( void )
   \                     BindInitNV:
   1107          {
   \   000000                REQUIRE ?V0
   \   000000                REQUIRE ?V1
   \   000000   74F6         MOV       A,#-0xa
   \   000002   12....       LCALL     ?BANKED_ENTER_XDATA
   \   000005                ; Saved register size: 10
   \   000005                ; Auto size: 0
   1108            byte ret;
   1109          
   1110            // Initialize the device list
   1111            ret = osal_nv_item_init( ZCD_NV_BINDING_TABLE,
   1112                            (uint16)( sizeof( nvBindingHdr_t ) + NV_BIND_ITEM_SIZE ), NULL );
   \   000005                ; Setup parameters for call to function osal_nv_item_init
   \   000005   E4           CLR       A
   \   000006   F5..         MOV       ?V0,A
   \   000008   F5..         MOV       ?V1,A
   \   00000A   78..         MOV       R0,#?V0
   \   00000C   12....       LCALL     ?PUSH_XSTACK_I_TWO
   \   00000F   12....       LCALL     ?Subroutine6 & 0xFFFF
   \                     ??CrossCallReturnLabel_2:
   \   000012   FC           MOV       R4,A
   \   000013   E4           CLR       A
   \   000014   39           ADDC      A,R1
   \   000015   FD           MOV       R5,A
   \   000016   7A41         MOV       R2,#0x41
   \   000018   7B00         MOV       R3,#0x0
   \   00001A   12....       LCALL     `??osal_nv_item_init::?relay`; Banked call to: osal_nv_item_init
   \   00001D   7402         MOV       A,#0x2
   \   00001F   12....       LCALL     ?DEALLOC_XSTACK8
   \   000022   E9           MOV       A,R1
   \   000023   FE           MOV       R6,A
   1113          
   1114            if (ret == NV_ITEM_UNINIT) 
   \   000024   7409         MOV       A,#0x9
   \   000026   6E           XRL       A,R6
   \   000027   7003         JNZ       ??BindInitNV_0
   1115            {
   1116              BindSetDefaultNV();
   \   000029                ; Setup parameters for call to function BindSetDefaultNV
   \   000029   12....       LCALL     `??BindSetDefaultNV::?relay`; Banked call to: BindSetDefaultNV
   1117            }
   1118          
   1119            return ( ret );
   \                     ??BindInitNV_0:
   \   00002C   EE           MOV       A,R6
   \   00002D   F9           MOV       R1,A
   \   00002E   02....       LJMP      ??Subroutine42_0 & 0xFFFF
   1120          }

   \                                 In  segment BANKED_CODE, align 1, keep-with-next
   \                     ?Subroutine6:
   \   000000   90....       MOV       DPTR,#gBIND_REC_SIZE
   \   000003   E4           CLR       A
   \   000004   93           MOVC      A,@A+DPTR
   \   000005   F8           MOV       R0,A
   \   000006   7401         MOV       A,#0x1
   \   000008   93           MOVC      A,@A+DPTR
   \   000009   F9           MOV       R1,A
   \   00000A   90....       MOV       DPTR,#gNWK_MAX_BINDING_ENTRIES
   \   00000D   E4           CLR       A
   \   00000E   93           MOVC      A,@A+DPTR
   \   00000F   F5..         MOV       ?V0,A
   \   000011   E8           MOV       A,R0
   \   000012   85....       MOV       ?B,?V0
   \   000015   A4           MUL       AB
   \   000016   F8           MOV       R0,A
   \   000017   AA..         MOV       R2,?B
   \   000019   85....       MOV       ?B,?V0
   \   00001C   E9           MOV       A,R1
   \   00001D   A4           MUL       AB
   \   00001E   2A           ADD       A,R2
   \   00001F   F9           MOV       R1,A
   \   000020   E8           MOV       A,R0
   \   000021   2402         ADD       A,#0x2
   \   000023   22           RET
   1121          
   1122          /*********************************************************************
   1123           * @fn          BindSetDefaultNV
   1124           *
   1125           * @brief       Write the defaults to NV
   1126           *
   1127           * @param       none
   1128           *
   1129           * @return      none
   1130           */

   \                                 In  segment BANKED_CODE, align 1, keep-with-next
   1131          void BindSetDefaultNV( void )
   \                     BindSetDefaultNV:
   1132          {
   \   000000                REQUIRE ?V0
   \   000000                REQUIRE ?V1
   \   000000   74F6         MOV       A,#-0xa
   \   000002   12....       LCALL     ?BANKED_ENTER_XDATA
   \   000005                ; Saved register size: 10
   \   000005                ; Auto size: 2
   \   000005   74FE         MOV       A,#-0x2
   \   000007   12....       LCALL     ?ALLOC_XSTACK8
   1133            nvBindingHdr_t hdr;
   1134          
   1135            // Initialize the header
   1136            hdr.numRecs = 0;
   \   00000A   85..82       MOV       DPL,?XSP + 0
   \   00000D   85..83       MOV       DPH,?XSP + 1
   \   000010   E4           CLR       A
   \   000011   F0           MOVX      @DPTR,A
   \   000012   A3           INC       DPTR
   \   000013   F0           MOVX      @DPTR,A
   1137          
   1138            // Save off the header
   1139            osal_nv_write( ZCD_NV_BINDING_TABLE, 0, sizeof( nvBindingHdr_t ), &hdr );
   \   000014                ; Setup parameters for call to function osal_nv_write
   \   000014   A8..         MOV       R0,?XSP + 0
   \   000016   A9..         MOV       R1,?XSP + 1
   \   000018   88..         MOV       ?V0,R0
   \   00001A   89..         MOV       ?V1,R1
   \   00001C   78..         MOV       R0,#?V0
   \   00001E   12....       LCALL     ?PUSH_XSTACK_I_TWO
   \   000021   75..02       MOV       ?V0,#0x2
   \   000024   75..00       MOV       ?V1,#0x0
   \   000027   78..         MOV       R0,#?V0
   \   000029   12....       LCALL     ?PUSH_XSTACK_I_TWO
   \   00002C   12....       LCALL     ?Subroutine30 & 0xFFFF
   \                     ??CrossCallReturnLabel_88:
   \   00002F   12....       LCALL     ?DEALLOC_XSTACK8
   1140          }
   \   000032   7402         MOV       A,#0x2
   \   000034   02....       LJMP      ?Subroutine0 & 0xFFFF

   \                                 In  segment BANKED_CODE, align 1, keep-with-next
   \                     ?Subroutine30:
   \   000000   7C00         MOV       R4,#0x0
   \   000002   7D00         MOV       R5,#0x0
   \   000004                REQUIRE ??Subroutine54_0
   \   000004                ; // Fall through to label ??Subroutine54_0

   \                                 In  segment BANKED_CODE, align 1, keep-with-next
   \                     ??Subroutine54_0:
   \   000000   7A41         MOV       R2,#0x41
   \   000002   7B00         MOV       R3,#0x0
   \   000004                REQUIRE ??Subroutine55_0
   \   000004                ; // Fall through to label ??Subroutine55_0

   \                                 In  segment BANKED_CODE, align 1, keep-with-next
   \                     ??Subroutine55_0:
   \   000000   12....       LCALL     `??osal_nv_write::?relay`; Banked call to: osal_nv_write
   \   000003   7404         MOV       A,#0x4
   \   000005   22           RET
   1141          
   1142          #if !defined ( DONT_UPGRADE_BIND )
   1143          /*********************************************************************
   1144           * @fn          BindCopyBackupToNewNV
   1145           *
   1146           * @brief       Creates the New NV item, copies the backup data into
   1147           *              the New NV ID, and Deletes the duplicate NV item.
   1148           *
   1149           * @param       dupLen - NV item length of the old Binding table.
   1150           * @param       newLen - NV item length of the new Binding table to be created.
   1151           *
   1152           * @return      ZSuccess - All the actions were successful.
   1153           *              ZFailure - Any of the actions failed.
   1154           */

   \                                 In  segment BANKED_CODE, align 1, keep-with-next
   \                     ?Subroutine4:
   \   000000   12....       LCALL     ?DEALLOC_XSTACK8
   \   000003                REQUIRE ??Subroutine48_0
   \   000003                ; // Fall through to label ??Subroutine48_0

   \                                 In  segment BANKED_CODE, align 1, keep-with-next
   1155          static uint8 BindCopyBackupToNewNV( uint16 dupLen, uint16 newLen )
   \                     BindCopyBackupToNewNV:
   1156          {
   \   000000                REQUIRE ?V0
   \   000000                REQUIRE ?V1
   \   000000                REQUIRE ?V2
   \   000000                REQUIRE ?V4
   \   000000                REQUIRE ?V5
   \   000000   74F2         MOV       A,#-0xe
   \   000002   12....       LCALL     ?BANKED_ENTER_XDATA
   \   000005                ; Saved register size: 14
   \   000005                ; Auto size: 18
   \   000005   74EE         MOV       A,#-0x12
   \   000007   12....       LCALL     ?ALLOC_XSTACK8
   \   00000A   EA           MOV       A,R2
   \   00000B   FE           MOV       R6,A
   \   00000C   EB           MOV       A,R3
   \   00000D   FF           MOV       R7,A
   \   00000E   8C..         MOV       ?V0,R4
   \   000010   8D..         MOV       ?V1,R5
   1157            uint8 status = ZSuccess;
   \   000012   75..00       MOV       ?V2,#0x0
   1158            uint16 bindLen;
   1159          
   1160            bindLen = osal_nv_item_len( ZCD_NV_BINDING_TABLE );
   \   000015                ; Setup parameters for call to function osal_nv_item_len
   \   000015   12....       LCALL     ?Subroutine31 & 0xFFFF
   \                     ??CrossCallReturnLabel_85:
   \   000018   AC..         MOV       R4,?V4
   \   00001A   AD..         MOV       R5,?V5
   1161          
   1162          
   1163            if ( ( bindLen > 0 ) && ( bindLen != newLen ) )
   \   00001C   EA           MOV       A,R2
   \   00001D   4D           ORL       A,R5
   \   00001E   6011         JZ        ??BindCopyBackupToNewNV_0
   \   000020   E5..         MOV       A,?V0
   \   000022   6C           XRL       A,R4
   \   000023   7003         JNZ       ??BindCopyBackupToNewNV_1
   \   000025   E5..         MOV       A,?V1
   \   000027   6D           XRL       A,R5
   \                     ??BindCopyBackupToNewNV_1:
   \   000028   6007         JZ        ??BindCopyBackupToNewNV_0
   1164            {
   1165              // The existing item does not match the New length
   1166              osal_nv_delete( ZCD_NV_BINDING_TABLE, bindLen );
   \   00002A                ; Setup parameters for call to function osal_nv_delete
   \   00002A   7A41         MOV       R2,#0x41
   \   00002C   7B00         MOV       R3,#0x0
   \   00002E   12....       LCALL     `??osal_nv_delete::?relay`; Banked call to: osal_nv_delete
   1167            }
   1168          
   1169            // Create Binding Table NV item with the NEW legth
   1170            if ( osal_nv_item_init( ZCD_NV_BINDING_TABLE, newLen, NULL ) != NV_OPER_FAILED )
   \                     ??BindCopyBackupToNewNV_0:
   \   000031                ; Setup parameters for call to function osal_nv_item_init
   \   000031   E4           CLR       A
   \   000032   F5..         MOV       ?V4,A
   \   000034   F5..         MOV       ?V5,A
   \   000036   78..         MOV       R0,#?V4
   \   000038   12....       LCALL     ?PUSH_XSTACK_I_TWO
   \   00003B   AC..         MOV       R4,?V0
   \   00003D   AD..         MOV       R5,?V1
   \   00003F   7A41         MOV       R2,#0x41
   \   000041   7B00         MOV       R3,#0x0
   \   000043   12....       LCALL     `??osal_nv_item_init::?relay`; Banked call to: osal_nv_item_init
   \   000046   7402         MOV       A,#0x2
   \   000048   12....       LCALL     ?DEALLOC_XSTACK8
   \   00004B   E9           MOV       A,R1
   \   00004C   640A         XRL       A,#0xa
   \   00004E   7003         JNZ       $+5
   \   000050   02....       LJMP      ??BindCopyBackupToNewNV_2 & 0xFFFF
   1171            {
   1172              nvBindingHdr_t hdrBackup;
   1173          
   1174              // Copy ONLY the valid records from the duplicate NV table into the new table
   1175              // at the end of this process the table content will be compacted
   1176              if ( osal_nv_read( ZCD_NV_DUPLICATE_BINDING_TABLE, 0, sizeof(nvBindingHdr_t), &hdrBackup ) == ZSuccess )
   \   000053                ; Setup parameters for call to function osal_nv_read
   \   000053   7402         MOV       A,#0x2
   \   000055   12....       LCALL     ?XSTACK_DISP100_8
   \   000058   88..         MOV       ?V0,R0
   \   00005A   89..         MOV       ?V1,R1
   \   00005C   78..         MOV       R0,#?V0
   \   00005E   12....       LCALL     ?PUSH_XSTACK_I_TWO
   \   000061   75..02       MOV       ?V0,#0x2
   \   000064   75..00       MOV       ?V1,#0x0
   \   000067   78..         MOV       R0,#?V0
   \   000069   12....       LCALL     ?PUSH_XSTACK_I_TWO
   \   00006C   7C00         MOV       R4,#0x0
   \   00006E   7D00         MOV       R5,#0x0
   \   000070   7A00         MOV       R2,#0x0
   \   000072   7B03         MOV       R3,#0x3
   \   000074   12....       LCALL     ??Subroutine57_0 & 0xFFFF
   \                     ??CrossCallReturnLabel_99:
   \   000077   12....       LCALL     ?DEALLOC_XSTACK8
   \   00007A   E9           MOV       A,R1
   \   00007B   6003         JZ        $+5
   \   00007D   02....       LJMP      ??BindCopyBackupToNewNV_2 & 0xFFFF
   1177              {
   1178                bindTableIndex_t i;
   1179                uint16 validBackupRecs = 0;
   \   000080   85..82       MOV       DPL,?XSP + 0
   \   000083   85..83       MOV       DPH,?XSP + 1
   \   000086   E4           CLR       A
   \   000087   F0           MOVX      @DPTR,A
   \   000088   A3           INC       DPTR
   \   000089   F0           MOVX      @DPTR,A
   1180                BindingEntry_t backupRec;
   1181          
   1182                // Read in the device list. This loop will stop when:
   1183                // The total number of valid records has been reached either because:
   1184                //          The new table is full of valid records OR
   1185                //          The old table has less valid records than the size of the table
   1186                for ( i = 0; ( validBackupRecs < gNWK_MAX_BINDING_ENTRIES ) && ( validBackupRecs < hdrBackup.numRecs ); i++ )
   \   00008A   75..00       MOV       ?V0,#0x0
   \   00008D   806A         SJMP      ??BindCopyBackupToNewNV_3
   1187                {
   1188                  if ( osal_nv_read( ZCD_NV_DUPLICATE_BINDING_TABLE,
   1189                                    (uint16)(sizeof(nvBindingHdr_t) + (i * NV_BIND_REC_SIZE)),
   1190                                    NV_BIND_REC_SIZE, &backupRec ) == ZSuccess )
   \                     ??BindCopyBackupToNewNV_4:
   \   00008F                ; Setup parameters for call to function osal_nv_read
   \   00008F   7404         MOV       A,#0x4
   \   000091   12....       LCALL     ?XSTACK_DISP100_8
   \   000094   88..         MOV       ?V4,R0
   \   000096   89..         MOV       ?V5,R1
   \   000098   78..         MOV       R0,#?V4
   \   00009A   12....       LCALL     ?PUSH_XSTACK_I_TWO
   \   00009D   90....       MOV       DPTR,#gBIND_REC_SIZE
   \   0000A0   12....       LCALL     ?PUSH_XSTACK8_C_TWO
   \   0000A3   A8..         MOV       R0,?V0
   \   0000A5   12....       LCALL     ?Subroutine10 & 0xFFFF
   \                     ??CrossCallReturnLabel_8:
   \   0000A8   12....       LCALL     ??Subroutine58_0 & 0xFFFF
   \                     ??CrossCallReturnLabel_102:
   \   0000AB   7A00         MOV       R2,#0x0
   \   0000AD   7B03         MOV       R3,#0x3
   \   0000AF   12....       LCALL     ??Subroutine57_0 & 0xFFFF
   \                     ??CrossCallReturnLabel_100:
   \   0000B2   12....       LCALL     ?DEALLOC_XSTACK8
   \   0000B5   E9           MOV       A,R1
   \   0000B6   6003         JZ        $+5
   \   0000B8   02....       LJMP      ??BindCopyBackupToNewNV_2 & 0xFFFF
   1191                  {
   1192                    if ( backupRec.srcEP != NV_BIND_EMPTY )
   \   0000BB   7404         MOV       A,#0x4
   \   0000BD   12....       LCALL     ?XSTACK_DISP0_8
   \   0000C0   E0           MOVX      A,@DPTR
   \   0000C1   F4           CPL       A
   \   0000C2   6033         JZ        ??CrossCallReturnLabel_38
   1193                    {
   1194                      // Save the valid record into the NEW NV table.
   1195                      if ( osal_nv_write( ZCD_NV_BINDING_TABLE,
   1196                                          (uint16)((sizeof(nvBindingHdr_t)) + (validBackupRecs * NV_BIND_REC_SIZE)),
   1197                                          NV_BIND_REC_SIZE, &backupRec ) != ZSuccess )
   \   0000C4                ; Setup parameters for call to function osal_nv_write
   \   0000C4   7404         MOV       A,#0x4
   \   0000C6   12....       LCALL     ?XSTACK_DISP100_8
   \   0000C9   88..         MOV       ?V4,R0
   \   0000CB   89..         MOV       ?V5,R1
   \   0000CD   78..         MOV       R0,#?V4
   \   0000CF   12....       LCALL     ?PUSH_XSTACK_I_TWO
   \   0000D2   90....       MOV       DPTR,#gBIND_REC_SIZE
   \   0000D5   12....       LCALL     ?PUSH_XSTACK8_C_TWO
   \   0000D8   7404         MOV       A,#0x4
   \   0000DA   12....       LCALL     ?XSTACK_DISP0_8
   \   0000DD   12....       LCALL     ??Subroutine45_0 & 0xFFFF
   \                     ??CrossCallReturnLabel_73:
   \   0000E0   12....       LCALL     ?Subroutine10 & 0xFFFF
   \                     ??CrossCallReturnLabel_9:
   \   0000E3   FA           MOV       R2,A
   \   0000E4   85....       MOV       ?B,?V4
   \   0000E7   E9           MOV       A,R1
   \   0000E8   12....       LCALL     ?Subroutine40 & 0xFFFF
   \                     ??CrossCallReturnLabel_103:
   \   0000EB   12....       LCALL     ??Subroutine54_0 & 0xFFFF
   \                     ??CrossCallReturnLabel_91:
   \   0000EE   12....       LCALL     ?DEALLOC_XSTACK8
   \   0000F1   E9           MOV       A,R1
   \   0000F2   7072         JNZ       ??BindCopyBackupToNewNV_2
   1198                      {
   1199                         status = ZFailure;
   1200                         break; // Terminate the loop as soon as a problem with NV is detected
   1201                      }
   1202          
   1203                      validBackupRecs++;
   \   0000F4   12....       LCALL     ?Subroutine26 & 0xFFFF
   1204                    }
   1205                  }
   1206                  else
   1207                  {
   1208                     status = ZFailure;
   1209                     break; // Terminate the loop as soon as a problem with NV is detected
   1210                  }
   1211                }
   \                     ??CrossCallReturnLabel_38:
   \   0000F7   05..         INC       ?V0
   \                     ??BindCopyBackupToNewNV_3:
   \   0000F9   85..82       MOV       DPL,?XSP + 0
   \   0000FC   85..83       MOV       DPH,?XSP + 1
   \   0000FF   C082         PUSH      DPL
   \   000101   C083         PUSH      DPH
   \   000103   90....       MOV       DPTR,#gNWK_MAX_BINDING_ENTRIES
   \   000106   E4           CLR       A
   \   000107   93           MOVC      A,@A+DPTR
   \   000108   F8           MOV       R0,A
   \   000109   D083         POP       DPH
   \   00010B   D082         POP       DPL
   \   00010D   C3           CLR       C
   \   00010E   E0           MOVX      A,@DPTR
   \   00010F   98           SUBB      A,R0
   \   000110   A3           INC       DPTR
   \   000111   E0           MOVX      A,@DPTR
   \   000112   9400         SUBB      A,#0x0
   \   000114   5021         JNC       ??BindCopyBackupToNewNV_5
   \   000116   85..82       MOV       DPL,?XSP + 0
   \   000119   85..83       MOV       DPH,?XSP + 1
   \   00011C   C082         PUSH      DPL
   \   00011E   C083         PUSH      DPH
   \   000120   7402         MOV       A,#0x2
   \   000122   12....       LCALL     ?XSTACK_DISP0_8
   \   000125   12....       LCALL     ??Subroutine45_0 & 0xFFFF
   \                     ??CrossCallReturnLabel_74:
   \   000128   D083         POP       DPH
   \   00012A   D082         POP       DPL
   \   00012C   C3           CLR       C
   \   00012D   E0           MOVX      A,@DPTR
   \   00012E   98           SUBB      A,R0
   \   00012F   A3           INC       DPTR
   \   000130   E0           MOVX      A,@DPTR
   \   000131   99           SUBB      A,R1
   \   000132   5003         JNC       $+5
   \   000134   02....       LJMP      ??BindCopyBackupToNewNV_4 & 0xFFFF
   1212          
   1213                // Only save the header and delete the duplicate element if the previous
   1214                // process was successful
   1215                if ( status == ZSuccess )
   1216                {
   1217                  // Save off the header
   1218                  if ( osal_nv_write( ZCD_NV_BINDING_TABLE, 0,
   1219                                      sizeof(nvBindingHdr_t), &validBackupRecs ) == ZSuccess )
   \                     ??BindCopyBackupToNewNV_5:
   \   000137                ; Setup parameters for call to function osal_nv_write
   \   000137   A8..         MOV       R0,?XSP + 0
   \   000139   A9..         MOV       R1,?XSP + 1
   \   00013B   88..         MOV       ?V0,R0
   \   00013D   89..         MOV       ?V1,R1
   \   00013F   78..         MOV       R0,#?V0
   \   000141   12....       LCALL     ?PUSH_XSTACK_I_TWO
   \   000144   75..02       MOV       ?V0,#0x2
   \   000147   75..00       MOV       ?V1,#0x0
   \   00014A   78..         MOV       R0,#?V0
   \   00014C   12....       LCALL     ?PUSH_XSTACK_I_TWO
   \   00014F   12....       LCALL     ?Subroutine30 & 0xFFFF
   \                     ??CrossCallReturnLabel_89:
   \   000152   12....       LCALL     ?DEALLOC_XSTACK8
   \   000155   E9           MOV       A,R1
   \   000156   700E         JNZ       ??BindCopyBackupToNewNV_2
   1220                  {
   1221                    // Delete the duplicate NV Item, once the data has been stored in the NEW table
   1222                    if ( osal_nv_delete( ZCD_NV_DUPLICATE_BINDING_TABLE, dupLen ) != ZSuccess )
   \   000158                ; Setup parameters for call to function osal_nv_delete
   \   000158   EE           MOV       A,R6
   \   000159   FC           MOV       R4,A
   \   00015A   EF           MOV       A,R7
   \   00015B   FD           MOV       R5,A
   \   00015C   7A00         MOV       R2,#0x0
   \   00015E   7B03         MOV       R3,#0x3
   \   000160   12....       LCALL     `??osal_nv_delete::?relay`; Banked call to: osal_nv_delete
   \   000163   E9           MOV       A,R1
   \   000164   6003         JZ        ??BindCopyBackupToNewNV_6
   1223                    {
   1224                      status = ZFailure;
   1225                    }
   1226                  }
   1227                  else
   1228                  {
   1229                    status = ZFailure;
   1230                  }
   1231                }
   1232              }
   1233              else
   1234              {
   1235                status = ZFailure;
   1236              }
   1237            }
   1238            else
   1239            {
   1240              status = ZFailure;
   \                     ??BindCopyBackupToNewNV_2:
   \   000166   75..01       MOV       ?V2,#0x1
   1241            }
   1242          
   1243            return ( status );
   \                     ??BindCopyBackupToNewNV_6:
   \   000169   A9..         MOV       R1,?V2
   \   00016B   7412         MOV       A,#0x12
   \   00016D   02....       LJMP      ?Subroutine4 & 0xFFFF
   1244          }

   \                                 In  segment BANKED_CODE, align 1, keep-with-next
   \                     ?Subroutine31:
   \   000000   7A41         MOV       R2,#0x41
   \   000002   7B00         MOV       R3,#0x0
   \   000004                REQUIRE ??Subroutine53_0
   \   000004                ; // Fall through to label ??Subroutine53_0

   \                                 In  segment BANKED_CODE, align 1, keep-with-next
   \                     ??Subroutine53_0:
   \   000000   12....       LCALL     `??osal_nv_item_len::?relay`; Banked call to: osal_nv_item_len
   \   000003   8A..         MOV       ?V4,R2
   \   000005   8B..         MOV       ?V5,R3
   \   000007   22           RET

   \                                 In  segment BANKED_CODE, align 1, keep-with-next
   \                     ?Subroutine10:
   \   000000   90....       MOV       DPTR,#gBIND_REC_SIZE
   \   000003   E4           CLR       A
   \   000004   93           MOVC      A,@A+DPTR
   \   000005   F5..         MOV       ?V4,A
   \   000007   7401         MOV       A,#0x1
   \   000009   93           MOVC      A,@A+DPTR
   \   00000A   F5..         MOV       ?V5,A
   \   00000C   E8           MOV       A,R0
   \   00000D   85....       MOV       ?B,?V4
   \   000010   A4           MUL       AB
   \   000011   C8           XCH       A,R0
   \   000012   AA..         MOV       R2,?B
   \   000014   85....       MOV       ?B,?V5
   \   000017   A4           MUL       AB
   \   000018   2A           ADD       A,R2
   \   000019   22           RET

   \                                 In  segment BANKED_CODE, align 1, keep-with-next
   \                     ??Subroutine57_0:
   \   000000   12....       LCALL     `??osal_nv_read::?relay`; Banked call to: osal_nv_read
   \   000003   7404         MOV       A,#0x4
   \   000005   22           RET

   \                                 In  segment BANKED_CODE, align 1, keep-with-next
   \                     ?Subroutine26:
   \   000000   85..82       MOV       DPL,?XSP + 0
   \   000003   85..83       MOV       DPH,?XSP + 1
   \   000006   E0           MOVX      A,@DPTR
   \   000007   2401         ADD       A,#0x1
   \   000009   F0           MOVX      @DPTR,A
   \   00000A   A3           INC       DPTR
   \   00000B   E0           MOVX      A,@DPTR
   \   00000C   3400         ADDC      A,#0x0
   \   00000E   F0           MOVX      @DPTR,A
   \   00000F   22           RET

   \                                 In  segment BANKED_CODE, align 1, keep-with-next
   \                     ?Subroutine40:
   \   000000   A4           MUL       AB
   \   000001   2A           ADD       A,R2
   \   000002                REQUIRE ??Subroutine58_0
   \   000002                ; // Fall through to label ??Subroutine58_0

   \                                 In  segment BANKED_CODE, align 1, keep-with-next
   \                     ??Subroutine58_0:
   \   000000   F9           MOV       R1,A
   \   000001   E8           MOV       A,R0
   \   000002   2402         ADD       A,#0x2
   \   000004   FC           MOV       R4,A
   \   000005   E4           CLR       A
   \   000006   39           ADDC      A,R1
   \   000007   FD           MOV       R5,A
   \   000008   22           RET
   1245          #endif // !DONT_UPGRADE_BIND
   1246          
   1247          #if !defined ( DONT_UPGRADE_BIND )
   1248          /*********************************************************************
   1249           * @fn          BindUpgradeTableInNV
   1250           *
   1251           * @brief       Verifies if the existing table in NV has different size
   1252           *              than the table defined by parameters in the current code.
   1253           *              If different, creates a backup table, deletes the existing
   1254           *              table and creates the new table with the new size. After
   1255           *              this process is done ZCD_NV_BINDING_TABLE NV item contains
   1256           *              only valid records retrieved from the original table, up to
   1257           *              the maximum number of records defined by gNWK_MAX_BINDING_ENTRIES
   1258           *
   1259           * @param       none
   1260           *
   1261           * @return      ZSuccess - the Update process was sucessful.
   1262           *              ZFailure - otherwise.
   1263           */

   \                                 In  segment BANKED_CODE, align 1, keep-with-next
   1264          static uint8 BindUpgradeTableInNV( void )
   \                     BindUpgradeTableInNV:
   1265          {
   \   000000                REQUIRE ?V0
   \   000000                REQUIRE ?V1
   \   000000                REQUIRE ?V2
   \   000000                REQUIRE ?V4
   \   000000                REQUIRE ?V5
   \   000000   74F2         MOV       A,#-0xe
   \   000002   12....       LCALL     ?BANKED_ENTER_XDATA
   \   000005                ; Saved register size: 14
   \   000005                ; Auto size: 2
   \   000005   74FE         MOV       A,#-0x2
   \   000007   12....       LCALL     ?ALLOC_XSTACK8
   1266            uint8 status = ZSuccess;
   \   00000A   75..00       MOV       ?V2,#0x0
   1267            nvBindingHdr_t hdr;
   1268            uint16 dupLen;
   1269            uint16 bindLen;
   1270            uint16 newLen;
   1271            bool duplicateReady = FALSE;
   1272          
   1273            // Size of the Binding table based on current paramenters in the code
   1274            newLen = sizeof(nvBindingHdr_t) + NV_BIND_ITEM_SIZE;
   \   00000D   12....       LCALL     ?Subroutine6 & 0xFFFF
   \                     ??CrossCallReturnLabel_3:
   \   000010   F5..         MOV       ?V0,A
   \   000012   E4           CLR       A
   \   000013   39           ADDC      A,R1
   \   000014   F5..         MOV       ?V1,A
   1275          
   1276            // Size of the Binding table NV item, this is the whole size of the item,
   1277            // it could inculde invalid records also
   1278            bindLen = osal_nv_item_len( ZCD_NV_BINDING_TABLE );
   \   000016                ; Setup parameters for call to function osal_nv_item_len
   \   000016   12....       LCALL     ?Subroutine31 & 0xFFFF
   \                     ??CrossCallReturnLabel_86:
   \   000019   AE..         MOV       R6,?V4
   \   00001B   AF..         MOV       R7,?V5
   1279          
   1280            // Get the number of valid records from the Binding table
   1281            osal_nv_read( ZCD_NV_BINDING_TABLE, 0, sizeof(nvBindingHdr_t), &hdr );
   \   00001D                ; Setup parameters for call to function osal_nv_read
   \   00001D   A8..         MOV       R0,?XSP + 0
   \   00001F   A9..         MOV       R1,?XSP + 1
   \   000021   88..         MOV       ?V4,R0
   \   000023   89..         MOV       ?V5,R1
   \   000025   78..         MOV       R0,#?V4
   \   000027   12....       LCALL     ?PUSH_XSTACK_I_TWO
   \   00002A   75..02       MOV       ?V4,#0x2
   \   00002D   75..00       MOV       ?V5,#0x0
   \   000030   78..         MOV       R0,#?V4
   \   000032   12....       LCALL     ?PUSH_XSTACK_I_TWO
   \   000035   12....       LCALL     ?Subroutine32 & 0xFFFF
   \                     ??CrossCallReturnLabel_97:
   \   000038   12....       LCALL     ?DEALLOC_XSTACK8
   1282          
   1283            // Identify if there is a duplicate NV item, if it is there, that means an
   1284            // Upgrade process did not finish properly last time
   1285            // The length function will return 0 if the Backup NV ID does not exist.
   1286            dupLen = osal_nv_item_len( ZCD_NV_DUPLICATE_BINDING_TABLE );
   \   00003B                ; Setup parameters for call to function osal_nv_item_len
   \   00003B   7A00         MOV       R2,#0x0
   \   00003D   7B03         MOV       R3,#0x3
   \   00003F   12....       LCALL     ??Subroutine53_0 & 0xFFFF
   \                     ??CrossCallReturnLabel_87:
   \   000042   A9..         MOV       R1,?V5
   1287          
   1288            // A duplicate of the original Binding item will be done if:
   1289            // 1) A duplicate NV item DOES NOT exist AND the size of the original Binding
   1290            //    item in NV is different (larger/smaller) than the the length calculated
   1291            //    from the parameters in the code. If they are the same there is no need
   1292            //    to do the Upgrade process.
   1293            // 2) A duplicate NV item exists (probably because the previous upgrade
   1294            //    process was interrupted) and [the original Binding NV items exists AND
   1295            //    has valid recods (it is important to make sure that valid records exist
   1296            //    in the binding table because it is possible that the item was created
   1297            //    but the data was not copied in the previous upgrade process).
   1298            if ( ( ( dupLen == 0 ) && ( bindLen != newLen ) ) ||
   1299                 ( ( dupLen > 0 ) && ( bindLen > 0 ) && ( hdr.numRecs > 0 ) ) )
   \   000044   EA           MOV       A,R2
   \   000045   49           ORL       A,R1
   \   000046   700C         JNZ       ??BindUpgradeTableInNV_0
   \   000048   E5..         MOV       A,?V0
   \   00004A   6E           XRL       A,R6
   \   00004B   7003         JNZ       ??BindUpgradeTableInNV_1
   \   00004D   E5..         MOV       A,?V1
   \   00004F   6F           XRL       A,R7
   \                     ??BindUpgradeTableInNV_1:
   \   000050   700D         JNZ       ??BindUpgradeTableInNV_2
   \   000052   8041         SJMP      ??BindUpgradeTableInNV_3
   \                     ??BindUpgradeTableInNV_0:
   \   000054   EE           MOV       A,R6
   \   000055   4F           ORL       A,R7
   \   000056   602B         JZ        ??BindUpgradeTableInNV_4
   \   000058   12....       LCALL     ?Subroutine25 & 0xFFFF
   \                     ??CrossCallReturnLabel_94:
   \   00005B   EA           MOV       A,R2
   \   00005C   4B           ORL       A,R3
   \   00005D   6024         JZ        ??BindUpgradeTableInNV_4
   1300            {
   1301              // Create a copy from original NV item into a duplicate NV item
   1302              if ( ( status = nwkCreateDuplicateNV( ZCD_NV_BINDING_TABLE,
   1303                                                    ZCD_NV_DUPLICATE_BINDING_TABLE ) ) == ZSuccess )
   \                     ??BindUpgradeTableInNV_2:
   \   00005F                ; Setup parameters for call to function nwkCreateDuplicateNV
   \   00005F   7C00         MOV       R4,#0x0
   \   000061   7D03         MOV       R5,#0x3
   \   000063   7A41         MOV       R2,#0x41
   \   000065   7B00         MOV       R3,#0x0
   \   000067   12....       LCALL     `??nwkCreateDuplicateNV::?relay`; Banked call to: nwkCreateDuplicateNV
   \   00006A   E9           MOV       A,R1
   \   00006B   F8           MOV       R0,A
   \   00006C   F5..         MOV       ?V2,A
   \   00006E   7025         JNZ       ??BindUpgradeTableInNV_3
   1304              {
   1305                // Delete the original NV item once the duplicate is ready
   1306                if ( osal_nv_delete( ZCD_NV_BINDING_TABLE, bindLen ) != ZSuccess )
   \   000070                ; Setup parameters for call to function osal_nv_delete
   \   000070   EE           MOV       A,R6
   \   000071   FC           MOV       R4,A
   \   000072   EF           MOV       A,R7
   \   000073   FD           MOV       R5,A
   \   000074   7A41         MOV       R2,#0x41
   \   000076   7B00         MOV       R3,#0x0
   \   000078   12....       LCALL     `??osal_nv_delete::?relay`; Banked call to: osal_nv_delete
   \   00007B   E9           MOV       A,R1
   \   00007C   6009         JZ        ??BindUpgradeTableInNV_5
   1307                {
   1308                  status = ZFailure;
   \   00007E   75..01       MOV       ?V2,#0x1
   \   000081   8012         SJMP      ??BindUpgradeTableInNV_3
   1309                }
   1310                else
   1311                {
   1312                  duplicateReady = TRUE;
   1313                }
   1314              }
   1315            }
   1316            else if ( ( ( dupLen > 0 ) && ( bindLen == 0 ) ) ||
   1317                      ( ( dupLen > 0 ) && ( bindLen > 0 ) && ( hdr.numRecs == 0 ) ) )
   1318            {
   1319              // If for some reason a duplicate NV item was left in the system from a
   1320              // previous upgrade process and:
   1321              // 1) The original Binding NV item DOES NOT exist OR
   1322              // 2) The original Binding NV item exist, but has no valid records.
   1323              // it is necessary to rely in the data in the Duplicate item to create
   1324              // the Binding table
   1325              bindLen = dupLen;
   \                     ??BindUpgradeTableInNV_4:
   \   000083   AE..         MOV       R6,?V4
   \   000085   E9           MOV       A,R1
   \   000086   FF           MOV       R7,A
   1326          
   1327              duplicateReady = TRUE;
   1328            }
   1329          
   1330            if ( duplicateReady == TRUE )
   1331            {
   1332              // Creates the New Binding table, Copy data from backup and Delete backup NV ID
   1333              status = BindCopyBackupToNewNV( bindLen, newLen );
   \                     ??BindUpgradeTableInNV_5:
   \   000087                ; Setup parameters for call to function BindCopyBackupToNewNV
   \   000087   AC..         MOV       R4,?V0
   \   000089   AD..         MOV       R5,?V1
   \   00008B   EE           MOV       A,R6
   \   00008C   FA           MOV       R2,A
   \   00008D   EF           MOV       A,R7
   \   00008E   FB           MOV       R3,A
   \   00008F   12....       LCALL     `??BindCopyBackupToNewNV::?relay`; Banked call to: BindCopyBackupToNewNV
   \   000092   E9           MOV       A,R1
   \   000093   F5..         MOV       ?V2,A
   1334            }
   1335            return ( status );
   \                     ??BindUpgradeTableInNV_3:
   \   000095   A9..         MOV       R1,?V2
   \   000097   7402         MOV       A,#0x2
   \   000099   02....       LJMP      ?Subroutine4 & 0xFFFF
   1336          }

   \                                 In  segment BANKED_CODE, align 1, keep-with-next
   \                     ?Subroutine25:
   \   000000   85..82       MOV       DPL,?XSP + 0
   \   000003   85..83       MOV       DPH,?XSP + 1
   \   000006                REQUIRE ??Subroutine56_0
   \   000006                ; // Fall through to label ??Subroutine56_0

   \                                 In  segment BANKED_CODE, align 1, keep-with-next
   \                     ?Subroutine32:
   \   000000   7C00         MOV       R4,#0x0
   \   000002   7D00         MOV       R5,#0x0
   \   000004   7A41         MOV       R2,#0x41
   \   000006   7B00         MOV       R3,#0x0
   \   000008                REQUIRE ??Subroutine57_0
   \   000008                ; // Fall through to label ??Subroutine57_0
   1337          #endif // !DONT_UPGRADE_BIND
   1338          
   1339          /*********************************************************************
   1340           * @fn          BindRestoreFromNV
   1341           *
   1342           * @brief       Restore the binding table from NV
   1343           *
   1344           * @param       none
   1345           *
   1346           * @return      Number of entries restored
   1347           */

   \                                 In  segment BANKED_CODE, align 1, keep-with-next
   1348          uint16 BindRestoreFromNV( void )
   \                     BindRestoreFromNV:
   1349          {
   \   000000                REQUIRE ?V0
   \   000000                REQUIRE ?V1
   \   000000                REQUIRE ?V2
   \   000000                REQUIRE ?V3
   \   000000   74F4         MOV       A,#-0xc
   \   000002   12....       LCALL     ?BANKED_ENTER_XDATA
   \   000005                ; Saved register size: 12
   \   000005                ; Auto size: 2
   \   000005   74FE         MOV       A,#-0x2
   \   000007   12....       LCALL     ?ALLOC_XSTACK8
   1350            nvBindingHdr_t hdr;
   1351          
   1352            hdr.numRecs = 0;
   \   00000A   85..82       MOV       DPL,?XSP + 0
   \   00000D   85..83       MOV       DPH,?XSP + 1
   \   000010   E4           CLR       A
   \   000011   F0           MOVX      @DPTR,A
   \   000012   A3           INC       DPTR
   \   000013   F0           MOVX      @DPTR,A
   1353          
   1354          #if !defined ( DONT_UPGRADE_BIND )
   1355            if ( BindUpgradeTableInNV() == ZSuccess )
   \   000014                ; Setup parameters for call to function BindUpgradeTableInNV
   \   000014   12....       LCALL     `??BindUpgradeTableInNV::?relay`; Banked call to: BindUpgradeTableInNV
   \   000017   E9           MOV       A,R1
   \   000018   6003         JZ        $+5
   \   00001A   02....       LJMP      ??BindRestoreFromNV_0 & 0xFFFF
   1356          #endif
   1357            {
   1358              if ( osal_nv_read( ZCD_NV_BINDING_TABLE, 0, sizeof(nvBindingHdr_t), &hdr ) == ZSuccess )
   \   00001D                ; Setup parameters for call to function osal_nv_read
   \   00001D   A8..         MOV       R0,?XSP + 0
   \   00001F   A9..         MOV       R1,?XSP + 1
   \   000021   88..         MOV       ?V0,R0
   \   000023   89..         MOV       ?V1,R1
   \   000025   78..         MOV       R0,#?V0
   \   000027   12....       LCALL     ?PUSH_XSTACK_I_TWO
   \   00002A   75..02       MOV       ?V0,#0x2
   \   00002D   75..00       MOV       ?V1,#0x0
   \   000030   78..         MOV       R0,#?V0
   \   000032   12....       LCALL     ?PUSH_XSTACK_I_TWO
   \   000035   12....       LCALL     ?Subroutine32 & 0xFFFF
   \                     ??CrossCallReturnLabel_98:
   \   000038   12....       LCALL     ?DEALLOC_XSTACK8
   \   00003B   E9           MOV       A,R1
   \   00003C   705F         JNZ       ??BindRestoreFromNV_0
   1359              {
   1360                bindTableIndex_t x;
   1361                uint16 validRecsCount = 0;
   \   00003E   7E00         MOV       R6,#0x0
   \   000040   7F00         MOV       R7,#0x0
   1362          
   1363                // Read in the device list
   1364                for ( x = 0; ( x < gNWK_MAX_BINDING_ENTRIES ) && ( validRecsCount < hdr.numRecs ); x++ )
   \   000042   75..00       MOV       ?V0,#0x0
   \   000045   803A         SJMP      ??BindRestoreFromNV_1
   1365                {
   1366                  if ( osal_nv_read( ZCD_NV_BINDING_TABLE,
   1367                                     (uint16)(sizeof(nvBindingHdr_t) + (x * NV_BIND_REC_SIZE)),
   1368                                     NV_BIND_REC_SIZE, &BindingTable[x] ) == ZSUCCESS )
   \                     ??BindRestoreFromNV_2:
   \   000047                ; Setup parameters for call to function osal_nv_read
   \   000047   E5..         MOV       A,?V0
   \   000049   75..0E       MOV       ?B,#0xe
   \   00004C   A4           MUL       AB
   \   00004D   F8           MOV       R0,A
   \   00004E   A9..         MOV       R1,?B
   \   000050   74..         MOV       A,#BindingTable & 0xff
   \   000052   28           ADD       A,R0
   \   000053   F5..         MOV       ?V2,A
   \   000055   74..         MOV       A,#(BindingTable >> 8) & 0xff
   \   000057   39           ADDC      A,R1
   \   000058   F5..         MOV       ?V3,A
   \   00005A   78..         MOV       R0,#?V2
   \   00005C   12....       LCALL     ?PUSH_XSTACK_I_TWO
   \   00005F   90....       MOV       DPTR,#gBIND_REC_SIZE
   \   000062   12....       LCALL     ?PUSH_XSTACK8_C_TWO
   \   000065   A8..         MOV       R0,?V0
   \   000067   12....       LCALL     ?Subroutine5 & 0xFFFF
   \                     ??CrossCallReturnLabel_0:
   \   00006A   12....       LCALL     ??Subroutine57_0 & 0xFFFF
   \                     ??CrossCallReturnLabel_101:
   \   00006D   12....       LCALL     ?DEALLOC_XSTACK8
   \   000070   E9           MOV       A,R1
   \   000071   700C         JNZ       ??BindRestoreFromNV_3
   1369                  {
   1370                    if ( BindingTable[x].srcEP != NV_BIND_EMPTY )
   \   000073   E5..         MOV       A,?V0
   \   000075   12....       LCALL     ?Subroutine7 & 0xFFFF
   \                     ??CrossCallReturnLabel_57:
   \   000078   6005         JZ        ??BindRestoreFromNV_3
   1371                    {
   1372                      validRecsCount++;
   \   00007A   0E           INC       R6
   \   00007B   EE           MOV       A,R6
   \   00007C   7001         JNZ       ??BindRestoreFromNV_3
   \   00007E   0F           INC       R7
   1373                    }
   1374                  }
   1375                }
   \                     ??BindRestoreFromNV_3:
   \   00007F   05..         INC       ?V0
   \                     ??BindRestoreFromNV_1:
   \   000081   90....       MOV       DPTR,#gNWK_MAX_BINDING_ENTRIES
   \   000084   E4           CLR       A
   \   000085   93           MOVC      A,@A+DPTR
   \   000086   F8           MOV       R0,A
   \   000087   E5..         MOV       A,?V0
   \   000089   C3           CLR       C
   \   00008A   98           SUBB      A,R0
   \   00008B   5010         JNC       ??BindRestoreFromNV_0
   \   00008D   85..82       MOV       DPL,?XSP + 0
   \   000090   85..83       MOV       DPH,?XSP + 1
   \   000093   12....       LCALL     ??Subroutine45_0 & 0xFFFF
   1376              }
   1377            }
   \                     ??CrossCallReturnLabel_75:
   \   000096   C3           CLR       C
   \   000097   EE           MOV       A,R6
   \   000098   98           SUBB      A,R0
   \   000099   EF           MOV       A,R7
   \   00009A   99           SUBB      A,R1
   \   00009B   40AA         JC        ??BindRestoreFromNV_2
   1378            return ( hdr.numRecs );
   \                     ??BindRestoreFromNV_0:
   \   00009D   12....       LCALL     ?Subroutine25 & 0xFFFF
   \                     ??CrossCallReturnLabel_95:
   \   0000A0   7402         MOV       A,#0x2
   \   0000A2   02....       LJMP      ?Subroutine3 & 0xFFFF
   1379          }

   \                                 In  segment BANKED_CODE, align 1, keep-with-next
   \                     ?Subroutine5:
   \   000000   90....       MOV       DPTR,#gBIND_REC_SIZE
   \   000003   E4           CLR       A
   \   000004   93           MOVC      A,@A+DPTR
   \   000005   F5..         MOV       ?V2,A
   \   000007   7401         MOV       A,#0x1
   \   000009   93           MOVC      A,@A+DPTR
   \   00000A   F5..         MOV       ?V3,A
   \   00000C   E8           MOV       A,R0
   \   00000D   85....       MOV       ?B,?V2
   \   000010   A4           MUL       AB
   \   000011   C8           XCH       A,R0
   \   000012   AA..         MOV       R2,?B
   \   000014   85....       MOV       ?B,?V3
   \   000017   12....       LCALL     ?Subroutine40 & 0xFFFF
   \                     ??CrossCallReturnLabel_104:
   \   00001A   7A41         MOV       R2,#0x41
   \   00001C   7B00         MOV       R3,#0x0
   \   00001E   22           RET
   1380          
   1381          /*********************************************************************
   1382           * @fn          BindWriteNV
   1383           *
   1384           * @brief       Save the Binding Table in NV
   1385           *
   1386           * @param       none
   1387           *
   1388           * @return      none
   1389           */

   \                                 In  segment BANKED_CODE, align 1, keep-with-next
   1390          void BindWriteNV( void )
   \                     BindWriteNV:
   1391          {
   \   000000                REQUIRE ?V0
   \   000000                REQUIRE ?V1
   \   000000                REQUIRE ?V2
   \   000000                REQUIRE ?V3
   \   000000                REQUIRE ?V4
   \   000000                REQUIRE ?V5
   \   000000                REQUIRE ?V6
   \   000000   74F1         MOV       A,#-0xf
   \   000002   12....       LCALL     ?BANKED_ENTER_XDATA
   \   000005                ; Saved register size: 15
   \   000005                ; Auto size: 16
   \   000005   74F0         MOV       A,#-0x10
   \   000007   12....       LCALL     ?ALLOC_XSTACK8
   1392            BindingEntry_t *pBind;
   1393            BindingEntry_t bind;
   1394            nvBindingHdr_t hdr;
   1395            bindTableIndex_t x;
   1396          
   1397            hdr.numRecs = 0;
   \   00000A   85..82       MOV       DPL,?XSP + 0
   \   00000D   85..83       MOV       DPH,?XSP + 1
   \   000010   E4           CLR       A
   \   000011   F0           MOVX      @DPTR,A
   \   000012   A3           INC       DPTR
   \   000013   F0           MOVX      @DPTR,A
   1398          
   1399            for ( x = 0; x < gNWK_MAX_BINDING_ENTRIES; x++ )
   \   000014   7E00         MOV       R6,#0x0
   \   000016   805C         SJMP      ??BindWriteNV_0
   1400            {
   1401              pBind = &BindingTable[x];
   \                     ??BindWriteNV_1:
   \   000018   EE           MOV       A,R6
   \   000019   75..0E       MOV       ?B,#0xe
   \   00001C   A4           MUL       AB
   \   00001D   F8           MOV       R0,A
   \   00001E   A9..         MOV       R1,?B
   \   000020   74..         MOV       A,#BindingTable & 0xff
   \   000022   28           ADD       A,R0
   \   000023   F5..         MOV       ?V0,A
   \   000025   74..         MOV       A,#(BindingTable >> 8) & 0xff
   \   000027   39           ADDC      A,R1
   \   000028   F5..         MOV       ?V1,A
   1402          
   1403              osal_memcpy( &bind, pBind, gBIND_REC_SIZE );
   \   00002A                ; Setup parameters for call to function osal_memcpy
   \   00002A   85....       MOV       ?V4,?V0
   \   00002D   F5..         MOV       ?V5,A
   \   00002F   75..00       MOV       ?V6,#0x0
   \   000032   78..         MOV       R0,#?V4
   \   000034   12....       LCALL     ?PUSH_XSTACK_I_THREE
   \   000037   12....       LCALL     ?Subroutine14 & 0xFFFF
   \                     ??CrossCallReturnLabel_19:
   \   00003A   7405         MOV       A,#0x5
   \   00003C   12....       LCALL     ?XSTACK_DISP101_8
   \   00003F   12....       LCALL     `??osal_memcpy::?relay`; Banked call to: osal_memcpy
   \   000042   7403         MOV       A,#0x3
   \   000044   12....       LCALL     ?DEALLOC_XSTACK8
   1404          
   1405              // Save the record to NV
   1406              osal_nv_write( ZCD_NV_BINDING_TABLE,
   1407                             (uint16)((sizeof(nvBindingHdr_t)) + (x * NV_BIND_REC_SIZE)),
   1408                             NV_BIND_REC_SIZE, &bind );
   \   000047                ; Setup parameters for call to function osal_nv_write
   \   000047   7402         MOV       A,#0x2
   \   000049   12....       LCALL     ?XSTACK_DISP100_8
   \   00004C   88..         MOV       ?V2,R0
   \   00004E   89..         MOV       ?V3,R1
   \   000050   78..         MOV       R0,#?V2
   \   000052   12....       LCALL     ?PUSH_XSTACK_I_TWO
   \   000055   90....       MOV       DPTR,#gBIND_REC_SIZE
   \   000058   12....       LCALL     ?PUSH_XSTACK8_C_TWO
   \   00005B   EE           MOV       A,R6
   \   00005C   F8           MOV       R0,A
   \   00005D   12....       LCALL     ?Subroutine5 & 0xFFFF
   \                     ??CrossCallReturnLabel_1:
   \   000060   12....       LCALL     ??Subroutine55_0 & 0xFFFF
   \                     ??CrossCallReturnLabel_92:
   \   000063   12....       LCALL     ?DEALLOC_XSTACK8
   1409          
   1410              if ( pBind->srcEP != NV_BIND_EMPTY )
   \   000066   85..82       MOV       DPL,?V0
   \   000069   85..83       MOV       DPH,?V1
   \   00006C   E0           MOVX      A,@DPTR
   \   00006D   F4           CPL       A
   \   00006E   6003         JZ        ??CrossCallReturnLabel_39
   1411              {
   1412                hdr.numRecs++;
   \   000070   12....       LCALL     ?Subroutine26 & 0xFFFF
   1413              }
   1414            }
   \                     ??CrossCallReturnLabel_39:
   \   000073   0E           INC       R6
   \                     ??BindWriteNV_0:
   \   000074   90....       MOV       DPTR,#gNWK_MAX_BINDING_ENTRIES
   \   000077   E4           CLR       A
   \   000078   93           MOVC      A,@A+DPTR
   \   000079   F8           MOV       R0,A
   \   00007A   EE           MOV       A,R6
   \   00007B   C3           CLR       C
   \   00007C   98           SUBB      A,R0
   \   00007D   4099         JC        ??BindWriteNV_1
   1415          
   1416            // Save off the header
   1417            osal_nv_write( ZCD_NV_BINDING_TABLE, 0, sizeof(nvBindingHdr_t), &hdr );
   \   00007F                ; Setup parameters for call to function osal_nv_write
   \   00007F   A8..         MOV       R0,?XSP + 0
   \   000081   A9..         MOV       R1,?XSP + 1
   \   000083   88..         MOV       ?V0,R0
   \   000085   89..         MOV       ?V1,R1
   \   000087   78..         MOV       R0,#?V0
   \   000089   12....       LCALL     ?PUSH_XSTACK_I_TWO
   \   00008C   75..02       MOV       ?V0,#0x2
   \   00008F   75..00       MOV       ?V1,#0x0
   \   000092   78..         MOV       R0,#?V0
   \   000094   12....       LCALL     ?PUSH_XSTACK_I_TWO
   \   000097   12....       LCALL     ?Subroutine30 & 0xFFFF
   \                     ??CrossCallReturnLabel_90:
   \   00009A   12....       LCALL     ?DEALLOC_XSTACK8
   1418          }
   \   00009D   7410         MOV       A,#0x10
   \   00009F   12....       LCALL     ?DEALLOC_XSTACK8
   \   0000A2   7F07         MOV       R7,#0x7
   \   0000A4   02....       LJMP      ?BANKED_LEAVE_XDATA
   1419          
   1420          #else // !BINDINGTABLE_NV_SINGLES
   1421          /*********************************************************************
   1422           * @fn          BindInitNV
   1423           *
   1424           * @brief       Initialize the Binding NV Item
   1425           *
   1426           * @param       none
   1427           *
   1428           * @return      ZSUCCESS if successful, NV_ITEM_UNINIT if item did not
   1429           *              exist in NV, NV_OPER_FAILED if failure.
   1430           */
   1431          byte BindInitNV( void )
   1432          {
   1433            bindTableIndex_t x;
   1434          
   1435            for ( x = 0; x < gNWK_MAX_BINDING_ENTRIES; x++ )
   1436            {
   1437              // Initialize each binding record
   1438              osal_nv_item_init_ex( ZCD_NV_EX_BINDING_TABLE, x, NV_BIND_REC_SIZE, NULL );
   1439            }
   1440            return ( ZSUCCESS );
   1441          }
   1442          
   1443          /*********************************************************************
   1444           * @fn          BindSetDefaultNV
   1445           *
   1446           * @brief       Write the defaults to NV
   1447           *
   1448           * @param       none
   1449           *
   1450           * @return      none
   1451           */
   1452          void BindSetDefaultNV( void )
   1453          {
   1454            BindingEntry_t bind;
   1455            bindTableIndex_t x;
   1456          
   1457            // Initialize a binding record
   1458            osal_memset( &bind, 0xFF, sizeof ( BindingEntry_t ) );
   1459          
   1460            for ( x = 0; x < gNWK_MAX_BINDING_ENTRIES; x++ )
   1461            {
   1462              // Over write each binding record with an "empty" record
   1463              osal_nv_write_ex( ZCD_NV_EX_BINDING_TABLE, x, 0, NV_BIND_REC_SIZE, &bind );
   1464            }
   1465          }
   1466          
   1467          /*********************************************************************
   1468           * @fn          BindRestoreFromNV
   1469           *
   1470           * @brief       Restore the binding table from NV
   1471           *
   1472           * @param       none
   1473           *
   1474           * @return      Number of entries restored (non-emtpy)
   1475           */
   1476          uint16 BindRestoreFromNV( void )
   1477          {
   1478            bindTableIndex_t x;
   1479            uint16 validRecsCount = 0;
   1480          
   1481            // Read in the device list
   1482            for ( x = 0; x < gNWK_MAX_BINDING_ENTRIES; x++ )
   1483            {
   1484              if ( osal_nv_read_ex( ZCD_NV_EX_BINDING_TABLE, x, 0,
   1485                               (uint16)NV_BIND_REC_SIZE, &BindingTable[x] ) == ZSUCCESS )
   1486              {
   1487                // Check for non-empty record
   1488                if ( BindingTable[x].srcEP != NV_BIND_EMPTY )
   1489                {
   1490                  // Count non-empty records
   1491                  validRecsCount++;
   1492                }
   1493              }
   1494            }
   1495            return ( validRecsCount );
   1496          }
   1497          
   1498          /*********************************************************************
   1499           * @fn          BindWriteNV
   1500           *
   1501           * @brief       Copy the Binding Table in NV
   1502           *
   1503           * @param       none
   1504           *
   1505           * @return      none
   1506           */
   1507          void BindWriteNV( void )
   1508          {
   1509            bindTableIndex_t x;
   1510          
   1511            for ( x = 0; x < gNWK_MAX_BINDING_ENTRIES; x++ )
   1512            {
   1513              // Save the record to NV
   1514              osal_nv_write_ex( ZCD_NV_EX_BINDING_TABLE, x, 0,
   1515                               (uint16)NV_BIND_REC_SIZE, &BindingTable[x] );
   1516            }
   1517          }
   1518          #endif // BINDINGTABLE_NV_SINGLES
   1519          
   1520          /*********************************************************************
   1521          *********************************************************************/

   Maximum stack usage in bytes:

   ISTACK XSTACK Function
   ------ ------ --------
      2     52   BindCopyBackupToNewNV
        0     32   -> osal_nv_delete
        0     34   -> osal_nv_item_init
        0     32   -> osal_nv_item_len
        0     36   -> osal_nv_read
        0     36   -> osal_nv_write
      0     12   BindInitNV
        0     10   -> BindSetDefaultNV
        0     12   -> osal_nv_item_init
      0     18   BindRestoreFromNV
        0     14   -> BindUpgradeTableInNV
        0     18   -> osal_nv_read
      0     26   BindSetDefaultNV
        0     16   -> osal_nv_write
      0     34   BindUpgradeTableInNV
        0     16   -> BindCopyBackupToNewNV
        0     16   -> nwkCreateDuplicateNV
        0     16   -> osal_nv_delete
        0     16   -> osal_nv_item_len
        0     20   -> osal_nv_read
      0     35   BindWriteNV
        0     34   -> osal_memcpy
        0     35   -> osal_nv_write
      0      9   GetBindingTableEntry
      0     10   InitBindingTable
        0     10   -> osal_memset
      0     41   bindAddClusterIdToList
      1     37   bindAddEntry
        0     32   -> bindAddClusterIdToList
        0     32   -> bindAddrIndexGet
        0     32   -> bindAddrMgrLocalLoad
        0     32   -> bindFindEmpty
        0     32   -> bindIsClusterIDinList
        0     35   -> osal_memcpy
      2     45   bindAddrIndexGet
        2     13   -> AddrMgrEntryLookupExt
        2     13   -> AddrMgrEntryLookupNwk
        2     13   -> AddrMgrEntryUpdate
        2     13   -> AddrMgrExtAddrSet
      0     55   bindAddrMgrLocalLoad
        0     23   -> AddrMgrEntryUpdate
        0     23   -> AddrMgrExtAddrSet
        0     23   -> NLME_GetCoordExtAddr
        0     23   -> NLME_GetCoordShortAddr
        0     23   -> NLME_GetExtAddr
      2     25   bindAddressClear
        2     13   -> AddrMgrEntryRelease
      0      9   bindCapacity
      0     14   bindFind
        0     14   -> bindIsClusterIDinList
      2     32   bindFindEmpty
      0     12   bindFindExisting
        0     12   -> bindingAddrMgsHelperFind
      0     41   bindIsClusterIDinList
      0     14   bindNumBoundTo
        0     14   -> bindingAddrMgsHelperFind
      2      0   bindNumOfEntries
      0     12   bindNumReflections
        0     12   -> bindIsClusterIDinList
      0     11   bindRemoveClusterIdFromList
      0     12   bindRemoveDev
        0     12   -> bindAddressClear
        0     12   -> bindRemoveEntry
        0     12   -> bindingAddrMgsHelperFind
      2     12   bindRemoveEntry
        2      0   -> osal_memset
      0     10   bindRemoveSrcDev
        0     10   -> bindAddressClear
        0     10   -> bindRemoveEntry
      0     21   bindUpdateAddr
        0     21   -> bindingAddrMgsHelperFind
      0     22   bindingAddrMgsHelperConvert
        0     22   -> AddrMgrEntryGet
        0     22   -> sAddrExtCpy
      2     13   bindingAddrMgsHelperConvertShort
        2     13   -> AddrMgrEntryGet
      2     34   bindingAddrMgsHelperFind
        2     13   -> AddrMgrEntryLookupExt
        2     13   -> AddrMgrEntryLookupNwk
        2     13   -> AddrMgrExtAddrSet


   Segment part sizes:

   Bytes  Function/Label
   -----  --------------
       5  ??Subroutine42_0
       5  ??Subroutine43_0
       5  ??Subroutine44_0
       6  ??Subroutine45_0
       5  ??Subroutine46_0
       9  ??Subroutine47_0
       5  ??Subroutine48_0
       6  ??Subroutine49_0
       6  ??Subroutine50_0
       5  ??Subroutine51_0
       7  ??Subroutine52_0
       8  ??Subroutine53_0
       4  ??Subroutine54_0
       6  ??Subroutine55_0
       6  ??Subroutine56_0
       6  ??Subroutine57_0
       9  ??Subroutine58_0
       3  ?Subroutine0
       2  ?Subroutine1
      26  ?Subroutine10
      11  ?Subroutine11
      13  ?Subroutine12
       6  ?Subroutine13
      11  ?Subroutine14
       9  ?Subroutine15
       4  ?Subroutine16
       4  ?Subroutine17
       7  ?Subroutine18
      19  ?Subroutine19
       5  ?Subroutine2
      11  ?Subroutine20
       7  ?Subroutine21
       7  ?Subroutine22
       8  ?Subroutine23
       4  ?Subroutine24
       6  ?Subroutine25
      16  ?Subroutine26
       5  ?Subroutine27
       7  ?Subroutine28
      15  ?Subroutine29
       3  ?Subroutine3
       4  ?Subroutine30
       4  ?Subroutine31
       8  ?Subroutine32
      19  ?Subroutine33
      11  ?Subroutine34
      11  ?Subroutine35
      11  ?Subroutine36
      10  ?Subroutine37
       4  ?Subroutine38
      15  ?Subroutine39
       3  ?Subroutine4
       2  ?Subroutine40
       5  ?Subroutine41
      31  ?Subroutine5
      36  ?Subroutine6
       7  ?Subroutine7
      12  ?Subroutine8
      10  ?Subroutine9
     368  BindCopyBackupToNewNV
      49  BindInitNV
     165  BindRestoreFromNV
      55  BindSetDefaultNV
     156  BindUpgradeTableInNV
     167  BindWriteNV
      83  GetBindingTableEntry
     116  InitBindingTable
      68  bindAddClusterIdToList
     465  bindAddEntry
     114  bindAddrIndexGet
     144  bindAddrMgrLocalLoad
       1  bindAddrMgrLocalLoaded
      82  bindAddressClear
      62  bindCapacity
      97  bindFind
      38  bindFindEmpty
     196  bindFindExisting
      69  bindIsClusterIDinList
     161  bindNumBoundTo
      50  bindNumOfEntries
      69  bindNumReflections
     139  bindRemoveClusterIdFromList
     155  bindRemoveDev
      17  bindRemoveEntry
      77  bindRemoveSrcDev
     108  bindUpdateAddr
      75  bindingAddrMgsHelperConvert
      31  bindingAddrMgsHelperConvertShort
      44  bindingAddrMgsHelperFind
       2  pBindInitNV
       2  pBindRestoreFromNV
       2  pBindSetDefaultNV
       2  pBindWriteNV
       2  pbindAddEntry
       2  pbindNumOfEntries
       2  pbindRemoveDev
     174  -- Other

 
 3 935 bytes in segment BANKED_CODE
   174 bytes in segment BANK_RELAYS
    15 bytes in segment XDATA_Z
 
   174 bytes of CODE     memory
 3 935 bytes of HUGECODE memory
    15 bytes of XDATA    memory

Errors: none
Warnings: none
