///////////////////////////////////////////////////////////////////////////////
//
// IAR C/C++ Compiler V10.40.1.7397 for 8051              01/May/2021  16:40:02
// Copyright 2004-2021 IAR Systems AB.
//
//    Core               =  plain
//    Code model         =  banked
//    Data model         =  large
//    Calling convention =  xdata reentrant
//    Constant location  =  data_rom
//    Dptr setup         =  1,16
//                          
//    Source file        =  
//        E:\Texas Instruments\Z-Stack 3.0.2\Components\mt\MT_AF.c
//    Command line       =  
//        -f C:\Users\asus\AppData\Local\Temp\EW902.tmp ("E:\Texas
//        Instruments\Z-Stack 3.0.2\Components\mt\MT_AF.c" -D
//        BDB_FINDING_BINDING_CAPABILITY_ENABLED=0 -D TC_LINKKEY_JOIN -D
//        HAL_UART_DMA_RX_MAX=128 -D MAXMEMHEAP=2765 -D NWK_MAX_DEVICE_LIST=10
//        -D ZDSECMGR_TC_DEVICE_MAX=30 -D DISABLE_GREENPOWER_BASIC_PROXY -D
//        FEATURE_SYSTEM_STATS -D MT_GP_CB_FUNC -D ASSERT_RESET -D
//        FAKE_CRC_SHDW -lC "E:\Texas Instruments\Z-Stack
//        3.0.2\Projects\zstack\ZNP\CC253x\CC2530-ZNP-with-SBL\List" -lA
//        "E:\Texas Instruments\Z-Stack
//        3.0.2\Projects\zstack\ZNP\CC253x\CC2530-ZNP-with-SBL\List"
//        --diag_suppress Pe001,Pa010 -o "E:\Texas Instruments\Z-Stack
//        3.0.2\Projects\zstack\ZNP\CC253x\CC2530-ZNP-with-SBL\Obj" -e --debug
//        --core=plain --dptr=16,1 --data_model=large --code_model=banked
//        --calling_convention=xdata_reentrant --place_constants=data_rom
//        --nr_virtual_regs 16 -f "E:\Texas Instruments\Z-Stack
//        3.0.2\Projects\zstack\ZNP\CC253x\..\Source\znp.cfg"
//        (-DMAC_CFG_APP_PENDING_QUEUE=TRUE
//        "-DZSTACK_DEVICE_BUILD=(DEVICE_BUILD_COORDINATOR |
//        DEVICE_BUILD_ROUTER | DEVICE_BUILD_ENDDEVICE)" -DNWK_AUTO_POLL
//        -DZNP_RUN_WDOG=FALSE -DZNP_UART_BAUD=HAL_UART_BR_115200 -DZIGBEEPRO
//        -DZIGBEE_FRAGMENTATION -DINTER_PAN -DOSAL_CLOCK -DOSAL_SAPI=FALSE
//        -DSAPI_CB_FUNC=FALSE -DHOLD_AUTO_START -DNV_RESTORE -DNV_INIT
//        -DNUM_DISC_ATTEMPTS=0 -DMT_UTIL_FUNC -DMT_SYS_FUNC -DMT_AF_FUNC
//        -DMT_SAPI_FUNC -DMT_SAPI_CB_FUNC -DMT_ZDO_CB_FUNC -DMT_ZDO_FUNC
//        -DMT_ZDO_MGMT -DMT_ZDO_EXTENSIONS -DMT_GP_CB_FUNC -DMT_APP_FUNC
//        -DMT_APP_CNF_FUNC -DZNP_ALT) -f "E:\Texas Instruments\Z-Stack
//        3.0.2\Projects\zstack\ZNP\CC253x\..\..\Tools\CC2530DB\f8wConfig.cfg"
//        (-DZIGBEEPRO -DSECURE=1 -DZG_SECURE_DYNAMIC=0 -DREFLECTOR
//        -DDEFAULT_CHANLIST=0x00000800 -DZDAPP_CONFIG_PAN_ID=0xFFFF
//        -DNWK_START_DELAY=100 -DEXTENDED_JOINING_RANDOM_MASK=0x007F
//        -DBEACON_REQUEST_DELAY=100 -DBEACON_REQ_DELAY_MASK=0x00FF
//        -DLINK_STATUS_JITTER_MASK=0x007F -DROUTE_EXPIRY_TIME=30
//        -DAPSC_ACK_WAIT_DURATION_POLLED=3000 -DNWK_INDIRECT_MSG_TIMEOUT=7
//        -DMAX_RREQ_ENTRIES=8 -DAPSC_MAX_FRAME_RETRIES=3
//        -DNWK_MAX_DATA_RETRIES=2 -DMAX_POLL_FAILURE_RETRIES=2 -DMAX_BCAST=9
//        -DAPS_MAX_GROUPS=16 -DMAX_RTG_ENTRIES=40 -DNWK_MAX_BINDING_ENTRIES=4
//        -DMAX_BINDING_CLUSTER_IDS=4 -DDEFAULT_KEY={0}
//        -DMAC_MAX_FRAME_SIZE=116 -DZDNWKMGR_MIN_TRANSMISSIONS=20
//        "-DCONST=const __code" -DGENERIC=__generic -DRFD_RCVC_ALWAYS_ON=FALSE
//        -DPOLL_RATE=1000 -DQUEUED_POLL_RATE=100 -DRESPONSE_POLL_RATE=100
//        -DREJOIN_POLL_RATE=440 -DREJOIN_BACKOFF=900000 -DREJOIN_SCAN=900000
//        -DENABLE_LED4_DISABLE_S1) -f "E:\Texas Instruments\Z-Stack
//        3.0.2\Projects\zstack\ZNP\CC253x\..\..\Tools\CC2530DB\f8wZCL.cfg" -I
//        "E:\Texas Instruments\Z-Stack 3.0.2\Projects\zstack\ZNP\CC253x\" -I
//        "E:\Texas Instruments\Z-Stack
//        3.0.2\Projects\zstack\ZNP\CC253x\Source\" -I "E:\Texas
//        Instruments\Z-Stack 3.0.2\Projects\zstack\ZNP\CC253x\..\Source\" -I
//        "E:\Texas Instruments\Z-Stack
//        3.0.2\Projects\zstack\ZNP\CC253x\..\..\SE\Source\" -I "E:\Texas
//        Instruments\Z-Stack
//        3.0.2\Projects\zstack\ZNP\CC253x\..\..\Utilities\BootLoad\Source\" -I
//        "E:\Texas Instruments\Z-Stack
//        3.0.2\Projects\zstack\ZNP\CC253x\..\..\ZMain\TI2530ZNP\" -I "E:\Texas
//        Instruments\Z-Stack
//        3.0.2\Projects\zstack\ZNP\CC253x\..\..\..\..\Components\hal\include\"
//        -I "E:\Texas Instruments\Z-Stack
//        3.0.2\Projects\zstack\ZNP\CC253x\..\..\..\..\Components\hal\target\CC2530ZNP\"
//        -I "E:\Texas Instruments\Z-Stack
//        3.0.2\Projects\zstack\ZNP\CC253x\..\..\..\..\Components\mac\include\"
//        -I "E:\Texas Instruments\Z-Stack
//        3.0.2\Projects\zstack\ZNP\CC253x\..\..\..\..\Components\mac\high_level\"
//        -I "E:\Texas Instruments\Z-Stack
//        3.0.2\Projects\zstack\ZNP\CC253x\..\..\..\..\Components\mac\low_level\srf04\"
//        -I "E:\Texas Instruments\Z-Stack
//        3.0.2\Projects\zstack\ZNP\CC253x\..\..\..\..\Components\mac\low_level\srf04\single_chip\"
//        -I "E:\Texas Instruments\Z-Stack
//        3.0.2\Projects\zstack\ZNP\CC253x\..\..\..\..\Components\mt\" -I
//        "E:\Texas Instruments\Z-Stack
//        3.0.2\Projects\zstack\ZNP\CC253x\..\..\..\..\Components\osal\include\"
//        -I "E:\Texas Instruments\Z-Stack
//        3.0.2\Projects\zstack\ZNP\CC253x\..\..\..\..\Components\services\ecc\binary163\"
//        -I "E:\Texas Instruments\Z-Stack
//        3.0.2\Projects\zstack\ZNP\CC253x\..\..\..\..\Components\services\ecc\binary283\"
//        -I "E:\Texas Instruments\Z-Stack
//        3.0.2\Projects\zstack\ZNP\CC253x\..\..\..\..\Components\services\saddr\"
//        -I "E:\Texas Instruments\Z-Stack
//        3.0.2\Projects\zstack\ZNP\CC253x\..\..\..\..\Components\services\sdata\"
//        -I "E:\Texas Instruments\Z-Stack
//        3.0.2\Projects\zstack\ZNP\CC253x\..\..\..\..\Components\stack\af\" -I
//        "E:\Texas Instruments\Z-Stack
//        3.0.2\Projects\zstack\ZNP\CC253x\..\..\..\..\Components\stack\gp\" -I
//        "E:\Texas Instruments\Z-Stack
//        3.0.2\Projects\zstack\ZNP\CC253x\..\..\..\..\Components\stack\bdb\"
//        -I "E:\Texas Instruments\Z-Stack
//        3.0.2\Projects\zstack\ZNP\CC253x\..\..\..\..\Components\stack\nwk\"
//        -I "E:\Texas Instruments\Z-Stack
//        3.0.2\Projects\zstack\ZNP\CC253x\..\..\..\..\Components\stack\sapi\"
//        -I "E:\Texas Instruments\Z-Stack
//        3.0.2\Projects\zstack\ZNP\CC253x\..\..\..\..\Components\stack\sec\"
//        -I "E:\Texas Instruments\Z-Stack
//        3.0.2\Projects\zstack\ZNP\CC253x\..\..\..\..\Components\stack\sys\"
//        -I "E:\Texas Instruments\Z-Stack
//        3.0.2\Projects\zstack\ZNP\CC253x\..\..\..\..\Components\stack\zcl\"
//        -I "E:\Texas Instruments\Z-Stack
//        3.0.2\Projects\zstack\ZNP\CC253x\..\..\..\..\Components\stack\zdo\"
//        -I "E:\Texas Instruments\Z-Stack
//        3.0.2\Projects\zstack\ZNP\CC253x\..\..\..\..\Components\zmac\" -I
//        "E:\Texas Instruments\Z-Stack
//        3.0.2\Projects\zstack\ZNP\CC253x\..\..\..\..\Components\zmac\f8w\"
//        -Ohz --require_prototypes --no_code_motion)
//    Locale             =  English_USA.1252
//    List file          =  
//        E:\Texas Instruments\Z-Stack
//        3.0.2\Projects\zstack\ZNP\CC253x\CC2530-ZNP-with-SBL\List\MT_AF.s51
//
///////////////////////////////////////////////////////////////////////////////

        NAME MT_AF

        RTMODEL "__SystemLibrary", "CLib"
        RTMODEL "__calling_convention", "xdata_reentrant"
        RTMODEL "__code_model", "banked"
        RTMODEL "__core", "plain"
        RTMODEL "__data_model", "large"
        RTMODEL "__dptr_size", "16"
        RTMODEL "__extended_stack", "disabled"
        RTMODEL "__location_for_constants", "data"
        RTMODEL "__number_of_dptrs", "1"
        RTMODEL "__register_banks", "*"
        RTMODEL "__rt_version", "1"

        RSEG DOVERLAY:DATA:NOROOT(0)
        RSEG IOVERLAY:IDATA:NOROOT(0)
        RSEG ISTACK:IDATA:NOROOT(0)
        RSEG PSTACK:XDATA:NOROOT(0)
        RSEG XSTACK:XDATA:NOROOT(0)

        EXTERN ?V0
        EXTERN ?V1
        EXTERN ?V2
        EXTERN ?V3
        EXTERN ?V4
        EXTERN ?V5
        EXTERN ?V6
        EXTERN ?V7
        EXTERN ?V8
        EXTERN ?V9
        EXTERN ?V10
        EXTERN ?V11
        EXTERN ?V12
        EXTERN ?V13
        EXTERN ?ALLOC_XSTACK8
        EXTERN ?BANKED_ENTER_XDATA
        EXTERN ?BANKED_LEAVE_XDATA
        EXTERN ?BDISPATCH
        EXTERN ?BRET
        EXTERN ?DEALLOC_XSTACK8
        EXTERN ?L_EQ_X
        EXTERN ?MOVE_LONG8_XDATA_XDATA
        EXTERN ?PUSH_XSTACK8_X_FOUR
        EXTERN ?PUSH_XSTACK8_X_TWO
        EXTERN ?PUSH_XSTACK_I_ONE
        EXTERN ?PUSH_XSTACK_I_THREE
        EXTERN ?PUSH_XSTACK_I_TWO
        EXTERN ?XLOAD_R0123
        EXTERN ?XSP
        EXTERN ?XSTACK_DISP0_8
        EXTERN ?XSTACK_DISP100_8
        EXTERN ?XSTACK_DISP101_8
        EXTERN ?XSTACK_DISP102_8
        EXTERN ?XSTORE_R0123
        EXTERN __INIT_XDATA_Z

        PUBLIC `??MT_AfCommandProcessing::?relay`
        FUNCTION `??MT_AfCommandProcessing::?relay`,0203H
        PUBLIC `??MT_AfDataConfirm::?relay`
        FUNCTION `??MT_AfDataConfirm::?relay`,0203H
        FUNCTION `??MT_AfDataRequest::?relay`,0203H
        FUNCTION `??MT_AfDataRequestSrcRtg::?relay`,0203H
        FUNCTION `??MT_AfDataRetrieve::?relay`,0203H
        FUNCTION `??MT_AfDataStore::?relay`,0203H
        PUBLIC `??MT_AfExec::?relay`
        FUNCTION `??MT_AfExec::?relay`,0203H
        PUBLIC `??MT_AfIncomingMsg::?relay`
        FUNCTION `??MT_AfIncomingMsg::?relay`,0203H
        PUBLIC `??MT_AfReflectError::?relay`
        FUNCTION `??MT_AfReflectError::?relay`,0203H
        PUBLIC MT_AfCommandProcessing
        FUNCTION MT_AfCommandProcessing,0a1203H
        ARGFRAME XSTACK, 0, STACK
        LOCFRAME ISTACK, 1, STACK
        LOCFRAME XSTACK, 20, STACK
        PUBLIC MT_AfDataConfirm
        FUNCTION MT_AfDataConfirm,021203H
        ARGFRAME XSTACK, 0, STACK
        LOCFRAME ISTACK, 3, STACK
        LOCFRAME XSTACK, 3, STACK
        FUNCTION MT_AfDataRequest,0a1203H
        ARGFRAME XSTACK, 20, STACK
        ARGFRAME IOVERLAY, 0, STATIC
        ARGFRAME DOVERLAY, 0, STATIC
        LOCFRAME ISTACK, 1, STACK
        LOCFRAME XSTACK, 44, STACK
        FUNCTION MT_AfDataRequestSrcRtg,0a1203H
        ARGFRAME XSTACK, 20, STACK
        ARGFRAME IOVERLAY, 0, STATIC
        ARGFRAME DOVERLAY, 0, STATIC
        LOCFRAME ISTACK, 1, STACK
        LOCFRAME XSTACK, 46, STACK
        FUNCTION MT_AfDataRetrieve,0a1203H
        ARGFRAME XSTACK, 20, STACK
        ARGFRAME IOVERLAY, 0, STATIC
        ARGFRAME DOVERLAY, 0, STATIC
        LOCFRAME ISTACK, 1, STACK
        LOCFRAME XSTACK, 22, STACK
        FUNCTION MT_AfDataStore,0a1203H
        ARGFRAME XSTACK, 20, STACK
        ARGFRAME IOVERLAY, 0, STATIC
        ARGFRAME DOVERLAY, 0, STATIC
        LOCFRAME ISTACK, 1, STACK
        LOCFRAME XSTACK, 24, STACK
        PUBLIC MT_AfExec
        FUNCTION MT_AfExec,021203H
        ARGFRAME XSTACK, 0, STACK
        LOCFRAME XSTACK, 13, STACK
        PUBLIC MT_AfIncomingMsg
        FUNCTION MT_AfIncomingMsg,0a1203H
        ARGFRAME XSTACK, 0, STACK
        LOCFRAME ISTACK, 1, STACK
        LOCFRAME XSTACK, 26, STACK
        PUBLIC MT_AfReflectError
        FUNCTION MT_AfReflectError,021203H
        ARGFRAME XSTACK, 0, STACK
        LOCFRAME ISTACK, 3, STACK
        LOCFRAME XSTACK, 6, STACK
        PUBWEAK __Constant_3e8
        PUBLIC pMtAfDataReq
        PUBLIC pMtAfInMsgList
        
          CFI Names cfiNames0
          CFI StackFrame CFA_SP SP IDATA
          CFI StackFrame CFA_PSP16 PSP16 XDATA
          CFI StackFrame CFA_XSP16 XSP16 XDATA
          CFI StaticOverlayFrame CFA_IOVERLAY IOVERLAY
          CFI StaticOverlayFrame CFA_DOVERLAY DOVERLAY
          CFI Resource `PSW.CY`:1, `B.BR0`:1, `B.BR1`:1, `B.BR2`:1, `B.BR3`:1
          CFI Resource `B.BR4`:1, `B.BR5`:1, `B.BR6`:1, `B.BR7`:1, `VB.BR8`:1
          CFI Resource `VB.BR9`:1, `VB.BR10`:1, `VB.BR11`:1, `VB.BR12`:1
          CFI Resource `VB.BR13`:1, `VB.BR14`:1, `VB.BR15`:1, VB:8, B:8, A:8
          CFI Resource PSW:8, DPL0:8, DPH0:8, R0:8, R1:8, R2:8, R3:8, R4:8, R5:8
          CFI Resource R6:8, R7:8, V0:8, V1:8, V2:8, V3:8, V4:8, V5:8, V6:8, V7:8
          CFI Resource V8:8, V9:8, V10:8, V11:8, V12:8, V13:8, V14:8, V15:8, SP:8
          CFI Resource PSPH:8, PSPL:8, PSP16:16, XSPH:8, XSPL:8, XSP16:16
          CFI VirtualResource ?RET:24
          CFI Resource ?BRET_EXT:8
          CFI VirtualResource ?RET_HIGH:8, ?RET_LOW:8
          CFI ResourceParts PSP16 PSPH, PSPL
          CFI ResourceParts XSP16 XSPH, XSPL
          CFI ResourceParts ?RET ?BRET_EXT, ?RET_HIGH, ?RET_LOW
          CFI EndNames cfiNames0
        
          CFI Common cfiCommon0 Using cfiNames0
          CFI CodeAlign 1
          CFI DataAlign -1
          CFI ReturnAddress ?RET CODE
          CFI CFA_DOVERLAY Used
          CFI CFA_IOVERLAY Used
          CFI CFA_SP SP+-3
          CFI CFA_PSP16 PSP16+0
          CFI CFA_XSP16 XSP16+0
          CFI `PSW.CY` SameValue
          CFI `B.BR0` SameValue
          CFI `B.BR1` SameValue
          CFI `B.BR2` SameValue
          CFI `B.BR3` SameValue
          CFI `B.BR4` SameValue
          CFI `B.BR5` SameValue
          CFI `B.BR6` SameValue
          CFI `B.BR7` SameValue
          CFI `VB.BR8` SameValue
          CFI `VB.BR9` SameValue
          CFI `VB.BR10` SameValue
          CFI `VB.BR11` SameValue
          CFI `VB.BR12` SameValue
          CFI `VB.BR13` SameValue
          CFI `VB.BR14` SameValue
          CFI `VB.BR15` SameValue
          CFI VB SameValue
          CFI B Undefined
          CFI A Undefined
          CFI PSW SameValue
          CFI DPL0 SameValue
          CFI DPH0 SameValue
          CFI R0 Undefined
          CFI R1 Undefined
          CFI R2 Undefined
          CFI R3 Undefined
          CFI R4 Undefined
          CFI R5 Undefined
          CFI R6 SameValue
          CFI R7 SameValue
          CFI V0 SameValue
          CFI V1 SameValue
          CFI V2 SameValue
          CFI V3 SameValue
          CFI V4 SameValue
          CFI V5 SameValue
          CFI V6 SameValue
          CFI V7 SameValue
          CFI V8 SameValue
          CFI V9 SameValue
          CFI V10 SameValue
          CFI V11 SameValue
          CFI V12 SameValue
          CFI V13 SameValue
          CFI V14 SameValue
          CFI V15 SameValue
          CFI PSPH Undefined
          CFI PSPL Undefined
          CFI XSPH Undefined
          CFI XSPL Undefined
          CFI ?RET Concat
          CFI ?BRET_EXT Frame(CFA_SP, 3)
          CFI ?RET_HIGH Frame(CFA_SP, 2)
          CFI ?RET_LOW Frame(CFA_SP, 1)
          CFI EndCommon cfiCommon0
        
        
          CFI Common cfiCommon1 Using cfiNames0
          CFI CodeAlign 1
          CFI DataAlign -1
          CFI ReturnAddress ?RET CODE
          CFI CFA_DOVERLAY Used
          CFI CFA_IOVERLAY Used
          CFI CFA_SP SP+-2
          CFI CFA_PSP16 PSP16+0
          CFI CFA_XSP16 XSP16+0
          CFI `PSW.CY` SameValue
          CFI `B.BR0` SameValue
          CFI `B.BR1` SameValue
          CFI `B.BR2` SameValue
          CFI `B.BR3` SameValue
          CFI `B.BR4` SameValue
          CFI `B.BR5` SameValue
          CFI `B.BR6` SameValue
          CFI `B.BR7` SameValue
          CFI `VB.BR8` SameValue
          CFI `VB.BR9` SameValue
          CFI `VB.BR10` SameValue
          CFI `VB.BR11` SameValue
          CFI `VB.BR12` SameValue
          CFI `VB.BR13` SameValue
          CFI `VB.BR14` SameValue
          CFI `VB.BR15` SameValue
          CFI VB SameValue
          CFI B SameValue
          CFI A SameValue
          CFI PSW SameValue
          CFI DPL0 SameValue
          CFI DPH0 SameValue
          CFI R0 SameValue
          CFI R1 SameValue
          CFI R2 SameValue
          CFI R3 SameValue
          CFI R4 SameValue
          CFI R5 SameValue
          CFI R6 SameValue
          CFI R7 SameValue
          CFI V0 SameValue
          CFI V1 SameValue
          CFI V2 SameValue
          CFI V3 SameValue
          CFI V4 SameValue
          CFI V5 SameValue
          CFI V6 SameValue
          CFI V7 SameValue
          CFI V8 SameValue
          CFI V9 SameValue
          CFI V10 SameValue
          CFI V11 SameValue
          CFI V12 SameValue
          CFI V13 SameValue
          CFI V14 SameValue
          CFI V15 SameValue
          CFI PSPH Undefined
          CFI PSPL Undefined
          CFI XSPH Undefined
          CFI XSPL Undefined
          CFI ?RET Concat
          CFI ?BRET_EXT SameValue
          CFI ?RET_HIGH Frame(CFA_SP, 2)
          CFI ?RET_LOW Frame(CFA_SP, 1)
          CFI EndCommon cfiCommon1
        
AF_DataRequest      SYMBOL "AF_DataRequest"
`??AF_DataRequest::?relay` SYMBOL "?relay", AF_DataRequest
AF_DataRequestSrcRtg SYMBOL "AF_DataRequestSrcRtg"
`??AF_DataRequestSrcRtg::?relay` SYMBOL "?relay", AF_DataRequestSrcRtg
MT_BuildAndSendZToolResponse SYMBOL "MT_BuildAndSendZToolResponse"
`??MT_BuildAndSendZToolResponse::?relay` SYMBOL "?relay", MT_BuildAndSendZToolResponse
MT_BuildEndpointDesc SYMBOL "MT_BuildEndpointDesc"
`??MT_BuildEndpointDesc::?relay` SYMBOL "?relay", MT_BuildEndpointDesc
StubAPS_InterPan    SYMBOL "StubAPS_InterPan"
`??StubAPS_InterPan::?relay` SYMBOL "?relay", StubAPS_InterPan
StubAPS_RegisterApp SYMBOL "StubAPS_RegisterApp"
`??StubAPS_RegisterApp::?relay` SYMBOL "?relay", StubAPS_RegisterApp
StubAPS_SetInterPanChannel SYMBOL "StubAPS_SetInterPanChannel"
`??StubAPS_SetInterPanChannel::?relay` SYMBOL "?relay", StubAPS_SetInterPanChannel
StubAPS_SetIntraPanChannel SYMBOL "StubAPS_SetIntraPanChannel"
`??StubAPS_SetIntraPanChannel::?relay` SYMBOL "?relay", StubAPS_SetIntraPanChannel
afAPSF_ConfigGet    SYMBOL "afAPSF_ConfigGet"
`??afAPSF_ConfigGet::?relay` SYMBOL "?relay", afAPSF_ConfigGet
afAPSF_ConfigSet    SYMBOL "afAPSF_ConfigSet"
`??afAPSF_ConfigSet::?relay` SYMBOL "?relay", afAPSF_ConfigSet
afDelete            SYMBOL "afDelete"
`??afDelete::?relay` SYMBOL "?relay", afDelete
afFindEndPointDesc  SYMBOL "afFindEndPointDesc"
`??afFindEndPointDesc::?relay` SYMBOL "?relay", afFindEndPointDesc
afRegister          SYMBOL "afRegister"
`??afRegister::?relay` SYMBOL "?relay", afRegister
osal_buffer_uint32  SYMBOL "osal_buffer_uint32"
`??osal_buffer_uint32::?relay` SYMBOL "?relay", osal_buffer_uint32
osal_build_uint16   SYMBOL "osal_build_uint16"
`??osal_build_uint16::?relay` SYMBOL "?relay", osal_build_uint16
osal_build_uint32   SYMBOL "osal_build_uint32"
`??osal_build_uint32::?relay` SYMBOL "?relay", osal_build_uint32
osal_mem_alloc      SYMBOL "osal_mem_alloc"
`??osal_mem_alloc::?relay` SYMBOL "?relay", osal_mem_alloc
osal_mem_free       SYMBOL "osal_mem_free"
`??osal_mem_free::?relay` SYMBOL "?relay", osal_mem_free
osal_memcpy         SYMBOL "osal_memcpy"
`??osal_memcpy::?relay` SYMBOL "?relay", osal_memcpy
osal_memset         SYMBOL "osal_memset"
`??osal_memset::?relay` SYMBOL "?relay", osal_memset
osal_set_event      SYMBOL "osal_set_event"
`??osal_set_event::?relay` SYMBOL "?relay", osal_set_event
osal_start_timerEx  SYMBOL "osal_start_timerEx"
`??osal_start_timerEx::?relay` SYMBOL "?relay", osal_start_timerEx
MT_AfCommandProcessing SYMBOL "MT_AfCommandProcessing"
`??MT_AfCommandProcessing::?relay` SYMBOL "?relay", MT_AfCommandProcessing
MT_AfDataConfirm    SYMBOL "MT_AfDataConfirm"
`??MT_AfDataConfirm::?relay` SYMBOL "?relay", MT_AfDataConfirm
MT_AfExec           SYMBOL "MT_AfExec"
`??MT_AfExec::?relay` SYMBOL "?relay", MT_AfExec
MT_AfIncomingMsg    SYMBOL "MT_AfIncomingMsg"
`??MT_AfIncomingMsg::?relay` SYMBOL "?relay", MT_AfIncomingMsg
MT_AfReflectError   SYMBOL "MT_AfReflectError"
`??MT_AfReflectError::?relay` SYMBOL "?relay", MT_AfReflectError

        EXTERN `??AF_DataRequest::?relay`
        FUNCTION `??AF_DataRequest::?relay`,00H
        EXTERN `??AF_DataRequestSrcRtg::?relay`
        FUNCTION `??AF_DataRequestSrcRtg::?relay`,00H
        EXTERN `??MT_BuildAndSendZToolResponse::?relay`
        FUNCTION `??MT_BuildAndSendZToolResponse::?relay`,00H
        EXTERN `??MT_BuildEndpointDesc::?relay`
        FUNCTION `??MT_BuildEndpointDesc::?relay`,00H
        EXTERN `??StubAPS_InterPan::?relay`
        FUNCTION `??StubAPS_InterPan::?relay`,00H
        EXTERN `??StubAPS_RegisterApp::?relay`
        FUNCTION `??StubAPS_RegisterApp::?relay`,00H
        EXTERN `??StubAPS_SetInterPanChannel::?relay`
        FUNCTION `??StubAPS_SetInterPanChannel::?relay`,00H
        EXTERN `??StubAPS_SetIntraPanChannel::?relay`
        FUNCTION `??StubAPS_SetIntraPanChannel::?relay`,00H
        EXTERN `??afAPSF_ConfigGet::?relay`
        FUNCTION `??afAPSF_ConfigGet::?relay`,00H
        EXTERN `??afAPSF_ConfigSet::?relay`
        FUNCTION `??afAPSF_ConfigSet::?relay`,00H
        EXTERN `??afDelete::?relay`
        FUNCTION `??afDelete::?relay`,00H
        EXTERN `??afFindEndPointDesc::?relay`
        FUNCTION `??afFindEndPointDesc::?relay`,00H
        EXTERN `??afRegister::?relay`
        FUNCTION `??afRegister::?relay`,00H
        EXTERN `??osal_buffer_uint32::?relay`
        FUNCTION `??osal_buffer_uint32::?relay`,00H
        EXTERN `??osal_build_uint16::?relay`
        FUNCTION `??osal_build_uint16::?relay`,00H
        EXTERN `??osal_build_uint32::?relay`
        FUNCTION `??osal_build_uint32::?relay`,00H
        EXTERN `??osal_mem_alloc::?relay`
        FUNCTION `??osal_mem_alloc::?relay`,00H
        EXTERN `??osal_mem_free::?relay`
        FUNCTION `??osal_mem_free::?relay`,00H
        EXTERN `??osal_memcpy::?relay`
        FUNCTION `??osal_memcpy::?relay`,00H
        EXTERN `??osal_memset::?relay`
        FUNCTION `??osal_memset::?relay`,00H
        EXTERN `??osal_set_event::?relay`
        FUNCTION `??osal_set_event::?relay`,00H
        EXTERN `??osal_start_timerEx::?relay`
        FUNCTION `??osal_start_timerEx::?relay`,00H
        EXTERN AF_DataRequest
        FUNCTION AF_DataRequest,0202H
        ARGFRAME ISTACK, 0, STACK
        ARGFRAME PSTACK, 0, STACK
        ARGFRAME XSTACK, 44, STACK
        ARGFRAME IOVERLAY, 0, STATIC
        ARGFRAME DOVERLAY, 0, STATIC
        EXTERN AF_DataRequestSrcRtg
        FUNCTION AF_DataRequestSrcRtg,0202H
        ARGFRAME ISTACK, 0, STACK
        ARGFRAME PSTACK, 0, STACK
        ARGFRAME XSTACK, 46, STACK
        ARGFRAME IOVERLAY, 0, STATIC
        ARGFRAME DOVERLAY, 0, STATIC
        EXTERN MT_BuildAndSendZToolResponse
        FUNCTION MT_BuildAndSendZToolResponse,0202H
        ARGFRAME ISTACK, 2, STACK
        ARGFRAME PSTACK, 0, STACK
        ARGFRAME XSTACK, 35, STACK
        ARGFRAME IOVERLAY, 0, STATIC
        ARGFRAME DOVERLAY, 0, STATIC
        EXTERN MT_BuildEndpointDesc
        FUNCTION MT_BuildEndpointDesc,0202H
        ARGFRAME ISTACK, 0, STACK
        ARGFRAME PSTACK, 0, STACK
        ARGFRAME XSTACK, 20, STACK
        ARGFRAME IOVERLAY, 0, STATIC
        ARGFRAME DOVERLAY, 0, STATIC
        EXTERN MT_TaskID
        EXTERN StubAPS_InterPan
        FUNCTION StubAPS_InterPan,0202H
        ARGFRAME ISTACK, 0, STACK
        ARGFRAME PSTACK, 0, STACK
        ARGFRAME XSTACK, 22, STACK
        ARGFRAME IOVERLAY, 0, STATIC
        ARGFRAME DOVERLAY, 0, STATIC
        EXTERN StubAPS_RegisterApp
        FUNCTION StubAPS_RegisterApp,0202H
        ARGFRAME ISTACK, 0, STACK
        ARGFRAME PSTACK, 0, STACK
        ARGFRAME XSTACK, 20, STACK
        ARGFRAME IOVERLAY, 0, STATIC
        ARGFRAME DOVERLAY, 0, STATIC
        EXTERN StubAPS_SetInterPanChannel
        FUNCTION StubAPS_SetInterPanChannel,0202H
        ARGFRAME ISTACK, 0, STACK
        ARGFRAME PSTACK, 0, STACK
        ARGFRAME XSTACK, 20, STACK
        ARGFRAME IOVERLAY, 0, STATIC
        ARGFRAME DOVERLAY, 0, STATIC
        EXTERN StubAPS_SetIntraPanChannel
        FUNCTION StubAPS_SetIntraPanChannel,0202H
        ARGFRAME ISTACK, 0, STACK
        ARGFRAME PSTACK, 0, STACK
        ARGFRAME XSTACK, 20, STACK
        ARGFRAME IOVERLAY, 0, STATIC
        ARGFRAME DOVERLAY, 0, STATIC
        EXTERN afAPSF_ConfigGet
        FUNCTION afAPSF_ConfigGet,0202H
        ARGFRAME ISTACK, 0, STACK
        ARGFRAME PSTACK, 0, STACK
        ARGFRAME XSTACK, 20, STACK
        ARGFRAME IOVERLAY, 0, STATIC
        ARGFRAME DOVERLAY, 0, STATIC
        EXTERN afAPSF_ConfigSet
        FUNCTION afAPSF_ConfigSet,0202H
        ARGFRAME ISTACK, 0, STACK
        ARGFRAME PSTACK, 0, STACK
        ARGFRAME XSTACK, 20, STACK
        ARGFRAME IOVERLAY, 0, STATIC
        ARGFRAME DOVERLAY, 0, STATIC
        EXTERN afDelete
        FUNCTION afDelete,0202H
        ARGFRAME ISTACK, 0, STACK
        ARGFRAME PSTACK, 0, STACK
        ARGFRAME XSTACK, 20, STACK
        ARGFRAME IOVERLAY, 0, STATIC
        ARGFRAME DOVERLAY, 0, STATIC
        EXTERN afFindEndPointDesc
        FUNCTION afFindEndPointDesc,0202H
        ARGFRAME ISTACK, 0, STACK
        ARGFRAME PSTACK, 0, STACK
        ARGFRAME XSTACK, 35, STACK
        ARGFRAME IOVERLAY, 0, STATIC
        ARGFRAME DOVERLAY, 0, STATIC
        EXTERN afRegister
        FUNCTION afRegister,0202H
        ARGFRAME ISTACK, 0, STACK
        ARGFRAME PSTACK, 0, STACK
        ARGFRAME XSTACK, 20, STACK
        ARGFRAME IOVERLAY, 0, STATIC
        ARGFRAME DOVERLAY, 0, STATIC
        EXTERN osal_buffer_uint32
        FUNCTION osal_buffer_uint32,0202H
        ARGFRAME ISTACK, 0, STACK
        ARGFRAME PSTACK, 0, STACK
        ARGFRAME XSTACK, 26, STACK
        ARGFRAME IOVERLAY, 0, STATIC
        ARGFRAME DOVERLAY, 0, STATIC
        EXTERN osal_build_uint16
        FUNCTION osal_build_uint16,0202H
        ARGFRAME ISTACK, 0, STACK
        ARGFRAME PSTACK, 0, STACK
        ARGFRAME XSTACK, 35, STACK
        ARGFRAME IOVERLAY, 0, STATIC
        ARGFRAME DOVERLAY, 0, STATIC
        EXTERN osal_build_uint32
        FUNCTION osal_build_uint32,0202H
        ARGFRAME ISTACK, 0, STACK
        ARGFRAME PSTACK, 0, STACK
        ARGFRAME XSTACK, 19, STACK
        ARGFRAME IOVERLAY, 0, STATIC
        ARGFRAME DOVERLAY, 0, STATIC
        EXTERN osal_mem_alloc
        FUNCTION osal_mem_alloc,0202H
        ARGFRAME ISTACK, 0, STACK
        ARGFRAME PSTACK, 0, STACK
        ARGFRAME XSTACK, 35, STACK
        ARGFRAME IOVERLAY, 0, STATIC
        ARGFRAME DOVERLAY, 0, STATIC
        EXTERN osal_mem_free
        FUNCTION osal_mem_free,0202H
        ARGFRAME ISTACK, 0, STACK
        ARGFRAME PSTACK, 0, STACK
        ARGFRAME XSTACK, 34, STACK
        ARGFRAME IOVERLAY, 0, STATIC
        ARGFRAME DOVERLAY, 0, STATIC
        EXTERN osal_memcpy
        FUNCTION osal_memcpy,0202H
        ARGFRAME ISTACK, 0, STACK
        ARGFRAME PSTACK, 0, STACK
        ARGFRAME XSTACK, 38, STACK
        ARGFRAME IOVERLAY, 0, STATIC
        ARGFRAME DOVERLAY, 0, STATIC
        EXTERN osal_memset
        FUNCTION osal_memset,0202H
        ARGFRAME ISTACK, 0, STACK
        ARGFRAME PSTACK, 0, STACK
        ARGFRAME XSTACK, 34, STACK
        ARGFRAME IOVERLAY, 0, STATIC
        ARGFRAME DOVERLAY, 0, STATIC
        EXTERN osal_set_event
        FUNCTION osal_set_event,0202H
        ARGFRAME ISTACK, 0, STACK
        ARGFRAME PSTACK, 0, STACK
        ARGFRAME XSTACK, 35, STACK
        ARGFRAME IOVERLAY, 0, STATIC
        ARGFRAME DOVERLAY, 0, STATIC
        EXTERN osal_start_timerEx
        FUNCTION osal_start_timerEx,0202H
        ARGFRAME ISTACK, 0, STACK
        ARGFRAME PSTACK, 0, STACK
        ARGFRAME XSTACK, 39, STACK
        ARGFRAME IOVERLAY, 0, STATIC
        ARGFRAME DOVERLAY, 0, STATIC

// E:\Texas Instruments\Z-Stack 3.0.2\Components\mt\MT_AF.c
//    1 /**************************************************************************************************
//    2   Filename:       MT_AF.c
//    3   Revised:        $Date: 2015-01-26 08:25:50 -0800 (Mon, 26 Jan 2015) $
//    4   Revision:       $Revision: 42025 $
//    5 
//    6   Description:    MonitorTest functions for the AF layer.
//    7 
//    8   Copyright 2007-2015 Texas Instruments Incorporated. All rights reserved.
//    9 
//   10   IMPORTANT: Your use of this Software is limited to those specific rights
//   11   granted under the terms of a software license agreement between the user
//   12   who downloaded the software, his/her employer (which must be your employer)
//   13   and Texas Instruments Incorporated (the "License"). You may not use this
//   14   Software unless you agree to abide by the terms of the License. The License
//   15   limits your use, and you acknowledge, that the Software may not be modified,
//   16   copied or distributed unless embedded on a Texas Instruments microcontroller
//   17   or used solely and exclusively in conjunction with a Texas Instruments radio
//   18   frequency transceiver, which is integrated into your product. Other than for
//   19   the foregoing purpose, you may not use, reproduce, copy, prepare derivative
//   20   works of, modify, distribute, perform, display or sell this Software and/or
//   21   its documentation for any purpose.
//   22 
//   23   YOU FURTHER ACKNOWLEDGE AND AGREE THAT THE SOFTWARE AND DOCUMENTATION ARE
//   24   PROVIDED “AS IS” WITHOUT WARRANTY OF ANY KIND, EITHER EXPRESS OR IMPLIED,
//   25   INCLUDING WITHOUT LIMITATION, ANY WARRANTY OF MERCHANTABILITY, TITLE,
//   26   NON-INFRINGEMENT AND FITNESS FOR A PARTICULAR PURPOSE. IN NO EVENT SHALL
//   27   TEXAS INSTRUMENTS OR ITS LICENSORS BE LIABLE OR OBLIGATED UNDER CONTRACT,
//   28   NEGLIGENCE, STRICT LIABILITY, CONTRIBUTION, BREACH OF WARRANTY, OR OTHER
//   29   LEGAL EQUITABLE THEORY ANY DIRECT OR INDIRECT DAMAGES OR EXPENSES
//   30   INCLUDING BUT NOT LIMITED TO ANY INCIDENTAL, SPECIAL, INDIRECT, PUNITIVE
//   31   OR CONSEQUENTIAL DAMAGES, LOST PROFITS OR LOST DATA, COST OF PROCUREMENT
//   32   OF SUBSTITUTE GOODS, TECHNOLOGY, SERVICES, OR ANY CLAIMS BY THIRD PARTIES
//   33   (INCLUDING BUT NOT LIMITED TO ANY DEFENSE THEREOF), OR OTHER SIMILAR COSTS.
//   34 
//   35   Should you have any questions regarding your right to use this Software,
//   36   contact Texas Instruments Incorporated at www.TI.com.
//   37 
//   38 **************************************************************************************************/
//   39 
//   40 /* ------------------------------------------------------------------------------------------------
//   41  *                                          Includes
//   42  * ------------------------------------------------------------------------------------------------
//   43  */
//   44 #include "ZComDef.h"
//   45 #include "OSAL.h"
//   46 #include "MT.h"
//   47 #include "MT_AF.h"
//   48 #include "MT_ZDO.h"
//   49 #include "nwk.h"
//   50 #include "OnBoard.h"
//   51 #include "MT_UART.h"
//   52 
//   53 #if defined INTER_PAN
//   54 #include "stub_aps.h"
//   55 #endif
//   56 
//   57 
//   58 /* ------------------------------------------------------------------------------------------------
//   59  *                                          Constants
//   60  * ------------------------------------------------------------------------------------------------
//   61  */
//   62 
//   63 #if !defined MT_AF_EXEC_CNT
//   64 #define MT_AF_EXEC_CNT  15
//   65 #endif
//   66 
//   67 #if !defined MT_AF_EXEC_DLY
//   68 #define MT_AF_EXEC_DLY  1000
//   69 #endif
//   70 
//   71 /* ------------------------------------------------------------------------------------------------
//   72  *                                           Typedefs
//   73  * ------------------------------------------------------------------------------------------------
//   74  */
//   75 
//   76 typedef struct
//   77 {
//   78   uint8 *data;
//   79   afAddrType_t dstAddr;
//   80   endPointDesc_t *epDesc;
//   81   uint16 cId;
//   82   uint16 dataLen;
//   83   uint8 transId;
//   84   uint8 txOpts;
//   85   uint8 radius;
//   86   uint8 tick;
//   87 } mtAfDataReq_t;
//   88 
//   89 typedef struct _mtAfInMsgList_t
//   90 {
//   91   struct _mtAfInMsgList_t *next;
//   92   uint8 *data;
//   93   uint32 timestamp;         // Receipt timestamp from MAC.
//   94   uint8 tick;
//   95 } mtAfInMsgList_t;
//   96 
//   97 /* ------------------------------------------------------------------------------------------------
//   98  *                                        Local Variables
//   99  * ------------------------------------------------------------------------------------------------
//  100  */
//  101 

        RSEG XDATA_Z:XDATA:NOROOT(0)
        DATA16
//  102 mtAfInMsgList_t *pMtAfInMsgList = NULL;
pMtAfInMsgList:
        DS 2
        REQUIRE __INIT_XDATA_Z

        RSEG XDATA_Z:XDATA:NOROOT(0)
        DATA16
//  103 mtAfDataReq_t *pMtAfDataReq = NULL;
pMtAfDataReq:
        DS 2
        REQUIRE __INIT_XDATA_Z
//  104 
//  105 /* ------------------------------------------------------------------------------------------------
//  106  *                                        Global Variables
//  107  * ------------------------------------------------------------------------------------------------
//  108  */
//  109 
//  110 #if defined ( MT_AF_CB_FUNC )
//  111 uint16 _afCallbackSub;
//  112 #endif
//  113 
//  114 /* ------------------------------------------------------------------------------------------------
//  115  *                                        Local Functions
//  116  * ------------------------------------------------------------------------------------------------
//  117  */
//  118 
//  119 static void MT_AfRegister(uint8 *pBuf);
//  120 static void MT_AfDelete(uint8 *pBuf);
//  121 static void MT_AfDataRequest(uint8 *pBuf);
//  122 
//  123 #if defined ( ZIGBEEPRO )
//  124 static void MT_AfDataRequestSrcRtg(uint8 *pBuf);
//  125 #endif
//  126 
//  127 #if defined INTER_PAN
//  128 static void MT_AfInterPanCtl(uint8 *pBuf);
//  129 #endif
//  130 
//  131 static void MT_AfDataRetrieve(uint8 *pBuf);
//  132 static void MT_AfDataStore(uint8 *pBuf);
//  133 static void MT_AfAPSF_ConfigSet(uint8 *pBuf);
//  134 static void MT_AfAPSF_ConfigGet(uint8 *pBuf);
//  135 
//  136 
//  137 /**************************************************************************************************
//  138  * @fn          MT_AfExec
//  139  *
//  140  * @brief       This function is invoked by an MT timer event.
//  141  *
//  142  * input parameters
//  143  *
//  144  * None.
//  145  *
//  146  * output parameters
//  147  *
//  148  * None.
//  149  *
//  150  * @return      None.
//  151  **************************************************************************************************
//  152  */

        RSEG BANKED_CODE:HUGECODE:NOROOT(0)
//  153 void MT_AfExec(void)
MT_AfExec:
          CFI Block cfiBlock0 Using cfiCommon0
          CFI Function MT_AfExec
        CODE
//  154 {
        FUNCALL MT_AfExec, osal_mem_free
        LOCFRAME ISTACK, 0, STACK
        LOCFRAME PSTACK, 0, STACK
        LOCFRAME XSTACK, 9, STACK
        LOCFRAME IOVERLAY, 0, STATIC
        LOCFRAME DOVERLAY, 0, STATIC
        ARGFRAME ISTACK, 0, STACK
        ARGFRAME PSTACK, 0, STACK
        ARGFRAME XSTACK, 9, STACK
        ARGFRAME IOVERLAY, 0, STATIC
        ARGFRAME DOVERLAY, 0, STATIC
        FUNCALL MT_AfExec, osal_mem_free
        LOCFRAME ISTACK, 0, STACK
        LOCFRAME PSTACK, 0, STACK
        LOCFRAME XSTACK, 9, STACK
        LOCFRAME IOVERLAY, 0, STATIC
        LOCFRAME DOVERLAY, 0, STATIC
        ARGFRAME ISTACK, 0, STACK
        ARGFRAME PSTACK, 0, STACK
        ARGFRAME XSTACK, 9, STACK
        ARGFRAME IOVERLAY, 0, STATIC
        ARGFRAME DOVERLAY, 0, STATIC
        FUNCALL MT_AfExec, osal_mem_free
        LOCFRAME ISTACK, 0, STACK
        LOCFRAME PSTACK, 0, STACK
        LOCFRAME XSTACK, 9, STACK
        LOCFRAME IOVERLAY, 0, STATIC
        LOCFRAME DOVERLAY, 0, STATIC
        ARGFRAME ISTACK, 0, STACK
        ARGFRAME PSTACK, 0, STACK
        ARGFRAME XSTACK, 9, STACK
        ARGFRAME IOVERLAY, 0, STATIC
        ARGFRAME DOVERLAY, 0, STATIC
        FUNCALL MT_AfExec, osal_start_timerEx
        LOCFRAME ISTACK, 0, STACK
        LOCFRAME PSTACK, 0, STACK
        LOCFRAME XSTACK, 13, STACK
        LOCFRAME IOVERLAY, 0, STATIC
        LOCFRAME DOVERLAY, 0, STATIC
        ARGFRAME ISTACK, 0, STACK
        ARGFRAME PSTACK, 0, STACK
        ARGFRAME XSTACK, 13, STACK
        ARGFRAME IOVERLAY, 0, STATIC
        ARGFRAME DOVERLAY, 0, STATIC
        FUNCALL MT_AfExec, osal_set_event
        LOCFRAME ISTACK, 0, STACK
        LOCFRAME PSTACK, 0, STACK
        LOCFRAME XSTACK, 9, STACK
        LOCFRAME IOVERLAY, 0, STATIC
        LOCFRAME DOVERLAY, 0, STATIC
        ARGFRAME ISTACK, 0, STACK
        ARGFRAME PSTACK, 0, STACK
        ARGFRAME XSTACK, 9, STACK
        ARGFRAME IOVERLAY, 0, STATIC
        ARGFRAME DOVERLAY, 0, STATIC
        MOV       A,#-0x9
        LCALL     ?BANKED_ENTER_XDATA
          CFI R6 load(1, XDATA, add(CFA_XSP16, literal(-9)))
          CFI VB load(1, XDATA, add(CFA_XSP16, literal(-8)))
          CFI V0 load(1, XDATA, add(CFA_XSP16, literal(-7)))
          CFI R7 load(1, XDATA, add(CFA_XSP16, literal(-6)))
          CFI ?RET_LOW load(1, XDATA, add(CFA_XSP16, literal(-5)))
          CFI ?RET_HIGH load(1, XDATA, add(CFA_XSP16, literal(-4)))
          CFI ?BRET_EXT load(1, XDATA, add(CFA_XSP16, literal(-3)))
          CFI DPL0 load(1, XDATA, add(CFA_XSP16, literal(-2)))
          CFI DPH0 load(1, XDATA, add(CFA_XSP16, literal(-1)))
          CFI CFA_SP SP+0
          CFI CFA_XSP16 add(XSP16, 9)
        ; Saved register size: 9
        ; Auto size: 0
//  155   mtAfInMsgList_t *pPrev, *pItem = pMtAfInMsgList;
??MT_AfExec_0:
        MOV       DPTR,#pMtAfInMsgList
        SJMP      ??MT_AfExec_1
//  156 
//  157   while (pItem != NULL)
//  158   {
//  159     if (--(pItem->tick) == 0)
//  160     {
//  161       if (pMtAfInMsgList == pItem)
//  162       {
//  163         pMtAfInMsgList = pItem->next;
//  164         (void)osal_mem_free(pItem);
//  165         pItem = pMtAfInMsgList;
//  166       }
//  167       else
//  168       {
//  169         pPrev->next = pItem->next;
//  170         (void)osal_mem_free(pItem);
//  171         pItem = pPrev->next;
//  172       }
//  173     }
//  174     else
//  175     {
//  176       pPrev = pItem;
??MT_AfExec_2:
        MOV       A,R2
        MOV       R6,A
        MOV       A,R3
        MOV       R7,A
//  177       pItem = pItem->next;
        MOV       DPL,R2
        MOV       DPH,R3
??MT_AfExec_1:
        MOVX      A,@DPTR
        MOV       R2,A
        INC       DPTR
        MOVX      A,@DPTR
        MOV       R3,A
//  178     }
        MOV       A,R2
        ORL       A,R3
        JZ        ??MT_AfExec_3
        MOV       A,R2
        ADD       A,#0x8
        MOV       DPL,A
        CLR       A
        ADDC      A,R3
        MOV       DPH,A
        MOVX      A,@DPTR
        DEC       A
        MOVX      @DPTR,A
        JNZ       ??MT_AfExec_2
        LCALL     ?Subroutine20 & 0xFFFF
??CrossCallReturnLabel_129:
        MOV       A,R2
        XRL       A,R0
        JNZ       ??MT_AfExec_4
        MOV       A,R3
        XRL       A,R1
??MT_AfExec_4:
        MOV       DPL,R2
        MOV       DPH,R3
        JNZ       ??MT_AfExec_5
        LCALL     ?Subroutine19 & 0xFFFF
??CrossCallReturnLabel_30:
        LCALL     ?Subroutine30 & 0xFFFF
??CrossCallReturnLabel_53:
        SJMP      ??MT_AfExec_0
??MT_AfExec_5:
        LCALL     ??Subroutine57_0 & 0xFFFF
??CrossCallReturnLabel_127:
        MOV       DPL,R6
        MOV       DPH,R7
        LCALL     ?Subroutine30 & 0xFFFF
??CrossCallReturnLabel_54:
        MOV       DPL,R6
        MOV       DPH,R7
        SJMP      ??MT_AfExec_1
//  179   }
//  180 
//  181   if (pMtAfDataReq != NULL)
??MT_AfExec_3:
        LCALL     ?Subroutine3 & 0xFFFF
??CrossCallReturnLabel_108:
        JZ        ??MT_AfExec_6
//  182   {
//  183     if (--(pMtAfDataReq->tick) == 0)
        MOV       A,R0
        ADD       A,#0x17
        MOV       DPL,A
        CLR       A
        ADDC      A,R1
        MOV       DPH,A
        MOVX      A,@DPTR
        DEC       A
        LCALL     ?Subroutine7 & 0xFFFF
??CrossCallReturnLabel_9:
        MOVX      A,@DPTR
        JNZ       ??MT_AfExec_6
//  184     {
//  185       (void)osal_mem_free(pMtAfDataReq);
        ; Setup parameters for call to function osal_mem_free
        LCALL     ?Subroutine6 & 0xFFFF
//  186       pMtAfDataReq = NULL;
//  187     }
//  188   }
??CrossCallReturnLabel_6:
        MOVX      @DPTR,A
//  189 
//  190   if ((pMtAfInMsgList != NULL) || (pMtAfDataReq != NULL))
??MT_AfExec_6:
        MOV       DPTR,#pMtAfInMsgList
        LCALL     ??Subroutine53_0 & 0xFFFF
??CrossCallReturnLabel_107:
        JNZ       ??MT_AfExec_7
        LCALL     ?Subroutine3 & 0xFFFF
??CrossCallReturnLabel_109:
        JZ        ??CrossCallReturnLabel_32
//  191   {
//  192     if (ZSuccess != osal_start_timerEx(MT_TaskID, MT_AF_EXEC_EVT, MT_AF_EXEC_DLY))
??MT_AfExec_7:
        ; Setup parameters for call to function osal_start_timerEx
        MOV       DPTR,#__Constant_3e8
        LCALL     ?PUSH_XSTACK8_X_FOUR
          CFI CFA_XSP16 add(XSP16, 13)
        LCALL     ?Subroutine11 & 0xFFFF
??CrossCallReturnLabel_15:
        LCALL     ?DEALLOC_XSTACK8
          CFI CFA_XSP16 add(XSP16, 9)
        MOV       A,R1
        JZ        ??CrossCallReturnLabel_32
//  193     {
//  194       osal_set_event(MT_TaskID, MT_AF_EXEC_EVT);
        ; Setup parameters for call to function osal_set_event
        LCALL     ?Subroutine21 & 0xFFFF
//  195     }
//  196   }
//  197 }
??CrossCallReturnLabel_32:
        MOV       R7,#0x1
        LJMP      ?BANKED_LEAVE_XDATA
          CFI EndBlock cfiBlock0

        RSEG BANKED_CODE:HUGECODE:NOROOT(0)
?Subroutine30:
          CFI Block cfiCond1 Using cfiCommon0
          CFI Function MT_AfExec
          CFI Conditional ??CrossCallReturnLabel_53
          CFI R6 load(1, XDATA, add(CFA_XSP16, literal(-9)))
          CFI VB load(1, XDATA, add(CFA_XSP16, literal(-8)))
          CFI V0 load(1, XDATA, add(CFA_XSP16, literal(-7)))
          CFI R7 load(1, XDATA, add(CFA_XSP16, literal(-6)))
          CFI ?RET_LOW load(1, XDATA, add(CFA_XSP16, literal(-5)))
          CFI ?RET_HIGH load(1, XDATA, add(CFA_XSP16, literal(-4)))
          CFI ?BRET_EXT load(1, XDATA, add(CFA_XSP16, literal(-3)))
          CFI DPL0 load(1, XDATA, add(CFA_XSP16, literal(-2)))
          CFI DPH0 load(1, XDATA, add(CFA_XSP16, literal(-1)))
          CFI CFA_SP SP+-2
          CFI CFA_XSP16 add(XSP16, 9)
          CFI Block cfiCond2 Using cfiCommon0
          CFI (cfiCond2) Function MT_AfExec
          CFI (cfiCond2) Conditional ??CrossCallReturnLabel_54
          CFI (cfiCond2) R6 load(1, XDATA, add(CFA_XSP16, literal(-9)))
          CFI (cfiCond2) VB load(1, XDATA, add(CFA_XSP16, literal(-8)))
          CFI (cfiCond2) V0 load(1, XDATA, add(CFA_XSP16, literal(-7)))
          CFI (cfiCond2) R7 load(1, XDATA, add(CFA_XSP16, literal(-6)))
          CFI (cfiCond2) ?RET_LOW load(1, XDATA, add(CFA_XSP16, literal(-5)))
          CFI (cfiCond2) ?RET_HIGH load(1, XDATA, add(CFA_XSP16, literal(-4)))
          CFI (cfiCond2) ?BRET_EXT load(1, XDATA, add(CFA_XSP16, literal(-3)))
          CFI (cfiCond2) DPL0 load(1, XDATA, add(CFA_XSP16, literal(-2)))
          CFI (cfiCond2) DPH0 load(1, XDATA, add(CFA_XSP16, literal(-1)))
          CFI (cfiCond2) CFA_SP SP+-2
          CFI (cfiCond2) CFA_XSP16 add(XSP16, 9)
          CFI Block cfiPicker3 Using cfiCommon1
          CFI (cfiPicker3) NoFunction
          CFI (cfiPicker3) Picker
        MOV       A,R0
        MOVX      @DPTR,A
        INC       DPTR
        MOV       A,R1
        MOVX      @DPTR,A
        ; Setup parameters for call to function osal_mem_free
        ; Setup parameters for call to function osal_mem_free
        LCALL     `??osal_mem_free::?relay`; Banked call to: osal_mem_free
        RET
          CFI EndBlock cfiCond1
          CFI EndBlock cfiCond2
          CFI EndBlock cfiPicker3
//  198 
//  199 /***************************************************************************************************
//  200  * @fn      MT_AfCommandProcessing
//  201  *
//  202  * @brief   Process all the AF commands that are issued by test tool
//  203  *
//  204  * @param   pBuf - pointer to the received buffer
//  205  *
//  206  * @return  status
//  207  ***************************************************************************************************/

        RSEG BANKED_CODE:HUGECODE:NOROOT(0)
//  208 uint8 MT_AfCommandProcessing(uint8 *pBuf)
MT_AfCommandProcessing:
          CFI Block cfiBlock4 Using cfiCommon0
          CFI Function MT_AfCommandProcessing
        CODE
//  209 {
        FUNCALL MT_AfCommandProcessing, osal_mem_alloc
        LOCFRAME ISTACK, 0, STACK
        LOCFRAME PSTACK, 0, STACK
        LOCFRAME XSTACK, 20, STACK
        LOCFRAME IOVERLAY, 0, STATIC
        LOCFRAME DOVERLAY, 0, STATIC
        ARGFRAME ISTACK, 0, STACK
        ARGFRAME PSTACK, 0, STACK
        ARGFRAME XSTACK, 20, STACK
        ARGFRAME IOVERLAY, 0, STATIC
        ARGFRAME DOVERLAY, 0, STATIC
        FUNCALL MT_AfCommandProcessing, MT_BuildEndpointDesc
        LOCFRAME ISTACK, 0, STACK
        LOCFRAME PSTACK, 0, STACK
        LOCFRAME XSTACK, 20, STACK
        LOCFRAME IOVERLAY, 0, STATIC
        LOCFRAME DOVERLAY, 0, STATIC
        ARGFRAME ISTACK, 0, STACK
        ARGFRAME PSTACK, 0, STACK
        ARGFRAME XSTACK, 20, STACK
        ARGFRAME IOVERLAY, 0, STATIC
        ARGFRAME DOVERLAY, 0, STATIC
        FUNCALL MT_AfCommandProcessing, afRegister
        LOCFRAME ISTACK, 0, STACK
        LOCFRAME PSTACK, 0, STACK
        LOCFRAME XSTACK, 20, STACK
        LOCFRAME IOVERLAY, 0, STATIC
        LOCFRAME DOVERLAY, 0, STATIC
        ARGFRAME ISTACK, 0, STACK
        ARGFRAME PSTACK, 0, STACK
        ARGFRAME XSTACK, 20, STACK
        ARGFRAME IOVERLAY, 0, STATIC
        ARGFRAME DOVERLAY, 0, STATIC
        FUNCALL MT_AfCommandProcessing, osal_mem_free
        LOCFRAME ISTACK, 0, STACK
        LOCFRAME PSTACK, 0, STACK
        LOCFRAME XSTACK, 20, STACK
        LOCFRAME IOVERLAY, 0, STATIC
        LOCFRAME DOVERLAY, 0, STATIC
        ARGFRAME ISTACK, 0, STACK
        ARGFRAME PSTACK, 0, STACK
        ARGFRAME XSTACK, 20, STACK
        ARGFRAME IOVERLAY, 0, STATIC
        ARGFRAME DOVERLAY, 0, STATIC
        FUNCALL MT_AfCommandProcessing, MT_BuildAndSendZToolResponse
        LOCFRAME ISTACK, 0, STACK
        LOCFRAME PSTACK, 0, STACK
        LOCFRAME XSTACK, 20, STACK
        LOCFRAME IOVERLAY, 0, STATIC
        LOCFRAME DOVERLAY, 0, STATIC
        ARGFRAME ISTACK, 0, STACK
        ARGFRAME PSTACK, 0, STACK
        ARGFRAME XSTACK, 20, STACK
        ARGFRAME IOVERLAY, 0, STATIC
        ARGFRAME DOVERLAY, 0, STATIC
        FUNCALL MT_AfCommandProcessing, afDelete
        LOCFRAME ISTACK, 0, STACK
        LOCFRAME PSTACK, 0, STACK
        LOCFRAME XSTACK, 20, STACK
        LOCFRAME IOVERLAY, 0, STATIC
        LOCFRAME DOVERLAY, 0, STATIC
        ARGFRAME ISTACK, 0, STACK
        ARGFRAME PSTACK, 0, STACK
        ARGFRAME XSTACK, 20, STACK
        ARGFRAME IOVERLAY, 0, STATIC
        ARGFRAME DOVERLAY, 0, STATIC
        FUNCALL MT_AfCommandProcessing, MT_BuildAndSendZToolResponse
        LOCFRAME ISTACK, 0, STACK
        LOCFRAME PSTACK, 0, STACK
        LOCFRAME XSTACK, 20, STACK
        LOCFRAME IOVERLAY, 0, STATIC
        LOCFRAME DOVERLAY, 0, STATIC
        ARGFRAME ISTACK, 0, STACK
        ARGFRAME PSTACK, 0, STACK
        ARGFRAME XSTACK, 20, STACK
        ARGFRAME IOVERLAY, 0, STATIC
        ARGFRAME DOVERLAY, 0, STATIC
        FUNCALL MT_AfCommandProcessing, MT_AfDataRequest
        LOCFRAME ISTACK, 0, STACK
        LOCFRAME PSTACK, 0, STACK
        LOCFRAME XSTACK, 20, STACK
        LOCFRAME IOVERLAY, 0, STATIC
        LOCFRAME DOVERLAY, 0, STATIC
        ARGFRAME ISTACK, 0, STACK
        ARGFRAME PSTACK, 0, STACK
        ARGFRAME XSTACK, 20, STACK
        ARGFRAME IOVERLAY, 0, STATIC
        ARGFRAME DOVERLAY, 0, STATIC
        FUNCALL MT_AfCommandProcessing, MT_AfDataRequestSrcRtg
        LOCFRAME ISTACK, 0, STACK
        LOCFRAME PSTACK, 0, STACK
        LOCFRAME XSTACK, 20, STACK
        LOCFRAME IOVERLAY, 0, STATIC
        LOCFRAME DOVERLAY, 0, STATIC
        ARGFRAME ISTACK, 0, STACK
        ARGFRAME PSTACK, 0, STACK
        ARGFRAME XSTACK, 20, STACK
        ARGFRAME IOVERLAY, 0, STATIC
        ARGFRAME DOVERLAY, 0, STATIC
        FUNCALL MT_AfCommandProcessing, osal_build_uint16
        LOCFRAME ISTACK, 0, STACK
        LOCFRAME PSTACK, 0, STACK
        LOCFRAME XSTACK, 20, STACK
        LOCFRAME IOVERLAY, 0, STATIC
        LOCFRAME DOVERLAY, 0, STATIC
        ARGFRAME ISTACK, 0, STACK
        ARGFRAME PSTACK, 0, STACK
        ARGFRAME XSTACK, 20, STACK
        ARGFRAME IOVERLAY, 0, STATIC
        ARGFRAME DOVERLAY, 0, STATIC
        FUNCALL MT_AfCommandProcessing, StubAPS_InterPan
        LOCFRAME ISTACK, 0, STACK
        LOCFRAME PSTACK, 0, STACK
        LOCFRAME XSTACK, 20, STACK
        LOCFRAME IOVERLAY, 0, STATIC
        LOCFRAME DOVERLAY, 0, STATIC
        ARGFRAME ISTACK, 0, STACK
        ARGFRAME PSTACK, 0, STACK
        ARGFRAME XSTACK, 20, STACK
        ARGFRAME IOVERLAY, 0, STATIC
        ARGFRAME DOVERLAY, 0, STATIC
        FUNCALL MT_AfCommandProcessing, afFindEndPointDesc
        LOCFRAME ISTACK, 0, STACK
        LOCFRAME PSTACK, 0, STACK
        LOCFRAME XSTACK, 20, STACK
        LOCFRAME IOVERLAY, 0, STATIC
        LOCFRAME DOVERLAY, 0, STATIC
        ARGFRAME ISTACK, 0, STACK
        ARGFRAME PSTACK, 0, STACK
        ARGFRAME XSTACK, 20, STACK
        ARGFRAME IOVERLAY, 0, STATIC
        ARGFRAME DOVERLAY, 0, STATIC
        FUNCALL MT_AfCommandProcessing, StubAPS_RegisterApp
        LOCFRAME ISTACK, 0, STACK
        LOCFRAME PSTACK, 0, STACK
        LOCFRAME XSTACK, 20, STACK
        LOCFRAME IOVERLAY, 0, STATIC
        LOCFRAME DOVERLAY, 0, STATIC
        ARGFRAME ISTACK, 0, STACK
        ARGFRAME PSTACK, 0, STACK
        ARGFRAME XSTACK, 20, STACK
        ARGFRAME IOVERLAY, 0, STATIC
        ARGFRAME DOVERLAY, 0, STATIC
        FUNCALL MT_AfCommandProcessing, StubAPS_SetInterPanChannel
        LOCFRAME ISTACK, 0, STACK
        LOCFRAME PSTACK, 0, STACK
        LOCFRAME XSTACK, 20, STACK
        LOCFRAME IOVERLAY, 0, STATIC
        LOCFRAME DOVERLAY, 0, STATIC
        ARGFRAME ISTACK, 0, STACK
        ARGFRAME PSTACK, 0, STACK
        ARGFRAME XSTACK, 20, STACK
        ARGFRAME IOVERLAY, 0, STATIC
        ARGFRAME DOVERLAY, 0, STATIC
        FUNCALL MT_AfCommandProcessing, StubAPS_SetIntraPanChannel
        LOCFRAME ISTACK, 0, STACK
        LOCFRAME PSTACK, 0, STACK
        LOCFRAME XSTACK, 20, STACK
        LOCFRAME IOVERLAY, 0, STATIC
        LOCFRAME DOVERLAY, 0, STATIC
        ARGFRAME ISTACK, 0, STACK
        ARGFRAME PSTACK, 0, STACK
        ARGFRAME XSTACK, 20, STACK
        ARGFRAME IOVERLAY, 0, STATIC
        ARGFRAME DOVERLAY, 0, STATIC
        FUNCALL MT_AfCommandProcessing, MT_BuildAndSendZToolResponse
        LOCFRAME ISTACK, 0, STACK
        LOCFRAME PSTACK, 0, STACK
        LOCFRAME XSTACK, 20, STACK
        LOCFRAME IOVERLAY, 0, STATIC
        LOCFRAME DOVERLAY, 0, STATIC
        ARGFRAME ISTACK, 0, STACK
        ARGFRAME PSTACK, 0, STACK
        ARGFRAME XSTACK, 20, STACK
        ARGFRAME IOVERLAY, 0, STATIC
        ARGFRAME DOVERLAY, 0, STATIC
        FUNCALL MT_AfCommandProcessing, MT_AfDataRetrieve
        LOCFRAME ISTACK, 0, STACK
        LOCFRAME PSTACK, 0, STACK
        LOCFRAME XSTACK, 20, STACK
        LOCFRAME IOVERLAY, 0, STATIC
        LOCFRAME DOVERLAY, 0, STATIC
        ARGFRAME ISTACK, 0, STACK
        ARGFRAME PSTACK, 0, STACK
        ARGFRAME XSTACK, 20, STACK
        ARGFRAME IOVERLAY, 0, STATIC
        ARGFRAME DOVERLAY, 0, STATIC
        FUNCALL MT_AfCommandProcessing, MT_AfDataStore
        LOCFRAME ISTACK, 0, STACK
        LOCFRAME PSTACK, 0, STACK
        LOCFRAME XSTACK, 20, STACK
        LOCFRAME IOVERLAY, 0, STATIC
        LOCFRAME DOVERLAY, 0, STATIC
        ARGFRAME ISTACK, 0, STACK
        ARGFRAME PSTACK, 0, STACK
        ARGFRAME XSTACK, 20, STACK
        ARGFRAME IOVERLAY, 0, STATIC
        ARGFRAME DOVERLAY, 0, STATIC
        FUNCALL MT_AfCommandProcessing, afAPSF_ConfigSet
        LOCFRAME ISTACK, 0, STACK
        LOCFRAME PSTACK, 0, STACK
        LOCFRAME XSTACK, 20, STACK
        LOCFRAME IOVERLAY, 0, STATIC
        LOCFRAME DOVERLAY, 0, STATIC
        ARGFRAME ISTACK, 0, STACK
        ARGFRAME PSTACK, 0, STACK
        ARGFRAME XSTACK, 20, STACK
        ARGFRAME IOVERLAY, 0, STATIC
        ARGFRAME DOVERLAY, 0, STATIC
        FUNCALL MT_AfCommandProcessing, MT_BuildAndSendZToolResponse
        LOCFRAME ISTACK, 0, STACK
        LOCFRAME PSTACK, 0, STACK
        LOCFRAME XSTACK, 20, STACK
        LOCFRAME IOVERLAY, 0, STATIC
        LOCFRAME DOVERLAY, 0, STATIC
        ARGFRAME ISTACK, 0, STACK
        ARGFRAME PSTACK, 0, STACK
        ARGFRAME XSTACK, 20, STACK
        ARGFRAME IOVERLAY, 0, STATIC
        ARGFRAME DOVERLAY, 0, STATIC
        FUNCALL MT_AfCommandProcessing, afAPSF_ConfigGet
        LOCFRAME ISTACK, 0, STACK
        LOCFRAME PSTACK, 0, STACK
        LOCFRAME XSTACK, 20, STACK
        LOCFRAME IOVERLAY, 0, STATIC
        LOCFRAME DOVERLAY, 0, STATIC
        ARGFRAME ISTACK, 0, STACK
        ARGFRAME PSTACK, 0, STACK
        ARGFRAME XSTACK, 20, STACK
        ARGFRAME IOVERLAY, 0, STATIC
        ARGFRAME DOVERLAY, 0, STATIC
        FUNCALL MT_AfCommandProcessing, MT_BuildAndSendZToolResponse
        LOCFRAME ISTACK, 0, STACK
        LOCFRAME PSTACK, 0, STACK
        LOCFRAME XSTACK, 20, STACK
        LOCFRAME IOVERLAY, 0, STATIC
        LOCFRAME DOVERLAY, 0, STATIC
        ARGFRAME ISTACK, 0, STACK
        ARGFRAME PSTACK, 0, STACK
        ARGFRAME XSTACK, 20, STACK
        ARGFRAME IOVERLAY, 0, STATIC
        ARGFRAME DOVERLAY, 0, STATIC
        REQUIRE ?V0
        REQUIRE ?V1
        REQUIRE ?V2
        REQUIRE ?V3
        REQUIRE ?V4
        REQUIRE ?V5
        MOV       A,#-0xe
        LCALL     ?BANKED_ENTER_XDATA
          CFI DPH0 load(1, XDATA, add(CFA_XSP16, literal(-1)))
          CFI DPL0 load(1, XDATA, add(CFA_XSP16, literal(-2)))
          CFI ?BRET_EXT load(1, XDATA, add(CFA_XSP16, literal(-3)))
          CFI ?RET_HIGH load(1, XDATA, add(CFA_XSP16, literal(-4)))
          CFI ?RET_LOW load(1, XDATA, add(CFA_XSP16, literal(-5)))
          CFI R7 load(1, XDATA, add(CFA_XSP16, literal(-6)))
          CFI V5 load(1, XDATA, add(CFA_XSP16, literal(-7)))
          CFI V4 load(1, XDATA, add(CFA_XSP16, literal(-8)))
          CFI V3 load(1, XDATA, add(CFA_XSP16, literal(-9)))
          CFI V2 load(1, XDATA, add(CFA_XSP16, literal(-10)))
          CFI V1 load(1, XDATA, add(CFA_XSP16, literal(-11)))
          CFI V0 load(1, XDATA, add(CFA_XSP16, literal(-12)))
          CFI VB load(1, XDATA, add(CFA_XSP16, literal(-13)))
          CFI R6 load(1, XDATA, add(CFA_XSP16, literal(-14)))
          CFI CFA_SP SP+0
          CFI CFA_XSP16 add(XSP16, 14)
        ; Saved register size: 14
        ; Auto size: 6
        MOV       A,#-0x6
        LCALL     ?ALLOC_XSTACK8
          CFI CFA_XSP16 add(XSP16, 20)
        MOV       A,R2
        MOV       R6,A
        MOV       A,R3
        MOV       R7,A
//  210   uint8 status = MT_RPC_SUCCESS;
        MOV       ?V0,#0x0
//  211 
//  212   switch (pBuf[MT_RPC_POS_CMD1])
        MOV       DPL,R2
        MOV       DPH,A
        INC       DPTR
        INC       DPTR
        MOVX      A,@DPTR
        JZ        ??MT_AfCommandProcessing_0
        DEC       A
        JNZ       $+5
        LJMP      ??MT_AfCommandProcessing_1 & 0xFFFF
        DEC       A
        JNZ       $+5
        LJMP      ??MT_AfCommandProcessing_1 & 0xFFFF
        DEC       A
        JNZ       $+5
        LJMP      ??MT_AfCommandProcessing_2 & 0xFFFF
        DEC       A
        JZ        ??MT_AfCommandProcessing_3
        ADD       A,#-0xc
        JNZ       $+5
        LJMP      ??MT_AfCommandProcessing_4 & 0xFFFF
        DEC       A
        JNZ       $+5
        LJMP      ??MT_AfCommandProcessing_5 & 0xFFFF
        DEC       A
        JNZ       $+5
        LJMP      ??MT_AfCommandProcessing_6 & 0xFFFF
        DEC       A
        JNZ       $+5
        LJMP      ??MT_AfCommandProcessing_7 & 0xFFFF
        DEC       A
        JNZ       $+5
        LJMP      ??MT_AfCommandProcessing_8 & 0xFFFF
        LJMP      ??MT_AfCommandProcessing_9 & 0xFFFF
//  213   {
//  214     case MT_AF_REGISTER:
//  215       MT_AfRegister(pBuf);
??MT_AfCommandProcessing_0:
        LCALL     ?Subroutine25 & 0xFFFF
??CrossCallReturnLabel_41:
        ; Setup parameters for call to function osal_mem_alloc
        MOV       R2,#0x7
        MOV       R3,#0x0
        LCALL     `??osal_mem_alloc::?relay`; Banked call to: osal_mem_alloc
        MOV       ?V2,R2
        MOV       ?V3,R3
        MOV       A,R2
        ORL       A,R3
        JZ        ??MT_AfCommandProcessing_10
        MOV       DPL,R2
        MOV       DPH,R3
        INC       DPTR
        INC       DPTR
        MOV       A,#MT_TaskID & 0xff
        MOVX      @DPTR,A
        INC       DPTR
        MOV       A,#(MT_TaskID >> 8) & 0xff
        MOVX      @DPTR,A
        ; Setup parameters for call to function MT_BuildEndpointDesc
        MOV       R4,?V2
        MOV       R5,?V3
        MOV       A,R6
        ADD       A,#0x3
        MOV       R2,A
        CLR       A
        ADDC      A,R7
        MOV       R3,A
        LCALL     `??MT_BuildEndpointDesc::?relay`; Banked call to: MT_BuildEndpointDesc
        MOV       A,R1
        MOV       DPL,?XSP + 0
        MOV       DPH,?XSP + 1
        MOVX      @DPTR,A
        JNZ       ??MT_AfCommandProcessing_11
        ; Setup parameters for call to function afRegister
        MOV       R2,?V2
        MOV       R3,?V3
        LCALL     `??afRegister::?relay`; Banked call to: afRegister
        MOV       A,R1
        MOV       DPL,?XSP + 0
        MOV       DPH,?XSP + 1
        MOVX      @DPTR,A
??MT_AfCommandProcessing_11:
        MOVX      A,@DPTR
        JZ        ??MT_AfCommandProcessing_10
        ; Setup parameters for call to function osal_mem_free
        MOV       R2,?V2
        MOV       R3,?V3
        LCALL     `??osal_mem_free::?relay`; Banked call to: osal_mem_free
        ; Setup parameters for call to function MT_BuildAndSendZToolResponse
        SJMP      ??MT_AfCommandProcessing_10
//  216       break;
//  217 
//  218     case MT_AF_DELETE:
//  219       MT_AfDelete( pBuf );
??MT_AfCommandProcessing_3:
        LCALL     ?Subroutine25 & 0xFFFF
??CrossCallReturnLabel_42:
        ; Setup parameters for call to function afDelete
        MOV       DPL,R2
        MOV       DPH,R3
        INC       DPTR
        INC       DPTR
        INC       DPTR
        MOVX      A,@DPTR
        MOV       R1,A
        LCALL     `??afDelete::?relay`; Banked call to: afDelete
        MOV       A,R1
        MOV       DPL,?XSP + 0
        MOV       DPH,?XSP + 1
        MOVX      @DPTR,A
        ; Setup parameters for call to function MT_BuildAndSendZToolResponse
??MT_AfCommandProcessing_10:
        MOV       R4,?XSP + 0
        MOV       R5,?XSP + 1
        LJMP      ??MT_AfCommandProcessing_12 & 0xFFFF
//  220       break;
//  221 
//  222     case MT_AF_DATA_REQUEST:
//  223     case MT_AF_DATA_REQUEST_EXT:
//  224       MT_AfDataRequest(pBuf);
??MT_AfCommandProcessing_1:
        ; Setup parameters for call to function MT_AfDataRequest
        LCALL     `??MT_AfDataRequest::?relay`; Banked call to: MT_AfDataRequest
//  225       break;
        LJMP      ??MT_AfCommandProcessing_13 & 0xFFFF
//  226 
//  227 #if defined( ZIGBEEPRO )
//  228     case MT_AF_DATA_REQUEST_SRCRTG:
//  229       MT_AfDataRequestSrcRtg(pBuf);
??MT_AfCommandProcessing_2:
        ; Setup parameters for call to function MT_AfDataRequestSrcRtg
        LCALL     `??MT_AfDataRequestSrcRtg::?relay`; Banked call to: MT_AfDataRequestSrcRtg
//  230       break;
        LJMP      ??MT_AfCommandProcessing_13 & 0xFFFF
//  231 #endif
//  232 
//  233 #if defined INTER_PAN
//  234     case MT_AF_INTER_PAN_CTL:
//  235       MT_AfInterPanCtl(pBuf);
??MT_AfCommandProcessing_4:
        MOV       DPL,R2
        MOV       DPH,R3
        INC       DPTR
        INC       DPTR
        MOVX      A,@DPTR
        MOV       ?V1,A
        MOV       A,R2
        ADD       A,#0x3
        MOV       R0,A
        CLR       A
        ADDC      A,R7
        MOV       DPL,R0
        MOV       DPH,A
        INC       DPTR
        MOV       ?V2,DPL
        MOV       ?V3,DPH
        MOV       DPL,R0
        MOV       DPH,A
        MOVX      A,@DPTR
        JZ        ??MT_AfCommandProcessing_14
        DEC       A
        JZ        ??MT_AfCommandProcessing_15
        DEC       A
        JZ        ??MT_AfCommandProcessing_16
        DEC       A
        JNZ       ??MT_AfCommandProcessing_17
        ; Setup parameters for call to function osal_build_uint16
        MOV       R2,?V2
        MOV       R3,?V3
        LCALL     `??osal_build_uint16::?relay`; Banked call to: osal_build_uint16
        ; Setup parameters for call to function StubAPS_InterPan
        MOV       DPL,?V2
        MOV       DPH,?V3
        INC       DPTR
        INC       DPTR
        MOVX      A,@DPTR
        MOV       R1,A
        LCALL     `??StubAPS_InterPan::?relay`; Banked call to: StubAPS_InterPan
        MOV       A,R1
        MOV       DPL,?XSP + 0
        MOV       DPH,?XSP + 1
        JZ        ??MT_AfCommandProcessing_18
        CLR       A
        SJMP      ??MT_AfCommandProcessing_19
??MT_AfCommandProcessing_18:
        MOV       A,#0x1
??MT_AfCommandProcessing_19:
        MOVX      @DPTR,A
        MOVX      A,@DPTR
        PUSH      A
          CFI CFA_SP SP+-1
        MOV       A,#0x1
        LCALL     ?XSTACK_DISP0_8
        POP       A
          CFI CFA_SP SP+0
        SJMP      ??MT_AfCommandProcessing_20
??MT_AfCommandProcessing_16:
        ; Setup parameters for call to function afFindEndPointDesc
        MOV       DPL,?V2
        MOV       DPH,?V3
        MOVX      A,@DPTR
        MOV       R1,A
        LCALL     `??afFindEndPointDesc::?relay`; Banked call to: afFindEndPointDesc
        MOV       A,R2
        ORL       A,R3
        JZ        ??MT_AfCommandProcessing_21
        ; Setup parameters for call to function StubAPS_RegisterApp
        LCALL     `??StubAPS_RegisterApp::?relay`; Banked call to: StubAPS_RegisterApp
        MOV       A,#0x1
        LCALL     ?XSTACK_DISP0_8
        CLR       A
        SJMP      ??MT_AfCommandProcessing_20
??MT_AfCommandProcessing_21:
        MOV       A,#0x1
        LCALL     ?XSTACK_DISP0_8
        MOV       A,#0x1
        SJMP      ??MT_AfCommandProcessing_20
??MT_AfCommandProcessing_15:
        ; Setup parameters for call to function StubAPS_SetInterPanChannel
        MOV       DPL,?V2
        MOV       DPH,?V3
        MOVX      A,@DPTR
        MOV       R1,A
        LCALL     `??StubAPS_SetInterPanChannel::?relay`; Banked call to: StubAPS_SetInterPanChannel
        SJMP      ??MT_AfCommandProcessing_22
??MT_AfCommandProcessing_14:
        ; Setup parameters for call to function StubAPS_SetIntraPanChannel
        LCALL     `??StubAPS_SetIntraPanChannel::?relay`; Banked call to: StubAPS_SetIntraPanChannel
??MT_AfCommandProcessing_22:
        MOV       A,#0x1
        LCALL     ?XSTACK_DISP0_8
        MOV       A,R1
        SJMP      ??MT_AfCommandProcessing_20
??MT_AfCommandProcessing_17:
        MOV       A,#0x1
        LCALL     ?XSTACK_DISP0_8
        MOV       A,#0x2
??MT_AfCommandProcessing_20:
        MOVX      @DPTR,A
        ; Setup parameters for call to function MT_BuildAndSendZToolResponse
        MOV       A,#0x1
        LCALL     ?XSTACK_DISP102_8
??MT_AfCommandProcessing_12:
        MOV       R3,#0x1
        MOV       R2,?V1
        LJMP      ??MT_AfCommandProcessing_23 & 0xFFFF
//  236       break;
//  237 #endif
//  238 
//  239     case MT_AF_DATA_RETRIEVE:
//  240       MT_AfDataRetrieve(pBuf);
??MT_AfCommandProcessing_6:
        ; Setup parameters for call to function MT_AfDataRetrieve
        LCALL     `??MT_AfDataRetrieve::?relay`; Banked call to: MT_AfDataRetrieve
//  241       break;
        LJMP      ??MT_AfCommandProcessing_13 & 0xFFFF
//  242 
//  243     case MT_AF_DATA_STORE:
//  244       MT_AfDataStore(pBuf);
??MT_AfCommandProcessing_5:
        ; Setup parameters for call to function MT_AfDataStore
        LCALL     `??MT_AfDataStore::?relay`; Banked call to: MT_AfDataStore
//  245       break;
        LJMP      ??MT_AfCommandProcessing_13 & 0xFFFF
//  246 
//  247     case MT_AF_APSF_CONFIG_SET:
//  248       MT_AfAPSF_ConfigSet(pBuf);
??MT_AfCommandProcessing_7:
        MOV       DPL,R2
        MOV       DPH,R3
        INC       DPTR
        INC       DPTR
        INC       DPTR
        INC       DPTR
        MOVX      A,@DPTR
        PUSH      A
          CFI CFA_SP SP+-1
        MOV       A,#0x2
        LCALL     ?XSTACK_DISP0_8
        POP       A
          CFI CFA_SP SP+0
        LCALL     ?Subroutine26 & 0xFFFF
??CrossCallReturnLabel_43:
        INC       DPTR
        MOVX      A,@DPTR
        PUSH      A
          CFI CFA_SP SP+-1
        MOV       A,#0x3
        LCALL     ?XSTACK_DISP0_8
        POP       A
          CFI CFA_SP SP+0
        MOVX      @DPTR,A
        ; Setup parameters for call to function afAPSF_ConfigSet
        MOV       A,#0x2
        LCALL     ?XSTACK_DISP101_8
        MOV       DPL,R6
        MOV       DPH,R7
        INC       DPTR
        INC       DPTR
        INC       DPTR
        MOVX      A,@DPTR
        MOV       R1,A
        LCALL     `??afAPSF_ConfigSet::?relay`; Banked call to: afAPSF_ConfigSet
        MOV       A,R1
        MOV       DPL,?XSP + 0
        MOV       DPH,?XSP + 1
        LCALL     ?Subroutine27 & 0xFFFF
??CrossCallReturnLabel_45:
        MOV       R3,#0x1
        MOV       R2,#0x13
        SJMP      ??MT_AfCommandProcessing_23
//  249       break;
//  250 
//  251     case MT_AF_APSF_CONFIG_GET:
//  252       MT_AfAPSF_ConfigGet(pBuf);
??MT_AfCommandProcessing_8:
        MOV       DPTR,#`?<Constant {0, 0}>`
        MOV       A,#0x2
        LCALL     ?XSTACK_DISP102_8
        MOV       A,#0x2
        LCALL     ?MOVE_LONG8_XDATA_XDATA
        ; Setup parameters for call to function afAPSF_ConfigGet
        MOV       A,#0x2
        LCALL     ?XSTACK_DISP101_8
        MOV       DPL,R6
        MOV       DPH,R7
        INC       DPTR
        INC       DPTR
        INC       DPTR
        MOVX      A,@DPTR
        MOV       R1,A
        LCALL     `??afAPSF_ConfigGet::?relay`; Banked call to: afAPSF_ConfigGet
        MOV       A,#0x2
        LCALL     ?XSTACK_DISP0_8
        MOVX      A,@DPTR
        PUSH      A
          CFI CFA_SP SP+-1
        MOV       A,#0x4
        LCALL     ?XSTACK_DISP0_8
        POP       A
          CFI CFA_SP SP+0
        MOVX      @DPTR,A
        MOV       A,#0x3
        LCALL     ?XSTACK_DISP0_8
        MOVX      A,@DPTR
        PUSH      A
          CFI CFA_SP SP+-1
        MOV       A,#0x5
        LCALL     ?XSTACK_DISP0_8
        POP       A
          CFI CFA_SP SP+0
        MOVX      @DPTR,A
        ; Setup parameters for call to function MT_BuildAndSendZToolResponse
        MOV       A,#0x4
        LCALL     ?XSTACK_DISP102_8
        MOV       R3,#0x3
        MOV       R2,#0x14
??MT_AfCommandProcessing_23:
        MOV       R1,#0x64
        LCALL     `??MT_BuildAndSendZToolResponse::?relay`; Banked call to: MT_BuildAndSendZToolResponse
//  253       break;
        SJMP      ??MT_AfCommandProcessing_13
//  254 
//  255     default:
//  256       status = MT_RPC_ERR_COMMAND_ID;
??MT_AfCommandProcessing_9:
        MOV       ?V0,#0x2
//  257       break;
//  258   }
//  259 
//  260   return status;
??MT_AfCommandProcessing_13:
        MOV       R1,?V0
        MOV       A,#0x6
          CFI EndBlock cfiBlock4
        REQUIRE ?Subroutine0
        ; // Fall through to label ?Subroutine0
//  261 }

        RSEG BANKED_CODE:HUGECODE:NOROOT(0)
?Subroutine0:
          CFI Block cfiBlock5 Using cfiCommon0
          CFI NoFunction
          CFI CFA_SP SP+0
          CFI CFA_XSP16 add(XSP16, 20)
          CFI VB load(1, XDATA, add(CFA_XSP16, literal(-13)))
          CFI DPL0 load(1, XDATA, add(CFA_XSP16, literal(-2)))
          CFI DPH0 load(1, XDATA, add(CFA_XSP16, literal(-1)))
          CFI R6 load(1, XDATA, add(CFA_XSP16, literal(-14)))
          CFI R7 load(1, XDATA, add(CFA_XSP16, literal(-6)))
          CFI V0 load(1, XDATA, add(CFA_XSP16, literal(-12)))
          CFI V1 load(1, XDATA, add(CFA_XSP16, literal(-11)))
          CFI V2 load(1, XDATA, add(CFA_XSP16, literal(-10)))
          CFI V3 load(1, XDATA, add(CFA_XSP16, literal(-9)))
          CFI V4 load(1, XDATA, add(CFA_XSP16, literal(-8)))
          CFI V5 load(1, XDATA, add(CFA_XSP16, literal(-7)))
          CFI ?BRET_EXT load(1, XDATA, add(CFA_XSP16, literal(-3)))
          CFI ?RET_HIGH load(1, XDATA, add(CFA_XSP16, literal(-4)))
          CFI ?RET_LOW load(1, XDATA, add(CFA_XSP16, literal(-5)))
          CFI Invalid
        LCALL     ?DEALLOC_XSTACK8
          CFI CFA_XSP16 add(XSP16, 14)
          CFI Valid
        MOV       R7,#0x6
        LJMP      ?BANKED_LEAVE_XDATA
          CFI EndBlock cfiBlock5

        RSEG BANKED_CODE:HUGECODE:NOROOT(0)
?Subroutine25:
          CFI Block cfiCond6 Using cfiCommon0
          CFI Function MT_AfCommandProcessing
          CFI Conditional ??CrossCallReturnLabel_41
          CFI R6 load(1, XDATA, add(CFA_XSP16, literal(-14)))
          CFI VB load(1, XDATA, add(CFA_XSP16, literal(-13)))
          CFI V0 load(1, XDATA, add(CFA_XSP16, literal(-12)))
          CFI V1 load(1, XDATA, add(CFA_XSP16, literal(-11)))
          CFI V2 load(1, XDATA, add(CFA_XSP16, literal(-10)))
          CFI V3 load(1, XDATA, add(CFA_XSP16, literal(-9)))
          CFI V4 load(1, XDATA, add(CFA_XSP16, literal(-8)))
          CFI V5 load(1, XDATA, add(CFA_XSP16, literal(-7)))
          CFI R7 load(1, XDATA, add(CFA_XSP16, literal(-6)))
          CFI ?RET_LOW load(1, XDATA, add(CFA_XSP16, literal(-5)))
          CFI ?RET_HIGH load(1, XDATA, add(CFA_XSP16, literal(-4)))
          CFI ?BRET_EXT load(1, XDATA, add(CFA_XSP16, literal(-3)))
          CFI DPL0 load(1, XDATA, add(CFA_XSP16, literal(-2)))
          CFI DPH0 load(1, XDATA, add(CFA_XSP16, literal(-1)))
          CFI CFA_SP SP+-2
          CFI CFA_XSP16 add(XSP16, 20)
          CFI Block cfiCond7 Using cfiCommon0
          CFI (cfiCond7) Function MT_AfCommandProcessing
          CFI (cfiCond7) Conditional ??CrossCallReturnLabel_42
          CFI (cfiCond7) R6 load(1, XDATA, add(CFA_XSP16, literal(-14)))
          CFI (cfiCond7) VB load(1, XDATA, add(CFA_XSP16, literal(-13)))
          CFI (cfiCond7) V0 load(1, XDATA, add(CFA_XSP16, literal(-12)))
          CFI (cfiCond7) V1 load(1, XDATA, add(CFA_XSP16, literal(-11)))
          CFI (cfiCond7) V2 load(1, XDATA, add(CFA_XSP16, literal(-10)))
          CFI (cfiCond7) V3 load(1, XDATA, add(CFA_XSP16, literal(-9)))
          CFI (cfiCond7) V4 load(1, XDATA, add(CFA_XSP16, literal(-8)))
          CFI (cfiCond7) V5 load(1, XDATA, add(CFA_XSP16, literal(-7)))
          CFI (cfiCond7) R7 load(1, XDATA, add(CFA_XSP16, literal(-6)))
          CFI (cfiCond7) ?RET_LOW load(1, XDATA, add(CFA_XSP16, literal(-5)))
          CFI (cfiCond7) ?RET_HIGH load(1, XDATA, add(CFA_XSP16, literal(-4)))
          CFI (cfiCond7) ?BRET_EXT load(1, XDATA, add(CFA_XSP16, literal(-3)))
          CFI (cfiCond7) DPL0 load(1, XDATA, add(CFA_XSP16, literal(-2)))
          CFI (cfiCond7) DPH0 load(1, XDATA, add(CFA_XSP16, literal(-1)))
          CFI (cfiCond7) CFA_SP SP+-2
          CFI (cfiCond7) CFA_XSP16 add(XSP16, 20)
          CFI Block cfiPicker8 Using cfiCommon1
          CFI (cfiPicker8) NoFunction
          CFI (cfiPicker8) Picker
        MOV       DPL,?XSP + 0
        MOV       DPH,?XSP + 1
        MOV       A,#0x10
        LCALL     ?Subroutine42 & 0xFFFF
??CrossCallReturnLabel_75:
        MOV       ?V1,A
        RET
          CFI EndBlock cfiCond6
          CFI EndBlock cfiCond7
          CFI EndBlock cfiPicker8
//  262 
//  263 /***************************************************************************************************
//  264  * @fn      MT_AfRegister
//  265  *
//  266  * @brief   Process AF Register command
//  267  *
//  268  * @param   pBuf - pointer to the received buffer
//  269  *
//  270  * @return  none
//  271  ***************************************************************************************************/
//  272 static void MT_AfRegister(uint8 *pBuf)
//  273 {
//  274   uint8 cmdId;
//  275   uint8 retValue = ZMemError;
//  276   endPointDesc_t *epDesc;
//  277 
//  278   /* parse header */
//  279   cmdId = pBuf[MT_RPC_POS_CMD1];
//  280   pBuf += MT_RPC_FRAME_HDR_SZ;
//  281 
//  282   epDesc = (endPointDesc_t *)osal_mem_alloc(sizeof(endPointDesc_t));
//  283   if ( epDesc )
//  284   {
//  285     epDesc->task_id = &MT_TaskID;
//  286     retValue = MT_BuildEndpointDesc( pBuf, epDesc );
//  287     if ( retValue == ZSuccess )
//  288     {
//  289       retValue = afRegister( epDesc );
//  290     }
//  291 
//  292     if ( retValue != ZSuccess )
//  293     {
//  294       osal_mem_free( epDesc );
//  295     }
//  296   }
//  297 
//  298   /* Build and send back the response */
//  299   MT_BuildAndSendZToolResponse(((uint8)MT_RPC_CMD_SRSP | (uint8)MT_RPC_SYS_AF), cmdId, 1, &retValue);
//  300 }
//  301 
//  302 /***************************************************************************************************
//  303  * @fn      MT_AfDelete
//  304  *
//  305  * @brief   Process AF Delete Endpoint command
//  306  *
//  307  * @param   pBuf - pointer to the received buffer
//  308  *
//  309  * @return  none
//  310  ***************************************************************************************************/
//  311 static void MT_AfDelete(uint8 *pBuf)
//  312 {
//  313   uint8 cmdId;
//  314   uint8 retValue = ZMemError;
//  315 
//  316   /* parse header */
//  317   cmdId = pBuf[MT_RPC_POS_CMD1];
//  318   pBuf += MT_RPC_FRAME_HDR_SZ;
//  319 
//  320   retValue = afDelete( *pBuf );
//  321 
//  322   /* Build and send back the response */
//  323   MT_BuildAndSendZToolResponse(((uint8)MT_RPC_CMD_SRSP | (uint8)MT_RPC_SYS_AF), cmdId, 1, &retValue);
//  324 }
//  325 
//  326 /***************************************************************************************************
//  327  * @fn      MT_AfDataRequest
//  328  *
//  329  * @brief   Process AF Register command
//  330  *
//  331  * @param   pBuf - pointer to the received buffer
//  332  *
//  333  * @return  none
//  334  ***************************************************************************************************/

        RSEG BANKED_CODE:HUGECODE:NOROOT(0)
//  335 static void MT_AfDataRequest(uint8 *pBuf)
MT_AfDataRequest:
          CFI Block cfiBlock9 Using cfiCommon0
          CFI Function MT_AfDataRequest
        CODE
//  336 {
        FUNCALL MT_AfDataRequest, osal_memcpy
        LOCFRAME ISTACK, 0, STACK
        LOCFRAME PSTACK, 0, STACK
        LOCFRAME XSTACK, 38, STACK
        LOCFRAME IOVERLAY, 0, STATIC
        LOCFRAME DOVERLAY, 0, STATIC
        ARGFRAME ISTACK, 0, STACK
        ARGFRAME PSTACK, 0, STACK
        ARGFRAME XSTACK, 38, STACK
        ARGFRAME IOVERLAY, 0, STATIC
        ARGFRAME DOVERLAY, 0, STATIC
        FUNCALL MT_AfDataRequest, osal_build_uint16
        LOCFRAME ISTACK, 0, STACK
        LOCFRAME PSTACK, 0, STACK
        LOCFRAME XSTACK, 35, STACK
        LOCFRAME IOVERLAY, 0, STATIC
        LOCFRAME DOVERLAY, 0, STATIC
        ARGFRAME ISTACK, 0, STACK
        ARGFRAME PSTACK, 0, STACK
        ARGFRAME XSTACK, 35, STACK
        ARGFRAME IOVERLAY, 0, STATIC
        ARGFRAME DOVERLAY, 0, STATIC
        FUNCALL MT_AfDataRequest, osal_build_uint16
        LOCFRAME ISTACK, 0, STACK
        LOCFRAME PSTACK, 0, STACK
        LOCFRAME XSTACK, 35, STACK
        LOCFRAME IOVERLAY, 0, STATIC
        LOCFRAME DOVERLAY, 0, STATIC
        ARGFRAME ISTACK, 0, STACK
        ARGFRAME PSTACK, 0, STACK
        ARGFRAME XSTACK, 35, STACK
        ARGFRAME IOVERLAY, 0, STATIC
        ARGFRAME DOVERLAY, 0, STATIC
        FUNCALL MT_AfDataRequest, osal_build_uint16
        LOCFRAME ISTACK, 0, STACK
        LOCFRAME PSTACK, 0, STACK
        LOCFRAME XSTACK, 35, STACK
        LOCFRAME IOVERLAY, 0, STATIC
        LOCFRAME DOVERLAY, 0, STATIC
        ARGFRAME ISTACK, 0, STACK
        ARGFRAME PSTACK, 0, STACK
        ARGFRAME XSTACK, 35, STACK
        ARGFRAME IOVERLAY, 0, STATIC
        ARGFRAME DOVERLAY, 0, STATIC
        FUNCALL MT_AfDataRequest, afFindEndPointDesc
        LOCFRAME ISTACK, 0, STACK
        LOCFRAME PSTACK, 0, STACK
        LOCFRAME XSTACK, 35, STACK
        LOCFRAME IOVERLAY, 0, STATIC
        LOCFRAME DOVERLAY, 0, STATIC
        ARGFRAME ISTACK, 0, STACK
        ARGFRAME PSTACK, 0, STACK
        ARGFRAME XSTACK, 35, STACK
        ARGFRAME IOVERLAY, 0, STATIC
        ARGFRAME DOVERLAY, 0, STATIC
        FUNCALL MT_AfDataRequest, osal_build_uint16
        LOCFRAME ISTACK, 0, STACK
        LOCFRAME PSTACK, 0, STACK
        LOCFRAME XSTACK, 35, STACK
        LOCFRAME IOVERLAY, 0, STATIC
        LOCFRAME DOVERLAY, 0, STATIC
        ARGFRAME ISTACK, 0, STACK
        ARGFRAME PSTACK, 0, STACK
        ARGFRAME XSTACK, 35, STACK
        ARGFRAME IOVERLAY, 0, STATIC
        ARGFRAME DOVERLAY, 0, STATIC
        FUNCALL MT_AfDataRequest, osal_build_uint16
        LOCFRAME ISTACK, 0, STACK
        LOCFRAME PSTACK, 0, STACK
        LOCFRAME XSTACK, 35, STACK
        LOCFRAME IOVERLAY, 0, STATIC
        LOCFRAME DOVERLAY, 0, STATIC
        ARGFRAME ISTACK, 0, STACK
        ARGFRAME PSTACK, 0, STACK
        ARGFRAME XSTACK, 35, STACK
        ARGFRAME IOVERLAY, 0, STATIC
        ARGFRAME DOVERLAY, 0, STATIC
        FUNCALL MT_AfDataRequest, osal_mem_alloc
        LOCFRAME ISTACK, 0, STACK
        LOCFRAME PSTACK, 0, STACK
        LOCFRAME XSTACK, 35, STACK
        LOCFRAME IOVERLAY, 0, STATIC
        LOCFRAME DOVERLAY, 0, STATIC
        ARGFRAME ISTACK, 0, STACK
        ARGFRAME PSTACK, 0, STACK
        ARGFRAME XSTACK, 35, STACK
        ARGFRAME IOVERLAY, 0, STATIC
        ARGFRAME DOVERLAY, 0, STATIC
        FUNCALL MT_AfDataRequest, osal_memcpy
        LOCFRAME ISTACK, 0, STACK
        LOCFRAME PSTACK, 0, STACK
        LOCFRAME XSTACK, 38, STACK
        LOCFRAME IOVERLAY, 0, STATIC
        LOCFRAME DOVERLAY, 0, STATIC
        ARGFRAME ISTACK, 0, STACK
        ARGFRAME PSTACK, 0, STACK
        ARGFRAME XSTACK, 38, STACK
        ARGFRAME IOVERLAY, 0, STATIC
        ARGFRAME DOVERLAY, 0, STATIC
        FUNCALL MT_AfDataRequest, osal_start_timerEx
        LOCFRAME ISTACK, 0, STACK
        LOCFRAME PSTACK, 0, STACK
        LOCFRAME XSTACK, 39, STACK
        LOCFRAME IOVERLAY, 0, STATIC
        LOCFRAME DOVERLAY, 0, STATIC
        ARGFRAME ISTACK, 0, STACK
        ARGFRAME PSTACK, 0, STACK
        ARGFRAME XSTACK, 39, STACK
        ARGFRAME IOVERLAY, 0, STATIC
        ARGFRAME DOVERLAY, 0, STATIC
        FUNCALL MT_AfDataRequest, osal_set_event
        LOCFRAME ISTACK, 0, STACK
        LOCFRAME PSTACK, 0, STACK
        LOCFRAME XSTACK, 35, STACK
        LOCFRAME IOVERLAY, 0, STATIC
        LOCFRAME DOVERLAY, 0, STATIC
        ARGFRAME ISTACK, 0, STACK
        ARGFRAME PSTACK, 0, STACK
        ARGFRAME XSTACK, 35, STACK
        ARGFRAME IOVERLAY, 0, STATIC
        ARGFRAME DOVERLAY, 0, STATIC
        FUNCALL MT_AfDataRequest, AF_DataRequest
        LOCFRAME ISTACK, 0, STACK
        LOCFRAME PSTACK, 0, STACK
        LOCFRAME XSTACK, 44, STACK
        LOCFRAME IOVERLAY, 0, STATIC
        LOCFRAME DOVERLAY, 0, STATIC
        ARGFRAME ISTACK, 0, STACK
        ARGFRAME PSTACK, 0, STACK
        ARGFRAME XSTACK, 44, STACK
        ARGFRAME IOVERLAY, 0, STATIC
        ARGFRAME DOVERLAY, 0, STATIC
        FUNCALL MT_AfDataRequest, MT_BuildAndSendZToolResponse
        LOCFRAME ISTACK, 0, STACK
        LOCFRAME PSTACK, 0, STACK
        LOCFRAME XSTACK, 35, STACK
        LOCFRAME IOVERLAY, 0, STATIC
        LOCFRAME DOVERLAY, 0, STATIC
        ARGFRAME ISTACK, 0, STACK
        ARGFRAME PSTACK, 0, STACK
        ARGFRAME XSTACK, 35, STACK
        ARGFRAME IOVERLAY, 0, STATIC
        ARGFRAME DOVERLAY, 0, STATIC
        REQUIRE ?V0
        REQUIRE ?V1
        REQUIRE ?V2
        REQUIRE ?V3
        REQUIRE ?V4
        REQUIRE ?V5
        REQUIRE ?V6
        REQUIRE ?V7
        REQUIRE ?V8
        REQUIRE ?V9
        REQUIRE ?V10
        REQUIRE ?V11
        REQUIRE ?V12
        MOV       A,#-0x15
        LCALL     ?BANKED_ENTER_XDATA
          CFI DPH0 load(1, XDATA, add(CFA_XSP16, literal(-1)))
          CFI DPL0 load(1, XDATA, add(CFA_XSP16, literal(-2)))
          CFI ?BRET_EXT load(1, XDATA, add(CFA_XSP16, literal(-3)))
          CFI ?RET_HIGH load(1, XDATA, add(CFA_XSP16, literal(-4)))
          CFI ?RET_LOW load(1, XDATA, add(CFA_XSP16, literal(-5)))
          CFI R7 load(1, XDATA, add(CFA_XSP16, literal(-6)))
          CFI V12 load(1, XDATA, add(CFA_XSP16, literal(-7)))
          CFI V11 load(1, XDATA, add(CFA_XSP16, literal(-8)))
          CFI V10 load(1, XDATA, add(CFA_XSP16, literal(-9)))
          CFI V9 load(1, XDATA, add(CFA_XSP16, literal(-10)))
          CFI V8 load(1, XDATA, add(CFA_XSP16, literal(-11)))
          CFI V7 load(1, XDATA, add(CFA_XSP16, literal(-12)))
          CFI V6 load(1, XDATA, add(CFA_XSP16, literal(-13)))
          CFI V5 load(1, XDATA, add(CFA_XSP16, literal(-14)))
          CFI V4 load(1, XDATA, add(CFA_XSP16, literal(-15)))
          CFI V3 load(1, XDATA, add(CFA_XSP16, literal(-16)))
          CFI V2 load(1, XDATA, add(CFA_XSP16, literal(-17)))
          CFI V1 load(1, XDATA, add(CFA_XSP16, literal(-18)))
          CFI V0 load(1, XDATA, add(CFA_XSP16, literal(-19)))
          CFI VB load(1, XDATA, add(CFA_XSP16, literal(-20)))
          CFI R6 load(1, XDATA, add(CFA_XSP16, literal(-21)))
          CFI CFA_SP SP+0
          CFI CFA_XSP16 add(XSP16, 21)
        ; Saved register size: 21
        ; Auto size: 14
        MOV       A,#-0xe
        LCALL     ?ALLOC_XSTACK8
          CFI CFA_XSP16 add(XSP16, 35)
        MOV       A,R3
        MOV       R7,A
//  337   #define MT_AF_REQ_MSG_LEN  10
//  338   #define MT_AF_REQ_MSG_EXT  10
//  339 
//  340   endPointDesc_t *epDesc;
//  341   afAddrType_t dstAddr;
//  342   cId_t cId;
//  343   uint8 transId, txOpts, radius;
//  344   uint8 cmd0, cmd1;
//  345   uint8 retValue = ZFailure;
        MOV       DPL,?XSP + 0
        MOV       DPH,?XSP + 1
        MOV       A,#0x1
        LCALL     ?Subroutine49 & 0xFFFF
//  346   uint16 dataLen, tempLen;
//  347 
//  348   /* Parse header */
//  349   cmd0 = pBuf[MT_RPC_POS_CMD0];
??CrossCallReturnLabel_92:
        MOVX      A,@DPTR
        MOV       ?V12,A
//  350   cmd1 = pBuf[MT_RPC_POS_CMD1];
        MOV       DPL,R2
        MOV       DPH,R3
        INC       DPTR
        INC       DPTR
        MOVX      A,@DPTR
        MOV       ?V9,A
//  351   pBuf += MT_RPC_FRAME_HDR_SZ;
        MOV       A,R2
        ADD       A,#0x3
        MOV       R6,A
        JNC       ??MT_AfDataRequest_0
        INC       R7
//  352 
//  353   if (cmd1 == MT_AF_DATA_REQUEST_EXT)
??MT_AfDataRequest_0:
        MOV       A,#0x2
        XRL       A,?V9
        JNZ       ??MT_AfDataRequest_1
//  354   {
//  355     dstAddr.addrMode = (afAddrMode_t)*pBuf++;
        MOV       DPL,R6
        MOV       DPH,R7
        MOVX      A,@DPTR
        MOV       R0,A
        MOV       A,#0xa
        LCALL     ?XSTACK_DISP0_8
        MOV       A,R0
        LCALL     ?Subroutine44 & 0xFFFF
??CrossCallReturnLabel_84:
        MOV       R6,DPL
        MOV       R7,DPH
//  356 
//  357     if (dstAddr.addrMode == afAddr64Bit)
        MOV       A,#0x3
        XRL       A,R0
        JNZ       ??MT_AfDataRequest_2
//  358     {
//  359       (void)osal_memcpy(dstAddr.addr.extAddr, pBuf, Z_EXTADDR_LEN);
        ; Setup parameters for call to function osal_memcpy
        MOV       ?V0,R6
        MOV       ?V1,R7
        MOV       ?V2,#0x0
        MOV       R0,#?V0
        LCALL     ?PUSH_XSTACK_I_THREE
          CFI CFA_XSP16 add(XSP16, 38)
        MOV       R4,#0x8
        MOV       R5,#0x0
        MOV       A,#0x5
        LCALL     ?XSTACK_DISP101_8
        LCALL     ??Subroutine56_0 & 0xFFFF
//  360     }
??CrossCallReturnLabel_122:
        LCALL     ?DEALLOC_XSTACK8
          CFI CFA_XSP16 add(XSP16, 35)
        SJMP      ??MT_AfDataRequest_3
//  361     else
//  362     {
//  363       dstAddr.addr.shortAddr = osal_build_uint16( pBuf );
??MT_AfDataRequest_2:
        ; Setup parameters for call to function osal_build_uint16
        MOV       A,R6
        MOV       R2,A
        MOV       A,R7
        MOV       R3,A
        LCALL     `??osal_build_uint16::?relay`; Banked call to: osal_build_uint16
        MOV       A,#0x2
        LCALL     ?XSTACK_DISP0_8
        MOV       A,R2
        MOVX      @DPTR,A
        INC       DPTR
        MOV       A,R3
        MOVX      @DPTR,A
//  364     }
//  365     pBuf += Z_EXTADDR_LEN;
//  366 
//  367     dstAddr.endPoint = *pBuf++;
??MT_AfDataRequest_3:
        MOV       DPL,R6
        MOV       DPH,R7
        INC       DPTR
        INC       DPTR
        INC       DPTR
        INC       DPTR
        INC       DPTR
        INC       DPTR
        INC       DPTR
        INC       DPTR
        MOVX      A,@DPTR
        PUSH      A
          CFI CFA_SP SP+-1
        MOV       A,#0xb
        LCALL     ?XSTACK_DISP0_8
        POP       A
          CFI CFA_SP SP+0
        MOVX      @DPTR,A
        MOV       A,R6
        ADD       A,#0x9
        MOV       R6,A
        JNC       ??MT_AfDataRequest_4
        INC       R7
//  368     dstAddr.panId = osal_build_uint16( pBuf );
??MT_AfDataRequest_4:
        ; Setup parameters for call to function osal_build_uint16
        MOV       R2,A
        MOV       A,R7
        MOV       R3,A
        LCALL     `??osal_build_uint16::?relay`; Banked call to: osal_build_uint16
        MOV       A,#0xc
        LCALL     ?XSTACK_DISP0_8
        LCALL     ?Subroutine31 & 0xFFFF
//  369     pBuf += 2;
//  370   }
??CrossCallReturnLabel_55:
        JNC       ??MT_AfDataRequest_5
        INC       R7
        SJMP      ??MT_AfDataRequest_5
//  371   else
//  372   {
//  373     /* Destination address */
//  374     dstAddr.addrMode = afAddr16Bit;
??MT_AfDataRequest_1:
        MOV       A,#0xa
        LCALL     ?XSTACK_DISP0_8
        MOV       A,#0x2
        MOVX      @DPTR,A
//  375     dstAddr.addr.shortAddr = osal_build_uint16( pBuf );
        ; Setup parameters for call to function osal_build_uint16
        INC       R2
        INC       R2
        INC       R2
        MOV       A,R7
        MOV       R3,A
        LCALL     `??osal_build_uint16::?relay`; Banked call to: osal_build_uint16
        MOV       A,#0x2
        LCALL     ?XSTACK_DISP0_8
        LCALL     ?Subroutine24 & 0xFFFF
//  376     pBuf += 2;
//  377 
//  378     /* Destination endpoint */
//  379     dstAddr.endPoint = *pBuf++;
??CrossCallReturnLabel_39:
        PUSH      A
          CFI CFA_SP SP+-1
        MOV       A,#0xb
        LCALL     ?XSTACK_DISP0_8
        POP       A
          CFI CFA_SP SP+0
        MOVX      @DPTR,A
        MOV       A,R6
        ADD       A,#0x3
        MOV       R6,A
        JNC       ??MT_AfDataRequest_6
        INC       R7
//  380     dstAddr.panId = 0;
??MT_AfDataRequest_6:
        MOV       A,#0xc
        LCALL     ?XSTACK_DISP0_8
        CLR       A
        MOVX      @DPTR,A
        INC       DPTR
        MOVX      @DPTR,A
//  381   }
//  382 
//  383   /* Source endpoint */
//  384   epDesc = afFindEndPointDesc(*pBuf++);
??MT_AfDataRequest_5:
        ; Setup parameters for call to function afFindEndPointDesc
        MOV       DPL,R6
        MOV       DPH,R7
        MOVX      A,@DPTR
        MOV       R1,A
        LCALL     `??afFindEndPointDesc::?relay`; Banked call to: afFindEndPointDesc
        MOV       ?V10,R2
        MOV       ?V11,R3
        MOV       DPL,R6
        MOV       DPH,R7
        INC       DPTR
        MOV       R6,DPL
        MOV       R7,DPH
//  385 
//  386   /* ClusterId */
//  387   cId = osal_build_uint16( pBuf );
        ; Setup parameters for call to function osal_build_uint16
        MOV       A,R6
        MOV       R2,A
        MOV       A,R7
        MOV       R3,A
        LCALL     `??osal_build_uint16::?relay`; Banked call to: osal_build_uint16
        MOV       ?V2,R2
        MOV       ?V3,R3
//  388   pBuf +=2;
//  389 
//  390   /* TransId */
//  391   transId = *pBuf++;
        MOV       DPL,R6
        MOV       DPH,R7
        INC       DPTR
        INC       DPTR
        MOVX      A,@DPTR
        PUSH      A
          CFI CFA_SP SP+-1
        MOV       A,#0x1
        LCALL     ?XSTACK_DISP0_8
        POP       A
          CFI CFA_SP SP+0
        MOVX      @DPTR,A
//  392 
//  393   /* TxOption */
//  394   txOpts = *pBuf++;
        MOV       DPL,R6
        MOV       DPH,R7
        LCALL     ?Subroutine12 & 0xFFFF
//  395 
//  396   /* Radius */
//  397   radius = *pBuf++;
??CrossCallReturnLabel_18:
        MOVX      A,@DPTR
        MOV       ?V7,A
        MOV       A,R6
        ADD       A,#0x5
        MOV       R6,A
        JNC       ??MT_AfDataRequest_7
        INC       R7
//  398 
//  399   /* Length */
//  400   if (cmd1 == MT_AF_DATA_REQUEST_EXT)
??MT_AfDataRequest_7:
        MOV       A,#0x2
        XRL       A,?V9
        JNZ       ??MT_AfDataRequest_8
//  401   {
//  402     dataLen = osal_build_uint16( pBuf );
        ; Setup parameters for call to function osal_build_uint16
        MOV       A,R6
        MOV       R2,A
        MOV       A,R7
        MOV       R3,A
        LCALL     `??osal_build_uint16::?relay`; Banked call to: osal_build_uint16
        MOV       ?V0,R2
        MOV       ?V1,R3
//  403     tempLen = dataLen + MT_AF_REQ_MSG_LEN + MT_AF_REQ_MSG_EXT;
        MOV       A,R2
        ADD       A,#0x14
        MOV       R0,A
        CLR       A
        ADDC      A,?V1
        MOV       R1,A
//  404     pBuf += 2;
        MOV       A,R6
        ADD       A,#0x2
        MOV       R6,A
        JNC       ??MT_AfDataRequest_9
        INC       R7
        SJMP      ??MT_AfDataRequest_9
//  405   }
//  406   else
//  407   {
//  408     dataLen = *pBuf++;
??MT_AfDataRequest_8:
        MOV       DPL,R6
        MOV       DPH,R7
        MOVX      A,@DPTR
        MOV       ?V0,A
        MOV       ?V1,#0x0
        INC       DPTR
        INC       R6
        MOV       R7,DPH
//  409     tempLen = dataLen + MT_AF_REQ_MSG_LEN;
        ADD       A,#0xa
        MOV       R0,A
        CLR       A
        ADDC      A,#0x0
        MOV       R1,A
//  410   }
//  411 
//  412   if ( epDesc == NULL )
??MT_AfDataRequest_9:
        MOV       A,?V10
        ORL       A,?V11
        JZ        ??MT_AfDataRequest_10
//  413   {
//  414     retValue = afStatus_INVALID_PARAMETER;
//  415   }
//  416   else if (tempLen > (uint16)MT_RPC_DATA_MAX)
        CLR       C
        MOV       A,R0
        SUBB      A,#-0x5
        MOV       A,R1
        SUBB      A,#0x0
        JNC       $+5
        LJMP      ??MT_AfDataRequest_11 & 0xFFFF
//  417   {
//  418     if (pMtAfDataReq != NULL)
        LCALL     ?Subroutine3 & 0xFFFF
??CrossCallReturnLabel_110:
        JZ        ??MT_AfDataRequest_12
//  419     {
//  420       retValue = afStatus_INVALID_PARAMETER;
??MT_AfDataRequest_10:
        MOV       DPL,?XSP + 0
        MOV       DPH,?XSP + 1
        MOV       A,#0x2
        LJMP      ??MT_AfDataRequest_13 & 0xFFFF
//  421     }
//  422     else if ((pMtAfDataReq = osal_mem_alloc(sizeof(mtAfDataReq_t) + dataLen)) == NULL)
??MT_AfDataRequest_12:
        ; Setup parameters for call to function osal_mem_alloc
        MOV       A,?V0
        ADD       A,#0x18
        MOV       R2,A
        CLR       A
        ADDC      A,?V1
        MOV       R3,A
        LCALL     `??osal_mem_alloc::?relay`; Banked call to: osal_mem_alloc
        MOV       DPTR,#pMtAfDataReq
        MOV       A,R2
        MOVX      @DPTR,A
        INC       DPTR
        MOV       A,R3
        MOVX      @DPTR,A
        MOV       R1,A
        MOV       A,R2
        ORL       A,R1
        MOV       DPL,?XSP + 0
        MOV       DPH,?XSP + 1
        JNZ       ??MT_AfDataRequest_14
//  423     {
//  424       retValue = afStatus_MEM_FAIL;
        MOV       A,#0x10
        LJMP      ??MT_AfDataRequest_13 & 0xFFFF
//  425     }
//  426     else
//  427     {
//  428       retValue = afStatus_SUCCESS;
??MT_AfDataRequest_14:
        CLR       A
        MOVX      @DPTR,A
//  429 
//  430       pMtAfDataReq->data = (uint8 *)(pMtAfDataReq+1);
        MOV       DPTR,#pMtAfDataReq
        MOVX      A,@DPTR
        ADD       A,#0x18
        MOV       R2,A
        INC       DPTR
        MOVX      A,@DPTR
        ADDC      A,#0x0
        MOV       R3,A
        LCALL     ?Subroutine8 & 0xFFFF
??CrossCallReturnLabel_10:
        MOV       A,R2
        MOVX      @DPTR,A
        INC       DPTR
        MOV       A,R3
        MOVX      @DPTR,A
//  431       (void)osal_memcpy(&(pMtAfDataReq->dstAddr), &dstAddr, sizeof(afAddrType_t));
        ; Setup parameters for call to function osal_memcpy
        MOV       A,#0x2
        LCALL     ?XSTACK_DISP100_8
        MOV       ?V4,R0
        MOV       ?V5,R1
        MOV       ?V6,#0x0
        MOV       R0,#?V4
        LCALL     ?PUSH_XSTACK_I_THREE
          CFI CFA_XSP16 add(XSP16, 38)
        MOV       R4,#0xc
        MOV       R5,#0x0
        LCALL     ?Subroutine17 & 0xFFFF
??CrossCallReturnLabel_28:
        LCALL     ??Subroutine56_0 & 0xFFFF
??CrossCallReturnLabel_123:
        LCALL     ?DEALLOC_XSTACK8
          CFI CFA_XSP16 add(XSP16, 35)
//  432       pMtAfDataReq->epDesc = epDesc;
        LCALL     ??Subroutine51_0 & 0xFFFF
??CrossCallReturnLabel_105:
        LCALL     ?Subroutine36 & 0xFFFF
??CrossCallReturnLabel_67:
        MOV       A,?V10
        MOVX      @DPTR,A
        INC       DPTR
        MOV       A,?V11
        LCALL     ?Subroutine9 & 0xFFFF
//  433       pMtAfDataReq->cId = cId;
??CrossCallReturnLabel_101:
        ADD       A,#0x10
        MOV       DPL,A
        CLR       A
        ADDC      A,R0
        MOV       DPH,A
        MOV       A,?V2
        MOVX      @DPTR,A
        INC       DPTR
        MOV       A,?V3
        LCALL     ?Subroutine9 & 0xFFFF
//  434       pMtAfDataReq->dataLen = dataLen;
??CrossCallReturnLabel_102:
        ADD       A,#0x12
        MOV       DPL,A
        CLR       A
        ADDC      A,R0
        MOV       DPH,A
        MOV       A,?V0
        MOVX      @DPTR,A
        INC       DPTR
        MOV       A,?V1
        MOVX      @DPTR,A
//  435       pMtAfDataReq->transId = transId;
        MOV       A,#0x1
        LCALL     ?XSTACK_DISP0_8
        MOVX      A,@DPTR
        PUSH      A
          CFI CFA_SP SP+-1
        LCALL     ??Subroutine51_0 & 0xFFFF
??CrossCallReturnLabel_106:
        ADD       A,#0x14
        MOV       DPL,A
        CLR       A
        ADDC      A,R0
        MOV       DPH,A
        POP       A
          CFI CFA_SP SP+0
        LCALL     ?Subroutine9 & 0xFFFF
//  436       pMtAfDataReq->txOpts = txOpts;
??CrossCallReturnLabel_103:
        ADD       A,#0x15
        MOV       DPL,A
        CLR       A
        ADDC      A,R0
        MOV       DPH,A
        MOV       A,?V8
        LCALL     ?Subroutine9 & 0xFFFF
//  437       pMtAfDataReq->radius = radius;
??CrossCallReturnLabel_104:
        ADD       A,#0x16
        MOV       DPL,A
        CLR       A
        ADDC      A,R0
        MOV       DPH,A
        MOV       A,?V7
        LCALL     ?Subroutine7 & 0xFFFF
//  438 
//  439       // Setup to time-out the huge outgoing item if host does not MT_AF_DATA_STORE it.
//  440       pMtAfDataReq->tick = MT_AF_EXEC_CNT;
??CrossCallReturnLabel_8:
        MOV       A,#0xf
        MOVX      @DPTR,A
//  441       if (ZSuccess != osal_start_timerEx(MT_TaskID, MT_AF_EXEC_EVT, MT_AF_EXEC_DLY))
        ; Setup parameters for call to function osal_start_timerEx
        MOV       DPTR,#__Constant_3e8
        LCALL     ?PUSH_XSTACK8_X_FOUR
          CFI CFA_XSP16 add(XSP16, 39)
        LCALL     ?Subroutine11 & 0xFFFF
??CrossCallReturnLabel_16:
        LCALL     ?DEALLOC_XSTACK8
          CFI CFA_XSP16 add(XSP16, 35)
        MOV       A,R1
        JZ        ??MT_AfDataRequest_15
//  442       {
//  443         (void)osal_set_event(MT_TaskID, MT_AF_EXEC_EVT);
        ; Setup parameters for call to function osal_set_event
        LCALL     ?Subroutine21 & 0xFFFF
//  444       }
//  445     }
//  446   }
??CrossCallReturnLabel_33:
        SJMP      ??MT_AfDataRequest_15
//  447   else
//  448   {
//  449     retValue = AF_DataRequest(&dstAddr, epDesc, cId, dataLen, pBuf, &transId, txOpts, radius);
??MT_AfDataRequest_11:
        ; Setup parameters for call to function AF_DataRequest
        MOV       A,?V7
        MOV       ?V4,A
        MOV       R0,#?V4
        LCALL     ?PUSH_XSTACK_I_ONE
          CFI CFA_XSP16 add(XSP16, 36)
        MOV       A,#0x2
        LCALL     ?XSTACK_DISP100_8
        MOV       ?V4,R0
        MOV       ?V5,R1
        MOV       R0,#?V4
        LCALL     ?PUSH_XSTACK_I_TWO
          CFI CFA_XSP16 add(XSP16, 38)
        MOV       ?V4,R6
        MOV       ?V5,R7
        MOV       R0,#?V4
        LCALL     ?PUSH_XSTACK_I_TWO
          CFI CFA_XSP16 add(XSP16, 40)
        MOV       R0,#?V0
        LCALL     ?PUSH_XSTACK_I_TWO
          CFI CFA_XSP16 add(XSP16, 42)
        MOV       R0,#?V2
        LCALL     ?PUSH_XSTACK_I_TWO
          CFI CFA_XSP16 add(XSP16, 44)
        MOV       R1,?V8
        MOV       R4,?V10
        MOV       R5,?V11
        MOV       A,#0xb
        LCALL     ?XSTACK_DISP101_8
        LCALL     `??AF_DataRequest::?relay`; Banked call to: AF_DataRequest
        MOV       A,#0x9
        LCALL     ?DEALLOC_XSTACK8
          CFI CFA_XSP16 add(XSP16, 35)
        MOV       A,R1
        MOV       DPL,?XSP + 0
        MOV       DPH,?XSP + 1
??MT_AfDataRequest_13:
        MOVX      @DPTR,A
//  450   }
//  451 
//  452   if (MT_RPC_CMD_SREQ == (cmd0 & MT_RPC_CMD_TYPE_MASK))
??MT_AfDataRequest_15:
        MOV       A,#-0x20
        ANL       A,?V12
        XRL       A,#0x20
        JNZ       ??MT_AfDataRequest_16
//  453   {
//  454     MT_BuildAndSendZToolResponse(((uint8)MT_RPC_CMD_SRSP|(uint8)MT_RPC_SYS_AF), cmd1, 1, &retValue);
        ; Setup parameters for call to function MT_BuildAndSendZToolResponse
        MOV       R4,?XSP + 0
        MOV       R5,?XSP + 1
        MOV       R3,#0x1
        MOV       R2,?V9
        MOV       R1,#0x64
        LCALL     `??MT_BuildAndSendZToolResponse::?relay`; Banked call to: MT_BuildAndSendZToolResponse
//  455   }
//  456 }
??MT_AfDataRequest_16:
        MOV       A,#0xe
        LCALL     ?DEALLOC_XSTACK8
          CFI CFA_XSP16 add(XSP16, 21)
        MOV       R7,#0xd
        LJMP      ?BANKED_LEAVE_XDATA
          CFI EndBlock cfiBlock9

        RSEG BANKED_CODE:HUGECODE:NOROOT(0)
?Subroutine21:
          CFI Block cfiCond10 Using cfiCommon0
          CFI Function MT_AfExec
          CFI Conditional ??CrossCallReturnLabel_32
          CFI R6 load(1, XDATA, add(CFA_XSP16, literal(-9)))
          CFI VB load(1, XDATA, add(CFA_XSP16, literal(-8)))
          CFI V0 load(1, XDATA, add(CFA_XSP16, literal(-7)))
          CFI R7 load(1, XDATA, add(CFA_XSP16, literal(-6)))
          CFI ?RET_LOW load(1, XDATA, add(CFA_XSP16, literal(-5)))
          CFI ?RET_HIGH load(1, XDATA, add(CFA_XSP16, literal(-4)))
          CFI ?BRET_EXT load(1, XDATA, add(CFA_XSP16, literal(-3)))
          CFI DPL0 load(1, XDATA, add(CFA_XSP16, literal(-2)))
          CFI DPH0 load(1, XDATA, add(CFA_XSP16, literal(-1)))
          CFI CFA_SP SP+-2
          CFI CFA_XSP16 add(XSP16, 9)
          CFI Block cfiCond11 Using cfiCommon0
          CFI (cfiCond11) Function MT_AfDataRequest
          CFI (cfiCond11) Conditional ??CrossCallReturnLabel_33
          CFI (cfiCond11) R6 load(1, XDATA, add(CFA_XSP16, literal(-21)))
          CFI (cfiCond11) VB load(1, XDATA, add(CFA_XSP16, literal(-20)))
          CFI (cfiCond11) V0 load(1, XDATA, add(CFA_XSP16, literal(-19)))
          CFI (cfiCond11) V1 load(1, XDATA, add(CFA_XSP16, literal(-18)))
          CFI (cfiCond11) V2 load(1, XDATA, add(CFA_XSP16, literal(-17)))
          CFI (cfiCond11) V3 load(1, XDATA, add(CFA_XSP16, literal(-16)))
          CFI (cfiCond11) V4 load(1, XDATA, add(CFA_XSP16, literal(-15)))
          CFI (cfiCond11) V5 load(1, XDATA, add(CFA_XSP16, literal(-14)))
          CFI (cfiCond11) V6 load(1, XDATA, add(CFA_XSP16, literal(-13)))
          CFI (cfiCond11) V7 load(1, XDATA, add(CFA_XSP16, literal(-12)))
          CFI (cfiCond11) V8 load(1, XDATA, add(CFA_XSP16, literal(-11)))
          CFI (cfiCond11) V9 load(1, XDATA, add(CFA_XSP16, literal(-10)))
          CFI (cfiCond11) V10 load(1, XDATA, add(CFA_XSP16, literal(-9)))
          CFI (cfiCond11) V11 load(1, XDATA, add(CFA_XSP16, literal(-8)))
          CFI (cfiCond11) V12 load(1, XDATA, add(CFA_XSP16, literal(-7)))
          CFI (cfiCond11) R7 load(1, XDATA, add(CFA_XSP16, literal(-6)))
          CFI (cfiCond11) ?RET_LOW load(1, XDATA, add(CFA_XSP16, literal(-5)))
          CFI (cfiCond11) ?RET_HIGH load(1, XDATA, add(CFA_XSP16, literal(-4)))
          CFI (cfiCond11) ?BRET_EXT load(1, XDATA, add(CFA_XSP16, literal(-3)))
          CFI (cfiCond11) DPL0 load(1, XDATA, add(CFA_XSP16, literal(-2)))
          CFI (cfiCond11) DPH0 load(1, XDATA, add(CFA_XSP16, literal(-1)))
          CFI (cfiCond11) CFA_SP SP+-2
          CFI (cfiCond11) CFA_XSP16 add(XSP16, 35)
          CFI Block cfiCond12 Using cfiCommon0
          CFI (cfiCond12) Function MT_AfIncomingMsg
          CFI (cfiCond12) Conditional ??CrossCallReturnLabel_34
          CFI (cfiCond12) R6 load(1, XDATA, add(CFA_XSP16, literal(-22)))
          CFI (cfiCond12) VB load(1, XDATA, add(CFA_XSP16, literal(-21)))
          CFI (cfiCond12) V0 load(1, XDATA, add(CFA_XSP16, literal(-20)))
          CFI (cfiCond12) V1 load(1, XDATA, add(CFA_XSP16, literal(-19)))
          CFI (cfiCond12) V2 load(1, XDATA, add(CFA_XSP16, literal(-18)))
          CFI (cfiCond12) V3 load(1, XDATA, add(CFA_XSP16, literal(-17)))
          CFI (cfiCond12) V4 load(1, XDATA, add(CFA_XSP16, literal(-16)))
          CFI (cfiCond12) V5 load(1, XDATA, add(CFA_XSP16, literal(-15)))
          CFI (cfiCond12) V6 load(1, XDATA, add(CFA_XSP16, literal(-14)))
          CFI (cfiCond12) V7 load(1, XDATA, add(CFA_XSP16, literal(-13)))
          CFI (cfiCond12) V8 load(1, XDATA, add(CFA_XSP16, literal(-12)))
          CFI (cfiCond12) V9 load(1, XDATA, add(CFA_XSP16, literal(-11)))
          CFI (cfiCond12) V10 load(1, XDATA, add(CFA_XSP16, literal(-10)))
          CFI (cfiCond12) V11 load(1, XDATA, add(CFA_XSP16, literal(-9)))
          CFI (cfiCond12) V12 load(1, XDATA, add(CFA_XSP16, literal(-8)))
          CFI (cfiCond12) V13 load(1, XDATA, add(CFA_XSP16, literal(-7)))
          CFI (cfiCond12) R7 load(1, XDATA, add(CFA_XSP16, literal(-6)))
          CFI (cfiCond12) ?RET_LOW load(1, XDATA, add(CFA_XSP16, literal(-5)))
          CFI (cfiCond12) ?RET_HIGH load(1, XDATA, add(CFA_XSP16, literal(-4)))
          CFI (cfiCond12) ?BRET_EXT load(1, XDATA, add(CFA_XSP16, literal(-3)))
          CFI (cfiCond12) DPL0 load(1, XDATA, add(CFA_XSP16, literal(-2)))
          CFI (cfiCond12) DPH0 load(1, XDATA, add(CFA_XSP16, literal(-1)))
          CFI (cfiCond12) CFA_SP SP+-2
          CFI (cfiCond12) CFA_XSP16 add(XSP16, 22)
          CFI Block cfiPicker13 Using cfiCommon1
          CFI (cfiPicker13) NoFunction
          CFI (cfiPicker13) Picker
        MOV       R2,#0x8
        MOV       R3,#0x0
        MOV       DPTR,#MT_TaskID
        MOVX      A,@DPTR
        MOV       R1,A
        LCALL     `??osal_set_event::?relay`; Banked call to: osal_set_event
        RET
          CFI EndBlock cfiCond10
          CFI EndBlock cfiCond11
          CFI EndBlock cfiCond12
          CFI EndBlock cfiPicker13

        RSEG BANKED_CODE:HUGECODE:NOROOT(0)
?Subroutine11:
          CFI Block cfiCond14 Using cfiCommon0
          CFI Function MT_AfExec
          CFI Conditional ??CrossCallReturnLabel_15
          CFI R6 load(1, XDATA, add(CFA_XSP16, literal(-9)))
          CFI VB load(1, XDATA, add(CFA_XSP16, literal(-8)))
          CFI V0 load(1, XDATA, add(CFA_XSP16, literal(-7)))
          CFI R7 load(1, XDATA, add(CFA_XSP16, literal(-6)))
          CFI ?RET_LOW load(1, XDATA, add(CFA_XSP16, literal(-5)))
          CFI ?RET_HIGH load(1, XDATA, add(CFA_XSP16, literal(-4)))
          CFI ?BRET_EXT load(1, XDATA, add(CFA_XSP16, literal(-3)))
          CFI DPL0 load(1, XDATA, add(CFA_XSP16, literal(-2)))
          CFI DPH0 load(1, XDATA, add(CFA_XSP16, literal(-1)))
          CFI CFA_SP SP+-2
          CFI CFA_XSP16 add(XSP16, 13)
          CFI Block cfiCond15 Using cfiCommon0
          CFI (cfiCond15) Function MT_AfDataRequest
          CFI (cfiCond15) Conditional ??CrossCallReturnLabel_16
          CFI (cfiCond15) R6 load(1, XDATA, add(CFA_XSP16, literal(-21)))
          CFI (cfiCond15) VB load(1, XDATA, add(CFA_XSP16, literal(-20)))
          CFI (cfiCond15) V0 load(1, XDATA, add(CFA_XSP16, literal(-19)))
          CFI (cfiCond15) V1 load(1, XDATA, add(CFA_XSP16, literal(-18)))
          CFI (cfiCond15) V2 load(1, XDATA, add(CFA_XSP16, literal(-17)))
          CFI (cfiCond15) V3 load(1, XDATA, add(CFA_XSP16, literal(-16)))
          CFI (cfiCond15) V4 load(1, XDATA, add(CFA_XSP16, literal(-15)))
          CFI (cfiCond15) V5 load(1, XDATA, add(CFA_XSP16, literal(-14)))
          CFI (cfiCond15) V6 load(1, XDATA, add(CFA_XSP16, literal(-13)))
          CFI (cfiCond15) V7 load(1, XDATA, add(CFA_XSP16, literal(-12)))
          CFI (cfiCond15) V8 load(1, XDATA, add(CFA_XSP16, literal(-11)))
          CFI (cfiCond15) V9 load(1, XDATA, add(CFA_XSP16, literal(-10)))
          CFI (cfiCond15) V10 load(1, XDATA, add(CFA_XSP16, literal(-9)))
          CFI (cfiCond15) V11 load(1, XDATA, add(CFA_XSP16, literal(-8)))
          CFI (cfiCond15) V12 load(1, XDATA, add(CFA_XSP16, literal(-7)))
          CFI (cfiCond15) R7 load(1, XDATA, add(CFA_XSP16, literal(-6)))
          CFI (cfiCond15) ?RET_LOW load(1, XDATA, add(CFA_XSP16, literal(-5)))
          CFI (cfiCond15) ?RET_HIGH load(1, XDATA, add(CFA_XSP16, literal(-4)))
          CFI (cfiCond15) ?BRET_EXT load(1, XDATA, add(CFA_XSP16, literal(-3)))
          CFI (cfiCond15) DPL0 load(1, XDATA, add(CFA_XSP16, literal(-2)))
          CFI (cfiCond15) DPH0 load(1, XDATA, add(CFA_XSP16, literal(-1)))
          CFI (cfiCond15) CFA_SP SP+-2
          CFI (cfiCond15) CFA_XSP16 add(XSP16, 39)
          CFI Block cfiCond16 Using cfiCommon0
          CFI (cfiCond16) Function MT_AfIncomingMsg
          CFI (cfiCond16) Conditional ??CrossCallReturnLabel_17
          CFI (cfiCond16) R6 load(1, XDATA, add(CFA_XSP16, literal(-22)))
          CFI (cfiCond16) VB load(1, XDATA, add(CFA_XSP16, literal(-21)))
          CFI (cfiCond16) V0 load(1, XDATA, add(CFA_XSP16, literal(-20)))
          CFI (cfiCond16) V1 load(1, XDATA, add(CFA_XSP16, literal(-19)))
          CFI (cfiCond16) V2 load(1, XDATA, add(CFA_XSP16, literal(-18)))
          CFI (cfiCond16) V3 load(1, XDATA, add(CFA_XSP16, literal(-17)))
          CFI (cfiCond16) V4 load(1, XDATA, add(CFA_XSP16, literal(-16)))
          CFI (cfiCond16) V5 load(1, XDATA, add(CFA_XSP16, literal(-15)))
          CFI (cfiCond16) V6 load(1, XDATA, add(CFA_XSP16, literal(-14)))
          CFI (cfiCond16) V7 load(1, XDATA, add(CFA_XSP16, literal(-13)))
          CFI (cfiCond16) V8 load(1, XDATA, add(CFA_XSP16, literal(-12)))
          CFI (cfiCond16) V9 load(1, XDATA, add(CFA_XSP16, literal(-11)))
          CFI (cfiCond16) V10 load(1, XDATA, add(CFA_XSP16, literal(-10)))
          CFI (cfiCond16) V11 load(1, XDATA, add(CFA_XSP16, literal(-9)))
          CFI (cfiCond16) V12 load(1, XDATA, add(CFA_XSP16, literal(-8)))
          CFI (cfiCond16) V13 load(1, XDATA, add(CFA_XSP16, literal(-7)))
          CFI (cfiCond16) R7 load(1, XDATA, add(CFA_XSP16, literal(-6)))
          CFI (cfiCond16) ?RET_LOW load(1, XDATA, add(CFA_XSP16, literal(-5)))
          CFI (cfiCond16) ?RET_HIGH load(1, XDATA, add(CFA_XSP16, literal(-4)))
          CFI (cfiCond16) ?BRET_EXT load(1, XDATA, add(CFA_XSP16, literal(-3)))
          CFI (cfiCond16) DPL0 load(1, XDATA, add(CFA_XSP16, literal(-2)))
          CFI (cfiCond16) DPH0 load(1, XDATA, add(CFA_XSP16, literal(-1)))
          CFI (cfiCond16) CFA_SP SP+-2
          CFI (cfiCond16) CFA_XSP16 add(XSP16, 26)
          CFI Block cfiPicker17 Using cfiCommon1
          CFI (cfiPicker17) NoFunction
          CFI (cfiPicker17) Picker
        MOV       R2,#0x8
        MOV       R3,#0x0
        MOV       DPTR,#MT_TaskID
        MOVX      A,@DPTR
        MOV       R1,A
        LCALL     `??osal_start_timerEx::?relay`; Banked call to: osal_start_timerEx
        MOV       A,#0x4
        RET
          CFI EndBlock cfiCond14
          CFI EndBlock cfiCond15
          CFI EndBlock cfiCond16
          CFI EndBlock cfiPicker17

        RSEG BANKED_CODE:HUGECODE:NOROOT(0)
?Subroutine9:
          CFI Block cfiCond18 Using cfiCommon0
          CFI Function MT_AfDataRequest
          CFI Conditional ??CrossCallReturnLabel_101
          CFI R6 load(1, XDATA, add(CFA_XSP16, literal(-21)))
          CFI VB load(1, XDATA, add(CFA_XSP16, literal(-20)))
          CFI V0 load(1, XDATA, add(CFA_XSP16, literal(-19)))
          CFI V1 load(1, XDATA, add(CFA_XSP16, literal(-18)))
          CFI V2 load(1, XDATA, add(CFA_XSP16, literal(-17)))
          CFI V3 load(1, XDATA, add(CFA_XSP16, literal(-16)))
          CFI V4 load(1, XDATA, add(CFA_XSP16, literal(-15)))
          CFI V5 load(1, XDATA, add(CFA_XSP16, literal(-14)))
          CFI V6 load(1, XDATA, add(CFA_XSP16, literal(-13)))
          CFI V7 load(1, XDATA, add(CFA_XSP16, literal(-12)))
          CFI V8 load(1, XDATA, add(CFA_XSP16, literal(-11)))
          CFI V9 load(1, XDATA, add(CFA_XSP16, literal(-10)))
          CFI V10 load(1, XDATA, add(CFA_XSP16, literal(-9)))
          CFI V11 load(1, XDATA, add(CFA_XSP16, literal(-8)))
          CFI V12 load(1, XDATA, add(CFA_XSP16, literal(-7)))
          CFI R7 load(1, XDATA, add(CFA_XSP16, literal(-6)))
          CFI ?RET_LOW load(1, XDATA, add(CFA_XSP16, literal(-5)))
          CFI ?RET_HIGH load(1, XDATA, add(CFA_XSP16, literal(-4)))
          CFI ?BRET_EXT load(1, XDATA, add(CFA_XSP16, literal(-3)))
          CFI DPL0 load(1, XDATA, add(CFA_XSP16, literal(-2)))
          CFI DPH0 load(1, XDATA, add(CFA_XSP16, literal(-1)))
          CFI CFA_SP SP+-2
          CFI CFA_XSP16 add(XSP16, 35)
          CFI Block cfiCond19 Using cfiCommon0
          CFI (cfiCond19) Function MT_AfDataRequest
          CFI (cfiCond19) Conditional ??CrossCallReturnLabel_102
          CFI (cfiCond19) R6 load(1, XDATA, add(CFA_XSP16, literal(-21)))
          CFI (cfiCond19) VB load(1, XDATA, add(CFA_XSP16, literal(-20)))
          CFI (cfiCond19) V0 load(1, XDATA, add(CFA_XSP16, literal(-19)))
          CFI (cfiCond19) V1 load(1, XDATA, add(CFA_XSP16, literal(-18)))
          CFI (cfiCond19) V2 load(1, XDATA, add(CFA_XSP16, literal(-17)))
          CFI (cfiCond19) V3 load(1, XDATA, add(CFA_XSP16, literal(-16)))
          CFI (cfiCond19) V4 load(1, XDATA, add(CFA_XSP16, literal(-15)))
          CFI (cfiCond19) V5 load(1, XDATA, add(CFA_XSP16, literal(-14)))
          CFI (cfiCond19) V6 load(1, XDATA, add(CFA_XSP16, literal(-13)))
          CFI (cfiCond19) V7 load(1, XDATA, add(CFA_XSP16, literal(-12)))
          CFI (cfiCond19) V8 load(1, XDATA, add(CFA_XSP16, literal(-11)))
          CFI (cfiCond19) V9 load(1, XDATA, add(CFA_XSP16, literal(-10)))
          CFI (cfiCond19) V10 load(1, XDATA, add(CFA_XSP16, literal(-9)))
          CFI (cfiCond19) V11 load(1, XDATA, add(CFA_XSP16, literal(-8)))
          CFI (cfiCond19) V12 load(1, XDATA, add(CFA_XSP16, literal(-7)))
          CFI (cfiCond19) R7 load(1, XDATA, add(CFA_XSP16, literal(-6)))
          CFI (cfiCond19) ?RET_LOW load(1, XDATA, add(CFA_XSP16, literal(-5)))
          CFI (cfiCond19) ?RET_HIGH load(1, XDATA, add(CFA_XSP16, literal(-4)))
          CFI (cfiCond19) ?BRET_EXT load(1, XDATA, add(CFA_XSP16, literal(-3)))
          CFI (cfiCond19) DPL0 load(1, XDATA, add(CFA_XSP16, literal(-2)))
          CFI (cfiCond19) DPH0 load(1, XDATA, add(CFA_XSP16, literal(-1)))
          CFI (cfiCond19) CFA_SP SP+-2
          CFI (cfiCond19) CFA_XSP16 add(XSP16, 35)
          CFI Block cfiCond20 Using cfiCommon0
          CFI (cfiCond20) Function MT_AfDataRequest
          CFI (cfiCond20) Conditional ??CrossCallReturnLabel_103
          CFI (cfiCond20) R6 load(1, XDATA, add(CFA_XSP16, literal(-21)))
          CFI (cfiCond20) VB load(1, XDATA, add(CFA_XSP16, literal(-20)))
          CFI (cfiCond20) V0 load(1, XDATA, add(CFA_XSP16, literal(-19)))
          CFI (cfiCond20) V1 load(1, XDATA, add(CFA_XSP16, literal(-18)))
          CFI (cfiCond20) V2 load(1, XDATA, add(CFA_XSP16, literal(-17)))
          CFI (cfiCond20) V3 load(1, XDATA, add(CFA_XSP16, literal(-16)))
          CFI (cfiCond20) V4 load(1, XDATA, add(CFA_XSP16, literal(-15)))
          CFI (cfiCond20) V5 load(1, XDATA, add(CFA_XSP16, literal(-14)))
          CFI (cfiCond20) V6 load(1, XDATA, add(CFA_XSP16, literal(-13)))
          CFI (cfiCond20) V7 load(1, XDATA, add(CFA_XSP16, literal(-12)))
          CFI (cfiCond20) V8 load(1, XDATA, add(CFA_XSP16, literal(-11)))
          CFI (cfiCond20) V9 load(1, XDATA, add(CFA_XSP16, literal(-10)))
          CFI (cfiCond20) V10 load(1, XDATA, add(CFA_XSP16, literal(-9)))
          CFI (cfiCond20) V11 load(1, XDATA, add(CFA_XSP16, literal(-8)))
          CFI (cfiCond20) V12 load(1, XDATA, add(CFA_XSP16, literal(-7)))
          CFI (cfiCond20) R7 load(1, XDATA, add(CFA_XSP16, literal(-6)))
          CFI (cfiCond20) ?RET_LOW load(1, XDATA, add(CFA_XSP16, literal(-5)))
          CFI (cfiCond20) ?RET_HIGH load(1, XDATA, add(CFA_XSP16, literal(-4)))
          CFI (cfiCond20) ?BRET_EXT load(1, XDATA, add(CFA_XSP16, literal(-3)))
          CFI (cfiCond20) DPL0 load(1, XDATA, add(CFA_XSP16, literal(-2)))
          CFI (cfiCond20) DPH0 load(1, XDATA, add(CFA_XSP16, literal(-1)))
          CFI (cfiCond20) CFA_SP SP+-2
          CFI (cfiCond20) CFA_XSP16 add(XSP16, 35)
          CFI Block cfiCond21 Using cfiCommon0
          CFI (cfiCond21) Function MT_AfDataRequest
          CFI (cfiCond21) Conditional ??CrossCallReturnLabel_104
          CFI (cfiCond21) R6 load(1, XDATA, add(CFA_XSP16, literal(-21)))
          CFI (cfiCond21) VB load(1, XDATA, add(CFA_XSP16, literal(-20)))
          CFI (cfiCond21) V0 load(1, XDATA, add(CFA_XSP16, literal(-19)))
          CFI (cfiCond21) V1 load(1, XDATA, add(CFA_XSP16, literal(-18)))
          CFI (cfiCond21) V2 load(1, XDATA, add(CFA_XSP16, literal(-17)))
          CFI (cfiCond21) V3 load(1, XDATA, add(CFA_XSP16, literal(-16)))
          CFI (cfiCond21) V4 load(1, XDATA, add(CFA_XSP16, literal(-15)))
          CFI (cfiCond21) V5 load(1, XDATA, add(CFA_XSP16, literal(-14)))
          CFI (cfiCond21) V6 load(1, XDATA, add(CFA_XSP16, literal(-13)))
          CFI (cfiCond21) V7 load(1, XDATA, add(CFA_XSP16, literal(-12)))
          CFI (cfiCond21) V8 load(1, XDATA, add(CFA_XSP16, literal(-11)))
          CFI (cfiCond21) V9 load(1, XDATA, add(CFA_XSP16, literal(-10)))
          CFI (cfiCond21) V10 load(1, XDATA, add(CFA_XSP16, literal(-9)))
          CFI (cfiCond21) V11 load(1, XDATA, add(CFA_XSP16, literal(-8)))
          CFI (cfiCond21) V12 load(1, XDATA, add(CFA_XSP16, literal(-7)))
          CFI (cfiCond21) R7 load(1, XDATA, add(CFA_XSP16, literal(-6)))
          CFI (cfiCond21) ?RET_LOW load(1, XDATA, add(CFA_XSP16, literal(-5)))
          CFI (cfiCond21) ?RET_HIGH load(1, XDATA, add(CFA_XSP16, literal(-4)))
          CFI (cfiCond21) ?BRET_EXT load(1, XDATA, add(CFA_XSP16, literal(-3)))
          CFI (cfiCond21) DPL0 load(1, XDATA, add(CFA_XSP16, literal(-2)))
          CFI (cfiCond21) DPH0 load(1, XDATA, add(CFA_XSP16, literal(-1)))
          CFI (cfiCond21) CFA_SP SP+-2
          CFI (cfiCond21) CFA_XSP16 add(XSP16, 35)
          CFI Block cfiPicker22 Using cfiCommon1
          CFI (cfiPicker22) NoFunction
          CFI (cfiPicker22) Picker
        MOVX      @DPTR,A
          CFI EndBlock cfiCond18
          CFI EndBlock cfiCond19
          CFI EndBlock cfiCond20
          CFI EndBlock cfiCond21
          CFI EndBlock cfiPicker22
        REQUIRE ??Subroutine51_0
        ; // Fall through to label ??Subroutine51_0

        RSEG BANKED_CODE:HUGECODE:NOROOT(0)
??Subroutine51_0:
          CFI Block cfiCond23 Using cfiCommon0
          CFI Function MT_AfDataRequest
          CFI Conditional ??CrossCallReturnLabel_105
          CFI R6 load(1, XDATA, add(CFA_XSP16, literal(-21)))
          CFI VB load(1, XDATA, add(CFA_XSP16, literal(-20)))
          CFI V0 load(1, XDATA, add(CFA_XSP16, literal(-19)))
          CFI V1 load(1, XDATA, add(CFA_XSP16, literal(-18)))
          CFI V2 load(1, XDATA, add(CFA_XSP16, literal(-17)))
          CFI V3 load(1, XDATA, add(CFA_XSP16, literal(-16)))
          CFI V4 load(1, XDATA, add(CFA_XSP16, literal(-15)))
          CFI V5 load(1, XDATA, add(CFA_XSP16, literal(-14)))
          CFI V6 load(1, XDATA, add(CFA_XSP16, literal(-13)))
          CFI V7 load(1, XDATA, add(CFA_XSP16, literal(-12)))
          CFI V8 load(1, XDATA, add(CFA_XSP16, literal(-11)))
          CFI V9 load(1, XDATA, add(CFA_XSP16, literal(-10)))
          CFI V10 load(1, XDATA, add(CFA_XSP16, literal(-9)))
          CFI V11 load(1, XDATA, add(CFA_XSP16, literal(-8)))
          CFI V12 load(1, XDATA, add(CFA_XSP16, literal(-7)))
          CFI R7 load(1, XDATA, add(CFA_XSP16, literal(-6)))
          CFI ?RET_LOW load(1, XDATA, add(CFA_XSP16, literal(-5)))
          CFI ?RET_HIGH load(1, XDATA, add(CFA_XSP16, literal(-4)))
          CFI ?BRET_EXT load(1, XDATA, add(CFA_XSP16, literal(-3)))
          CFI DPL0 load(1, XDATA, add(CFA_XSP16, literal(-2)))
          CFI DPH0 load(1, XDATA, add(CFA_XSP16, literal(-1)))
          CFI CFA_SP SP+-2
          CFI CFA_XSP16 add(XSP16, 35)
          CFI Block cfiCond24 Using cfiCommon0
          CFI (cfiCond24) Function MT_AfDataRequest
          CFI (cfiCond24) Conditional ??CrossCallReturnLabel_106
          CFI (cfiCond24) R6 load(1, XDATA, add(CFA_XSP16, literal(-21)))
          CFI (cfiCond24) VB load(1, XDATA, add(CFA_XSP16, literal(-20)))
          CFI (cfiCond24) V0 load(1, XDATA, add(CFA_XSP16, literal(-19)))
          CFI (cfiCond24) V1 load(1, XDATA, add(CFA_XSP16, literal(-18)))
          CFI (cfiCond24) V2 load(1, XDATA, add(CFA_XSP16, literal(-17)))
          CFI (cfiCond24) V3 load(1, XDATA, add(CFA_XSP16, literal(-16)))
          CFI (cfiCond24) V4 load(1, XDATA, add(CFA_XSP16, literal(-15)))
          CFI (cfiCond24) V5 load(1, XDATA, add(CFA_XSP16, literal(-14)))
          CFI (cfiCond24) V6 load(1, XDATA, add(CFA_XSP16, literal(-13)))
          CFI (cfiCond24) V7 load(1, XDATA, add(CFA_XSP16, literal(-12)))
          CFI (cfiCond24) V8 load(1, XDATA, add(CFA_XSP16, literal(-11)))
          CFI (cfiCond24) V9 load(1, XDATA, add(CFA_XSP16, literal(-10)))
          CFI (cfiCond24) V10 load(1, XDATA, add(CFA_XSP16, literal(-9)))
          CFI (cfiCond24) V11 load(1, XDATA, add(CFA_XSP16, literal(-8)))
          CFI (cfiCond24) V12 load(1, XDATA, add(CFA_XSP16, literal(-7)))
          CFI (cfiCond24) R7 load(1, XDATA, add(CFA_XSP16, literal(-6)))
          CFI (cfiCond24) ?RET_LOW load(1, XDATA, add(CFA_XSP16, literal(-5)))
          CFI (cfiCond24) ?RET_HIGH load(1, XDATA, add(CFA_XSP16, literal(-4)))
          CFI (cfiCond24) ?BRET_EXT load(1, XDATA, add(CFA_XSP16, literal(-3)))
          CFI (cfiCond24) DPL0 load(1, XDATA, add(CFA_XSP16, literal(-2)))
          CFI (cfiCond24) DPH0 load(1, XDATA, add(CFA_XSP16, literal(-1)))
          CFI (cfiCond24) CFA_XSP16 add(XSP16, 35)
          CFI Block cfiCond25 Using cfiCommon0
          CFI (cfiCond25) Function MT_AfDataRequest
          CFI (cfiCond25) Conditional ??CrossCallReturnLabel_101
          CFI (cfiCond25) R6 load(1, XDATA, add(CFA_XSP16, literal(-21)))
          CFI (cfiCond25) VB load(1, XDATA, add(CFA_XSP16, literal(-20)))
          CFI (cfiCond25) V0 load(1, XDATA, add(CFA_XSP16, literal(-19)))
          CFI (cfiCond25) V1 load(1, XDATA, add(CFA_XSP16, literal(-18)))
          CFI (cfiCond25) V2 load(1, XDATA, add(CFA_XSP16, literal(-17)))
          CFI (cfiCond25) V3 load(1, XDATA, add(CFA_XSP16, literal(-16)))
          CFI (cfiCond25) V4 load(1, XDATA, add(CFA_XSP16, literal(-15)))
          CFI (cfiCond25) V5 load(1, XDATA, add(CFA_XSP16, literal(-14)))
          CFI (cfiCond25) V6 load(1, XDATA, add(CFA_XSP16, literal(-13)))
          CFI (cfiCond25) V7 load(1, XDATA, add(CFA_XSP16, literal(-12)))
          CFI (cfiCond25) V8 load(1, XDATA, add(CFA_XSP16, literal(-11)))
          CFI (cfiCond25) V9 load(1, XDATA, add(CFA_XSP16, literal(-10)))
          CFI (cfiCond25) V10 load(1, XDATA, add(CFA_XSP16, literal(-9)))
          CFI (cfiCond25) V11 load(1, XDATA, add(CFA_XSP16, literal(-8)))
          CFI (cfiCond25) V12 load(1, XDATA, add(CFA_XSP16, literal(-7)))
          CFI (cfiCond25) R7 load(1, XDATA, add(CFA_XSP16, literal(-6)))
          CFI (cfiCond25) ?RET_LOW load(1, XDATA, add(CFA_XSP16, literal(-5)))
          CFI (cfiCond25) ?RET_HIGH load(1, XDATA, add(CFA_XSP16, literal(-4)))
          CFI (cfiCond25) ?BRET_EXT load(1, XDATA, add(CFA_XSP16, literal(-3)))
          CFI (cfiCond25) DPL0 load(1, XDATA, add(CFA_XSP16, literal(-2)))
          CFI (cfiCond25) DPH0 load(1, XDATA, add(CFA_XSP16, literal(-1)))
          CFI (cfiCond25) CFA_SP SP+-2
          CFI (cfiCond25) CFA_XSP16 add(XSP16, 35)
          CFI Block cfiCond26 Using cfiCommon0
          CFI (cfiCond26) Function MT_AfDataRequest
          CFI (cfiCond26) Conditional ??CrossCallReturnLabel_102
          CFI (cfiCond26) R6 load(1, XDATA, add(CFA_XSP16, literal(-21)))
          CFI (cfiCond26) VB load(1, XDATA, add(CFA_XSP16, literal(-20)))
          CFI (cfiCond26) V0 load(1, XDATA, add(CFA_XSP16, literal(-19)))
          CFI (cfiCond26) V1 load(1, XDATA, add(CFA_XSP16, literal(-18)))
          CFI (cfiCond26) V2 load(1, XDATA, add(CFA_XSP16, literal(-17)))
          CFI (cfiCond26) V3 load(1, XDATA, add(CFA_XSP16, literal(-16)))
          CFI (cfiCond26) V4 load(1, XDATA, add(CFA_XSP16, literal(-15)))
          CFI (cfiCond26) V5 load(1, XDATA, add(CFA_XSP16, literal(-14)))
          CFI (cfiCond26) V6 load(1, XDATA, add(CFA_XSP16, literal(-13)))
          CFI (cfiCond26) V7 load(1, XDATA, add(CFA_XSP16, literal(-12)))
          CFI (cfiCond26) V8 load(1, XDATA, add(CFA_XSP16, literal(-11)))
          CFI (cfiCond26) V9 load(1, XDATA, add(CFA_XSP16, literal(-10)))
          CFI (cfiCond26) V10 load(1, XDATA, add(CFA_XSP16, literal(-9)))
          CFI (cfiCond26) V11 load(1, XDATA, add(CFA_XSP16, literal(-8)))
          CFI (cfiCond26) V12 load(1, XDATA, add(CFA_XSP16, literal(-7)))
          CFI (cfiCond26) R7 load(1, XDATA, add(CFA_XSP16, literal(-6)))
          CFI (cfiCond26) ?RET_LOW load(1, XDATA, add(CFA_XSP16, literal(-5)))
          CFI (cfiCond26) ?RET_HIGH load(1, XDATA, add(CFA_XSP16, literal(-4)))
          CFI (cfiCond26) ?BRET_EXT load(1, XDATA, add(CFA_XSP16, literal(-3)))
          CFI (cfiCond26) DPL0 load(1, XDATA, add(CFA_XSP16, literal(-2)))
          CFI (cfiCond26) DPH0 load(1, XDATA, add(CFA_XSP16, literal(-1)))
          CFI (cfiCond26) CFA_SP SP+-2
          CFI (cfiCond26) CFA_XSP16 add(XSP16, 35)
          CFI Block cfiCond27 Using cfiCommon0
          CFI (cfiCond27) Function MT_AfDataRequest
          CFI (cfiCond27) Conditional ??CrossCallReturnLabel_103
          CFI (cfiCond27) R6 load(1, XDATA, add(CFA_XSP16, literal(-21)))
          CFI (cfiCond27) VB load(1, XDATA, add(CFA_XSP16, literal(-20)))
          CFI (cfiCond27) V0 load(1, XDATA, add(CFA_XSP16, literal(-19)))
          CFI (cfiCond27) V1 load(1, XDATA, add(CFA_XSP16, literal(-18)))
          CFI (cfiCond27) V2 load(1, XDATA, add(CFA_XSP16, literal(-17)))
          CFI (cfiCond27) V3 load(1, XDATA, add(CFA_XSP16, literal(-16)))
          CFI (cfiCond27) V4 load(1, XDATA, add(CFA_XSP16, literal(-15)))
          CFI (cfiCond27) V5 load(1, XDATA, add(CFA_XSP16, literal(-14)))
          CFI (cfiCond27) V6 load(1, XDATA, add(CFA_XSP16, literal(-13)))
          CFI (cfiCond27) V7 load(1, XDATA, add(CFA_XSP16, literal(-12)))
          CFI (cfiCond27) V8 load(1, XDATA, add(CFA_XSP16, literal(-11)))
          CFI (cfiCond27) V9 load(1, XDATA, add(CFA_XSP16, literal(-10)))
          CFI (cfiCond27) V10 load(1, XDATA, add(CFA_XSP16, literal(-9)))
          CFI (cfiCond27) V11 load(1, XDATA, add(CFA_XSP16, literal(-8)))
          CFI (cfiCond27) V12 load(1, XDATA, add(CFA_XSP16, literal(-7)))
          CFI (cfiCond27) R7 load(1, XDATA, add(CFA_XSP16, literal(-6)))
          CFI (cfiCond27) ?RET_LOW load(1, XDATA, add(CFA_XSP16, literal(-5)))
          CFI (cfiCond27) ?RET_HIGH load(1, XDATA, add(CFA_XSP16, literal(-4)))
          CFI (cfiCond27) ?BRET_EXT load(1, XDATA, add(CFA_XSP16, literal(-3)))
          CFI (cfiCond27) DPL0 load(1, XDATA, add(CFA_XSP16, literal(-2)))
          CFI (cfiCond27) DPH0 load(1, XDATA, add(CFA_XSP16, literal(-1)))
          CFI (cfiCond27) CFA_SP SP+-2
          CFI (cfiCond27) CFA_XSP16 add(XSP16, 35)
          CFI Block cfiCond28 Using cfiCommon0
          CFI (cfiCond28) Function MT_AfDataRequest
          CFI (cfiCond28) Conditional ??CrossCallReturnLabel_104
          CFI (cfiCond28) R6 load(1, XDATA, add(CFA_XSP16, literal(-21)))
          CFI (cfiCond28) VB load(1, XDATA, add(CFA_XSP16, literal(-20)))
          CFI (cfiCond28) V0 load(1, XDATA, add(CFA_XSP16, literal(-19)))
          CFI (cfiCond28) V1 load(1, XDATA, add(CFA_XSP16, literal(-18)))
          CFI (cfiCond28) V2 load(1, XDATA, add(CFA_XSP16, literal(-17)))
          CFI (cfiCond28) V3 load(1, XDATA, add(CFA_XSP16, literal(-16)))
          CFI (cfiCond28) V4 load(1, XDATA, add(CFA_XSP16, literal(-15)))
          CFI (cfiCond28) V5 load(1, XDATA, add(CFA_XSP16, literal(-14)))
          CFI (cfiCond28) V6 load(1, XDATA, add(CFA_XSP16, literal(-13)))
          CFI (cfiCond28) V7 load(1, XDATA, add(CFA_XSP16, literal(-12)))
          CFI (cfiCond28) V8 load(1, XDATA, add(CFA_XSP16, literal(-11)))
          CFI (cfiCond28) V9 load(1, XDATA, add(CFA_XSP16, literal(-10)))
          CFI (cfiCond28) V10 load(1, XDATA, add(CFA_XSP16, literal(-9)))
          CFI (cfiCond28) V11 load(1, XDATA, add(CFA_XSP16, literal(-8)))
          CFI (cfiCond28) V12 load(1, XDATA, add(CFA_XSP16, literal(-7)))
          CFI (cfiCond28) R7 load(1, XDATA, add(CFA_XSP16, literal(-6)))
          CFI (cfiCond28) ?RET_LOW load(1, XDATA, add(CFA_XSP16, literal(-5)))
          CFI (cfiCond28) ?RET_HIGH load(1, XDATA, add(CFA_XSP16, literal(-4)))
          CFI (cfiCond28) ?BRET_EXT load(1, XDATA, add(CFA_XSP16, literal(-3)))
          CFI (cfiCond28) DPL0 load(1, XDATA, add(CFA_XSP16, literal(-2)))
          CFI (cfiCond28) DPH0 load(1, XDATA, add(CFA_XSP16, literal(-1)))
          CFI (cfiCond28) CFA_SP SP+-2
          CFI (cfiCond28) CFA_XSP16 add(XSP16, 35)
          CFI Block cfiPicker29 Using cfiCommon1
          CFI (cfiPicker29) NoFunction
          CFI (cfiPicker29) Picker
        LCALL     ?Subroutine41 & 0xFFFF
??CrossCallReturnLabel_135:
        XCH       A,R0
        RET
          CFI EndBlock cfiCond23
          CFI EndBlock cfiCond24
          CFI EndBlock cfiCond25
          CFI EndBlock cfiCond26
          CFI EndBlock cfiCond27
          CFI EndBlock cfiCond28
          CFI EndBlock cfiPicker29

        RSEG BANKED_CODE:HUGECODE:NOROOT(0)
?Subroutine41:
          CFI Block cfiCond30 Using cfiCommon0
          CFI Function MT_AfDataRequest
          CFI Conditional ??CrossCallReturnLabel_135, ??CrossCallReturnLabel_101
          CFI R6 load(1, XDATA, add(CFA_XSP16, literal(-21)))
          CFI VB load(1, XDATA, add(CFA_XSP16, literal(-20)))
          CFI V0 load(1, XDATA, add(CFA_XSP16, literal(-19)))
          CFI V1 load(1, XDATA, add(CFA_XSP16, literal(-18)))
          CFI V2 load(1, XDATA, add(CFA_XSP16, literal(-17)))
          CFI V3 load(1, XDATA, add(CFA_XSP16, literal(-16)))
          CFI V4 load(1, XDATA, add(CFA_XSP16, literal(-15)))
          CFI V5 load(1, XDATA, add(CFA_XSP16, literal(-14)))
          CFI V6 load(1, XDATA, add(CFA_XSP16, literal(-13)))
          CFI V7 load(1, XDATA, add(CFA_XSP16, literal(-12)))
          CFI V8 load(1, XDATA, add(CFA_XSP16, literal(-11)))
          CFI V9 load(1, XDATA, add(CFA_XSP16, literal(-10)))
          CFI V10 load(1, XDATA, add(CFA_XSP16, literal(-9)))
          CFI V11 load(1, XDATA, add(CFA_XSP16, literal(-8)))
          CFI V12 load(1, XDATA, add(CFA_XSP16, literal(-7)))
          CFI R7 load(1, XDATA, add(CFA_XSP16, literal(-6)))
          CFI ?RET_LOW load(1, XDATA, add(CFA_XSP16, literal(-5)))
          CFI ?RET_HIGH load(1, XDATA, add(CFA_XSP16, literal(-4)))
          CFI ?BRET_EXT load(1, XDATA, add(CFA_XSP16, literal(-3)))
          CFI DPL0 load(1, XDATA, add(CFA_XSP16, literal(-2)))
          CFI DPH0 load(1, XDATA, add(CFA_XSP16, literal(-1)))
          CFI CFA_SP SP+-4
          CFI CFA_XSP16 add(XSP16, 35)
          CFI Block cfiCond31 Using cfiCommon0
          CFI (cfiCond31) Function MT_AfDataRequest
          CFI (cfiCond31) Conditional ??CrossCallReturnLabel_135, ??CrossCallReturnLabel_102
          CFI (cfiCond31) R6 load(1, XDATA, add(CFA_XSP16, literal(-21)))
          CFI (cfiCond31) VB load(1, XDATA, add(CFA_XSP16, literal(-20)))
          CFI (cfiCond31) V0 load(1, XDATA, add(CFA_XSP16, literal(-19)))
          CFI (cfiCond31) V1 load(1, XDATA, add(CFA_XSP16, literal(-18)))
          CFI (cfiCond31) V2 load(1, XDATA, add(CFA_XSP16, literal(-17)))
          CFI (cfiCond31) V3 load(1, XDATA, add(CFA_XSP16, literal(-16)))
          CFI (cfiCond31) V4 load(1, XDATA, add(CFA_XSP16, literal(-15)))
          CFI (cfiCond31) V5 load(1, XDATA, add(CFA_XSP16, literal(-14)))
          CFI (cfiCond31) V6 load(1, XDATA, add(CFA_XSP16, literal(-13)))
          CFI (cfiCond31) V7 load(1, XDATA, add(CFA_XSP16, literal(-12)))
          CFI (cfiCond31) V8 load(1, XDATA, add(CFA_XSP16, literal(-11)))
          CFI (cfiCond31) V9 load(1, XDATA, add(CFA_XSP16, literal(-10)))
          CFI (cfiCond31) V10 load(1, XDATA, add(CFA_XSP16, literal(-9)))
          CFI (cfiCond31) V11 load(1, XDATA, add(CFA_XSP16, literal(-8)))
          CFI (cfiCond31) V12 load(1, XDATA, add(CFA_XSP16, literal(-7)))
          CFI (cfiCond31) R7 load(1, XDATA, add(CFA_XSP16, literal(-6)))
          CFI (cfiCond31) ?RET_LOW load(1, XDATA, add(CFA_XSP16, literal(-5)))
          CFI (cfiCond31) ?RET_HIGH load(1, XDATA, add(CFA_XSP16, literal(-4)))
          CFI (cfiCond31) ?BRET_EXT load(1, XDATA, add(CFA_XSP16, literal(-3)))
          CFI (cfiCond31) DPL0 load(1, XDATA, add(CFA_XSP16, literal(-2)))
          CFI (cfiCond31) DPH0 load(1, XDATA, add(CFA_XSP16, literal(-1)))
          CFI (cfiCond31) CFA_SP SP+-4
          CFI (cfiCond31) CFA_XSP16 add(XSP16, 35)
          CFI Block cfiCond32 Using cfiCommon0
          CFI (cfiCond32) Function MT_AfDataRequest
          CFI (cfiCond32) Conditional ??CrossCallReturnLabel_135, ??CrossCallReturnLabel_103
          CFI (cfiCond32) R6 load(1, XDATA, add(CFA_XSP16, literal(-21)))
          CFI (cfiCond32) VB load(1, XDATA, add(CFA_XSP16, literal(-20)))
          CFI (cfiCond32) V0 load(1, XDATA, add(CFA_XSP16, literal(-19)))
          CFI (cfiCond32) V1 load(1, XDATA, add(CFA_XSP16, literal(-18)))
          CFI (cfiCond32) V2 load(1, XDATA, add(CFA_XSP16, literal(-17)))
          CFI (cfiCond32) V3 load(1, XDATA, add(CFA_XSP16, literal(-16)))
          CFI (cfiCond32) V4 load(1, XDATA, add(CFA_XSP16, literal(-15)))
          CFI (cfiCond32) V5 load(1, XDATA, add(CFA_XSP16, literal(-14)))
          CFI (cfiCond32) V6 load(1, XDATA, add(CFA_XSP16, literal(-13)))
          CFI (cfiCond32) V7 load(1, XDATA, add(CFA_XSP16, literal(-12)))
          CFI (cfiCond32) V8 load(1, XDATA, add(CFA_XSP16, literal(-11)))
          CFI (cfiCond32) V9 load(1, XDATA, add(CFA_XSP16, literal(-10)))
          CFI (cfiCond32) V10 load(1, XDATA, add(CFA_XSP16, literal(-9)))
          CFI (cfiCond32) V11 load(1, XDATA, add(CFA_XSP16, literal(-8)))
          CFI (cfiCond32) V12 load(1, XDATA, add(CFA_XSP16, literal(-7)))
          CFI (cfiCond32) R7 load(1, XDATA, add(CFA_XSP16, literal(-6)))
          CFI (cfiCond32) ?RET_LOW load(1, XDATA, add(CFA_XSP16, literal(-5)))
          CFI (cfiCond32) ?RET_HIGH load(1, XDATA, add(CFA_XSP16, literal(-4)))
          CFI (cfiCond32) ?BRET_EXT load(1, XDATA, add(CFA_XSP16, literal(-3)))
          CFI (cfiCond32) DPL0 load(1, XDATA, add(CFA_XSP16, literal(-2)))
          CFI (cfiCond32) DPH0 load(1, XDATA, add(CFA_XSP16, literal(-1)))
          CFI (cfiCond32) CFA_SP SP+-4
          CFI (cfiCond32) CFA_XSP16 add(XSP16, 35)
          CFI Block cfiCond33 Using cfiCommon0
          CFI (cfiCond33) Function MT_AfDataRequest
          CFI (cfiCond33) Conditional ??CrossCallReturnLabel_135, ??CrossCallReturnLabel_104
          CFI (cfiCond33) R6 load(1, XDATA, add(CFA_XSP16, literal(-21)))
          CFI (cfiCond33) VB load(1, XDATA, add(CFA_XSP16, literal(-20)))
          CFI (cfiCond33) V0 load(1, XDATA, add(CFA_XSP16, literal(-19)))
          CFI (cfiCond33) V1 load(1, XDATA, add(CFA_XSP16, literal(-18)))
          CFI (cfiCond33) V2 load(1, XDATA, add(CFA_XSP16, literal(-17)))
          CFI (cfiCond33) V3 load(1, XDATA, add(CFA_XSP16, literal(-16)))
          CFI (cfiCond33) V4 load(1, XDATA, add(CFA_XSP16, literal(-15)))
          CFI (cfiCond33) V5 load(1, XDATA, add(CFA_XSP16, literal(-14)))
          CFI (cfiCond33) V6 load(1, XDATA, add(CFA_XSP16, literal(-13)))
          CFI (cfiCond33) V7 load(1, XDATA, add(CFA_XSP16, literal(-12)))
          CFI (cfiCond33) V8 load(1, XDATA, add(CFA_XSP16, literal(-11)))
          CFI (cfiCond33) V9 load(1, XDATA, add(CFA_XSP16, literal(-10)))
          CFI (cfiCond33) V10 load(1, XDATA, add(CFA_XSP16, literal(-9)))
          CFI (cfiCond33) V11 load(1, XDATA, add(CFA_XSP16, literal(-8)))
          CFI (cfiCond33) V12 load(1, XDATA, add(CFA_XSP16, literal(-7)))
          CFI (cfiCond33) R7 load(1, XDATA, add(CFA_XSP16, literal(-6)))
          CFI (cfiCond33) ?RET_LOW load(1, XDATA, add(CFA_XSP16, literal(-5)))
          CFI (cfiCond33) ?RET_HIGH load(1, XDATA, add(CFA_XSP16, literal(-4)))
          CFI (cfiCond33) ?BRET_EXT load(1, XDATA, add(CFA_XSP16, literal(-3)))
          CFI (cfiCond33) DPL0 load(1, XDATA, add(CFA_XSP16, literal(-2)))
          CFI (cfiCond33) DPH0 load(1, XDATA, add(CFA_XSP16, literal(-1)))
          CFI (cfiCond33) CFA_SP SP+-4
          CFI (cfiCond33) CFA_XSP16 add(XSP16, 35)
          CFI Block cfiCond34 Using cfiCommon0
          CFI (cfiCond34) Function MT_AfDataRequest
          CFI (cfiCond34) Conditional ??CrossCallReturnLabel_135, ??CrossCallReturnLabel_105
          CFI (cfiCond34) R6 load(1, XDATA, add(CFA_XSP16, literal(-21)))
          CFI (cfiCond34) VB load(1, XDATA, add(CFA_XSP16, literal(-20)))
          CFI (cfiCond34) V0 load(1, XDATA, add(CFA_XSP16, literal(-19)))
          CFI (cfiCond34) V1 load(1, XDATA, add(CFA_XSP16, literal(-18)))
          CFI (cfiCond34) V2 load(1, XDATA, add(CFA_XSP16, literal(-17)))
          CFI (cfiCond34) V3 load(1, XDATA, add(CFA_XSP16, literal(-16)))
          CFI (cfiCond34) V4 load(1, XDATA, add(CFA_XSP16, literal(-15)))
          CFI (cfiCond34) V5 load(1, XDATA, add(CFA_XSP16, literal(-14)))
          CFI (cfiCond34) V6 load(1, XDATA, add(CFA_XSP16, literal(-13)))
          CFI (cfiCond34) V7 load(1, XDATA, add(CFA_XSP16, literal(-12)))
          CFI (cfiCond34) V8 load(1, XDATA, add(CFA_XSP16, literal(-11)))
          CFI (cfiCond34) V9 load(1, XDATA, add(CFA_XSP16, literal(-10)))
          CFI (cfiCond34) V10 load(1, XDATA, add(CFA_XSP16, literal(-9)))
          CFI (cfiCond34) V11 load(1, XDATA, add(CFA_XSP16, literal(-8)))
          CFI (cfiCond34) V12 load(1, XDATA, add(CFA_XSP16, literal(-7)))
          CFI (cfiCond34) R7 load(1, XDATA, add(CFA_XSP16, literal(-6)))
          CFI (cfiCond34) ?RET_LOW load(1, XDATA, add(CFA_XSP16, literal(-5)))
          CFI (cfiCond34) ?RET_HIGH load(1, XDATA, add(CFA_XSP16, literal(-4)))
          CFI (cfiCond34) ?BRET_EXT load(1, XDATA, add(CFA_XSP16, literal(-3)))
          CFI (cfiCond34) DPL0 load(1, XDATA, add(CFA_XSP16, literal(-2)))
          CFI (cfiCond34) DPH0 load(1, XDATA, add(CFA_XSP16, literal(-1)))
          CFI (cfiCond34) CFA_SP SP+-4
          CFI (cfiCond34) CFA_XSP16 add(XSP16, 35)
          CFI Block cfiCond35 Using cfiCommon0
          CFI (cfiCond35) Function MT_AfDataRequest
          CFI (cfiCond35) Conditional ??CrossCallReturnLabel_135, ??CrossCallReturnLabel_106
          CFI (cfiCond35) R6 load(1, XDATA, add(CFA_XSP16, literal(-21)))
          CFI (cfiCond35) VB load(1, XDATA, add(CFA_XSP16, literal(-20)))
          CFI (cfiCond35) V0 load(1, XDATA, add(CFA_XSP16, literal(-19)))
          CFI (cfiCond35) V1 load(1, XDATA, add(CFA_XSP16, literal(-18)))
          CFI (cfiCond35) V2 load(1, XDATA, add(CFA_XSP16, literal(-17)))
          CFI (cfiCond35) V3 load(1, XDATA, add(CFA_XSP16, literal(-16)))
          CFI (cfiCond35) V4 load(1, XDATA, add(CFA_XSP16, literal(-15)))
          CFI (cfiCond35) V5 load(1, XDATA, add(CFA_XSP16, literal(-14)))
          CFI (cfiCond35) V6 load(1, XDATA, add(CFA_XSP16, literal(-13)))
          CFI (cfiCond35) V7 load(1, XDATA, add(CFA_XSP16, literal(-12)))
          CFI (cfiCond35) V8 load(1, XDATA, add(CFA_XSP16, literal(-11)))
          CFI (cfiCond35) V9 load(1, XDATA, add(CFA_XSP16, literal(-10)))
          CFI (cfiCond35) V10 load(1, XDATA, add(CFA_XSP16, literal(-9)))
          CFI (cfiCond35) V11 load(1, XDATA, add(CFA_XSP16, literal(-8)))
          CFI (cfiCond35) V12 load(1, XDATA, add(CFA_XSP16, literal(-7)))
          CFI (cfiCond35) R7 load(1, XDATA, add(CFA_XSP16, literal(-6)))
          CFI (cfiCond35) ?RET_LOW load(1, XDATA, add(CFA_XSP16, literal(-5)))
          CFI (cfiCond35) ?RET_HIGH load(1, XDATA, add(CFA_XSP16, literal(-4)))
          CFI (cfiCond35) ?BRET_EXT load(1, XDATA, add(CFA_XSP16, literal(-3)))
          CFI (cfiCond35) DPL0 load(1, XDATA, add(CFA_XSP16, literal(-2)))
          CFI (cfiCond35) DPH0 load(1, XDATA, add(CFA_XSP16, literal(-1)))
          CFI (cfiCond35) CFA_SP SP+-5
          CFI (cfiCond35) CFA_XSP16 add(XSP16, 35)
          CFI Block cfiCond36 Using cfiCommon0
          CFI (cfiCond36) Function MT_AfExec
          CFI (cfiCond36) Conditional ??CrossCallReturnLabel_133, ??CrossCallReturnLabel_9
          CFI (cfiCond36) R6 load(1, XDATA, add(CFA_XSP16, literal(-9)))
          CFI (cfiCond36) VB load(1, XDATA, add(CFA_XSP16, literal(-8)))
          CFI (cfiCond36) V0 load(1, XDATA, add(CFA_XSP16, literal(-7)))
          CFI (cfiCond36) R7 load(1, XDATA, add(CFA_XSP16, literal(-6)))
          CFI (cfiCond36) ?RET_LOW load(1, XDATA, add(CFA_XSP16, literal(-5)))
          CFI (cfiCond36) ?RET_HIGH load(1, XDATA, add(CFA_XSP16, literal(-4)))
          CFI (cfiCond36) ?BRET_EXT load(1, XDATA, add(CFA_XSP16, literal(-3)))
          CFI (cfiCond36) DPL0 load(1, XDATA, add(CFA_XSP16, literal(-2)))
          CFI (cfiCond36) DPH0 load(1, XDATA, add(CFA_XSP16, literal(-1)))
          CFI (cfiCond36) CFA_SP SP+-4
          CFI (cfiCond36) CFA_XSP16 add(XSP16, 9)
          CFI Block cfiCond37 Using cfiCommon0
          CFI (cfiCond37) Function MT_AfDataRequest
          CFI (cfiCond37) Conditional ??CrossCallReturnLabel_133, ??CrossCallReturnLabel_8
          CFI (cfiCond37) R6 load(1, XDATA, add(CFA_XSP16, literal(-21)))
          CFI (cfiCond37) VB load(1, XDATA, add(CFA_XSP16, literal(-20)))
          CFI (cfiCond37) V0 load(1, XDATA, add(CFA_XSP16, literal(-19)))
          CFI (cfiCond37) V1 load(1, XDATA, add(CFA_XSP16, literal(-18)))
          CFI (cfiCond37) V2 load(1, XDATA, add(CFA_XSP16, literal(-17)))
          CFI (cfiCond37) V3 load(1, XDATA, add(CFA_XSP16, literal(-16)))
          CFI (cfiCond37) V4 load(1, XDATA, add(CFA_XSP16, literal(-15)))
          CFI (cfiCond37) V5 load(1, XDATA, add(CFA_XSP16, literal(-14)))
          CFI (cfiCond37) V6 load(1, XDATA, add(CFA_XSP16, literal(-13)))
          CFI (cfiCond37) V7 load(1, XDATA, add(CFA_XSP16, literal(-12)))
          CFI (cfiCond37) V8 load(1, XDATA, add(CFA_XSP16, literal(-11)))
          CFI (cfiCond37) V9 load(1, XDATA, add(CFA_XSP16, literal(-10)))
          CFI (cfiCond37) V10 load(1, XDATA, add(CFA_XSP16, literal(-9)))
          CFI (cfiCond37) V11 load(1, XDATA, add(CFA_XSP16, literal(-8)))
          CFI (cfiCond37) V12 load(1, XDATA, add(CFA_XSP16, literal(-7)))
          CFI (cfiCond37) R7 load(1, XDATA, add(CFA_XSP16, literal(-6)))
          CFI (cfiCond37) ?RET_LOW load(1, XDATA, add(CFA_XSP16, literal(-5)))
          CFI (cfiCond37) ?RET_HIGH load(1, XDATA, add(CFA_XSP16, literal(-4)))
          CFI (cfiCond37) ?BRET_EXT load(1, XDATA, add(CFA_XSP16, literal(-3)))
          CFI (cfiCond37) DPL0 load(1, XDATA, add(CFA_XSP16, literal(-2)))
          CFI (cfiCond37) DPH0 load(1, XDATA, add(CFA_XSP16, literal(-1)))
          CFI (cfiCond37) CFA_SP SP+-4
          CFI (cfiCond37) CFA_XSP16 add(XSP16, 35)
          CFI Block cfiCond38 Using cfiCommon0
          CFI (cfiCond38) Function MT_AfDataRequest
          CFI (cfiCond38) Conditional ??CrossCallReturnLabel_134, ??CrossCallReturnLabel_10
          CFI (cfiCond38) R6 load(1, XDATA, add(CFA_XSP16, literal(-21)))
          CFI (cfiCond38) VB load(1, XDATA, add(CFA_XSP16, literal(-20)))
          CFI (cfiCond38) V0 load(1, XDATA, add(CFA_XSP16, literal(-19)))
          CFI (cfiCond38) V1 load(1, XDATA, add(CFA_XSP16, literal(-18)))
          CFI (cfiCond38) V2 load(1, XDATA, add(CFA_XSP16, literal(-17)))
          CFI (cfiCond38) V3 load(1, XDATA, add(CFA_XSP16, literal(-16)))
          CFI (cfiCond38) V4 load(1, XDATA, add(CFA_XSP16, literal(-15)))
          CFI (cfiCond38) V5 load(1, XDATA, add(CFA_XSP16, literal(-14)))
          CFI (cfiCond38) V6 load(1, XDATA, add(CFA_XSP16, literal(-13)))
          CFI (cfiCond38) V7 load(1, XDATA, add(CFA_XSP16, literal(-12)))
          CFI (cfiCond38) V8 load(1, XDATA, add(CFA_XSP16, literal(-11)))
          CFI (cfiCond38) V9 load(1, XDATA, add(CFA_XSP16, literal(-10)))
          CFI (cfiCond38) V10 load(1, XDATA, add(CFA_XSP16, literal(-9)))
          CFI (cfiCond38) V11 load(1, XDATA, add(CFA_XSP16, literal(-8)))
          CFI (cfiCond38) V12 load(1, XDATA, add(CFA_XSP16, literal(-7)))
          CFI (cfiCond38) R7 load(1, XDATA, add(CFA_XSP16, literal(-6)))
          CFI (cfiCond38) ?RET_LOW load(1, XDATA, add(CFA_XSP16, literal(-5)))
          CFI (cfiCond38) ?RET_HIGH load(1, XDATA, add(CFA_XSP16, literal(-4)))
          CFI (cfiCond38) ?BRET_EXT load(1, XDATA, add(CFA_XSP16, literal(-3)))
          CFI (cfiCond38) DPL0 load(1, XDATA, add(CFA_XSP16, literal(-2)))
          CFI (cfiCond38) DPH0 load(1, XDATA, add(CFA_XSP16, literal(-1)))
          CFI (cfiCond38) CFA_SP SP+-4
          CFI (cfiCond38) CFA_XSP16 add(XSP16, 35)
          CFI Block cfiCond39 Using cfiCommon0
          CFI (cfiCond39) Function MT_AfDataStore
          CFI (cfiCond39) Conditional ??CrossCallReturnLabel_134, ??CrossCallReturnLabel_11
          CFI (cfiCond39) R6 load(1, XDATA, add(CFA_XSP16, literal(-14)))
          CFI (cfiCond39) VB load(1, XDATA, add(CFA_XSP16, literal(-13)))
          CFI (cfiCond39) V0 load(1, XDATA, add(CFA_XSP16, literal(-12)))
          CFI (cfiCond39) V1 load(1, XDATA, add(CFA_XSP16, literal(-11)))
          CFI (cfiCond39) V2 load(1, XDATA, add(CFA_XSP16, literal(-10)))
          CFI (cfiCond39) V3 load(1, XDATA, add(CFA_XSP16, literal(-9)))
          CFI (cfiCond39) V4 load(1, XDATA, add(CFA_XSP16, literal(-8)))
          CFI (cfiCond39) V5 load(1, XDATA, add(CFA_XSP16, literal(-7)))
          CFI (cfiCond39) R7 load(1, XDATA, add(CFA_XSP16, literal(-6)))
          CFI (cfiCond39) ?RET_LOW load(1, XDATA, add(CFA_XSP16, literal(-5)))
          CFI (cfiCond39) ?RET_HIGH load(1, XDATA, add(CFA_XSP16, literal(-4)))
          CFI (cfiCond39) ?BRET_EXT load(1, XDATA, add(CFA_XSP16, literal(-3)))
          CFI (cfiCond39) DPL0 load(1, XDATA, add(CFA_XSP16, literal(-2)))
          CFI (cfiCond39) DPH0 load(1, XDATA, add(CFA_XSP16, literal(-1)))
          CFI (cfiCond39) CFA_SP SP+-4
          CFI (cfiCond39) CFA_XSP16 add(XSP16, 18)
          CFI Block cfiCond40 Using cfiCommon0
          CFI (cfiCond40) Function MT_AfDataStore
          CFI (cfiCond40) Conditional ??CrossCallReturnLabel_134, ??CrossCallReturnLabel_12
          CFI (cfiCond40) R6 load(1, XDATA, add(CFA_XSP16, literal(-14)))
          CFI (cfiCond40) VB load(1, XDATA, add(CFA_XSP16, literal(-13)))
          CFI (cfiCond40) V0 load(1, XDATA, add(CFA_XSP16, literal(-12)))
          CFI (cfiCond40) V1 load(1, XDATA, add(CFA_XSP16, literal(-11)))
          CFI (cfiCond40) V2 load(1, XDATA, add(CFA_XSP16, literal(-10)))
          CFI (cfiCond40) V3 load(1, XDATA, add(CFA_XSP16, literal(-9)))
          CFI (cfiCond40) V4 load(1, XDATA, add(CFA_XSP16, literal(-8)))
          CFI (cfiCond40) V5 load(1, XDATA, add(CFA_XSP16, literal(-7)))
          CFI (cfiCond40) R7 load(1, XDATA, add(CFA_XSP16, literal(-6)))
          CFI (cfiCond40) ?RET_LOW load(1, XDATA, add(CFA_XSP16, literal(-5)))
          CFI (cfiCond40) ?RET_HIGH load(1, XDATA, add(CFA_XSP16, literal(-4)))
          CFI (cfiCond40) ?BRET_EXT load(1, XDATA, add(CFA_XSP16, literal(-3)))
          CFI (cfiCond40) DPL0 load(1, XDATA, add(CFA_XSP16, literal(-2)))
          CFI (cfiCond40) DPH0 load(1, XDATA, add(CFA_XSP16, literal(-1)))
          CFI (cfiCond40) CFA_SP SP+-4
          CFI (cfiCond40) CFA_XSP16 add(XSP16, 18)
          CFI Block cfiPicker41 Using cfiCommon1
          CFI (cfiPicker41) NoFunction
          CFI (cfiPicker41) Picker
        MOV       DPTR,#pMtAfDataReq
          CFI EndBlock cfiCond30
          CFI EndBlock cfiCond31
          CFI EndBlock cfiCond32
          CFI EndBlock cfiCond33
          CFI EndBlock cfiCond34
          CFI EndBlock cfiCond35
          CFI EndBlock cfiCond36
          CFI EndBlock cfiCond37
          CFI EndBlock cfiCond38
          CFI EndBlock cfiCond39
          CFI EndBlock cfiCond40
          CFI EndBlock cfiPicker41
        REQUIRE ??Subroutine52_0
        ; // Fall through to label ??Subroutine52_0

        RSEG BANKED_CODE:HUGECODE:NOROOT(0)
??Subroutine52_0:
          CFI Block cfiCond42 Using cfiCommon0
          CFI Function MT_AfExec
          CFI Conditional ??CrossCallReturnLabel_136, ??CrossCallReturnLabel_108
          CFI R6 load(1, XDATA, add(CFA_XSP16, literal(-9)))
          CFI VB load(1, XDATA, add(CFA_XSP16, literal(-8)))
          CFI V0 load(1, XDATA, add(CFA_XSP16, literal(-7)))
          CFI R7 load(1, XDATA, add(CFA_XSP16, literal(-6)))
          CFI ?RET_LOW load(1, XDATA, add(CFA_XSP16, literal(-5)))
          CFI ?RET_HIGH load(1, XDATA, add(CFA_XSP16, literal(-4)))
          CFI ?BRET_EXT load(1, XDATA, add(CFA_XSP16, literal(-3)))
          CFI DPL0 load(1, XDATA, add(CFA_XSP16, literal(-2)))
          CFI DPH0 load(1, XDATA, add(CFA_XSP16, literal(-1)))
          CFI CFA_SP SP+-4
          CFI CFA_XSP16 add(XSP16, 9)
          CFI Block cfiCond43 Using cfiCommon0
          CFI (cfiCond43) Function MT_AfExec
          CFI (cfiCond43) Conditional ??CrossCallReturnLabel_136, ??CrossCallReturnLabel_109
          CFI (cfiCond43) R6 load(1, XDATA, add(CFA_XSP16, literal(-9)))
          CFI (cfiCond43) VB load(1, XDATA, add(CFA_XSP16, literal(-8)))
          CFI (cfiCond43) V0 load(1, XDATA, add(CFA_XSP16, literal(-7)))
          CFI (cfiCond43) R7 load(1, XDATA, add(CFA_XSP16, literal(-6)))
          CFI (cfiCond43) ?RET_LOW load(1, XDATA, add(CFA_XSP16, literal(-5)))
          CFI (cfiCond43) ?RET_HIGH load(1, XDATA, add(CFA_XSP16, literal(-4)))
          CFI (cfiCond43) ?BRET_EXT load(1, XDATA, add(CFA_XSP16, literal(-3)))
          CFI (cfiCond43) DPL0 load(1, XDATA, add(CFA_XSP16, literal(-2)))
          CFI (cfiCond43) DPH0 load(1, XDATA, add(CFA_XSP16, literal(-1)))
          CFI (cfiCond43) CFA_SP SP+-4
          CFI (cfiCond43) CFA_XSP16 add(XSP16, 9)
          CFI Block cfiCond44 Using cfiCommon0
          CFI (cfiCond44) Function MT_AfDataRequest
          CFI (cfiCond44) Conditional ??CrossCallReturnLabel_136, ??CrossCallReturnLabel_110
          CFI (cfiCond44) R6 load(1, XDATA, add(CFA_XSP16, literal(-21)))
          CFI (cfiCond44) VB load(1, XDATA, add(CFA_XSP16, literal(-20)))
          CFI (cfiCond44) V0 load(1, XDATA, add(CFA_XSP16, literal(-19)))
          CFI (cfiCond44) V1 load(1, XDATA, add(CFA_XSP16, literal(-18)))
          CFI (cfiCond44) V2 load(1, XDATA, add(CFA_XSP16, literal(-17)))
          CFI (cfiCond44) V3 load(1, XDATA, add(CFA_XSP16, literal(-16)))
          CFI (cfiCond44) V4 load(1, XDATA, add(CFA_XSP16, literal(-15)))
          CFI (cfiCond44) V5 load(1, XDATA, add(CFA_XSP16, literal(-14)))
          CFI (cfiCond44) V6 load(1, XDATA, add(CFA_XSP16, literal(-13)))
          CFI (cfiCond44) V7 load(1, XDATA, add(CFA_XSP16, literal(-12)))
          CFI (cfiCond44) V8 load(1, XDATA, add(CFA_XSP16, literal(-11)))
          CFI (cfiCond44) V9 load(1, XDATA, add(CFA_XSP16, literal(-10)))
          CFI (cfiCond44) V10 load(1, XDATA, add(CFA_XSP16, literal(-9)))
          CFI (cfiCond44) V11 load(1, XDATA, add(CFA_XSP16, literal(-8)))
          CFI (cfiCond44) V12 load(1, XDATA, add(CFA_XSP16, literal(-7)))
          CFI (cfiCond44) R7 load(1, XDATA, add(CFA_XSP16, literal(-6)))
          CFI (cfiCond44) ?RET_LOW load(1, XDATA, add(CFA_XSP16, literal(-5)))
          CFI (cfiCond44) ?RET_HIGH load(1, XDATA, add(CFA_XSP16, literal(-4)))
          CFI (cfiCond44) ?BRET_EXT load(1, XDATA, add(CFA_XSP16, literal(-3)))
          CFI (cfiCond44) DPL0 load(1, XDATA, add(CFA_XSP16, literal(-2)))
          CFI (cfiCond44) DPH0 load(1, XDATA, add(CFA_XSP16, literal(-1)))
          CFI (cfiCond44) CFA_SP SP+-4
          CFI (cfiCond44) CFA_XSP16 add(XSP16, 35)
          CFI Block cfiCond45 Using cfiCommon0
          CFI (cfiCond45) Function MT_AfDataStore
          CFI (cfiCond45) Conditional ??CrossCallReturnLabel_136, ??CrossCallReturnLabel_111
          CFI (cfiCond45) R6 load(1, XDATA, add(CFA_XSP16, literal(-14)))
          CFI (cfiCond45) VB load(1, XDATA, add(CFA_XSP16, literal(-13)))
          CFI (cfiCond45) V0 load(1, XDATA, add(CFA_XSP16, literal(-12)))
          CFI (cfiCond45) V1 load(1, XDATA, add(CFA_XSP16, literal(-11)))
          CFI (cfiCond45) V2 load(1, XDATA, add(CFA_XSP16, literal(-10)))
          CFI (cfiCond45) V3 load(1, XDATA, add(CFA_XSP16, literal(-9)))
          CFI (cfiCond45) V4 load(1, XDATA, add(CFA_XSP16, literal(-8)))
          CFI (cfiCond45) V5 load(1, XDATA, add(CFA_XSP16, literal(-7)))
          CFI (cfiCond45) R7 load(1, XDATA, add(CFA_XSP16, literal(-6)))
          CFI (cfiCond45) ?RET_LOW load(1, XDATA, add(CFA_XSP16, literal(-5)))
          CFI (cfiCond45) ?RET_HIGH load(1, XDATA, add(CFA_XSP16, literal(-4)))
          CFI (cfiCond45) ?BRET_EXT load(1, XDATA, add(CFA_XSP16, literal(-3)))
          CFI (cfiCond45) DPL0 load(1, XDATA, add(CFA_XSP16, literal(-2)))
          CFI (cfiCond45) DPH0 load(1, XDATA, add(CFA_XSP16, literal(-1)))
          CFI (cfiCond45) CFA_SP SP+-4
          CFI (cfiCond45) CFA_XSP16 add(XSP16, 15)
          CFI Block cfiCond46 Using cfiCommon0
          CFI (cfiCond46) Function MT_AfExec
          CFI (cfiCond46) Conditional ??CrossCallReturnLabel_136, ??CrossCallReturnLabel_107
          CFI (cfiCond46) R6 load(1, XDATA, add(CFA_XSP16, literal(-9)))
          CFI (cfiCond46) VB load(1, XDATA, add(CFA_XSP16, literal(-8)))
          CFI (cfiCond46) V0 load(1, XDATA, add(CFA_XSP16, literal(-7)))
          CFI (cfiCond46) R7 load(1, XDATA, add(CFA_XSP16, literal(-6)))
          CFI (cfiCond46) ?RET_LOW load(1, XDATA, add(CFA_XSP16, literal(-5)))
          CFI (cfiCond46) ?RET_HIGH load(1, XDATA, add(CFA_XSP16, literal(-4)))
          CFI (cfiCond46) ?BRET_EXT load(1, XDATA, add(CFA_XSP16, literal(-3)))
          CFI (cfiCond46) DPL0 load(1, XDATA, add(CFA_XSP16, literal(-2)))
          CFI (cfiCond46) DPH0 load(1, XDATA, add(CFA_XSP16, literal(-1)))
          CFI (cfiCond46) CFA_SP SP+-4
          CFI (cfiCond46) CFA_XSP16 add(XSP16, 9)
          CFI Block cfiCond47 Using cfiCommon0
          CFI (cfiCond47) Function MT_AfExec
          CFI (cfiCond47) Conditional ??CrossCallReturnLabel_137, ??CrossCallReturnLabel_129
          CFI (cfiCond47) R6 load(1, XDATA, add(CFA_XSP16, literal(-9)))
          CFI (cfiCond47) VB load(1, XDATA, add(CFA_XSP16, literal(-8)))
          CFI (cfiCond47) V0 load(1, XDATA, add(CFA_XSP16, literal(-7)))
          CFI (cfiCond47) R7 load(1, XDATA, add(CFA_XSP16, literal(-6)))
          CFI (cfiCond47) ?RET_LOW load(1, XDATA, add(CFA_XSP16, literal(-5)))
          CFI (cfiCond47) ?RET_HIGH load(1, XDATA, add(CFA_XSP16, literal(-4)))
          CFI (cfiCond47) ?BRET_EXT load(1, XDATA, add(CFA_XSP16, literal(-3)))
          CFI (cfiCond47) DPL0 load(1, XDATA, add(CFA_XSP16, literal(-2)))
          CFI (cfiCond47) DPH0 load(1, XDATA, add(CFA_XSP16, literal(-1)))
          CFI (cfiCond47) CFA_SP SP+-4
          CFI (cfiCond47) CFA_XSP16 add(XSP16, 9)
          CFI Block cfiCond48 Using cfiCommon0
          CFI (cfiCond48) Function MT_AfIncomingMsg
          CFI (cfiCond48) Conditional ??CrossCallReturnLabel_137, ??CrossCallReturnLabel_130
          CFI (cfiCond48) R6 load(1, XDATA, add(CFA_XSP16, literal(-22)))
          CFI (cfiCond48) VB load(1, XDATA, add(CFA_XSP16, literal(-21)))
          CFI (cfiCond48) V0 load(1, XDATA, add(CFA_XSP16, literal(-20)))
          CFI (cfiCond48) V1 load(1, XDATA, add(CFA_XSP16, literal(-19)))
          CFI (cfiCond48) V2 load(1, XDATA, add(CFA_XSP16, literal(-18)))
          CFI (cfiCond48) V3 load(1, XDATA, add(CFA_XSP16, literal(-17)))
          CFI (cfiCond48) V4 load(1, XDATA, add(CFA_XSP16, literal(-16)))
          CFI (cfiCond48) V5 load(1, XDATA, add(CFA_XSP16, literal(-15)))
          CFI (cfiCond48) V6 load(1, XDATA, add(CFA_XSP16, literal(-14)))
          CFI (cfiCond48) V7 load(1, XDATA, add(CFA_XSP16, literal(-13)))
          CFI (cfiCond48) V8 load(1, XDATA, add(CFA_XSP16, literal(-12)))
          CFI (cfiCond48) V9 load(1, XDATA, add(CFA_XSP16, literal(-11)))
          CFI (cfiCond48) V10 load(1, XDATA, add(CFA_XSP16, literal(-10)))
          CFI (cfiCond48) V11 load(1, XDATA, add(CFA_XSP16, literal(-9)))
          CFI (cfiCond48) V12 load(1, XDATA, add(CFA_XSP16, literal(-8)))
          CFI (cfiCond48) V13 load(1, XDATA, add(CFA_XSP16, literal(-7)))
          CFI (cfiCond48) R7 load(1, XDATA, add(CFA_XSP16, literal(-6)))
          CFI (cfiCond48) ?RET_LOW load(1, XDATA, add(CFA_XSP16, literal(-5)))
          CFI (cfiCond48) ?RET_HIGH load(1, XDATA, add(CFA_XSP16, literal(-4)))
          CFI (cfiCond48) ?BRET_EXT load(1, XDATA, add(CFA_XSP16, literal(-3)))
          CFI (cfiCond48) DPL0 load(1, XDATA, add(CFA_XSP16, literal(-2)))
          CFI (cfiCond48) DPH0 load(1, XDATA, add(CFA_XSP16, literal(-1)))
          CFI (cfiCond48) CFA_SP SP+-4
          CFI (cfiCond48) CFA_XSP16 add(XSP16, 22)
          CFI Block cfiCond49 Using cfiCommon0
          CFI (cfiCond49) Function MT_AfDataRetrieve
          CFI (cfiCond49) Conditional ??CrossCallReturnLabel_137, ??CrossCallReturnLabel_131
          CFI (cfiCond49) R6 load(1, XDATA, add(CFA_XSP16, literal(-19)))
          CFI (cfiCond49) VB load(1, XDATA, add(CFA_XSP16, literal(-18)))
          CFI (cfiCond49) V0 load(1, XDATA, add(CFA_XSP16, literal(-17)))
          CFI (cfiCond49) V1 load(1, XDATA, add(CFA_XSP16, literal(-16)))
          CFI (cfiCond49) V2 load(1, XDATA, add(CFA_XSP16, literal(-15)))
          CFI (cfiCond49) V3 load(1, XDATA, add(CFA_XSP16, literal(-14)))
          CFI (cfiCond49) V4 load(1, XDATA, add(CFA_XSP16, literal(-13)))
          CFI (cfiCond49) V5 load(1, XDATA, add(CFA_XSP16, literal(-12)))
          CFI (cfiCond49) V6 load(1, XDATA, add(CFA_XSP16, literal(-11)))
          CFI (cfiCond49) V7 load(1, XDATA, add(CFA_XSP16, literal(-10)))
          CFI (cfiCond49) V8 load(1, XDATA, add(CFA_XSP16, literal(-9)))
          CFI (cfiCond49) V9 load(1, XDATA, add(CFA_XSP16, literal(-8)))
          CFI (cfiCond49) V10 load(1, XDATA, add(CFA_XSP16, literal(-7)))
          CFI (cfiCond49) R7 load(1, XDATA, add(CFA_XSP16, literal(-6)))
          CFI (cfiCond49) ?RET_LOW load(1, XDATA, add(CFA_XSP16, literal(-5)))
          CFI (cfiCond49) ?RET_HIGH load(1, XDATA, add(CFA_XSP16, literal(-4)))
          CFI (cfiCond49) ?BRET_EXT load(1, XDATA, add(CFA_XSP16, literal(-3)))
          CFI (cfiCond49) DPL0 load(1, XDATA, add(CFA_XSP16, literal(-2)))
          CFI (cfiCond49) DPH0 load(1, XDATA, add(CFA_XSP16, literal(-1)))
          CFI (cfiCond49) CFA_SP SP+-4
          CFI (cfiCond49) CFA_XSP16 add(XSP16, 19)
          CFI Block cfiCond50 Using cfiCommon0
          CFI (cfiCond50) Function MT_AfExec
          CFI (cfiCond50) Conditional ??CrossCallReturnLabel_137, ??CrossCallReturnLabel_127
          CFI (cfiCond50) R6 load(1, XDATA, add(CFA_XSP16, literal(-9)))
          CFI (cfiCond50) VB load(1, XDATA, add(CFA_XSP16, literal(-8)))
          CFI (cfiCond50) V0 load(1, XDATA, add(CFA_XSP16, literal(-7)))
          CFI (cfiCond50) R7 load(1, XDATA, add(CFA_XSP16, literal(-6)))
          CFI (cfiCond50) ?RET_LOW load(1, XDATA, add(CFA_XSP16, literal(-5)))
          CFI (cfiCond50) ?RET_HIGH load(1, XDATA, add(CFA_XSP16, literal(-4)))
          CFI (cfiCond50) ?BRET_EXT load(1, XDATA, add(CFA_XSP16, literal(-3)))
          CFI (cfiCond50) DPL0 load(1, XDATA, add(CFA_XSP16, literal(-2)))
          CFI (cfiCond50) DPH0 load(1, XDATA, add(CFA_XSP16, literal(-1)))
          CFI (cfiCond50) CFA_SP SP+-4
          CFI (cfiCond50) CFA_XSP16 add(XSP16, 9)
          CFI Block cfiCond51 Using cfiCommon0
          CFI (cfiCond51) Function MT_AfDataRetrieve
          CFI (cfiCond51) Conditional ??CrossCallReturnLabel_137, ??CrossCallReturnLabel_128
          CFI (cfiCond51) R6 load(1, XDATA, add(CFA_XSP16, literal(-19)))
          CFI (cfiCond51) VB load(1, XDATA, add(CFA_XSP16, literal(-18)))
          CFI (cfiCond51) V0 load(1, XDATA, add(CFA_XSP16, literal(-17)))
          CFI (cfiCond51) V1 load(1, XDATA, add(CFA_XSP16, literal(-16)))
          CFI (cfiCond51) V2 load(1, XDATA, add(CFA_XSP16, literal(-15)))
          CFI (cfiCond51) V3 load(1, XDATA, add(CFA_XSP16, literal(-14)))
          CFI (cfiCond51) V4 load(1, XDATA, add(CFA_XSP16, literal(-13)))
          CFI (cfiCond51) V5 load(1, XDATA, add(CFA_XSP16, literal(-12)))
          CFI (cfiCond51) V6 load(1, XDATA, add(CFA_XSP16, literal(-11)))
          CFI (cfiCond51) V7 load(1, XDATA, add(CFA_XSP16, literal(-10)))
          CFI (cfiCond51) V8 load(1, XDATA, add(CFA_XSP16, literal(-9)))
          CFI (cfiCond51) V9 load(1, XDATA, add(CFA_XSP16, literal(-8)))
          CFI (cfiCond51) V10 load(1, XDATA, add(CFA_XSP16, literal(-7)))
          CFI (cfiCond51) R7 load(1, XDATA, add(CFA_XSP16, literal(-6)))
          CFI (cfiCond51) ?RET_LOW load(1, XDATA, add(CFA_XSP16, literal(-5)))
          CFI (cfiCond51) ?RET_HIGH load(1, XDATA, add(CFA_XSP16, literal(-4)))
          CFI (cfiCond51) ?BRET_EXT load(1, XDATA, add(CFA_XSP16, literal(-3)))
          CFI (cfiCond51) DPL0 load(1, XDATA, add(CFA_XSP16, literal(-2)))
          CFI (cfiCond51) DPH0 load(1, XDATA, add(CFA_XSP16, literal(-1)))
          CFI (cfiCond51) CFA_SP SP+-4
          CFI (cfiCond51) CFA_XSP16 add(XSP16, 19)
          CFI Block cfiCond52 Using cfiCommon0
          CFI (cfiCond52) Function MT_AfExec
          CFI (cfiCond52) Conditional ??CrossCallReturnLabel_132, ??CrossCallReturnLabel_30
          CFI (cfiCond52) R6 load(1, XDATA, add(CFA_XSP16, literal(-9)))
          CFI (cfiCond52) VB load(1, XDATA, add(CFA_XSP16, literal(-8)))
          CFI (cfiCond52) V0 load(1, XDATA, add(CFA_XSP16, literal(-7)))
          CFI (cfiCond52) R7 load(1, XDATA, add(CFA_XSP16, literal(-6)))
          CFI (cfiCond52) ?RET_LOW load(1, XDATA, add(CFA_XSP16, literal(-5)))
          CFI (cfiCond52) ?RET_HIGH load(1, XDATA, add(CFA_XSP16, literal(-4)))
          CFI (cfiCond52) ?BRET_EXT load(1, XDATA, add(CFA_XSP16, literal(-3)))
          CFI (cfiCond52) DPL0 load(1, XDATA, add(CFA_XSP16, literal(-2)))
          CFI (cfiCond52) DPH0 load(1, XDATA, add(CFA_XSP16, literal(-1)))
          CFI (cfiCond52) CFA_SP SP+-4
          CFI (cfiCond52) CFA_XSP16 add(XSP16, 9)
          CFI Block cfiCond53 Using cfiCommon0
          CFI (cfiCond53) Function MT_AfDataRetrieve
          CFI (cfiCond53) Conditional ??CrossCallReturnLabel_132, ??CrossCallReturnLabel_31
          CFI (cfiCond53) R6 load(1, XDATA, add(CFA_XSP16, literal(-19)))
          CFI (cfiCond53) VB load(1, XDATA, add(CFA_XSP16, literal(-18)))
          CFI (cfiCond53) V0 load(1, XDATA, add(CFA_XSP16, literal(-17)))
          CFI (cfiCond53) V1 load(1, XDATA, add(CFA_XSP16, literal(-16)))
          CFI (cfiCond53) V2 load(1, XDATA, add(CFA_XSP16, literal(-15)))
          CFI (cfiCond53) V3 load(1, XDATA, add(CFA_XSP16, literal(-14)))
          CFI (cfiCond53) V4 load(1, XDATA, add(CFA_XSP16, literal(-13)))
          CFI (cfiCond53) V5 load(1, XDATA, add(CFA_XSP16, literal(-12)))
          CFI (cfiCond53) V6 load(1, XDATA, add(CFA_XSP16, literal(-11)))
          CFI (cfiCond53) V7 load(1, XDATA, add(CFA_XSP16, literal(-10)))
          CFI (cfiCond53) V8 load(1, XDATA, add(CFA_XSP16, literal(-9)))
          CFI (cfiCond53) V9 load(1, XDATA, add(CFA_XSP16, literal(-8)))
          CFI (cfiCond53) V10 load(1, XDATA, add(CFA_XSP16, literal(-7)))
          CFI (cfiCond53) R7 load(1, XDATA, add(CFA_XSP16, literal(-6)))
          CFI (cfiCond53) ?RET_LOW load(1, XDATA, add(CFA_XSP16, literal(-5)))
          CFI (cfiCond53) ?RET_HIGH load(1, XDATA, add(CFA_XSP16, literal(-4)))
          CFI (cfiCond53) ?BRET_EXT load(1, XDATA, add(CFA_XSP16, literal(-3)))
          CFI (cfiCond53) DPL0 load(1, XDATA, add(CFA_XSP16, literal(-2)))
          CFI (cfiCond53) DPH0 load(1, XDATA, add(CFA_XSP16, literal(-1)))
          CFI (cfiCond53) CFA_SP SP+-4
          CFI (cfiCond53) CFA_XSP16 add(XSP16, 19)
          CFI Block cfiCond54 Using cfiCommon0
          CFI (cfiCond54) Function MT_AfDataRequest
          CFI (cfiCond54) Conditional ??CrossCallReturnLabel_135, ??CrossCallReturnLabel_101
          CFI (cfiCond54) R6 load(1, XDATA, add(CFA_XSP16, literal(-21)))
          CFI (cfiCond54) VB load(1, XDATA, add(CFA_XSP16, literal(-20)))
          CFI (cfiCond54) V0 load(1, XDATA, add(CFA_XSP16, literal(-19)))
          CFI (cfiCond54) V1 load(1, XDATA, add(CFA_XSP16, literal(-18)))
          CFI (cfiCond54) V2 load(1, XDATA, add(CFA_XSP16, literal(-17)))
          CFI (cfiCond54) V3 load(1, XDATA, add(CFA_XSP16, literal(-16)))
          CFI (cfiCond54) V4 load(1, XDATA, add(CFA_XSP16, literal(-15)))
          CFI (cfiCond54) V5 load(1, XDATA, add(CFA_XSP16, literal(-14)))
          CFI (cfiCond54) V6 load(1, XDATA, add(CFA_XSP16, literal(-13)))
          CFI (cfiCond54) V7 load(1, XDATA, add(CFA_XSP16, literal(-12)))
          CFI (cfiCond54) V8 load(1, XDATA, add(CFA_XSP16, literal(-11)))
          CFI (cfiCond54) V9 load(1, XDATA, add(CFA_XSP16, literal(-10)))
          CFI (cfiCond54) V10 load(1, XDATA, add(CFA_XSP16, literal(-9)))
          CFI (cfiCond54) V11 load(1, XDATA, add(CFA_XSP16, literal(-8)))
          CFI (cfiCond54) V12 load(1, XDATA, add(CFA_XSP16, literal(-7)))
          CFI (cfiCond54) R7 load(1, XDATA, add(CFA_XSP16, literal(-6)))
          CFI (cfiCond54) ?RET_LOW load(1, XDATA, add(CFA_XSP16, literal(-5)))
          CFI (cfiCond54) ?RET_HIGH load(1, XDATA, add(CFA_XSP16, literal(-4)))
          CFI (cfiCond54) ?BRET_EXT load(1, XDATA, add(CFA_XSP16, literal(-3)))
          CFI (cfiCond54) DPL0 load(1, XDATA, add(CFA_XSP16, literal(-2)))
          CFI (cfiCond54) DPH0 load(1, XDATA, add(CFA_XSP16, literal(-1)))
          CFI (cfiCond54) CFA_SP SP+-4
          CFI (cfiCond54) CFA_XSP16 add(XSP16, 35)
          CFI Block cfiCond55 Using cfiCommon0
          CFI (cfiCond55) Function MT_AfDataRequest
          CFI (cfiCond55) Conditional ??CrossCallReturnLabel_135, ??CrossCallReturnLabel_102
          CFI (cfiCond55) R6 load(1, XDATA, add(CFA_XSP16, literal(-21)))
          CFI (cfiCond55) VB load(1, XDATA, add(CFA_XSP16, literal(-20)))
          CFI (cfiCond55) V0 load(1, XDATA, add(CFA_XSP16, literal(-19)))
          CFI (cfiCond55) V1 load(1, XDATA, add(CFA_XSP16, literal(-18)))
          CFI (cfiCond55) V2 load(1, XDATA, add(CFA_XSP16, literal(-17)))
          CFI (cfiCond55) V3 load(1, XDATA, add(CFA_XSP16, literal(-16)))
          CFI (cfiCond55) V4 load(1, XDATA, add(CFA_XSP16, literal(-15)))
          CFI (cfiCond55) V5 load(1, XDATA, add(CFA_XSP16, literal(-14)))
          CFI (cfiCond55) V6 load(1, XDATA, add(CFA_XSP16, literal(-13)))
          CFI (cfiCond55) V7 load(1, XDATA, add(CFA_XSP16, literal(-12)))
          CFI (cfiCond55) V8 load(1, XDATA, add(CFA_XSP16, literal(-11)))
          CFI (cfiCond55) V9 load(1, XDATA, add(CFA_XSP16, literal(-10)))
          CFI (cfiCond55) V10 load(1, XDATA, add(CFA_XSP16, literal(-9)))
          CFI (cfiCond55) V11 load(1, XDATA, add(CFA_XSP16, literal(-8)))
          CFI (cfiCond55) V12 load(1, XDATA, add(CFA_XSP16, literal(-7)))
          CFI (cfiCond55) R7 load(1, XDATA, add(CFA_XSP16, literal(-6)))
          CFI (cfiCond55) ?RET_LOW load(1, XDATA, add(CFA_XSP16, literal(-5)))
          CFI (cfiCond55) ?RET_HIGH load(1, XDATA, add(CFA_XSP16, literal(-4)))
          CFI (cfiCond55) ?BRET_EXT load(1, XDATA, add(CFA_XSP16, literal(-3)))
          CFI (cfiCond55) DPL0 load(1, XDATA, add(CFA_XSP16, literal(-2)))
          CFI (cfiCond55) DPH0 load(1, XDATA, add(CFA_XSP16, literal(-1)))
          CFI (cfiCond55) CFA_SP SP+-4
          CFI (cfiCond55) CFA_XSP16 add(XSP16, 35)
          CFI Block cfiCond56 Using cfiCommon0
          CFI (cfiCond56) Function MT_AfDataRequest
          CFI (cfiCond56) Conditional ??CrossCallReturnLabel_135, ??CrossCallReturnLabel_103
          CFI (cfiCond56) R6 load(1, XDATA, add(CFA_XSP16, literal(-21)))
          CFI (cfiCond56) VB load(1, XDATA, add(CFA_XSP16, literal(-20)))
          CFI (cfiCond56) V0 load(1, XDATA, add(CFA_XSP16, literal(-19)))
          CFI (cfiCond56) V1 load(1, XDATA, add(CFA_XSP16, literal(-18)))
          CFI (cfiCond56) V2 load(1, XDATA, add(CFA_XSP16, literal(-17)))
          CFI (cfiCond56) V3 load(1, XDATA, add(CFA_XSP16, literal(-16)))
          CFI (cfiCond56) V4 load(1, XDATA, add(CFA_XSP16, literal(-15)))
          CFI (cfiCond56) V5 load(1, XDATA, add(CFA_XSP16, literal(-14)))
          CFI (cfiCond56) V6 load(1, XDATA, add(CFA_XSP16, literal(-13)))
          CFI (cfiCond56) V7 load(1, XDATA, add(CFA_XSP16, literal(-12)))
          CFI (cfiCond56) V8 load(1, XDATA, add(CFA_XSP16, literal(-11)))
          CFI (cfiCond56) V9 load(1, XDATA, add(CFA_XSP16, literal(-10)))
          CFI (cfiCond56) V10 load(1, XDATA, add(CFA_XSP16, literal(-9)))
          CFI (cfiCond56) V11 load(1, XDATA, add(CFA_XSP16, literal(-8)))
          CFI (cfiCond56) V12 load(1, XDATA, add(CFA_XSP16, literal(-7)))
          CFI (cfiCond56) R7 load(1, XDATA, add(CFA_XSP16, literal(-6)))
          CFI (cfiCond56) ?RET_LOW load(1, XDATA, add(CFA_XSP16, literal(-5)))
          CFI (cfiCond56) ?RET_HIGH load(1, XDATA, add(CFA_XSP16, literal(-4)))
          CFI (cfiCond56) ?BRET_EXT load(1, XDATA, add(CFA_XSP16, literal(-3)))
          CFI (cfiCond56) DPL0 load(1, XDATA, add(CFA_XSP16, literal(-2)))
          CFI (cfiCond56) DPH0 load(1, XDATA, add(CFA_XSP16, literal(-1)))
          CFI (cfiCond56) CFA_SP SP+-4
          CFI (cfiCond56) CFA_XSP16 add(XSP16, 35)
          CFI Block cfiCond57 Using cfiCommon0
          CFI (cfiCond57) Function MT_AfDataRequest
          CFI (cfiCond57) Conditional ??CrossCallReturnLabel_135, ??CrossCallReturnLabel_104
          CFI (cfiCond57) R6 load(1, XDATA, add(CFA_XSP16, literal(-21)))
          CFI (cfiCond57) VB load(1, XDATA, add(CFA_XSP16, literal(-20)))
          CFI (cfiCond57) V0 load(1, XDATA, add(CFA_XSP16, literal(-19)))
          CFI (cfiCond57) V1 load(1, XDATA, add(CFA_XSP16, literal(-18)))
          CFI (cfiCond57) V2 load(1, XDATA, add(CFA_XSP16, literal(-17)))
          CFI (cfiCond57) V3 load(1, XDATA, add(CFA_XSP16, literal(-16)))
          CFI (cfiCond57) V4 load(1, XDATA, add(CFA_XSP16, literal(-15)))
          CFI (cfiCond57) V5 load(1, XDATA, add(CFA_XSP16, literal(-14)))
          CFI (cfiCond57) V6 load(1, XDATA, add(CFA_XSP16, literal(-13)))
          CFI (cfiCond57) V7 load(1, XDATA, add(CFA_XSP16, literal(-12)))
          CFI (cfiCond57) V8 load(1, XDATA, add(CFA_XSP16, literal(-11)))
          CFI (cfiCond57) V9 load(1, XDATA, add(CFA_XSP16, literal(-10)))
          CFI (cfiCond57) V10 load(1, XDATA, add(CFA_XSP16, literal(-9)))
          CFI (cfiCond57) V11 load(1, XDATA, add(CFA_XSP16, literal(-8)))
          CFI (cfiCond57) V12 load(1, XDATA, add(CFA_XSP16, literal(-7)))
          CFI (cfiCond57) R7 load(1, XDATA, add(CFA_XSP16, literal(-6)))
          CFI (cfiCond57) ?RET_LOW load(1, XDATA, add(CFA_XSP16, literal(-5)))
          CFI (cfiCond57) ?RET_HIGH load(1, XDATA, add(CFA_XSP16, literal(-4)))
          CFI (cfiCond57) ?BRET_EXT load(1, XDATA, add(CFA_XSP16, literal(-3)))
          CFI (cfiCond57) DPL0 load(1, XDATA, add(CFA_XSP16, literal(-2)))
          CFI (cfiCond57) DPH0 load(1, XDATA, add(CFA_XSP16, literal(-1)))
          CFI (cfiCond57) CFA_SP SP+-4
          CFI (cfiCond57) CFA_XSP16 add(XSP16, 35)
          CFI Block cfiCond58 Using cfiCommon0
          CFI (cfiCond58) Function MT_AfDataRequest
          CFI (cfiCond58) Conditional ??CrossCallReturnLabel_135, ??CrossCallReturnLabel_105
          CFI (cfiCond58) R6 load(1, XDATA, add(CFA_XSP16, literal(-21)))
          CFI (cfiCond58) VB load(1, XDATA, add(CFA_XSP16, literal(-20)))
          CFI (cfiCond58) V0 load(1, XDATA, add(CFA_XSP16, literal(-19)))
          CFI (cfiCond58) V1 load(1, XDATA, add(CFA_XSP16, literal(-18)))
          CFI (cfiCond58) V2 load(1, XDATA, add(CFA_XSP16, literal(-17)))
          CFI (cfiCond58) V3 load(1, XDATA, add(CFA_XSP16, literal(-16)))
          CFI (cfiCond58) V4 load(1, XDATA, add(CFA_XSP16, literal(-15)))
          CFI (cfiCond58) V5 load(1, XDATA, add(CFA_XSP16, literal(-14)))
          CFI (cfiCond58) V6 load(1, XDATA, add(CFA_XSP16, literal(-13)))
          CFI (cfiCond58) V7 load(1, XDATA, add(CFA_XSP16, literal(-12)))
          CFI (cfiCond58) V8 load(1, XDATA, add(CFA_XSP16, literal(-11)))
          CFI (cfiCond58) V9 load(1, XDATA, add(CFA_XSP16, literal(-10)))
          CFI (cfiCond58) V10 load(1, XDATA, add(CFA_XSP16, literal(-9)))
          CFI (cfiCond58) V11 load(1, XDATA, add(CFA_XSP16, literal(-8)))
          CFI (cfiCond58) V12 load(1, XDATA, add(CFA_XSP16, literal(-7)))
          CFI (cfiCond58) R7 load(1, XDATA, add(CFA_XSP16, literal(-6)))
          CFI (cfiCond58) ?RET_LOW load(1, XDATA, add(CFA_XSP16, literal(-5)))
          CFI (cfiCond58) ?RET_HIGH load(1, XDATA, add(CFA_XSP16, literal(-4)))
          CFI (cfiCond58) ?BRET_EXT load(1, XDATA, add(CFA_XSP16, literal(-3)))
          CFI (cfiCond58) DPL0 load(1, XDATA, add(CFA_XSP16, literal(-2)))
          CFI (cfiCond58) DPH0 load(1, XDATA, add(CFA_XSP16, literal(-1)))
          CFI (cfiCond58) CFA_SP SP+-4
          CFI (cfiCond58) CFA_XSP16 add(XSP16, 35)
          CFI Block cfiCond59 Using cfiCommon0
          CFI (cfiCond59) Function MT_AfDataRequest
          CFI (cfiCond59) Conditional ??CrossCallReturnLabel_135, ??CrossCallReturnLabel_106
          CFI (cfiCond59) R6 load(1, XDATA, add(CFA_XSP16, literal(-21)))
          CFI (cfiCond59) VB load(1, XDATA, add(CFA_XSP16, literal(-20)))
          CFI (cfiCond59) V0 load(1, XDATA, add(CFA_XSP16, literal(-19)))
          CFI (cfiCond59) V1 load(1, XDATA, add(CFA_XSP16, literal(-18)))
          CFI (cfiCond59) V2 load(1, XDATA, add(CFA_XSP16, literal(-17)))
          CFI (cfiCond59) V3 load(1, XDATA, add(CFA_XSP16, literal(-16)))
          CFI (cfiCond59) V4 load(1, XDATA, add(CFA_XSP16, literal(-15)))
          CFI (cfiCond59) V5 load(1, XDATA, add(CFA_XSP16, literal(-14)))
          CFI (cfiCond59) V6 load(1, XDATA, add(CFA_XSP16, literal(-13)))
          CFI (cfiCond59) V7 load(1, XDATA, add(CFA_XSP16, literal(-12)))
          CFI (cfiCond59) V8 load(1, XDATA, add(CFA_XSP16, literal(-11)))
          CFI (cfiCond59) V9 load(1, XDATA, add(CFA_XSP16, literal(-10)))
          CFI (cfiCond59) V10 load(1, XDATA, add(CFA_XSP16, literal(-9)))
          CFI (cfiCond59) V11 load(1, XDATA, add(CFA_XSP16, literal(-8)))
          CFI (cfiCond59) V12 load(1, XDATA, add(CFA_XSP16, literal(-7)))
          CFI (cfiCond59) R7 load(1, XDATA, add(CFA_XSP16, literal(-6)))
          CFI (cfiCond59) ?RET_LOW load(1, XDATA, add(CFA_XSP16, literal(-5)))
          CFI (cfiCond59) ?RET_HIGH load(1, XDATA, add(CFA_XSP16, literal(-4)))
          CFI (cfiCond59) ?BRET_EXT load(1, XDATA, add(CFA_XSP16, literal(-3)))
          CFI (cfiCond59) DPL0 load(1, XDATA, add(CFA_XSP16, literal(-2)))
          CFI (cfiCond59) DPH0 load(1, XDATA, add(CFA_XSP16, literal(-1)))
          CFI (cfiCond59) CFA_SP SP+-5
          CFI (cfiCond59) CFA_XSP16 add(XSP16, 35)
          CFI Block cfiCond60 Using cfiCommon0
          CFI (cfiCond60) Function MT_AfExec
          CFI (cfiCond60) Conditional ??CrossCallReturnLabel_133, ??CrossCallReturnLabel_9
          CFI (cfiCond60) R6 load(1, XDATA, add(CFA_XSP16, literal(-9)))
          CFI (cfiCond60) VB load(1, XDATA, add(CFA_XSP16, literal(-8)))
          CFI (cfiCond60) V0 load(1, XDATA, add(CFA_XSP16, literal(-7)))
          CFI (cfiCond60) R7 load(1, XDATA, add(CFA_XSP16, literal(-6)))
          CFI (cfiCond60) ?RET_LOW load(1, XDATA, add(CFA_XSP16, literal(-5)))
          CFI (cfiCond60) ?RET_HIGH load(1, XDATA, add(CFA_XSP16, literal(-4)))
          CFI (cfiCond60) ?BRET_EXT load(1, XDATA, add(CFA_XSP16, literal(-3)))
          CFI (cfiCond60) DPL0 load(1, XDATA, add(CFA_XSP16, literal(-2)))
          CFI (cfiCond60) DPH0 load(1, XDATA, add(CFA_XSP16, literal(-1)))
          CFI (cfiCond60) CFA_SP SP+-4
          CFI (cfiCond60) CFA_XSP16 add(XSP16, 9)
          CFI Block cfiCond61 Using cfiCommon0
          CFI (cfiCond61) Function MT_AfDataRequest
          CFI (cfiCond61) Conditional ??CrossCallReturnLabel_133, ??CrossCallReturnLabel_8
          CFI (cfiCond61) R6 load(1, XDATA, add(CFA_XSP16, literal(-21)))
          CFI (cfiCond61) VB load(1, XDATA, add(CFA_XSP16, literal(-20)))
          CFI (cfiCond61) V0 load(1, XDATA, add(CFA_XSP16, literal(-19)))
          CFI (cfiCond61) V1 load(1, XDATA, add(CFA_XSP16, literal(-18)))
          CFI (cfiCond61) V2 load(1, XDATA, add(CFA_XSP16, literal(-17)))
          CFI (cfiCond61) V3 load(1, XDATA, add(CFA_XSP16, literal(-16)))
          CFI (cfiCond61) V4 load(1, XDATA, add(CFA_XSP16, literal(-15)))
          CFI (cfiCond61) V5 load(1, XDATA, add(CFA_XSP16, literal(-14)))
          CFI (cfiCond61) V6 load(1, XDATA, add(CFA_XSP16, literal(-13)))
          CFI (cfiCond61) V7 load(1, XDATA, add(CFA_XSP16, literal(-12)))
          CFI (cfiCond61) V8 load(1, XDATA, add(CFA_XSP16, literal(-11)))
          CFI (cfiCond61) V9 load(1, XDATA, add(CFA_XSP16, literal(-10)))
          CFI (cfiCond61) V10 load(1, XDATA, add(CFA_XSP16, literal(-9)))
          CFI (cfiCond61) V11 load(1, XDATA, add(CFA_XSP16, literal(-8)))
          CFI (cfiCond61) V12 load(1, XDATA, add(CFA_XSP16, literal(-7)))
          CFI (cfiCond61) R7 load(1, XDATA, add(CFA_XSP16, literal(-6)))
          CFI (cfiCond61) ?RET_LOW load(1, XDATA, add(CFA_XSP16, literal(-5)))
          CFI (cfiCond61) ?RET_HIGH load(1, XDATA, add(CFA_XSP16, literal(-4)))
          CFI (cfiCond61) ?BRET_EXT load(1, XDATA, add(CFA_XSP16, literal(-3)))
          CFI (cfiCond61) DPL0 load(1, XDATA, add(CFA_XSP16, literal(-2)))
          CFI (cfiCond61) DPH0 load(1, XDATA, add(CFA_XSP16, literal(-1)))
          CFI (cfiCond61) CFA_SP SP+-4
          CFI (cfiCond61) CFA_XSP16 add(XSP16, 35)
          CFI Block cfiCond62 Using cfiCommon0
          CFI (cfiCond62) Function MT_AfDataRequest
          CFI (cfiCond62) Conditional ??CrossCallReturnLabel_134, ??CrossCallReturnLabel_10
          CFI (cfiCond62) R6 load(1, XDATA, add(CFA_XSP16, literal(-21)))
          CFI (cfiCond62) VB load(1, XDATA, add(CFA_XSP16, literal(-20)))
          CFI (cfiCond62) V0 load(1, XDATA, add(CFA_XSP16, literal(-19)))
          CFI (cfiCond62) V1 load(1, XDATA, add(CFA_XSP16, literal(-18)))
          CFI (cfiCond62) V2 load(1, XDATA, add(CFA_XSP16, literal(-17)))
          CFI (cfiCond62) V3 load(1, XDATA, add(CFA_XSP16, literal(-16)))
          CFI (cfiCond62) V4 load(1, XDATA, add(CFA_XSP16, literal(-15)))
          CFI (cfiCond62) V5 load(1, XDATA, add(CFA_XSP16, literal(-14)))
          CFI (cfiCond62) V6 load(1, XDATA, add(CFA_XSP16, literal(-13)))
          CFI (cfiCond62) V7 load(1, XDATA, add(CFA_XSP16, literal(-12)))
          CFI (cfiCond62) V8 load(1, XDATA, add(CFA_XSP16, literal(-11)))
          CFI (cfiCond62) V9 load(1, XDATA, add(CFA_XSP16, literal(-10)))
          CFI (cfiCond62) V10 load(1, XDATA, add(CFA_XSP16, literal(-9)))
          CFI (cfiCond62) V11 load(1, XDATA, add(CFA_XSP16, literal(-8)))
          CFI (cfiCond62) V12 load(1, XDATA, add(CFA_XSP16, literal(-7)))
          CFI (cfiCond62) R7 load(1, XDATA, add(CFA_XSP16, literal(-6)))
          CFI (cfiCond62) ?RET_LOW load(1, XDATA, add(CFA_XSP16, literal(-5)))
          CFI (cfiCond62) ?RET_HIGH load(1, XDATA, add(CFA_XSP16, literal(-4)))
          CFI (cfiCond62) ?BRET_EXT load(1, XDATA, add(CFA_XSP16, literal(-3)))
          CFI (cfiCond62) DPL0 load(1, XDATA, add(CFA_XSP16, literal(-2)))
          CFI (cfiCond62) DPH0 load(1, XDATA, add(CFA_XSP16, literal(-1)))
          CFI (cfiCond62) CFA_SP SP+-4
          CFI (cfiCond62) CFA_XSP16 add(XSP16, 35)
          CFI Block cfiCond63 Using cfiCommon0
          CFI (cfiCond63) Function MT_AfDataStore
          CFI (cfiCond63) Conditional ??CrossCallReturnLabel_134, ??CrossCallReturnLabel_11
          CFI (cfiCond63) R6 load(1, XDATA, add(CFA_XSP16, literal(-14)))
          CFI (cfiCond63) VB load(1, XDATA, add(CFA_XSP16, literal(-13)))
          CFI (cfiCond63) V0 load(1, XDATA, add(CFA_XSP16, literal(-12)))
          CFI (cfiCond63) V1 load(1, XDATA, add(CFA_XSP16, literal(-11)))
          CFI (cfiCond63) V2 load(1, XDATA, add(CFA_XSP16, literal(-10)))
          CFI (cfiCond63) V3 load(1, XDATA, add(CFA_XSP16, literal(-9)))
          CFI (cfiCond63) V4 load(1, XDATA, add(CFA_XSP16, literal(-8)))
          CFI (cfiCond63) V5 load(1, XDATA, add(CFA_XSP16, literal(-7)))
          CFI (cfiCond63) R7 load(1, XDATA, add(CFA_XSP16, literal(-6)))
          CFI (cfiCond63) ?RET_LOW load(1, XDATA, add(CFA_XSP16, literal(-5)))
          CFI (cfiCond63) ?RET_HIGH load(1, XDATA, add(CFA_XSP16, literal(-4)))
          CFI (cfiCond63) ?BRET_EXT load(1, XDATA, add(CFA_XSP16, literal(-3)))
          CFI (cfiCond63) DPL0 load(1, XDATA, add(CFA_XSP16, literal(-2)))
          CFI (cfiCond63) DPH0 load(1, XDATA, add(CFA_XSP16, literal(-1)))
          CFI (cfiCond63) CFA_SP SP+-4
          CFI (cfiCond63) CFA_XSP16 add(XSP16, 18)
          CFI Block cfiCond64 Using cfiCommon0
          CFI (cfiCond64) Function MT_AfDataStore
          CFI (cfiCond64) Conditional ??CrossCallReturnLabel_134, ??CrossCallReturnLabel_12
          CFI (cfiCond64) R6 load(1, XDATA, add(CFA_XSP16, literal(-14)))
          CFI (cfiCond64) VB load(1, XDATA, add(CFA_XSP16, literal(-13)))
          CFI (cfiCond64) V0 load(1, XDATA, add(CFA_XSP16, literal(-12)))
          CFI (cfiCond64) V1 load(1, XDATA, add(CFA_XSP16, literal(-11)))
          CFI (cfiCond64) V2 load(1, XDATA, add(CFA_XSP16, literal(-10)))
          CFI (cfiCond64) V3 load(1, XDATA, add(CFA_XSP16, literal(-9)))
          CFI (cfiCond64) V4 load(1, XDATA, add(CFA_XSP16, literal(-8)))
          CFI (cfiCond64) V5 load(1, XDATA, add(CFA_XSP16, literal(-7)))
          CFI (cfiCond64) R7 load(1, XDATA, add(CFA_XSP16, literal(-6)))
          CFI (cfiCond64) ?RET_LOW load(1, XDATA, add(CFA_XSP16, literal(-5)))
          CFI (cfiCond64) ?RET_HIGH load(1, XDATA, add(CFA_XSP16, literal(-4)))
          CFI (cfiCond64) ?BRET_EXT load(1, XDATA, add(CFA_XSP16, literal(-3)))
          CFI (cfiCond64) DPL0 load(1, XDATA, add(CFA_XSP16, literal(-2)))
          CFI (cfiCond64) DPH0 load(1, XDATA, add(CFA_XSP16, literal(-1)))
          CFI (cfiCond64) CFA_SP SP+-4
          CFI (cfiCond64) CFA_XSP16 add(XSP16, 18)
          CFI Block cfiPicker65 Using cfiCommon1
          CFI (cfiPicker65) NoFunction
          CFI (cfiPicker65) Picker
        MOVX      A,@DPTR
        MOV       R0,A
        INC       DPTR
        MOVX      A,@DPTR
        RET
          CFI EndBlock cfiCond42
          CFI EndBlock cfiCond43
          CFI EndBlock cfiCond44
          CFI EndBlock cfiCond45
          CFI EndBlock cfiCond46
          CFI EndBlock cfiCond47
          CFI EndBlock cfiCond48
          CFI EndBlock cfiCond49
          CFI EndBlock cfiCond50
          CFI EndBlock cfiCond51
          CFI EndBlock cfiCond52
          CFI EndBlock cfiCond53
          CFI EndBlock cfiCond54
          CFI EndBlock cfiCond55
          CFI EndBlock cfiCond56
          CFI EndBlock cfiCond57
          CFI EndBlock cfiCond58
          CFI EndBlock cfiCond59
          CFI EndBlock cfiCond60
          CFI EndBlock cfiCond61
          CFI EndBlock cfiCond62
          CFI EndBlock cfiCond63
          CFI EndBlock cfiCond64
          CFI EndBlock cfiPicker65

        RSEG BANKED_CODE:HUGECODE:NOROOT(0)
?Subroutine7:
          CFI Block cfiCond66 Using cfiCommon0
          CFI Function MT_AfExec
          CFI Conditional ??CrossCallReturnLabel_9
          CFI R6 load(1, XDATA, add(CFA_XSP16, literal(-9)))
          CFI VB load(1, XDATA, add(CFA_XSP16, literal(-8)))
          CFI V0 load(1, XDATA, add(CFA_XSP16, literal(-7)))
          CFI R7 load(1, XDATA, add(CFA_XSP16, literal(-6)))
          CFI ?RET_LOW load(1, XDATA, add(CFA_XSP16, literal(-5)))
          CFI ?RET_HIGH load(1, XDATA, add(CFA_XSP16, literal(-4)))
          CFI ?BRET_EXT load(1, XDATA, add(CFA_XSP16, literal(-3)))
          CFI DPL0 load(1, XDATA, add(CFA_XSP16, literal(-2)))
          CFI DPH0 load(1, XDATA, add(CFA_XSP16, literal(-1)))
          CFI CFA_SP SP+-2
          CFI CFA_XSP16 add(XSP16, 9)
          CFI Block cfiCond67 Using cfiCommon0
          CFI (cfiCond67) Function MT_AfDataRequest
          CFI (cfiCond67) Conditional ??CrossCallReturnLabel_8
          CFI (cfiCond67) R6 load(1, XDATA, add(CFA_XSP16, literal(-21)))
          CFI (cfiCond67) VB load(1, XDATA, add(CFA_XSP16, literal(-20)))
          CFI (cfiCond67) V0 load(1, XDATA, add(CFA_XSP16, literal(-19)))
          CFI (cfiCond67) V1 load(1, XDATA, add(CFA_XSP16, literal(-18)))
          CFI (cfiCond67) V2 load(1, XDATA, add(CFA_XSP16, literal(-17)))
          CFI (cfiCond67) V3 load(1, XDATA, add(CFA_XSP16, literal(-16)))
          CFI (cfiCond67) V4 load(1, XDATA, add(CFA_XSP16, literal(-15)))
          CFI (cfiCond67) V5 load(1, XDATA, add(CFA_XSP16, literal(-14)))
          CFI (cfiCond67) V6 load(1, XDATA, add(CFA_XSP16, literal(-13)))
          CFI (cfiCond67) V7 load(1, XDATA, add(CFA_XSP16, literal(-12)))
          CFI (cfiCond67) V8 load(1, XDATA, add(CFA_XSP16, literal(-11)))
          CFI (cfiCond67) V9 load(1, XDATA, add(CFA_XSP16, literal(-10)))
          CFI (cfiCond67) V10 load(1, XDATA, add(CFA_XSP16, literal(-9)))
          CFI (cfiCond67) V11 load(1, XDATA, add(CFA_XSP16, literal(-8)))
          CFI (cfiCond67) V12 load(1, XDATA, add(CFA_XSP16, literal(-7)))
          CFI (cfiCond67) R7 load(1, XDATA, add(CFA_XSP16, literal(-6)))
          CFI (cfiCond67) ?RET_LOW load(1, XDATA, add(CFA_XSP16, literal(-5)))
          CFI (cfiCond67) ?RET_HIGH load(1, XDATA, add(CFA_XSP16, literal(-4)))
          CFI (cfiCond67) ?BRET_EXT load(1, XDATA, add(CFA_XSP16, literal(-3)))
          CFI (cfiCond67) DPL0 load(1, XDATA, add(CFA_XSP16, literal(-2)))
          CFI (cfiCond67) DPH0 load(1, XDATA, add(CFA_XSP16, literal(-1)))
          CFI (cfiCond67) CFA_SP SP+-2
          CFI (cfiCond67) CFA_XSP16 add(XSP16, 35)
          CFI Block cfiPicker68 Using cfiCommon1
          CFI (cfiPicker68) NoFunction
          CFI (cfiPicker68) Picker
        MOVX      @DPTR,A
        LCALL     ?Subroutine41 & 0xFFFF
??CrossCallReturnLabel_133:
        XCH       A,R0
        ADD       A,#0x17
        MOV       DPL,A
        CLR       A
        ADDC      A,R0
        MOV       DPH,A
        RET
          CFI EndBlock cfiCond66
          CFI EndBlock cfiCond67
          CFI EndBlock cfiPicker68

        RSEG BANKED_CODE:HUGECODE:NOROOT(0)
?Subroutine3:
          CFI Block cfiCond69 Using cfiCommon0
          CFI Function MT_AfExec
          CFI Conditional ??CrossCallReturnLabel_108
          CFI R6 load(1, XDATA, add(CFA_XSP16, literal(-9)))
          CFI VB load(1, XDATA, add(CFA_XSP16, literal(-8)))
          CFI V0 load(1, XDATA, add(CFA_XSP16, literal(-7)))
          CFI R7 load(1, XDATA, add(CFA_XSP16, literal(-6)))
          CFI ?RET_LOW load(1, XDATA, add(CFA_XSP16, literal(-5)))
          CFI ?RET_HIGH load(1, XDATA, add(CFA_XSP16, literal(-4)))
          CFI ?BRET_EXT load(1, XDATA, add(CFA_XSP16, literal(-3)))
          CFI DPL0 load(1, XDATA, add(CFA_XSP16, literal(-2)))
          CFI DPH0 load(1, XDATA, add(CFA_XSP16, literal(-1)))
          CFI CFA_SP SP+-2
          CFI CFA_XSP16 add(XSP16, 9)
          CFI Block cfiCond70 Using cfiCommon0
          CFI (cfiCond70) Function MT_AfExec
          CFI (cfiCond70) Conditional ??CrossCallReturnLabel_109
          CFI (cfiCond70) R6 load(1, XDATA, add(CFA_XSP16, literal(-9)))
          CFI (cfiCond70) VB load(1, XDATA, add(CFA_XSP16, literal(-8)))
          CFI (cfiCond70) V0 load(1, XDATA, add(CFA_XSP16, literal(-7)))
          CFI (cfiCond70) R7 load(1, XDATA, add(CFA_XSP16, literal(-6)))
          CFI (cfiCond70) ?RET_LOW load(1, XDATA, add(CFA_XSP16, literal(-5)))
          CFI (cfiCond70) ?RET_HIGH load(1, XDATA, add(CFA_XSP16, literal(-4)))
          CFI (cfiCond70) ?BRET_EXT load(1, XDATA, add(CFA_XSP16, literal(-3)))
          CFI (cfiCond70) DPL0 load(1, XDATA, add(CFA_XSP16, literal(-2)))
          CFI (cfiCond70) DPH0 load(1, XDATA, add(CFA_XSP16, literal(-1)))
          CFI (cfiCond70) CFA_SP SP+-2
          CFI (cfiCond70) CFA_XSP16 add(XSP16, 9)
          CFI Block cfiCond71 Using cfiCommon0
          CFI (cfiCond71) Function MT_AfDataRequest
          CFI (cfiCond71) Conditional ??CrossCallReturnLabel_110
          CFI (cfiCond71) R6 load(1, XDATA, add(CFA_XSP16, literal(-21)))
          CFI (cfiCond71) VB load(1, XDATA, add(CFA_XSP16, literal(-20)))
          CFI (cfiCond71) V0 load(1, XDATA, add(CFA_XSP16, literal(-19)))
          CFI (cfiCond71) V1 load(1, XDATA, add(CFA_XSP16, literal(-18)))
          CFI (cfiCond71) V2 load(1, XDATA, add(CFA_XSP16, literal(-17)))
          CFI (cfiCond71) V3 load(1, XDATA, add(CFA_XSP16, literal(-16)))
          CFI (cfiCond71) V4 load(1, XDATA, add(CFA_XSP16, literal(-15)))
          CFI (cfiCond71) V5 load(1, XDATA, add(CFA_XSP16, literal(-14)))
          CFI (cfiCond71) V6 load(1, XDATA, add(CFA_XSP16, literal(-13)))
          CFI (cfiCond71) V7 load(1, XDATA, add(CFA_XSP16, literal(-12)))
          CFI (cfiCond71) V8 load(1, XDATA, add(CFA_XSP16, literal(-11)))
          CFI (cfiCond71) V9 load(1, XDATA, add(CFA_XSP16, literal(-10)))
          CFI (cfiCond71) V10 load(1, XDATA, add(CFA_XSP16, literal(-9)))
          CFI (cfiCond71) V11 load(1, XDATA, add(CFA_XSP16, literal(-8)))
          CFI (cfiCond71) V12 load(1, XDATA, add(CFA_XSP16, literal(-7)))
          CFI (cfiCond71) R7 load(1, XDATA, add(CFA_XSP16, literal(-6)))
          CFI (cfiCond71) ?RET_LOW load(1, XDATA, add(CFA_XSP16, literal(-5)))
          CFI (cfiCond71) ?RET_HIGH load(1, XDATA, add(CFA_XSP16, literal(-4)))
          CFI (cfiCond71) ?BRET_EXT load(1, XDATA, add(CFA_XSP16, literal(-3)))
          CFI (cfiCond71) DPL0 load(1, XDATA, add(CFA_XSP16, literal(-2)))
          CFI (cfiCond71) DPH0 load(1, XDATA, add(CFA_XSP16, literal(-1)))
          CFI (cfiCond71) CFA_SP SP+-2
          CFI (cfiCond71) CFA_XSP16 add(XSP16, 35)
          CFI Block cfiCond72 Using cfiCommon0
          CFI (cfiCond72) Function MT_AfDataStore
          CFI (cfiCond72) Conditional ??CrossCallReturnLabel_111
          CFI (cfiCond72) R6 load(1, XDATA, add(CFA_XSP16, literal(-14)))
          CFI (cfiCond72) VB load(1, XDATA, add(CFA_XSP16, literal(-13)))
          CFI (cfiCond72) V0 load(1, XDATA, add(CFA_XSP16, literal(-12)))
          CFI (cfiCond72) V1 load(1, XDATA, add(CFA_XSP16, literal(-11)))
          CFI (cfiCond72) V2 load(1, XDATA, add(CFA_XSP16, literal(-10)))
          CFI (cfiCond72) V3 load(1, XDATA, add(CFA_XSP16, literal(-9)))
          CFI (cfiCond72) V4 load(1, XDATA, add(CFA_XSP16, literal(-8)))
          CFI (cfiCond72) V5 load(1, XDATA, add(CFA_XSP16, literal(-7)))
          CFI (cfiCond72) R7 load(1, XDATA, add(CFA_XSP16, literal(-6)))
          CFI (cfiCond72) ?RET_LOW load(1, XDATA, add(CFA_XSP16, literal(-5)))
          CFI (cfiCond72) ?RET_HIGH load(1, XDATA, add(CFA_XSP16, literal(-4)))
          CFI (cfiCond72) ?BRET_EXT load(1, XDATA, add(CFA_XSP16, literal(-3)))
          CFI (cfiCond72) DPL0 load(1, XDATA, add(CFA_XSP16, literal(-2)))
          CFI (cfiCond72) DPH0 load(1, XDATA, add(CFA_XSP16, literal(-1)))
          CFI (cfiCond72) CFA_SP SP+-2
          CFI (cfiCond72) CFA_XSP16 add(XSP16, 15)
          CFI Block cfiPicker73 Using cfiCommon1
          CFI (cfiPicker73) NoFunction
          CFI (cfiPicker73) Picker
        MOV       DPTR,#pMtAfDataReq
          CFI EndBlock cfiCond69
          CFI EndBlock cfiCond70
          CFI EndBlock cfiCond71
          CFI EndBlock cfiCond72
          CFI EndBlock cfiPicker73
        REQUIRE ??Subroutine53_0
        ; // Fall through to label ??Subroutine53_0

        RSEG BANKED_CODE:HUGECODE:NOROOT(0)
??Subroutine53_0:
          CFI Block cfiCond74 Using cfiCommon0
          CFI Function MT_AfExec
          CFI Conditional ??CrossCallReturnLabel_107
          CFI R6 load(1, XDATA, add(CFA_XSP16, literal(-9)))
          CFI VB load(1, XDATA, add(CFA_XSP16, literal(-8)))
          CFI V0 load(1, XDATA, add(CFA_XSP16, literal(-7)))
          CFI R7 load(1, XDATA, add(CFA_XSP16, literal(-6)))
          CFI ?RET_LOW load(1, XDATA, add(CFA_XSP16, literal(-5)))
          CFI ?RET_HIGH load(1, XDATA, add(CFA_XSP16, literal(-4)))
          CFI ?BRET_EXT load(1, XDATA, add(CFA_XSP16, literal(-3)))
          CFI DPL0 load(1, XDATA, add(CFA_XSP16, literal(-2)))
          CFI DPH0 load(1, XDATA, add(CFA_XSP16, literal(-1)))
          CFI CFA_SP SP+-2
          CFI CFA_XSP16 add(XSP16, 9)
          CFI Block cfiCond75 Using cfiCommon0
          CFI (cfiCond75) Function MT_AfExec
          CFI (cfiCond75) Conditional ??CrossCallReturnLabel_108
          CFI (cfiCond75) R6 load(1, XDATA, add(CFA_XSP16, literal(-9)))
          CFI (cfiCond75) VB load(1, XDATA, add(CFA_XSP16, literal(-8)))
          CFI (cfiCond75) V0 load(1, XDATA, add(CFA_XSP16, literal(-7)))
          CFI (cfiCond75) R7 load(1, XDATA, add(CFA_XSP16, literal(-6)))
          CFI (cfiCond75) ?RET_LOW load(1, XDATA, add(CFA_XSP16, literal(-5)))
          CFI (cfiCond75) ?RET_HIGH load(1, XDATA, add(CFA_XSP16, literal(-4)))
          CFI (cfiCond75) ?BRET_EXT load(1, XDATA, add(CFA_XSP16, literal(-3)))
          CFI (cfiCond75) DPL0 load(1, XDATA, add(CFA_XSP16, literal(-2)))
          CFI (cfiCond75) DPH0 load(1, XDATA, add(CFA_XSP16, literal(-1)))
          CFI (cfiCond75) CFA_SP SP+-2
          CFI (cfiCond75) CFA_XSP16 add(XSP16, 9)
          CFI Block cfiCond76 Using cfiCommon0
          CFI (cfiCond76) Function MT_AfExec
          CFI (cfiCond76) Conditional ??CrossCallReturnLabel_109
          CFI (cfiCond76) R6 load(1, XDATA, add(CFA_XSP16, literal(-9)))
          CFI (cfiCond76) VB load(1, XDATA, add(CFA_XSP16, literal(-8)))
          CFI (cfiCond76) V0 load(1, XDATA, add(CFA_XSP16, literal(-7)))
          CFI (cfiCond76) R7 load(1, XDATA, add(CFA_XSP16, literal(-6)))
          CFI (cfiCond76) ?RET_LOW load(1, XDATA, add(CFA_XSP16, literal(-5)))
          CFI (cfiCond76) ?RET_HIGH load(1, XDATA, add(CFA_XSP16, literal(-4)))
          CFI (cfiCond76) ?BRET_EXT load(1, XDATA, add(CFA_XSP16, literal(-3)))
          CFI (cfiCond76) DPL0 load(1, XDATA, add(CFA_XSP16, literal(-2)))
          CFI (cfiCond76) DPH0 load(1, XDATA, add(CFA_XSP16, literal(-1)))
          CFI (cfiCond76) CFA_SP SP+-2
          CFI (cfiCond76) CFA_XSP16 add(XSP16, 9)
          CFI Block cfiCond77 Using cfiCommon0
          CFI (cfiCond77) Function MT_AfDataRequest
          CFI (cfiCond77) Conditional ??CrossCallReturnLabel_110
          CFI (cfiCond77) R6 load(1, XDATA, add(CFA_XSP16, literal(-21)))
          CFI (cfiCond77) VB load(1, XDATA, add(CFA_XSP16, literal(-20)))
          CFI (cfiCond77) V0 load(1, XDATA, add(CFA_XSP16, literal(-19)))
          CFI (cfiCond77) V1 load(1, XDATA, add(CFA_XSP16, literal(-18)))
          CFI (cfiCond77) V2 load(1, XDATA, add(CFA_XSP16, literal(-17)))
          CFI (cfiCond77) V3 load(1, XDATA, add(CFA_XSP16, literal(-16)))
          CFI (cfiCond77) V4 load(1, XDATA, add(CFA_XSP16, literal(-15)))
          CFI (cfiCond77) V5 load(1, XDATA, add(CFA_XSP16, literal(-14)))
          CFI (cfiCond77) V6 load(1, XDATA, add(CFA_XSP16, literal(-13)))
          CFI (cfiCond77) V7 load(1, XDATA, add(CFA_XSP16, literal(-12)))
          CFI (cfiCond77) V8 load(1, XDATA, add(CFA_XSP16, literal(-11)))
          CFI (cfiCond77) V9 load(1, XDATA, add(CFA_XSP16, literal(-10)))
          CFI (cfiCond77) V10 load(1, XDATA, add(CFA_XSP16, literal(-9)))
          CFI (cfiCond77) V11 load(1, XDATA, add(CFA_XSP16, literal(-8)))
          CFI (cfiCond77) V12 load(1, XDATA, add(CFA_XSP16, literal(-7)))
          CFI (cfiCond77) R7 load(1, XDATA, add(CFA_XSP16, literal(-6)))
          CFI (cfiCond77) ?RET_LOW load(1, XDATA, add(CFA_XSP16, literal(-5)))
          CFI (cfiCond77) ?RET_HIGH load(1, XDATA, add(CFA_XSP16, literal(-4)))
          CFI (cfiCond77) ?BRET_EXT load(1, XDATA, add(CFA_XSP16, literal(-3)))
          CFI (cfiCond77) DPL0 load(1, XDATA, add(CFA_XSP16, literal(-2)))
          CFI (cfiCond77) DPH0 load(1, XDATA, add(CFA_XSP16, literal(-1)))
          CFI (cfiCond77) CFA_SP SP+-2
          CFI (cfiCond77) CFA_XSP16 add(XSP16, 35)
          CFI Block cfiCond78 Using cfiCommon0
          CFI (cfiCond78) Function MT_AfDataStore
          CFI (cfiCond78) Conditional ??CrossCallReturnLabel_111
          CFI (cfiCond78) R6 load(1, XDATA, add(CFA_XSP16, literal(-14)))
          CFI (cfiCond78) VB load(1, XDATA, add(CFA_XSP16, literal(-13)))
          CFI (cfiCond78) V0 load(1, XDATA, add(CFA_XSP16, literal(-12)))
          CFI (cfiCond78) V1 load(1, XDATA, add(CFA_XSP16, literal(-11)))
          CFI (cfiCond78) V2 load(1, XDATA, add(CFA_XSP16, literal(-10)))
          CFI (cfiCond78) V3 load(1, XDATA, add(CFA_XSP16, literal(-9)))
          CFI (cfiCond78) V4 load(1, XDATA, add(CFA_XSP16, literal(-8)))
          CFI (cfiCond78) V5 load(1, XDATA, add(CFA_XSP16, literal(-7)))
          CFI (cfiCond78) R7 load(1, XDATA, add(CFA_XSP16, literal(-6)))
          CFI (cfiCond78) ?RET_LOW load(1, XDATA, add(CFA_XSP16, literal(-5)))
          CFI (cfiCond78) ?RET_HIGH load(1, XDATA, add(CFA_XSP16, literal(-4)))
          CFI (cfiCond78) ?BRET_EXT load(1, XDATA, add(CFA_XSP16, literal(-3)))
          CFI (cfiCond78) DPL0 load(1, XDATA, add(CFA_XSP16, literal(-2)))
          CFI (cfiCond78) DPH0 load(1, XDATA, add(CFA_XSP16, literal(-1)))
          CFI (cfiCond78) CFA_SP SP+-2
          CFI (cfiCond78) CFA_XSP16 add(XSP16, 15)
          CFI Block cfiPicker79 Using cfiCommon1
          CFI (cfiPicker79) NoFunction
          CFI (cfiPicker79) Picker
        LCALL     ??Subroutine52_0 & 0xFFFF
??CrossCallReturnLabel_136:
        MOV       R1,A
        MOV       A,R0
        ORL       A,R1
        RET
          CFI EndBlock cfiCond74
          CFI EndBlock cfiCond75
          CFI EndBlock cfiCond76
          CFI EndBlock cfiCond77
          CFI EndBlock cfiCond78
          CFI EndBlock cfiPicker79
//  457 
//  458 #if defined( ZIGBEEPRO )
//  459 /***************************************************************************************************
//  460  * @fn      MT_AfDataRequestSrcRtg
//  461  *
//  462  * @brief   Process AF Register command
//  463  *
//  464  * @param   pBuf - pointer to the received buffer
//  465  *
//  466  * @return  none
//  467  ***************************************************************************************************/

        RSEG BANKED_CODE:HUGECODE:NOROOT(0)
//  468 static void MT_AfDataRequestSrcRtg(uint8 *pBuf)
MT_AfDataRequestSrcRtg:
          CFI Block cfiBlock80 Using cfiCommon0
          CFI Function MT_AfDataRequestSrcRtg
        CODE
//  469 {
        FUNCALL MT_AfDataRequestSrcRtg, osal_memset
        LOCFRAME ISTACK, 0, STACK
        LOCFRAME PSTACK, 0, STACK
        LOCFRAME XSTACK, 34, STACK
        LOCFRAME IOVERLAY, 0, STATIC
        LOCFRAME DOVERLAY, 0, STATIC
        ARGFRAME ISTACK, 0, STACK
        ARGFRAME PSTACK, 0, STACK
        ARGFRAME XSTACK, 34, STACK
        ARGFRAME IOVERLAY, 0, STATIC
        ARGFRAME DOVERLAY, 0, STATIC
        FUNCALL MT_AfDataRequestSrcRtg, osal_build_uint16
        LOCFRAME ISTACK, 0, STACK
        LOCFRAME PSTACK, 0, STACK
        LOCFRAME XSTACK, 34, STACK
        LOCFRAME IOVERLAY, 0, STATIC
        LOCFRAME DOVERLAY, 0, STATIC
        ARGFRAME ISTACK, 0, STACK
        ARGFRAME PSTACK, 0, STACK
        ARGFRAME XSTACK, 34, STACK
        ARGFRAME IOVERLAY, 0, STATIC
        ARGFRAME DOVERLAY, 0, STATIC
        FUNCALL MT_AfDataRequestSrcRtg, afFindEndPointDesc
        LOCFRAME ISTACK, 0, STACK
        LOCFRAME PSTACK, 0, STACK
        LOCFRAME XSTACK, 34, STACK
        LOCFRAME IOVERLAY, 0, STATIC
        LOCFRAME DOVERLAY, 0, STATIC
        ARGFRAME ISTACK, 0, STACK
        ARGFRAME PSTACK, 0, STACK
        ARGFRAME XSTACK, 34, STACK
        ARGFRAME IOVERLAY, 0, STATIC
        ARGFRAME DOVERLAY, 0, STATIC
        FUNCALL MT_AfDataRequestSrcRtg, osal_build_uint16
        LOCFRAME ISTACK, 0, STACK
        LOCFRAME PSTACK, 0, STACK
        LOCFRAME XSTACK, 34, STACK
        LOCFRAME IOVERLAY, 0, STATIC
        LOCFRAME DOVERLAY, 0, STATIC
        ARGFRAME ISTACK, 0, STACK
        ARGFRAME PSTACK, 0, STACK
        ARGFRAME XSTACK, 34, STACK
        ARGFRAME IOVERLAY, 0, STATIC
        ARGFRAME DOVERLAY, 0, STATIC
        FUNCALL MT_AfDataRequestSrcRtg, osal_mem_alloc
        LOCFRAME ISTACK, 0, STACK
        LOCFRAME PSTACK, 0, STACK
        LOCFRAME XSTACK, 34, STACK
        LOCFRAME IOVERLAY, 0, STATIC
        LOCFRAME DOVERLAY, 0, STATIC
        ARGFRAME ISTACK, 0, STACK
        ARGFRAME PSTACK, 0, STACK
        ARGFRAME XSTACK, 34, STACK
        ARGFRAME IOVERLAY, 0, STATIC
        ARGFRAME DOVERLAY, 0, STATIC
        FUNCALL MT_AfDataRequestSrcRtg, osal_build_uint16
        LOCFRAME ISTACK, 0, STACK
        LOCFRAME PSTACK, 0, STACK
        LOCFRAME XSTACK, 34, STACK
        LOCFRAME IOVERLAY, 0, STATIC
        LOCFRAME DOVERLAY, 0, STATIC
        ARGFRAME ISTACK, 0, STACK
        ARGFRAME PSTACK, 0, STACK
        ARGFRAME XSTACK, 34, STACK
        ARGFRAME IOVERLAY, 0, STATIC
        ARGFRAME DOVERLAY, 0, STATIC
        FUNCALL MT_AfDataRequestSrcRtg, AF_DataRequestSrcRtg
        LOCFRAME ISTACK, 0, STACK
        LOCFRAME PSTACK, 0, STACK
        LOCFRAME XSTACK, 46, STACK
        LOCFRAME IOVERLAY, 0, STATIC
        LOCFRAME DOVERLAY, 0, STATIC
        ARGFRAME ISTACK, 0, STACK
        ARGFRAME PSTACK, 0, STACK
        ARGFRAME XSTACK, 46, STACK
        ARGFRAME IOVERLAY, 0, STATIC
        ARGFRAME DOVERLAY, 0, STATIC
        FUNCALL MT_AfDataRequestSrcRtg, osal_mem_free
        LOCFRAME ISTACK, 0, STACK
        LOCFRAME PSTACK, 0, STACK
        LOCFRAME XSTACK, 34, STACK
        LOCFRAME IOVERLAY, 0, STATIC
        LOCFRAME DOVERLAY, 0, STATIC
        ARGFRAME ISTACK, 0, STACK
        ARGFRAME PSTACK, 0, STACK
        ARGFRAME XSTACK, 34, STACK
        ARGFRAME IOVERLAY, 0, STATIC
        ARGFRAME DOVERLAY, 0, STATIC
        FUNCALL MT_AfDataRequestSrcRtg, MT_BuildAndSendZToolResponse
        LOCFRAME ISTACK, 0, STACK
        LOCFRAME PSTACK, 0, STACK
        LOCFRAME XSTACK, 34, STACK
        LOCFRAME IOVERLAY, 0, STATIC
        LOCFRAME DOVERLAY, 0, STATIC
        ARGFRAME ISTACK, 0, STACK
        ARGFRAME PSTACK, 0, STACK
        ARGFRAME XSTACK, 34, STACK
        ARGFRAME IOVERLAY, 0, STATIC
        ARGFRAME DOVERLAY, 0, STATIC
        REQUIRE ?V0
        REQUIRE ?V1
        REQUIRE ?V2
        REQUIRE ?V3
        REQUIRE ?V4
        REQUIRE ?V5
        REQUIRE ?V6
        REQUIRE ?V7
        REQUIRE ?V8
        REQUIRE ?V9
        REQUIRE ?V10
        REQUIRE ?V11
        MOV       A,#-0x14
        LCALL     ?BANKED_ENTER_XDATA
          CFI DPH0 load(1, XDATA, add(CFA_XSP16, literal(-1)))
          CFI DPL0 load(1, XDATA, add(CFA_XSP16, literal(-2)))
          CFI ?BRET_EXT load(1, XDATA, add(CFA_XSP16, literal(-3)))
          CFI ?RET_HIGH load(1, XDATA, add(CFA_XSP16, literal(-4)))
          CFI ?RET_LOW load(1, XDATA, add(CFA_XSP16, literal(-5)))
          CFI R7 load(1, XDATA, add(CFA_XSP16, literal(-6)))
          CFI V11 load(1, XDATA, add(CFA_XSP16, literal(-7)))
          CFI V10 load(1, XDATA, add(CFA_XSP16, literal(-8)))
          CFI V9 load(1, XDATA, add(CFA_XSP16, literal(-9)))
          CFI V8 load(1, XDATA, add(CFA_XSP16, literal(-10)))
          CFI V7 load(1, XDATA, add(CFA_XSP16, literal(-11)))
          CFI V6 load(1, XDATA, add(CFA_XSP16, literal(-12)))
          CFI V5 load(1, XDATA, add(CFA_XSP16, literal(-13)))
          CFI V4 load(1, XDATA, add(CFA_XSP16, literal(-14)))
          CFI V3 load(1, XDATA, add(CFA_XSP16, literal(-15)))
          CFI V2 load(1, XDATA, add(CFA_XSP16, literal(-16)))
          CFI V1 load(1, XDATA, add(CFA_XSP16, literal(-17)))
          CFI V0 load(1, XDATA, add(CFA_XSP16, literal(-18)))
          CFI VB load(1, XDATA, add(CFA_XSP16, literal(-19)))
          CFI R6 load(1, XDATA, add(CFA_XSP16, literal(-20)))
          CFI CFA_SP SP+0
          CFI CFA_XSP16 add(XSP16, 20)
        ; Saved register size: 20
        ; Auto size: 14
        MOV       A,#-0xe
        LCALL     ?ALLOC_XSTACK8
          CFI CFA_XSP16 add(XSP16, 34)
        MOV       A,R3
        MOV       R7,A
//  470   uint8 cmdId, dataLen = 0;
//  471   uint8 retValue = ZFailure;
        MOV       DPL,?XSP + 0
        MOV       DPH,?XSP + 1
        MOV       A,#0x1
        LCALL     ?Subroutine42 & 0xFFFF
//  472   endPointDesc_t *epDesc;
//  473   byte transId;
//  474   afAddrType_t dstAddr;
//  475   cId_t cId;
//  476   byte txOpts, radius, srcEP, relayCnt;
//  477   uint16 *pRelayList;
//  478   uint8 i;
//  479 
//  480   /* parse header */
//  481   cmdId = pBuf[MT_RPC_POS_CMD1];
??CrossCallReturnLabel_76:
        MOV       ?V6,A
//  482   pBuf += MT_RPC_FRAME_HDR_SZ;
        MOV       A,R2
        ADD       A,#0x3
        MOV       R6,A
        JNC       ??MT_AfDataRequestSrcRtg_0
        INC       R7
//  483 
//  484   /* Destination address */
//  485   /* Initialize the panID field to zero to avoid inter-pan */
//  486   osal_memset( &dstAddr, 0, sizeof(afAddrType_t) );
??MT_AfDataRequestSrcRtg_0:
        ; Setup parameters for call to function osal_memset
        MOV       R4,#0xc
        MOV       R5,#0x0
        MOV       R1,#0x0
        MOV       A,#0x2
        LCALL     ?XSTACK_DISP101_8
        LCALL     `??osal_memset::?relay`; Banked call to: osal_memset
//  487   dstAddr.addrMode = afAddr16Bit;
        MOV       A,#0xa
        LCALL     ?XSTACK_DISP0_8
        MOV       A,#0x2
        MOVX      @DPTR,A
//  488   dstAddr.addr.shortAddr = osal_build_uint16( pBuf );
        ; Setup parameters for call to function osal_build_uint16
        MOV       A,R6
        MOV       R2,A
        MOV       A,R7
        MOV       R3,A
        LCALL     `??osal_build_uint16::?relay`; Banked call to: osal_build_uint16
        MOV       A,#0x2
        LCALL     ?XSTACK_DISP0_8
        LCALL     ?Subroutine24 & 0xFFFF
//  489   pBuf += 2;
//  490 
//  491   /* Destination endpoint */
//  492   dstAddr.endPoint = *pBuf++;
??CrossCallReturnLabel_40:
        PUSH      A
          CFI CFA_SP SP+-1
        MOV       A,#0xb
        LCALL     ?XSTACK_DISP0_8
        POP       A
          CFI CFA_SP SP+0
        LCALL     ?Subroutine29 & 0xFFFF
//  493 
//  494   /* Source endpoint */
//  495   srcEP = *pBuf++;
??CrossCallReturnLabel_51:
        MOV       R1,A
        MOV       A,R6
        ADD       A,#0x4
        MOV       R6,A
        JNC       ??MT_AfDataRequestSrcRtg_1
        INC       R7
//  496   epDesc = afFindEndPointDesc( srcEP );
??MT_AfDataRequestSrcRtg_1:
        ; Setup parameters for call to function afFindEndPointDesc
        LCALL     `??afFindEndPointDesc::?relay`; Banked call to: afFindEndPointDesc
        MOV       ?V2,R2
        MOV       ?V3,R3
//  497 
//  498   /* ClusterId */
//  499   cId = osal_build_uint16( pBuf );
        ; Setup parameters for call to function osal_build_uint16
        MOV       A,R6
        LCALL     ?Subroutine33 & 0xFFFF
//  500   pBuf +=2;
//  501 
//  502   /* TransId */
//  503   transId = *pBuf++;
??CrossCallReturnLabel_57:
        PUSH      A
          CFI CFA_SP SP+-1
        MOV       A,#0x1
        LCALL     ?XSTACK_DISP0_8
        POP       A
          CFI CFA_SP SP+0
        LCALL     ?Subroutine29 & 0xFFFF
//  504 
//  505   /* TxOption */
//  506   txOpts = *pBuf++;
??CrossCallReturnLabel_52:
        MOV       ?V7,A
//  507 
//  508   /* Radius */
//  509   radius = *pBuf++;
        MOV       DPL,R6
        MOV       DPH,R7
        INC       DPTR
        LCALL     ?Subroutine12 & 0xFFFF
//  510 
//  511   /* Source route relay count */
//  512   relayCnt = *pBuf++;
??CrossCallReturnLabel_19:
        INC       DPTR
        MOVX      A,@DPTR
        MOV       ?V9,A
        MOV       A,R6
        ADD       A,#0x6
        MOV       R6,A
        JNC       ??MT_AfDataRequestSrcRtg_2
        INC       R7
//  513 
//  514   /* Convert the source route relay list */
//  515   if( (pRelayList = osal_mem_alloc( relayCnt * sizeof( uint16 ))) != NULL )
??MT_AfDataRequestSrcRtg_2:
        ; Setup parameters for call to function osal_mem_alloc
        MOV       R2,?V9
        MOV       A,R2
        ADD       A,R2
        MOV       R2,A
        CLR       A
        RLC       A
        MOV       R3,A
        LCALL     `??osal_mem_alloc::?relay`; Banked call to: osal_mem_alloc
        MOV       ?V0,R2
        MOV       ?V1,R3
        MOV       A,R2
        ORL       A,R3
        JNZ       $+5
        LJMP      ??MT_AfDataRequestSrcRtg_3 & 0xFFFF
//  516   {
//  517     for( i = 0; i < relayCnt; i++ )
        MOV       ?V10,#0x0
        SJMP      ??MT_AfDataRequestSrcRtg_4
//  518     {
//  519       pRelayList[i] = osal_build_uint16( pBuf );
??MT_AfDataRequestSrcRtg_5:
        ; Setup parameters for call to function osal_build_uint16
        MOV       A,R6
        MOV       R2,A
        MOV       A,R7
        MOV       R3,A
        LCALL     `??osal_build_uint16::?relay`; Banked call to: osal_build_uint16
        MOV       R0,?V10
        MOV       A,R0
        ADD       A,R0
        MOV       R0,A
        CLR       A
        RLC       A
        MOV       R1,A
        MOV       A,?V0
        ADD       A,R0
        MOV       DPL,A
        MOV       A,?V1
        ADDC      A,R1
        MOV       DPH,A
        LCALL     ?Subroutine31 & 0xFFFF
//  520       pBuf += 2;
//  521     }
??CrossCallReturnLabel_56:
        JNC       ??MT_AfDataRequestSrcRtg_6
        INC       R7
??MT_AfDataRequestSrcRtg_6:
        INC       ?V10
??MT_AfDataRequestSrcRtg_4:
        MOV       A,?V10
        CLR       C
        SUBB      A,?V9
        JC        ??MT_AfDataRequestSrcRtg_5
//  522 
//  523     /* Data payload Length */
//  524     dataLen = *pBuf++;
        MOV       DPL,R6
        MOV       DPH,R7
        MOVX      A,@DPTR
        MOV       R2,A
        INC       DPTR
        MOV       R6,DPL
        MOV       R7,DPH
//  525 
//  526     if ( epDesc == NULL )
        MOV       A,?V2
        ORL       A,?V3
        JNZ       ??MT_AfDataRequestSrcRtg_7
//  527     {
//  528       retValue = afStatus_INVALID_PARAMETER;
        MOV       DPL,?XSP + 0
        MOV       DPH,?XSP + 1
        MOV       A,#0x2
        SJMP      ??MT_AfDataRequestSrcRtg_8
//  529     }
//  530     else
//  531     {
//  532       retValue = AF_DataRequestSrcRtg( &dstAddr, epDesc, cId, dataLen, pBuf,
//  533                                      &transId, txOpts, radius, relayCnt, pRelayList );
??MT_AfDataRequestSrcRtg_7:
        ; Setup parameters for call to function AF_DataRequestSrcRtg
        MOV       R0,#?V0
        LCALL     ?PUSH_XSTACK_I_TWO
          CFI CFA_XSP16 add(XSP16, 36)
        MOV       R0,#?V9
        LCALL     ?PUSH_XSTACK_I_ONE
          CFI CFA_XSP16 add(XSP16, 37)
        MOV       R0,#?V8
        LCALL     ?PUSH_XSTACK_I_ONE
          CFI CFA_XSP16 add(XSP16, 38)
        MOV       A,#0x5
        LCALL     ?XSTACK_DISP100_8
        MOV       ?V8,R0
        MOV       ?V9,R1
        MOV       R0,#?V8
        LCALL     ?PUSH_XSTACK_I_TWO
          CFI CFA_XSP16 add(XSP16, 40)
        MOV       ?V8,R6
        MOV       ?V9,R7
        MOV       R0,#?V8
        LCALL     ?PUSH_XSTACK_I_TWO
          CFI CFA_XSP16 add(XSP16, 42)
        MOV       A,R2
        MOV       ?V8,A
        MOV       ?V9,#0x0
        MOV       R0,#?V8
        LCALL     ?PUSH_XSTACK_I_TWO
          CFI CFA_XSP16 add(XSP16, 44)
        MOV       R0,#?V4
        LCALL     ?PUSH_XSTACK_I_TWO
          CFI CFA_XSP16 add(XSP16, 46)
        MOV       R1,?V7
        MOV       R4,?V2
        MOV       R5,?V3
        MOV       A,#0xe
        LCALL     ?XSTACK_DISP101_8
        LCALL     `??AF_DataRequestSrcRtg::?relay`; Banked call to: AF_DataRequestSrcRtg
        MOV       A,#0xc
        LCALL     ?DEALLOC_XSTACK8
          CFI CFA_XSP16 add(XSP16, 34)
        MOV       A,R1
        MOV       DPL,?XSP + 0
        MOV       DPH,?XSP + 1
??MT_AfDataRequestSrcRtg_8:
        MOVX      @DPTR,A
//  534     }
//  535 
//  536     /* Free the memory allocated */
//  537     osal_mem_free( pRelayList );
        ; Setup parameters for call to function osal_mem_free
        MOV       R2,?V0
        MOV       R3,?V1
        LCALL     `??osal_mem_free::?relay`; Banked call to: osal_mem_free
        SJMP      ??MT_AfDataRequestSrcRtg_9
//  538   }
//  539   else
//  540   {
//  541     retValue = afStatus_MEM_FAIL;
??MT_AfDataRequestSrcRtg_3:
        MOV       DPL,?XSP + 0
        MOV       DPH,?XSP + 1
        MOV       A,#0x10
        MOVX      @DPTR,A
//  542   }
//  543 
//  544 
//  545   /* Build and send back the response */
//  546   MT_BuildAndSendZToolResponse(((uint8)MT_RPC_CMD_SRSP | (uint8)MT_RPC_SYS_AF), cmdId, 1, &retValue);
??MT_AfDataRequestSrcRtg_9:
        ; Setup parameters for call to function MT_BuildAndSendZToolResponse
        MOV       R4,?XSP + 0
        MOV       R5,?XSP + 1
        MOV       R3,#0x1
        MOV       R2,?V6
        MOV       R1,#0x64
        LCALL     `??MT_BuildAndSendZToolResponse::?relay`; Banked call to: MT_BuildAndSendZToolResponse
//  547 }
        MOV       A,#0xe
        LCALL     ?DEALLOC_XSTACK8
          CFI CFA_XSP16 add(XSP16, 20)
        MOV       R7,#0xc
        LJMP      ?BANKED_LEAVE_XDATA
          CFI EndBlock cfiBlock80

        RSEG BANKED_CODE:HUGECODE:NOROOT(0)
?Subroutine31:
          CFI Block cfiCond81 Using cfiCommon0
          CFI Function MT_AfDataRequest
          CFI Conditional ??CrossCallReturnLabel_55
          CFI R6 load(1, XDATA, add(CFA_XSP16, literal(-21)))
          CFI VB load(1, XDATA, add(CFA_XSP16, literal(-20)))
          CFI V0 load(1, XDATA, add(CFA_XSP16, literal(-19)))
          CFI V1 load(1, XDATA, add(CFA_XSP16, literal(-18)))
          CFI V2 load(1, XDATA, add(CFA_XSP16, literal(-17)))
          CFI V3 load(1, XDATA, add(CFA_XSP16, literal(-16)))
          CFI V4 load(1, XDATA, add(CFA_XSP16, literal(-15)))
          CFI V5 load(1, XDATA, add(CFA_XSP16, literal(-14)))
          CFI V6 load(1, XDATA, add(CFA_XSP16, literal(-13)))
          CFI V7 load(1, XDATA, add(CFA_XSP16, literal(-12)))
          CFI V8 load(1, XDATA, add(CFA_XSP16, literal(-11)))
          CFI V9 load(1, XDATA, add(CFA_XSP16, literal(-10)))
          CFI V10 load(1, XDATA, add(CFA_XSP16, literal(-9)))
          CFI V11 load(1, XDATA, add(CFA_XSP16, literal(-8)))
          CFI V12 load(1, XDATA, add(CFA_XSP16, literal(-7)))
          CFI R7 load(1, XDATA, add(CFA_XSP16, literal(-6)))
          CFI ?RET_LOW load(1, XDATA, add(CFA_XSP16, literal(-5)))
          CFI ?RET_HIGH load(1, XDATA, add(CFA_XSP16, literal(-4)))
          CFI ?BRET_EXT load(1, XDATA, add(CFA_XSP16, literal(-3)))
          CFI DPL0 load(1, XDATA, add(CFA_XSP16, literal(-2)))
          CFI DPH0 load(1, XDATA, add(CFA_XSP16, literal(-1)))
          CFI CFA_SP SP+-2
          CFI CFA_XSP16 add(XSP16, 35)
          CFI Block cfiCond82 Using cfiCommon0
          CFI (cfiCond82) Function MT_AfDataRequestSrcRtg
          CFI (cfiCond82) Conditional ??CrossCallReturnLabel_56
          CFI (cfiCond82) R6 load(1, XDATA, add(CFA_XSP16, literal(-20)))
          CFI (cfiCond82) VB load(1, XDATA, add(CFA_XSP16, literal(-19)))
          CFI (cfiCond82) V0 load(1, XDATA, add(CFA_XSP16, literal(-18)))
          CFI (cfiCond82) V1 load(1, XDATA, add(CFA_XSP16, literal(-17)))
          CFI (cfiCond82) V2 load(1, XDATA, add(CFA_XSP16, literal(-16)))
          CFI (cfiCond82) V3 load(1, XDATA, add(CFA_XSP16, literal(-15)))
          CFI (cfiCond82) V4 load(1, XDATA, add(CFA_XSP16, literal(-14)))
          CFI (cfiCond82) V5 load(1, XDATA, add(CFA_XSP16, literal(-13)))
          CFI (cfiCond82) V6 load(1, XDATA, add(CFA_XSP16, literal(-12)))
          CFI (cfiCond82) V7 load(1, XDATA, add(CFA_XSP16, literal(-11)))
          CFI (cfiCond82) V8 load(1, XDATA, add(CFA_XSP16, literal(-10)))
          CFI (cfiCond82) V9 load(1, XDATA, add(CFA_XSP16, literal(-9)))
          CFI (cfiCond82) V10 load(1, XDATA, add(CFA_XSP16, literal(-8)))
          CFI (cfiCond82) V11 load(1, XDATA, add(CFA_XSP16, literal(-7)))
          CFI (cfiCond82) R7 load(1, XDATA, add(CFA_XSP16, literal(-6)))
          CFI (cfiCond82) ?RET_LOW load(1, XDATA, add(CFA_XSP16, literal(-5)))
          CFI (cfiCond82) ?RET_HIGH load(1, XDATA, add(CFA_XSP16, literal(-4)))
          CFI (cfiCond82) ?BRET_EXT load(1, XDATA, add(CFA_XSP16, literal(-3)))
          CFI (cfiCond82) DPL0 load(1, XDATA, add(CFA_XSP16, literal(-2)))
          CFI (cfiCond82) DPH0 load(1, XDATA, add(CFA_XSP16, literal(-1)))
          CFI (cfiCond82) CFA_SP SP+-2
          CFI (cfiCond82) CFA_XSP16 add(XSP16, 34)
          CFI Block cfiPicker83 Using cfiCommon1
          CFI (cfiPicker83) NoFunction
          CFI (cfiPicker83) Picker
        MOV       A,R2
        MOVX      @DPTR,A
        INC       DPTR
        MOV       A,R3
        MOVX      @DPTR,A
        MOV       A,R6
        ADD       A,#0x2
        MOV       R6,A
        RET
          CFI EndBlock cfiCond81
          CFI EndBlock cfiCond82
          CFI EndBlock cfiPicker83

        RSEG BANKED_CODE:HUGECODE:NOROOT(0)
?Subroutine29:
          CFI Block cfiCond84 Using cfiCommon0
          CFI Function MT_AfDataRequestSrcRtg
          CFI Conditional ??CrossCallReturnLabel_51
          CFI R6 load(1, XDATA, add(CFA_XSP16, literal(-20)))
          CFI VB load(1, XDATA, add(CFA_XSP16, literal(-19)))
          CFI V0 load(1, XDATA, add(CFA_XSP16, literal(-18)))
          CFI V1 load(1, XDATA, add(CFA_XSP16, literal(-17)))
          CFI V2 load(1, XDATA, add(CFA_XSP16, literal(-16)))
          CFI V3 load(1, XDATA, add(CFA_XSP16, literal(-15)))
          CFI V4 load(1, XDATA, add(CFA_XSP16, literal(-14)))
          CFI V5 load(1, XDATA, add(CFA_XSP16, literal(-13)))
          CFI V6 load(1, XDATA, add(CFA_XSP16, literal(-12)))
          CFI V7 load(1, XDATA, add(CFA_XSP16, literal(-11)))
          CFI V8 load(1, XDATA, add(CFA_XSP16, literal(-10)))
          CFI V9 load(1, XDATA, add(CFA_XSP16, literal(-9)))
          CFI V10 load(1, XDATA, add(CFA_XSP16, literal(-8)))
          CFI V11 load(1, XDATA, add(CFA_XSP16, literal(-7)))
          CFI R7 load(1, XDATA, add(CFA_XSP16, literal(-6)))
          CFI ?RET_LOW load(1, XDATA, add(CFA_XSP16, literal(-5)))
          CFI ?RET_HIGH load(1, XDATA, add(CFA_XSP16, literal(-4)))
          CFI ?BRET_EXT load(1, XDATA, add(CFA_XSP16, literal(-3)))
          CFI DPL0 load(1, XDATA, add(CFA_XSP16, literal(-2)))
          CFI DPH0 load(1, XDATA, add(CFA_XSP16, literal(-1)))
          CFI CFA_SP SP+-2
          CFI CFA_XSP16 add(XSP16, 34)
          CFI Block cfiCond85 Using cfiCommon0
          CFI (cfiCond85) Function MT_AfDataRequestSrcRtg
          CFI (cfiCond85) Conditional ??CrossCallReturnLabel_52
          CFI (cfiCond85) R6 load(1, XDATA, add(CFA_XSP16, literal(-20)))
          CFI (cfiCond85) VB load(1, XDATA, add(CFA_XSP16, literal(-19)))
          CFI (cfiCond85) V0 load(1, XDATA, add(CFA_XSP16, literal(-18)))
          CFI (cfiCond85) V1 load(1, XDATA, add(CFA_XSP16, literal(-17)))
          CFI (cfiCond85) V2 load(1, XDATA, add(CFA_XSP16, literal(-16)))
          CFI (cfiCond85) V3 load(1, XDATA, add(CFA_XSP16, literal(-15)))
          CFI (cfiCond85) V4 load(1, XDATA, add(CFA_XSP16, literal(-14)))
          CFI (cfiCond85) V5 load(1, XDATA, add(CFA_XSP16, literal(-13)))
          CFI (cfiCond85) V6 load(1, XDATA, add(CFA_XSP16, literal(-12)))
          CFI (cfiCond85) V7 load(1, XDATA, add(CFA_XSP16, literal(-11)))
          CFI (cfiCond85) V8 load(1, XDATA, add(CFA_XSP16, literal(-10)))
          CFI (cfiCond85) V9 load(1, XDATA, add(CFA_XSP16, literal(-9)))
          CFI (cfiCond85) V10 load(1, XDATA, add(CFA_XSP16, literal(-8)))
          CFI (cfiCond85) V11 load(1, XDATA, add(CFA_XSP16, literal(-7)))
          CFI (cfiCond85) R7 load(1, XDATA, add(CFA_XSP16, literal(-6)))
          CFI (cfiCond85) ?RET_LOW load(1, XDATA, add(CFA_XSP16, literal(-5)))
          CFI (cfiCond85) ?RET_HIGH load(1, XDATA, add(CFA_XSP16, literal(-4)))
          CFI (cfiCond85) ?BRET_EXT load(1, XDATA, add(CFA_XSP16, literal(-3)))
          CFI (cfiCond85) DPL0 load(1, XDATA, add(CFA_XSP16, literal(-2)))
          CFI (cfiCond85) DPH0 load(1, XDATA, add(CFA_XSP16, literal(-1)))
          CFI (cfiCond85) CFA_SP SP+-2
          CFI (cfiCond85) CFA_XSP16 add(XSP16, 34)
          CFI Block cfiPicker86 Using cfiCommon1
          CFI (cfiPicker86) NoFunction
          CFI (cfiPicker86) Picker
        LCALL     ?Subroutine44 & 0xFFFF
??CrossCallReturnLabel_82:
        INC       DPTR
        INC       DPTR
        MOVX      A,@DPTR
        RET
          CFI EndBlock cfiCond84
          CFI EndBlock cfiCond85
          CFI EndBlock cfiPicker86

        RSEG BANKED_CODE:HUGECODE:NOROOT(0)
?Subroutine44:
          CFI Block cfiCond87 Using cfiCommon0
          CFI Function MT_AfDataRequest
          CFI Conditional ??CrossCallReturnLabel_84
          CFI R6 load(1, XDATA, add(CFA_XSP16, literal(-21)))
          CFI VB load(1, XDATA, add(CFA_XSP16, literal(-20)))
          CFI V0 load(1, XDATA, add(CFA_XSP16, literal(-19)))
          CFI V1 load(1, XDATA, add(CFA_XSP16, literal(-18)))
          CFI V2 load(1, XDATA, add(CFA_XSP16, literal(-17)))
          CFI V3 load(1, XDATA, add(CFA_XSP16, literal(-16)))
          CFI V4 load(1, XDATA, add(CFA_XSP16, literal(-15)))
          CFI V5 load(1, XDATA, add(CFA_XSP16, literal(-14)))
          CFI V6 load(1, XDATA, add(CFA_XSP16, literal(-13)))
          CFI V7 load(1, XDATA, add(CFA_XSP16, literal(-12)))
          CFI V8 load(1, XDATA, add(CFA_XSP16, literal(-11)))
          CFI V9 load(1, XDATA, add(CFA_XSP16, literal(-10)))
          CFI V10 load(1, XDATA, add(CFA_XSP16, literal(-9)))
          CFI V11 load(1, XDATA, add(CFA_XSP16, literal(-8)))
          CFI V12 load(1, XDATA, add(CFA_XSP16, literal(-7)))
          CFI R7 load(1, XDATA, add(CFA_XSP16, literal(-6)))
          CFI ?RET_LOW load(1, XDATA, add(CFA_XSP16, literal(-5)))
          CFI ?RET_HIGH load(1, XDATA, add(CFA_XSP16, literal(-4)))
          CFI ?BRET_EXT load(1, XDATA, add(CFA_XSP16, literal(-3)))
          CFI DPL0 load(1, XDATA, add(CFA_XSP16, literal(-2)))
          CFI DPH0 load(1, XDATA, add(CFA_XSP16, literal(-1)))
          CFI CFA_SP SP+-2
          CFI CFA_XSP16 add(XSP16, 35)
          CFI Block cfiCond88 Using cfiCommon0
          CFI (cfiCond88) Function MT_AfDataRequestSrcRtg
          CFI (cfiCond88) Conditional ??CrossCallReturnLabel_82, ??CrossCallReturnLabel_51
          CFI (cfiCond88) R6 load(1, XDATA, add(CFA_XSP16, literal(-20)))
          CFI (cfiCond88) VB load(1, XDATA, add(CFA_XSP16, literal(-19)))
          CFI (cfiCond88) V0 load(1, XDATA, add(CFA_XSP16, literal(-18)))
          CFI (cfiCond88) V1 load(1, XDATA, add(CFA_XSP16, literal(-17)))
          CFI (cfiCond88) V2 load(1, XDATA, add(CFA_XSP16, literal(-16)))
          CFI (cfiCond88) V3 load(1, XDATA, add(CFA_XSP16, literal(-15)))
          CFI (cfiCond88) V4 load(1, XDATA, add(CFA_XSP16, literal(-14)))
          CFI (cfiCond88) V5 load(1, XDATA, add(CFA_XSP16, literal(-13)))
          CFI (cfiCond88) V6 load(1, XDATA, add(CFA_XSP16, literal(-12)))
          CFI (cfiCond88) V7 load(1, XDATA, add(CFA_XSP16, literal(-11)))
          CFI (cfiCond88) V8 load(1, XDATA, add(CFA_XSP16, literal(-10)))
          CFI (cfiCond88) V9 load(1, XDATA, add(CFA_XSP16, literal(-9)))
          CFI (cfiCond88) V10 load(1, XDATA, add(CFA_XSP16, literal(-8)))
          CFI (cfiCond88) V11 load(1, XDATA, add(CFA_XSP16, literal(-7)))
          CFI (cfiCond88) R7 load(1, XDATA, add(CFA_XSP16, literal(-6)))
          CFI (cfiCond88) ?RET_LOW load(1, XDATA, add(CFA_XSP16, literal(-5)))
          CFI (cfiCond88) ?RET_HIGH load(1, XDATA, add(CFA_XSP16, literal(-4)))
          CFI (cfiCond88) ?BRET_EXT load(1, XDATA, add(CFA_XSP16, literal(-3)))
          CFI (cfiCond88) DPL0 load(1, XDATA, add(CFA_XSP16, literal(-2)))
          CFI (cfiCond88) DPH0 load(1, XDATA, add(CFA_XSP16, literal(-1)))
          CFI (cfiCond88) CFA_SP SP+-4
          CFI (cfiCond88) CFA_XSP16 add(XSP16, 34)
          CFI Block cfiCond89 Using cfiCommon0
          CFI (cfiCond89) Function MT_AfDataRequestSrcRtg
          CFI (cfiCond89) Conditional ??CrossCallReturnLabel_82, ??CrossCallReturnLabel_52
          CFI (cfiCond89) R6 load(1, XDATA, add(CFA_XSP16, literal(-20)))
          CFI (cfiCond89) VB load(1, XDATA, add(CFA_XSP16, literal(-19)))
          CFI (cfiCond89) V0 load(1, XDATA, add(CFA_XSP16, literal(-18)))
          CFI (cfiCond89) V1 load(1, XDATA, add(CFA_XSP16, literal(-17)))
          CFI (cfiCond89) V2 load(1, XDATA, add(CFA_XSP16, literal(-16)))
          CFI (cfiCond89) V3 load(1, XDATA, add(CFA_XSP16, literal(-15)))
          CFI (cfiCond89) V4 load(1, XDATA, add(CFA_XSP16, literal(-14)))
          CFI (cfiCond89) V5 load(1, XDATA, add(CFA_XSP16, literal(-13)))
          CFI (cfiCond89) V6 load(1, XDATA, add(CFA_XSP16, literal(-12)))
          CFI (cfiCond89) V7 load(1, XDATA, add(CFA_XSP16, literal(-11)))
          CFI (cfiCond89) V8 load(1, XDATA, add(CFA_XSP16, literal(-10)))
          CFI (cfiCond89) V9 load(1, XDATA, add(CFA_XSP16, literal(-9)))
          CFI (cfiCond89) V10 load(1, XDATA, add(CFA_XSP16, literal(-8)))
          CFI (cfiCond89) V11 load(1, XDATA, add(CFA_XSP16, literal(-7)))
          CFI (cfiCond89) R7 load(1, XDATA, add(CFA_XSP16, literal(-6)))
          CFI (cfiCond89) ?RET_LOW load(1, XDATA, add(CFA_XSP16, literal(-5)))
          CFI (cfiCond89) ?RET_HIGH load(1, XDATA, add(CFA_XSP16, literal(-4)))
          CFI (cfiCond89) ?BRET_EXT load(1, XDATA, add(CFA_XSP16, literal(-3)))
          CFI (cfiCond89) DPL0 load(1, XDATA, add(CFA_XSP16, literal(-2)))
          CFI (cfiCond89) DPH0 load(1, XDATA, add(CFA_XSP16, literal(-1)))
          CFI (cfiCond89) CFA_SP SP+-4
          CFI (cfiCond89) CFA_XSP16 add(XSP16, 34)
          CFI Block cfiCond90 Using cfiCommon0
          CFI (cfiCond90) Function MT_AfDataRequest
          CFI (cfiCond90) Conditional ??CrossCallReturnLabel_83, ??CrossCallReturnLabel_39
          CFI (cfiCond90) R6 load(1, XDATA, add(CFA_XSP16, literal(-21)))
          CFI (cfiCond90) VB load(1, XDATA, add(CFA_XSP16, literal(-20)))
          CFI (cfiCond90) V0 load(1, XDATA, add(CFA_XSP16, literal(-19)))
          CFI (cfiCond90) V1 load(1, XDATA, add(CFA_XSP16, literal(-18)))
          CFI (cfiCond90) V2 load(1, XDATA, add(CFA_XSP16, literal(-17)))
          CFI (cfiCond90) V3 load(1, XDATA, add(CFA_XSP16, literal(-16)))
          CFI (cfiCond90) V4 load(1, XDATA, add(CFA_XSP16, literal(-15)))
          CFI (cfiCond90) V5 load(1, XDATA, add(CFA_XSP16, literal(-14)))
          CFI (cfiCond90) V6 load(1, XDATA, add(CFA_XSP16, literal(-13)))
          CFI (cfiCond90) V7 load(1, XDATA, add(CFA_XSP16, literal(-12)))
          CFI (cfiCond90) V8 load(1, XDATA, add(CFA_XSP16, literal(-11)))
          CFI (cfiCond90) V9 load(1, XDATA, add(CFA_XSP16, literal(-10)))
          CFI (cfiCond90) V10 load(1, XDATA, add(CFA_XSP16, literal(-9)))
          CFI (cfiCond90) V11 load(1, XDATA, add(CFA_XSP16, literal(-8)))
          CFI (cfiCond90) V12 load(1, XDATA, add(CFA_XSP16, literal(-7)))
          CFI (cfiCond90) R7 load(1, XDATA, add(CFA_XSP16, literal(-6)))
          CFI (cfiCond90) ?RET_LOW load(1, XDATA, add(CFA_XSP16, literal(-5)))
          CFI (cfiCond90) ?RET_HIGH load(1, XDATA, add(CFA_XSP16, literal(-4)))
          CFI (cfiCond90) ?BRET_EXT load(1, XDATA, add(CFA_XSP16, literal(-3)))
          CFI (cfiCond90) DPL0 load(1, XDATA, add(CFA_XSP16, literal(-2)))
          CFI (cfiCond90) DPH0 load(1, XDATA, add(CFA_XSP16, literal(-1)))
          CFI (cfiCond90) CFA_SP SP+-4
          CFI (cfiCond90) CFA_XSP16 add(XSP16, 35)
          CFI Block cfiCond91 Using cfiCommon0
          CFI (cfiCond91) Function MT_AfDataRequestSrcRtg
          CFI (cfiCond91) Conditional ??CrossCallReturnLabel_83, ??CrossCallReturnLabel_40
          CFI (cfiCond91) R6 load(1, XDATA, add(CFA_XSP16, literal(-20)))
          CFI (cfiCond91) VB load(1, XDATA, add(CFA_XSP16, literal(-19)))
          CFI (cfiCond91) V0 load(1, XDATA, add(CFA_XSP16, literal(-18)))
          CFI (cfiCond91) V1 load(1, XDATA, add(CFA_XSP16, literal(-17)))
          CFI (cfiCond91) V2 load(1, XDATA, add(CFA_XSP16, literal(-16)))
          CFI (cfiCond91) V3 load(1, XDATA, add(CFA_XSP16, literal(-15)))
          CFI (cfiCond91) V4 load(1, XDATA, add(CFA_XSP16, literal(-14)))
          CFI (cfiCond91) V5 load(1, XDATA, add(CFA_XSP16, literal(-13)))
          CFI (cfiCond91) V6 load(1, XDATA, add(CFA_XSP16, literal(-12)))
          CFI (cfiCond91) V7 load(1, XDATA, add(CFA_XSP16, literal(-11)))
          CFI (cfiCond91) V8 load(1, XDATA, add(CFA_XSP16, literal(-10)))
          CFI (cfiCond91) V9 load(1, XDATA, add(CFA_XSP16, literal(-9)))
          CFI (cfiCond91) V10 load(1, XDATA, add(CFA_XSP16, literal(-8)))
          CFI (cfiCond91) V11 load(1, XDATA, add(CFA_XSP16, literal(-7)))
          CFI (cfiCond91) R7 load(1, XDATA, add(CFA_XSP16, literal(-6)))
          CFI (cfiCond91) ?RET_LOW load(1, XDATA, add(CFA_XSP16, literal(-5)))
          CFI (cfiCond91) ?RET_HIGH load(1, XDATA, add(CFA_XSP16, literal(-4)))
          CFI (cfiCond91) ?BRET_EXT load(1, XDATA, add(CFA_XSP16, literal(-3)))
          CFI (cfiCond91) DPL0 load(1, XDATA, add(CFA_XSP16, literal(-2)))
          CFI (cfiCond91) DPH0 load(1, XDATA, add(CFA_XSP16, literal(-1)))
          CFI (cfiCond91) CFA_SP SP+-4
          CFI (cfiCond91) CFA_XSP16 add(XSP16, 34)
          CFI Block cfiPicker92 Using cfiCommon1
          CFI (cfiPicker92) NoFunction
          CFI (cfiPicker92) Picker
        MOVX      @DPTR,A
        MOV       DPL,R6
        MOV       DPH,R7
        INC       DPTR
        RET
          CFI EndBlock cfiCond87
          CFI EndBlock cfiCond88
          CFI EndBlock cfiCond89
          CFI EndBlock cfiCond90
          CFI EndBlock cfiCond91
          CFI EndBlock cfiPicker92

        RSEG BANKED_CODE:HUGECODE:NOROOT(0)
?Subroutine24:
          CFI Block cfiCond93 Using cfiCommon0
          CFI Function MT_AfDataRequest
          CFI Conditional ??CrossCallReturnLabel_39
          CFI R6 load(1, XDATA, add(CFA_XSP16, literal(-21)))
          CFI VB load(1, XDATA, add(CFA_XSP16, literal(-20)))
          CFI V0 load(1, XDATA, add(CFA_XSP16, literal(-19)))
          CFI V1 load(1, XDATA, add(CFA_XSP16, literal(-18)))
          CFI V2 load(1, XDATA, add(CFA_XSP16, literal(-17)))
          CFI V3 load(1, XDATA, add(CFA_XSP16, literal(-16)))
          CFI V4 load(1, XDATA, add(CFA_XSP16, literal(-15)))
          CFI V5 load(1, XDATA, add(CFA_XSP16, literal(-14)))
          CFI V6 load(1, XDATA, add(CFA_XSP16, literal(-13)))
          CFI V7 load(1, XDATA, add(CFA_XSP16, literal(-12)))
          CFI V8 load(1, XDATA, add(CFA_XSP16, literal(-11)))
          CFI V9 load(1, XDATA, add(CFA_XSP16, literal(-10)))
          CFI V10 load(1, XDATA, add(CFA_XSP16, literal(-9)))
          CFI V11 load(1, XDATA, add(CFA_XSP16, literal(-8)))
          CFI V12 load(1, XDATA, add(CFA_XSP16, literal(-7)))
          CFI R7 load(1, XDATA, add(CFA_XSP16, literal(-6)))
          CFI ?RET_LOW load(1, XDATA, add(CFA_XSP16, literal(-5)))
          CFI ?RET_HIGH load(1, XDATA, add(CFA_XSP16, literal(-4)))
          CFI ?BRET_EXT load(1, XDATA, add(CFA_XSP16, literal(-3)))
          CFI DPL0 load(1, XDATA, add(CFA_XSP16, literal(-2)))
          CFI DPH0 load(1, XDATA, add(CFA_XSP16, literal(-1)))
          CFI CFA_SP SP+-2
          CFI CFA_XSP16 add(XSP16, 35)
          CFI Block cfiCond94 Using cfiCommon0
          CFI (cfiCond94) Function MT_AfDataRequestSrcRtg
          CFI (cfiCond94) Conditional ??CrossCallReturnLabel_40
          CFI (cfiCond94) R6 load(1, XDATA, add(CFA_XSP16, literal(-20)))
          CFI (cfiCond94) VB load(1, XDATA, add(CFA_XSP16, literal(-19)))
          CFI (cfiCond94) V0 load(1, XDATA, add(CFA_XSP16, literal(-18)))
          CFI (cfiCond94) V1 load(1, XDATA, add(CFA_XSP16, literal(-17)))
          CFI (cfiCond94) V2 load(1, XDATA, add(CFA_XSP16, literal(-16)))
          CFI (cfiCond94) V3 load(1, XDATA, add(CFA_XSP16, literal(-15)))
          CFI (cfiCond94) V4 load(1, XDATA, add(CFA_XSP16, literal(-14)))
          CFI (cfiCond94) V5 load(1, XDATA, add(CFA_XSP16, literal(-13)))
          CFI (cfiCond94) V6 load(1, XDATA, add(CFA_XSP16, literal(-12)))
          CFI (cfiCond94) V7 load(1, XDATA, add(CFA_XSP16, literal(-11)))
          CFI (cfiCond94) V8 load(1, XDATA, add(CFA_XSP16, literal(-10)))
          CFI (cfiCond94) V9 load(1, XDATA, add(CFA_XSP16, literal(-9)))
          CFI (cfiCond94) V10 load(1, XDATA, add(CFA_XSP16, literal(-8)))
          CFI (cfiCond94) V11 load(1, XDATA, add(CFA_XSP16, literal(-7)))
          CFI (cfiCond94) R7 load(1, XDATA, add(CFA_XSP16, literal(-6)))
          CFI (cfiCond94) ?RET_LOW load(1, XDATA, add(CFA_XSP16, literal(-5)))
          CFI (cfiCond94) ?RET_HIGH load(1, XDATA, add(CFA_XSP16, literal(-4)))
          CFI (cfiCond94) ?BRET_EXT load(1, XDATA, add(CFA_XSP16, literal(-3)))
          CFI (cfiCond94) DPL0 load(1, XDATA, add(CFA_XSP16, literal(-2)))
          CFI (cfiCond94) DPH0 load(1, XDATA, add(CFA_XSP16, literal(-1)))
          CFI (cfiCond94) CFA_SP SP+-2
          CFI (cfiCond94) CFA_XSP16 add(XSP16, 34)
          CFI Block cfiPicker95 Using cfiCommon1
          CFI (cfiPicker95) NoFunction
          CFI (cfiPicker95) Picker
        MOV       A,R2
        MOVX      @DPTR,A
        INC       DPTR
        MOV       A,R3
        LCALL     ?Subroutine44 & 0xFFFF
??CrossCallReturnLabel_83:
        INC       DPTR
        MOVX      A,@DPTR
        RET
          CFI EndBlock cfiCond93
          CFI EndBlock cfiCond94
          CFI EndBlock cfiPicker95

        RSEG BANKED_CODE:HUGECODE:NOROOT(0)
?Subroutine12:
          CFI Block cfiCond96 Using cfiCommon0
          CFI Function MT_AfDataRequest
          CFI Conditional ??CrossCallReturnLabel_18
          CFI R6 load(1, XDATA, add(CFA_XSP16, literal(-21)))
          CFI VB load(1, XDATA, add(CFA_XSP16, literal(-20)))
          CFI V0 load(1, XDATA, add(CFA_XSP16, literal(-19)))
          CFI V1 load(1, XDATA, add(CFA_XSP16, literal(-18)))
          CFI V2 load(1, XDATA, add(CFA_XSP16, literal(-17)))
          CFI V3 load(1, XDATA, add(CFA_XSP16, literal(-16)))
          CFI V4 load(1, XDATA, add(CFA_XSP16, literal(-15)))
          CFI V5 load(1, XDATA, add(CFA_XSP16, literal(-14)))
          CFI V6 load(1, XDATA, add(CFA_XSP16, literal(-13)))
          CFI V7 load(1, XDATA, add(CFA_XSP16, literal(-12)))
          CFI V8 load(1, XDATA, add(CFA_XSP16, literal(-11)))
          CFI V9 load(1, XDATA, add(CFA_XSP16, literal(-10)))
          CFI V10 load(1, XDATA, add(CFA_XSP16, literal(-9)))
          CFI V11 load(1, XDATA, add(CFA_XSP16, literal(-8)))
          CFI V12 load(1, XDATA, add(CFA_XSP16, literal(-7)))
          CFI R7 load(1, XDATA, add(CFA_XSP16, literal(-6)))
          CFI ?RET_LOW load(1, XDATA, add(CFA_XSP16, literal(-5)))
          CFI ?RET_HIGH load(1, XDATA, add(CFA_XSP16, literal(-4)))
          CFI ?BRET_EXT load(1, XDATA, add(CFA_XSP16, literal(-3)))
          CFI DPL0 load(1, XDATA, add(CFA_XSP16, literal(-2)))
          CFI DPH0 load(1, XDATA, add(CFA_XSP16, literal(-1)))
          CFI CFA_SP SP+-2
          CFI CFA_XSP16 add(XSP16, 35)
          CFI Block cfiCond97 Using cfiCommon0
          CFI (cfiCond97) Function MT_AfDataRequestSrcRtg
          CFI (cfiCond97) Conditional ??CrossCallReturnLabel_19
          CFI (cfiCond97) R6 load(1, XDATA, add(CFA_XSP16, literal(-20)))
          CFI (cfiCond97) VB load(1, XDATA, add(CFA_XSP16, literal(-19)))
          CFI (cfiCond97) V0 load(1, XDATA, add(CFA_XSP16, literal(-18)))
          CFI (cfiCond97) V1 load(1, XDATA, add(CFA_XSP16, literal(-17)))
          CFI (cfiCond97) V2 load(1, XDATA, add(CFA_XSP16, literal(-16)))
          CFI (cfiCond97) V3 load(1, XDATA, add(CFA_XSP16, literal(-15)))
          CFI (cfiCond97) V4 load(1, XDATA, add(CFA_XSP16, literal(-14)))
          CFI (cfiCond97) V5 load(1, XDATA, add(CFA_XSP16, literal(-13)))
          CFI (cfiCond97) V6 load(1, XDATA, add(CFA_XSP16, literal(-12)))
          CFI (cfiCond97) V7 load(1, XDATA, add(CFA_XSP16, literal(-11)))
          CFI (cfiCond97) V8 load(1, XDATA, add(CFA_XSP16, literal(-10)))
          CFI (cfiCond97) V9 load(1, XDATA, add(CFA_XSP16, literal(-9)))
          CFI (cfiCond97) V10 load(1, XDATA, add(CFA_XSP16, literal(-8)))
          CFI (cfiCond97) V11 load(1, XDATA, add(CFA_XSP16, literal(-7)))
          CFI (cfiCond97) R7 load(1, XDATA, add(CFA_XSP16, literal(-6)))
          CFI (cfiCond97) ?RET_LOW load(1, XDATA, add(CFA_XSP16, literal(-5)))
          CFI (cfiCond97) ?RET_HIGH load(1, XDATA, add(CFA_XSP16, literal(-4)))
          CFI (cfiCond97) ?BRET_EXT load(1, XDATA, add(CFA_XSP16, literal(-3)))
          CFI (cfiCond97) DPL0 load(1, XDATA, add(CFA_XSP16, literal(-2)))
          CFI (cfiCond97) DPH0 load(1, XDATA, add(CFA_XSP16, literal(-1)))
          CFI (cfiCond97) CFA_SP SP+-2
          CFI (cfiCond97) CFA_XSP16 add(XSP16, 34)
          CFI Block cfiPicker98 Using cfiCommon1
          CFI (cfiPicker98) NoFunction
          CFI (cfiPicker98) Picker
        INC       DPTR
        INC       DPTR
        INC       DPTR
        MOVX      A,@DPTR
        MOV       ?V8,A
        MOV       DPL,R6
        MOV       DPH,R7
        INC       DPTR
        INC       DPTR
        INC       DPTR
        INC       DPTR
        RET
          CFI EndBlock cfiCond96
          CFI EndBlock cfiCond97
          CFI EndBlock cfiPicker98
//  548 #endif
//  549 
//  550 #if defined INTER_PAN
//  551 /***************************************************************************************************
//  552  * @fn      MT_AfInterPanCtl
//  553  *
//  554  * @brief   Process the AF Inter Pan control command.
//  555  *
//  556  * @param   pBuf - pointer to the received buffer
//  557  *
//  558  * @return  none
//  559  ***************************************************************************************************/
//  560 static void MT_AfInterPanCtl(uint8 *pBuf)
//  561 {
//  562   uint8 cmd, rtrn;
//  563   uint16 panId;
//  564   endPointDesc_t *pEP;
//  565 
//  566   cmd = pBuf[MT_RPC_POS_CMD1];
//  567   pBuf += MT_RPC_FRAME_HDR_SZ;
//  568 
//  569   switch (*pBuf++)  // Inter-pan request parameter.
//  570   {
//  571   case InterPanClr:
//  572     rtrn = StubAPS_SetIntraPanChannel();           // Switch channel back to the NIB channel.
//  573     break;
//  574 
//  575   case InterPanSet:
//  576     rtrn = StubAPS_SetInterPanChannel(*pBuf);      // Set channel for inter-pan communication.
//  577     break;
//  578 
//  579   case InterPanReg:
//  580     if ((pEP = afFindEndPointDesc(*pBuf)))
//  581     {
//  582       StubAPS_RegisterApp(pEP);
//  583       rtrn = SUCCESS;
//  584     }
//  585     else
//  586     {
//  587       rtrn = FAILURE;
//  588     }
//  589     break;
//  590 
//  591   case InterPanChk:
//  592     panId = osal_build_uint16( pBuf );
//  593     rtrn = (StubAPS_InterPan(panId, pBuf[2])) ? ZSuccess : ZFailure;
//  594     break;
//  595 
//  596   default:
//  597     rtrn = afStatus_INVALID_PARAMETER;
//  598     break;
//  599   }
//  600 
//  601   MT_BuildAndSendZToolResponse(((uint8)MT_RPC_CMD_SRSP | (uint8)MT_RPC_SYS_AF), cmd, 1, &rtrn);
//  602 }
//  603 #endif
//  604 
//  605 /***************************************************************************************************
//  606  * @fn      MT_AfDataConfirm
//  607  *
//  608  * @brief   Process
//  609  *
//  610  * @param   pBuf - pointer to the received buffer
//  611  *
//  612  * @return  none
//  613  ***************************************************************************************************/

        RSEG BANKED_CODE:HUGECODE:NOROOT(0)
//  614 void MT_AfDataConfirm(afDataConfirm_t *pMsg)
MT_AfDataConfirm:
          CFI Block cfiBlock99 Using cfiCommon0
          CFI Function MT_AfDataConfirm
        CODE
//  615 {
        FUNCALL MT_AfDataConfirm, MT_BuildAndSendZToolResponse
        LOCFRAME ISTACK, 2, STACK
        LOCFRAME PSTACK, 0, STACK
        LOCFRAME XSTACK, 3, STACK
        LOCFRAME IOVERLAY, 0, STATIC
        LOCFRAME DOVERLAY, 0, STATIC
        ARGFRAME ISTACK, 2, STACK
        ARGFRAME PSTACK, 0, STACK
        ARGFRAME XSTACK, 3, STACK
        ARGFRAME IOVERLAY, 0, STATIC
        ARGFRAME DOVERLAY, 0, STATIC
        PUSH      DPL
          CFI DPL0 Frame(CFA_SP, 4)
          CFI CFA_SP SP+-4
        PUSH      DPH
          CFI DPH0 Frame(CFA_SP, 5)
          CFI CFA_SP SP+-5
        ; Saved register size: 2
        ; Auto size: 3
        MOV       A,#-0x3
        LCALL     ?ALLOC_XSTACK8
          CFI CFA_XSP16 add(XSP16, 3)
//  616   uint8 retArray[3];
//  617 
//  618   retArray[0] = pMsg->hdr.status;
        LCALL     ?Subroutine5 & 0xFFFF
//  619   retArray[1] = pMsg->endpoint;
??CrossCallReturnLabel_4:
        PUSH      A
          CFI CFA_SP SP+-6
        MOV       A,#0x1
        LCALL     ?XSTACK_DISP0_8
        POP       A
          CFI CFA_SP SP+-5
        LCALL     ?Subroutine28 & 0xFFFF
//  620   retArray[2] = pMsg->transID;
??CrossCallReturnLabel_49:
        PUSH      A
          CFI CFA_SP SP+-6
        MOV       A,#0x2
        LCALL     ?XSTACK_DISP0_8
        POP       A
          CFI CFA_SP SP+-5
        LCALL     ?Subroutine27 & 0xFFFF
//  621 
//  622   /* Build and send back the response */
//  623   MT_BuildAndSendZToolResponse(((uint8)MT_RPC_CMD_AREQ | (uint8)MT_RPC_SYS_AF), MT_AF_DATA_CONFIRM, 3, retArray);
??CrossCallReturnLabel_46:
        MOV       R3,#0x3
        MOV       R2,#-0x80
        MOV       R1,#0x44
        LCALL     `??MT_BuildAndSendZToolResponse::?relay`; Banked call to: MT_BuildAndSendZToolResponse
//  624 }
        MOV       A,#0x3
          CFI EndBlock cfiBlock99
        REQUIRE ?Subroutine1
        ; // Fall through to label ?Subroutine1

        RSEG BANKED_CODE:HUGECODE:NOROOT(0)
?Subroutine1:
          CFI Block cfiBlock100 Using cfiCommon0
          CFI NoFunction
          CFI CFA_SP SP+-5
          CFI CFA_XSP16 add(XSP16, 3)
          CFI DPL0 Frame(CFA_SP, 4)
          CFI DPH0 Frame(CFA_SP, 5)
          CFI Invalid
        LCALL     ?DEALLOC_XSTACK8
          CFI CFA_XSP16 XSP16+0
          CFI Valid
        POP       DPH
          CFI CFA_SP SP+-4
          CFI DPH0 SameValue
        POP       DPL
          CFI CFA_SP SP+-3
          CFI DPL0 SameValue
        LJMP      ?BRET
          CFI EndBlock cfiBlock100
//  625 
//  626 /***************************************************************************************************
//  627  * @fn      MT_AfReflectError
//  628  *
//  629  * @brief   Process
//  630  *
//  631  * @param   pBuf - pointer to the received buffer
//  632  *
//  633  * @return  none
//  634  ***************************************************************************************************/

        RSEG BANKED_CODE:HUGECODE:NOROOT(0)
//  635 void MT_AfReflectError(afReflectError_t *pMsg)
MT_AfReflectError:
          CFI Block cfiBlock101 Using cfiCommon0
          CFI Function MT_AfReflectError
        CODE
//  636 {
        FUNCALL MT_AfReflectError, MT_BuildAndSendZToolResponse
        LOCFRAME ISTACK, 2, STACK
        LOCFRAME PSTACK, 0, STACK
        LOCFRAME XSTACK, 6, STACK
        LOCFRAME IOVERLAY, 0, STATIC
        LOCFRAME DOVERLAY, 0, STATIC
        ARGFRAME ISTACK, 2, STACK
        ARGFRAME PSTACK, 0, STACK
        ARGFRAME XSTACK, 6, STACK
        ARGFRAME IOVERLAY, 0, STATIC
        ARGFRAME DOVERLAY, 0, STATIC
        PUSH      DPL
          CFI DPL0 Frame(CFA_SP, 4)
          CFI CFA_SP SP+-4
        PUSH      DPH
          CFI DPH0 Frame(CFA_SP, 5)
          CFI CFA_SP SP+-5
        ; Saved register size: 2
        ; Auto size: 6
        MOV       A,#-0x6
        LCALL     ?ALLOC_XSTACK8
          CFI CFA_XSP16 add(XSP16, 6)
//  637   uint8 retArray[6];
//  638 
//  639   retArray[0] = pMsg->hdr.status;
        LCALL     ?Subroutine5 & 0xFFFF
//  640   retArray[1] = pMsg->endpoint;
??CrossCallReturnLabel_5:
        PUSH      A
          CFI CFA_SP SP+-6
        MOV       A,#0x1
        LCALL     ?XSTACK_DISP0_8
        POP       A
          CFI CFA_SP SP+-5
        LCALL     ?Subroutine28 & 0xFFFF
//  641   retArray[2] = pMsg->transID;
??CrossCallReturnLabel_50:
        PUSH      A
          CFI CFA_SP SP+-6
        MOV       A,#0x2
        LCALL     ?XSTACK_DISP0_8
        POP       A
          CFI CFA_SP SP+-5
        LCALL     ?Subroutine26 & 0xFFFF
//  642   retArray[3] = pMsg->dstAddrMode;
??CrossCallReturnLabel_44:
        MOVX      A,@DPTR
        PUSH      A
          CFI CFA_SP SP+-6
        MOV       A,#0x3
        LCALL     ?XSTACK_DISP0_8
        POP       A
          CFI CFA_SP SP+-5
        MOVX      @DPTR,A
//  643   retArray[4] = LO_UINT16( pMsg->dstAddr );
        MOV       A,R2
        ADD       A,#0x5
        MOV       R0,A
        CLR       A
        ADDC      A,R3
        MOV       R1,A
        MOV       DPL,R0
        MOV       DPH,A
        MOVX      A,@DPTR
        PUSH      A
          CFI CFA_SP SP+-6
        MOV       A,#0x4
        LCALL     ?XSTACK_DISP0_8
        POP       A
          CFI CFA_SP SP+-5
        LCALL     ?Subroutine43 & 0xFFFF
//  644   retArray[5] = HI_UINT16( pMsg->dstAddr );
??CrossCallReturnLabel_78:
        MOVX      A,@DPTR
        PUSH      A
          CFI CFA_SP SP+-6
        MOV       A,#0x5
        LCALL     ?XSTACK_DISP0_8
        POP       A
          CFI CFA_SP SP+-5
        LCALL     ?Subroutine27 & 0xFFFF
//  645 
//  646   /* Build and send back the response */
//  647   MT_BuildAndSendZToolResponse(((uint8)MT_RPC_CMD_AREQ | (uint8)MT_RPC_SYS_AF), MT_AF_REFLECT_ERROR, 6, retArray);
??CrossCallReturnLabel_47:
        MOV       R3,#0x6
        MOV       R2,#-0x7d
        MOV       R1,#0x44
        LCALL     `??MT_BuildAndSendZToolResponse::?relay`; Banked call to: MT_BuildAndSendZToolResponse
//  648 }
        MOV       A,#0x6
        SJMP      ?Subroutine1
          CFI EndBlock cfiBlock101

        RSEG BANKED_CODE:HUGECODE:NOROOT(0)
?Subroutine28:
          CFI Block cfiCond102 Using cfiCommon0
          CFI Function MT_AfDataConfirm
          CFI Conditional ??CrossCallReturnLabel_49
          CFI DPL0 Frame(CFA_SP, 4)
          CFI DPH0 Frame(CFA_SP, 5)
          CFI CFA_SP SP+-7
          CFI CFA_XSP16 add(XSP16, 3)
          CFI Block cfiCond103 Using cfiCommon0
          CFI (cfiCond103) Function MT_AfReflectError
          CFI (cfiCond103) Conditional ??CrossCallReturnLabel_50
          CFI (cfiCond103) DPL0 Frame(CFA_SP, 4)
          CFI (cfiCond103) DPH0 Frame(CFA_SP, 5)
          CFI (cfiCond103) CFA_SP SP+-7
          CFI (cfiCond103) CFA_XSP16 add(XSP16, 6)
          CFI Block cfiPicker104 Using cfiCommon1
          CFI (cfiPicker104) NoFunction
          CFI (cfiPicker104) Picker
        LCALL     ?Subroutine46 & 0xFFFF
??CrossCallReturnLabel_87:
        MOVX      A,@DPTR
        RET
          CFI EndBlock cfiCond102
          CFI EndBlock cfiCond103
          CFI EndBlock cfiPicker104

        RSEG BANKED_CODE:HUGECODE:NOROOT(0)
?Subroutine27:
          CFI Block cfiCond105 Using cfiCommon0
          CFI Function MT_AfCommandProcessing
          CFI Conditional ??CrossCallReturnLabel_45
          CFI R6 load(1, XDATA, add(CFA_XSP16, literal(-14)))
          CFI VB load(1, XDATA, add(CFA_XSP16, literal(-13)))
          CFI V0 load(1, XDATA, add(CFA_XSP16, literal(-12)))
          CFI V1 load(1, XDATA, add(CFA_XSP16, literal(-11)))
          CFI V2 load(1, XDATA, add(CFA_XSP16, literal(-10)))
          CFI V3 load(1, XDATA, add(CFA_XSP16, literal(-9)))
          CFI V4 load(1, XDATA, add(CFA_XSP16, literal(-8)))
          CFI V5 load(1, XDATA, add(CFA_XSP16, literal(-7)))
          CFI R7 load(1, XDATA, add(CFA_XSP16, literal(-6)))
          CFI ?RET_LOW load(1, XDATA, add(CFA_XSP16, literal(-5)))
          CFI ?RET_HIGH load(1, XDATA, add(CFA_XSP16, literal(-4)))
          CFI ?BRET_EXT load(1, XDATA, add(CFA_XSP16, literal(-3)))
          CFI DPL0 load(1, XDATA, add(CFA_XSP16, literal(-2)))
          CFI DPH0 load(1, XDATA, add(CFA_XSP16, literal(-1)))
          CFI CFA_SP SP+-2
          CFI CFA_XSP16 add(XSP16, 20)
          CFI Block cfiCond106 Using cfiCommon0
          CFI (cfiCond106) Function MT_AfDataConfirm
          CFI (cfiCond106) Conditional ??CrossCallReturnLabel_46
          CFI (cfiCond106) DPL0 Frame(CFA_SP, 4)
          CFI (cfiCond106) DPH0 Frame(CFA_SP, 5)
          CFI (cfiCond106) CFA_SP SP+-7
          CFI (cfiCond106) CFA_XSP16 add(XSP16, 3)
          CFI Block cfiCond107 Using cfiCommon0
          CFI (cfiCond107) Function MT_AfReflectError
          CFI (cfiCond107) Conditional ??CrossCallReturnLabel_47
          CFI (cfiCond107) DPL0 Frame(CFA_SP, 4)
          CFI (cfiCond107) DPH0 Frame(CFA_SP, 5)
          CFI (cfiCond107) CFA_SP SP+-7
          CFI (cfiCond107) CFA_XSP16 add(XSP16, 6)
          CFI Block cfiCond108 Using cfiCommon0
          CFI (cfiCond108) Function MT_AfDataStore
          CFI (cfiCond108) Conditional ??CrossCallReturnLabel_48
          CFI (cfiCond108) R6 load(1, XDATA, add(CFA_XSP16, literal(-14)))
          CFI (cfiCond108) VB load(1, XDATA, add(CFA_XSP16, literal(-13)))
          CFI (cfiCond108) V0 load(1, XDATA, add(CFA_XSP16, literal(-12)))
          CFI (cfiCond108) V1 load(1, XDATA, add(CFA_XSP16, literal(-11)))
          CFI (cfiCond108) V2 load(1, XDATA, add(CFA_XSP16, literal(-10)))
          CFI (cfiCond108) V3 load(1, XDATA, add(CFA_XSP16, literal(-9)))
          CFI (cfiCond108) V4 load(1, XDATA, add(CFA_XSP16, literal(-8)))
          CFI (cfiCond108) V5 load(1, XDATA, add(CFA_XSP16, literal(-7)))
          CFI (cfiCond108) R7 load(1, XDATA, add(CFA_XSP16, literal(-6)))
          CFI (cfiCond108) ?RET_LOW load(1, XDATA, add(CFA_XSP16, literal(-5)))
          CFI (cfiCond108) ?RET_HIGH load(1, XDATA, add(CFA_XSP16, literal(-4)))
          CFI (cfiCond108) ?BRET_EXT load(1, XDATA, add(CFA_XSP16, literal(-3)))
          CFI (cfiCond108) DPL0 load(1, XDATA, add(CFA_XSP16, literal(-2)))
          CFI (cfiCond108) DPH0 load(1, XDATA, add(CFA_XSP16, literal(-1)))
          CFI (cfiCond108) CFA_SP SP+-2
          CFI (cfiCond108) CFA_XSP16 add(XSP16, 15)
          CFI Block cfiPicker109 Using cfiCommon1
          CFI (cfiPicker109) NoFunction
          CFI (cfiPicker109) Picker
        MOVX      @DPTR,A
        ; Setup parameters for call to function MT_BuildAndSendZToolResponse
        ; Setup parameters for call to function MT_BuildAndSendZToolResponse
        ; Setup parameters for call to function MT_BuildAndSendZToolResponse
        ; Setup parameters for call to function MT_BuildAndSendZToolResponse
        MOV       R4,?XSP + 0
        MOV       R5,?XSP + 1
        RET
          CFI EndBlock cfiCond105
          CFI EndBlock cfiCond106
          CFI EndBlock cfiCond107
          CFI EndBlock cfiCond108
          CFI EndBlock cfiPicker109

        RSEG BANKED_CODE:HUGECODE:NOROOT(0)
?Subroutine26:
          CFI Block cfiCond110 Using cfiCommon0
          CFI Function MT_AfCommandProcessing
          CFI Conditional ??CrossCallReturnLabel_43
          CFI R6 load(1, XDATA, add(CFA_XSP16, literal(-14)))
          CFI VB load(1, XDATA, add(CFA_XSP16, literal(-13)))
          CFI V0 load(1, XDATA, add(CFA_XSP16, literal(-12)))
          CFI V1 load(1, XDATA, add(CFA_XSP16, literal(-11)))
          CFI V2 load(1, XDATA, add(CFA_XSP16, literal(-10)))
          CFI V3 load(1, XDATA, add(CFA_XSP16, literal(-9)))
          CFI V4 load(1, XDATA, add(CFA_XSP16, literal(-8)))
          CFI V5 load(1, XDATA, add(CFA_XSP16, literal(-7)))
          CFI R7 load(1, XDATA, add(CFA_XSP16, literal(-6)))
          CFI ?RET_LOW load(1, XDATA, add(CFA_XSP16, literal(-5)))
          CFI ?RET_HIGH load(1, XDATA, add(CFA_XSP16, literal(-4)))
          CFI ?BRET_EXT load(1, XDATA, add(CFA_XSP16, literal(-3)))
          CFI DPL0 load(1, XDATA, add(CFA_XSP16, literal(-2)))
          CFI DPH0 load(1, XDATA, add(CFA_XSP16, literal(-1)))
          CFI CFA_SP SP+-2
          CFI CFA_XSP16 add(XSP16, 20)
          CFI Block cfiCond111 Using cfiCommon0
          CFI (cfiCond111) Function MT_AfReflectError
          CFI (cfiCond111) Conditional ??CrossCallReturnLabel_44
          CFI (cfiCond111) DPL0 Frame(CFA_SP, 4)
          CFI (cfiCond111) DPH0 Frame(CFA_SP, 5)
          CFI (cfiCond111) CFA_SP SP+-7
          CFI (cfiCond111) CFA_XSP16 add(XSP16, 6)
          CFI Block cfiPicker112 Using cfiCommon1
          CFI (cfiPicker112) NoFunction
          CFI (cfiPicker112) Picker
        LCALL     ?Subroutine46 & 0xFFFF
??CrossCallReturnLabel_88:
        INC       DPTR
        RET
          CFI EndBlock cfiCond110
          CFI EndBlock cfiCond111
          CFI EndBlock cfiPicker112

        RSEG BANKED_CODE:HUGECODE:NOROOT(0)
?Subroutine46:
          CFI Block cfiCond113 Using cfiCommon0
          CFI Function MT_AfDataConfirm
          CFI Conditional ??CrossCallReturnLabel_87, ??CrossCallReturnLabel_49
          CFI DPL0 Frame(CFA_SP, 4)
          CFI DPH0 Frame(CFA_SP, 5)
          CFI CFA_SP SP+-9
          CFI CFA_XSP16 add(XSP16, 3)
          CFI Block cfiCond114 Using cfiCommon0
          CFI (cfiCond114) Function MT_AfReflectError
          CFI (cfiCond114) Conditional ??CrossCallReturnLabel_87, ??CrossCallReturnLabel_50
          CFI (cfiCond114) DPL0 Frame(CFA_SP, 4)
          CFI (cfiCond114) DPH0 Frame(CFA_SP, 5)
          CFI (cfiCond114) CFA_SP SP+-9
          CFI (cfiCond114) CFA_XSP16 add(XSP16, 6)
          CFI Block cfiCond115 Using cfiCommon0
          CFI (cfiCond115) Function MT_AfCommandProcessing
          CFI (cfiCond115) Conditional ??CrossCallReturnLabel_88, ??CrossCallReturnLabel_43
          CFI (cfiCond115) R6 load(1, XDATA, add(CFA_XSP16, literal(-14)))
          CFI (cfiCond115) VB load(1, XDATA, add(CFA_XSP16, literal(-13)))
          CFI (cfiCond115) V0 load(1, XDATA, add(CFA_XSP16, literal(-12)))
          CFI (cfiCond115) V1 load(1, XDATA, add(CFA_XSP16, literal(-11)))
          CFI (cfiCond115) V2 load(1, XDATA, add(CFA_XSP16, literal(-10)))
          CFI (cfiCond115) V3 load(1, XDATA, add(CFA_XSP16, literal(-9)))
          CFI (cfiCond115) V4 load(1, XDATA, add(CFA_XSP16, literal(-8)))
          CFI (cfiCond115) V5 load(1, XDATA, add(CFA_XSP16, literal(-7)))
          CFI (cfiCond115) R7 load(1, XDATA, add(CFA_XSP16, literal(-6)))
          CFI (cfiCond115) ?RET_LOW load(1, XDATA, add(CFA_XSP16, literal(-5)))
          CFI (cfiCond115) ?RET_HIGH load(1, XDATA, add(CFA_XSP16, literal(-4)))
          CFI (cfiCond115) ?BRET_EXT load(1, XDATA, add(CFA_XSP16, literal(-3)))
          CFI (cfiCond115) DPL0 load(1, XDATA, add(CFA_XSP16, literal(-2)))
          CFI (cfiCond115) DPH0 load(1, XDATA, add(CFA_XSP16, literal(-1)))
          CFI (cfiCond115) CFA_SP SP+-4
          CFI (cfiCond115) CFA_XSP16 add(XSP16, 20)
          CFI Block cfiCond116 Using cfiCommon0
          CFI (cfiCond116) Function MT_AfReflectError
          CFI (cfiCond116) Conditional ??CrossCallReturnLabel_88, ??CrossCallReturnLabel_44
          CFI (cfiCond116) DPL0 Frame(CFA_SP, 4)
          CFI (cfiCond116) DPH0 Frame(CFA_SP, 5)
          CFI (cfiCond116) CFA_SP SP+-9
          CFI (cfiCond116) CFA_XSP16 add(XSP16, 6)
          CFI Block cfiPicker117 Using cfiCommon1
          CFI (cfiPicker117) NoFunction
          CFI (cfiPicker117) Picker
        LCALL     ?Subroutine49 & 0xFFFF
??CrossCallReturnLabel_93:
        INC       DPTR
        INC       DPTR
        RET
          CFI EndBlock cfiCond113
          CFI EndBlock cfiCond114
          CFI EndBlock cfiCond115
          CFI EndBlock cfiCond116
          CFI EndBlock cfiPicker117

        RSEG BANKED_CODE:HUGECODE:NOROOT(0)
?Subroutine49:
          CFI Block cfiCond118 Using cfiCommon0
          CFI Function MT_AfDataRequest
          CFI Conditional ??CrossCallReturnLabel_92
          CFI R6 load(1, XDATA, add(CFA_XSP16, literal(-21)))
          CFI VB load(1, XDATA, add(CFA_XSP16, literal(-20)))
          CFI V0 load(1, XDATA, add(CFA_XSP16, literal(-19)))
          CFI V1 load(1, XDATA, add(CFA_XSP16, literal(-18)))
          CFI V2 load(1, XDATA, add(CFA_XSP16, literal(-17)))
          CFI V3 load(1, XDATA, add(CFA_XSP16, literal(-16)))
          CFI V4 load(1, XDATA, add(CFA_XSP16, literal(-15)))
          CFI V5 load(1, XDATA, add(CFA_XSP16, literal(-14)))
          CFI V6 load(1, XDATA, add(CFA_XSP16, literal(-13)))
          CFI V7 load(1, XDATA, add(CFA_XSP16, literal(-12)))
          CFI V8 load(1, XDATA, add(CFA_XSP16, literal(-11)))
          CFI V9 load(1, XDATA, add(CFA_XSP16, literal(-10)))
          CFI V10 load(1, XDATA, add(CFA_XSP16, literal(-9)))
          CFI V11 load(1, XDATA, add(CFA_XSP16, literal(-8)))
          CFI V12 load(1, XDATA, add(CFA_XSP16, literal(-7)))
          CFI R7 load(1, XDATA, add(CFA_XSP16, literal(-6)))
          CFI ?RET_LOW load(1, XDATA, add(CFA_XSP16, literal(-5)))
          CFI ?RET_HIGH load(1, XDATA, add(CFA_XSP16, literal(-4)))
          CFI ?BRET_EXT load(1, XDATA, add(CFA_XSP16, literal(-3)))
          CFI DPL0 load(1, XDATA, add(CFA_XSP16, literal(-2)))
          CFI DPH0 load(1, XDATA, add(CFA_XSP16, literal(-1)))
          CFI CFA_SP SP+-2
          CFI CFA_XSP16 add(XSP16, 35)
          CFI Block cfiCond119 Using cfiCommon0
          CFI (cfiCond119) Function MT_AfDataConfirm
          CFI (cfiCond119) Conditional ??CrossCallReturnLabel_93, ??CrossCallReturnLabel_87, ??CrossCallReturnLabel_49
          CFI (cfiCond119) DPL0 Frame(CFA_SP, 4)
          CFI (cfiCond119) DPH0 Frame(CFA_SP, 5)
          CFI (cfiCond119) CFA_SP SP+-11
          CFI (cfiCond119) CFA_XSP16 add(XSP16, 3)
          CFI Block cfiCond120 Using cfiCommon0
          CFI (cfiCond120) Function MT_AfReflectError
          CFI (cfiCond120) Conditional ??CrossCallReturnLabel_93, ??CrossCallReturnLabel_87, ??CrossCallReturnLabel_50
          CFI (cfiCond120) DPL0 Frame(CFA_SP, 4)
          CFI (cfiCond120) DPH0 Frame(CFA_SP, 5)
          CFI (cfiCond120) CFA_SP SP+-11
          CFI (cfiCond120) CFA_XSP16 add(XSP16, 6)
          CFI Block cfiCond121 Using cfiCommon0
          CFI (cfiCond121) Function MT_AfCommandProcessing
          CFI (cfiCond121) Conditional ??CrossCallReturnLabel_93, ??CrossCallReturnLabel_88, ??CrossCallReturnLabel_43
          CFI (cfiCond121) R6 load(1, XDATA, add(CFA_XSP16, literal(-14)))
          CFI (cfiCond121) VB load(1, XDATA, add(CFA_XSP16, literal(-13)))
          CFI (cfiCond121) V0 load(1, XDATA, add(CFA_XSP16, literal(-12)))
          CFI (cfiCond121) V1 load(1, XDATA, add(CFA_XSP16, literal(-11)))
          CFI (cfiCond121) V2 load(1, XDATA, add(CFA_XSP16, literal(-10)))
          CFI (cfiCond121) V3 load(1, XDATA, add(CFA_XSP16, literal(-9)))
          CFI (cfiCond121) V4 load(1, XDATA, add(CFA_XSP16, literal(-8)))
          CFI (cfiCond121) V5 load(1, XDATA, add(CFA_XSP16, literal(-7)))
          CFI (cfiCond121) R7 load(1, XDATA, add(CFA_XSP16, literal(-6)))
          CFI (cfiCond121) ?RET_LOW load(1, XDATA, add(CFA_XSP16, literal(-5)))
          CFI (cfiCond121) ?RET_HIGH load(1, XDATA, add(CFA_XSP16, literal(-4)))
          CFI (cfiCond121) ?BRET_EXT load(1, XDATA, add(CFA_XSP16, literal(-3)))
          CFI (cfiCond121) DPL0 load(1, XDATA, add(CFA_XSP16, literal(-2)))
          CFI (cfiCond121) DPH0 load(1, XDATA, add(CFA_XSP16, literal(-1)))
          CFI (cfiCond121) CFA_SP SP+-6
          CFI (cfiCond121) CFA_XSP16 add(XSP16, 20)
          CFI Block cfiCond122 Using cfiCommon0
          CFI (cfiCond122) Function MT_AfReflectError
          CFI (cfiCond122) Conditional ??CrossCallReturnLabel_93, ??CrossCallReturnLabel_88, ??CrossCallReturnLabel_44
          CFI (cfiCond122) DPL0 Frame(CFA_SP, 4)
          CFI (cfiCond122) DPH0 Frame(CFA_SP, 5)
          CFI (cfiCond122) CFA_SP SP+-11
          CFI (cfiCond122) CFA_XSP16 add(XSP16, 6)
          CFI Block cfiCond123 Using cfiCommon0
          CFI (cfiCond123) Function MT_AfCommandProcessing
          CFI (cfiCond123) Conditional ??CrossCallReturnLabel_94, ??CrossCallReturnLabel_75, ??CrossCallReturnLabel_41
          CFI (cfiCond123) R6 load(1, XDATA, add(CFA_XSP16, literal(-14)))
          CFI (cfiCond123) VB load(1, XDATA, add(CFA_XSP16, literal(-13)))
          CFI (cfiCond123) V0 load(1, XDATA, add(CFA_XSP16, literal(-12)))
          CFI (cfiCond123) V1 load(1, XDATA, add(CFA_XSP16, literal(-11)))
          CFI (cfiCond123) V2 load(1, XDATA, add(CFA_XSP16, literal(-10)))
          CFI (cfiCond123) V3 load(1, XDATA, add(CFA_XSP16, literal(-9)))
          CFI (cfiCond123) V4 load(1, XDATA, add(CFA_XSP16, literal(-8)))
          CFI (cfiCond123) V5 load(1, XDATA, add(CFA_XSP16, literal(-7)))
          CFI (cfiCond123) R7 load(1, XDATA, add(CFA_XSP16, literal(-6)))
          CFI (cfiCond123) ?RET_LOW load(1, XDATA, add(CFA_XSP16, literal(-5)))
          CFI (cfiCond123) ?RET_HIGH load(1, XDATA, add(CFA_XSP16, literal(-4)))
          CFI (cfiCond123) ?BRET_EXT load(1, XDATA, add(CFA_XSP16, literal(-3)))
          CFI (cfiCond123) DPL0 load(1, XDATA, add(CFA_XSP16, literal(-2)))
          CFI (cfiCond123) DPH0 load(1, XDATA, add(CFA_XSP16, literal(-1)))
          CFI (cfiCond123) CFA_SP SP+-6
          CFI (cfiCond123) CFA_XSP16 add(XSP16, 20)
          CFI Block cfiCond124 Using cfiCommon0
          CFI (cfiCond124) Function MT_AfCommandProcessing
          CFI (cfiCond124) Conditional ??CrossCallReturnLabel_94, ??CrossCallReturnLabel_75, ??CrossCallReturnLabel_42
          CFI (cfiCond124) R6 load(1, XDATA, add(CFA_XSP16, literal(-14)))
          CFI (cfiCond124) VB load(1, XDATA, add(CFA_XSP16, literal(-13)))
          CFI (cfiCond124) V0 load(1, XDATA, add(CFA_XSP16, literal(-12)))
          CFI (cfiCond124) V1 load(1, XDATA, add(CFA_XSP16, literal(-11)))
          CFI (cfiCond124) V2 load(1, XDATA, add(CFA_XSP16, literal(-10)))
          CFI (cfiCond124) V3 load(1, XDATA, add(CFA_XSP16, literal(-9)))
          CFI (cfiCond124) V4 load(1, XDATA, add(CFA_XSP16, literal(-8)))
          CFI (cfiCond124) V5 load(1, XDATA, add(CFA_XSP16, literal(-7)))
          CFI (cfiCond124) R7 load(1, XDATA, add(CFA_XSP16, literal(-6)))
          CFI (cfiCond124) ?RET_LOW load(1, XDATA, add(CFA_XSP16, literal(-5)))
          CFI (cfiCond124) ?RET_HIGH load(1, XDATA, add(CFA_XSP16, literal(-4)))
          CFI (cfiCond124) ?BRET_EXT load(1, XDATA, add(CFA_XSP16, literal(-3)))
          CFI (cfiCond124) DPL0 load(1, XDATA, add(CFA_XSP16, literal(-2)))
          CFI (cfiCond124) DPH0 load(1, XDATA, add(CFA_XSP16, literal(-1)))
          CFI (cfiCond124) CFA_SP SP+-6
          CFI (cfiCond124) CFA_XSP16 add(XSP16, 20)
          CFI Block cfiCond125 Using cfiCommon0
          CFI (cfiCond125) Function MT_AfDataRequestSrcRtg
          CFI (cfiCond125) Conditional ??CrossCallReturnLabel_94, ??CrossCallReturnLabel_76
          CFI (cfiCond125) R6 load(1, XDATA, add(CFA_XSP16, literal(-20)))
          CFI (cfiCond125) VB load(1, XDATA, add(CFA_XSP16, literal(-19)))
          CFI (cfiCond125) V0 load(1, XDATA, add(CFA_XSP16, literal(-18)))
          CFI (cfiCond125) V1 load(1, XDATA, add(CFA_XSP16, literal(-17)))
          CFI (cfiCond125) V2 load(1, XDATA, add(CFA_XSP16, literal(-16)))
          CFI (cfiCond125) V3 load(1, XDATA, add(CFA_XSP16, literal(-15)))
          CFI (cfiCond125) V4 load(1, XDATA, add(CFA_XSP16, literal(-14)))
          CFI (cfiCond125) V5 load(1, XDATA, add(CFA_XSP16, literal(-13)))
          CFI (cfiCond125) V6 load(1, XDATA, add(CFA_XSP16, literal(-12)))
          CFI (cfiCond125) V7 load(1, XDATA, add(CFA_XSP16, literal(-11)))
          CFI (cfiCond125) V8 load(1, XDATA, add(CFA_XSP16, literal(-10)))
          CFI (cfiCond125) V9 load(1, XDATA, add(CFA_XSP16, literal(-9)))
          CFI (cfiCond125) V10 load(1, XDATA, add(CFA_XSP16, literal(-8)))
          CFI (cfiCond125) V11 load(1, XDATA, add(CFA_XSP16, literal(-7)))
          CFI (cfiCond125) R7 load(1, XDATA, add(CFA_XSP16, literal(-6)))
          CFI (cfiCond125) ?RET_LOW load(1, XDATA, add(CFA_XSP16, literal(-5)))
          CFI (cfiCond125) ?RET_HIGH load(1, XDATA, add(CFA_XSP16, literal(-4)))
          CFI (cfiCond125) ?BRET_EXT load(1, XDATA, add(CFA_XSP16, literal(-3)))
          CFI (cfiCond125) DPL0 load(1, XDATA, add(CFA_XSP16, literal(-2)))
          CFI (cfiCond125) DPH0 load(1, XDATA, add(CFA_XSP16, literal(-1)))
          CFI (cfiCond125) CFA_SP SP+-4
          CFI (cfiCond125) CFA_XSP16 add(XSP16, 34)
          CFI Block cfiCond126 Using cfiCommon0
          CFI (cfiCond126) Function MT_AfDataConfirm
          CFI (cfiCond126) Conditional ??CrossCallReturnLabel_94, ??CrossCallReturnLabel_77, ??CrossCallReturnLabel_4
          CFI (cfiCond126) DPL0 Frame(CFA_SP, 4)
          CFI (cfiCond126) DPH0 Frame(CFA_SP, 5)
          CFI (cfiCond126) CFA_SP SP+-11
          CFI (cfiCond126) CFA_XSP16 add(XSP16, 3)
          CFI Block cfiCond127 Using cfiCommon0
          CFI (cfiCond127) Function MT_AfReflectError
          CFI (cfiCond127) Conditional ??CrossCallReturnLabel_94, ??CrossCallReturnLabel_77, ??CrossCallReturnLabel_5
          CFI (cfiCond127) DPL0 Frame(CFA_SP, 4)
          CFI (cfiCond127) DPH0 Frame(CFA_SP, 5)
          CFI (cfiCond127) CFA_SP SP+-11
          CFI (cfiCond127) CFA_XSP16 add(XSP16, 6)
          CFI Block cfiPicker128 Using cfiCommon1
          CFI (cfiPicker128) NoFunction
          CFI (cfiPicker128) Picker
        MOVX      @DPTR,A
        MOV       DPL,R2
        MOV       DPH,R3
        INC       DPTR
        RET
          CFI EndBlock cfiCond118
          CFI EndBlock cfiCond119
          CFI EndBlock cfiCond120
          CFI EndBlock cfiCond121
          CFI EndBlock cfiCond122
          CFI EndBlock cfiCond123
          CFI EndBlock cfiCond124
          CFI EndBlock cfiCond125
          CFI EndBlock cfiCond126
          CFI EndBlock cfiCond127
          CFI EndBlock cfiPicker128

        RSEG BANKED_CODE:HUGECODE:NOROOT(0)
?Subroutine5:
          CFI Block cfiCond129 Using cfiCommon0
          CFI Function MT_AfDataConfirm
          CFI Conditional ??CrossCallReturnLabel_4
          CFI DPL0 Frame(CFA_SP, 4)
          CFI DPH0 Frame(CFA_SP, 5)
          CFI CFA_SP SP+-7
          CFI CFA_XSP16 add(XSP16, 3)
          CFI Block cfiCond130 Using cfiCommon0
          CFI (cfiCond130) Function MT_AfReflectError
          CFI (cfiCond130) Conditional ??CrossCallReturnLabel_5
          CFI (cfiCond130) DPL0 Frame(CFA_SP, 4)
          CFI (cfiCond130) DPH0 Frame(CFA_SP, 5)
          CFI (cfiCond130) CFA_SP SP+-7
          CFI (cfiCond130) CFA_XSP16 add(XSP16, 6)
          CFI Block cfiPicker131 Using cfiCommon1
          CFI (cfiPicker131) NoFunction
          CFI (cfiPicker131) Picker
        MOV       DPL,R2
        MOV       DPH,R3
        INC       DPTR
        MOVX      A,@DPTR
        MOV       DPL,?XSP + 0
        MOV       DPH,?XSP + 1
        LCALL     ?Subroutine42 & 0xFFFF
??CrossCallReturnLabel_77:
        RET
          CFI EndBlock cfiCond129
          CFI EndBlock cfiCond130
          CFI EndBlock cfiPicker131

        RSEG BANKED_CODE:HUGECODE:NOROOT(0)
?Subroutine42:
          CFI Block cfiCond132 Using cfiCommon0
          CFI Function MT_AfCommandProcessing
          CFI Conditional ??CrossCallReturnLabel_75, ??CrossCallReturnLabel_41
          CFI R6 load(1, XDATA, add(CFA_XSP16, literal(-14)))
          CFI VB load(1, XDATA, add(CFA_XSP16, literal(-13)))
          CFI V0 load(1, XDATA, add(CFA_XSP16, literal(-12)))
          CFI V1 load(1, XDATA, add(CFA_XSP16, literal(-11)))
          CFI V2 load(1, XDATA, add(CFA_XSP16, literal(-10)))
          CFI V3 load(1, XDATA, add(CFA_XSP16, literal(-9)))
          CFI V4 load(1, XDATA, add(CFA_XSP16, literal(-8)))
          CFI V5 load(1, XDATA, add(CFA_XSP16, literal(-7)))
          CFI R7 load(1, XDATA, add(CFA_XSP16, literal(-6)))
          CFI ?RET_LOW load(1, XDATA, add(CFA_XSP16, literal(-5)))
          CFI ?RET_HIGH load(1, XDATA, add(CFA_XSP16, literal(-4)))
          CFI ?BRET_EXT load(1, XDATA, add(CFA_XSP16, literal(-3)))
          CFI DPL0 load(1, XDATA, add(CFA_XSP16, literal(-2)))
          CFI DPH0 load(1, XDATA, add(CFA_XSP16, literal(-1)))
          CFI CFA_SP SP+-4
          CFI CFA_XSP16 add(XSP16, 20)
          CFI Block cfiCond133 Using cfiCommon0
          CFI (cfiCond133) Function MT_AfCommandProcessing
          CFI (cfiCond133) Conditional ??CrossCallReturnLabel_75, ??CrossCallReturnLabel_42
          CFI (cfiCond133) R6 load(1, XDATA, add(CFA_XSP16, literal(-14)))
          CFI (cfiCond133) VB load(1, XDATA, add(CFA_XSP16, literal(-13)))
          CFI (cfiCond133) V0 load(1, XDATA, add(CFA_XSP16, literal(-12)))
          CFI (cfiCond133) V1 load(1, XDATA, add(CFA_XSP16, literal(-11)))
          CFI (cfiCond133) V2 load(1, XDATA, add(CFA_XSP16, literal(-10)))
          CFI (cfiCond133) V3 load(1, XDATA, add(CFA_XSP16, literal(-9)))
          CFI (cfiCond133) V4 load(1, XDATA, add(CFA_XSP16, literal(-8)))
          CFI (cfiCond133) V5 load(1, XDATA, add(CFA_XSP16, literal(-7)))
          CFI (cfiCond133) R7 load(1, XDATA, add(CFA_XSP16, literal(-6)))
          CFI (cfiCond133) ?RET_LOW load(1, XDATA, add(CFA_XSP16, literal(-5)))
          CFI (cfiCond133) ?RET_HIGH load(1, XDATA, add(CFA_XSP16, literal(-4)))
          CFI (cfiCond133) ?BRET_EXT load(1, XDATA, add(CFA_XSP16, literal(-3)))
          CFI (cfiCond133) DPL0 load(1, XDATA, add(CFA_XSP16, literal(-2)))
          CFI (cfiCond133) DPH0 load(1, XDATA, add(CFA_XSP16, literal(-1)))
          CFI (cfiCond133) CFA_SP SP+-4
          CFI (cfiCond133) CFA_XSP16 add(XSP16, 20)
          CFI Block cfiCond134 Using cfiCommon0
          CFI (cfiCond134) Function MT_AfDataRequestSrcRtg
          CFI (cfiCond134) Conditional ??CrossCallReturnLabel_76
          CFI (cfiCond134) R6 load(1, XDATA, add(CFA_XSP16, literal(-20)))
          CFI (cfiCond134) VB load(1, XDATA, add(CFA_XSP16, literal(-19)))
          CFI (cfiCond134) V0 load(1, XDATA, add(CFA_XSP16, literal(-18)))
          CFI (cfiCond134) V1 load(1, XDATA, add(CFA_XSP16, literal(-17)))
          CFI (cfiCond134) V2 load(1, XDATA, add(CFA_XSP16, literal(-16)))
          CFI (cfiCond134) V3 load(1, XDATA, add(CFA_XSP16, literal(-15)))
          CFI (cfiCond134) V4 load(1, XDATA, add(CFA_XSP16, literal(-14)))
          CFI (cfiCond134) V5 load(1, XDATA, add(CFA_XSP16, literal(-13)))
          CFI (cfiCond134) V6 load(1, XDATA, add(CFA_XSP16, literal(-12)))
          CFI (cfiCond134) V7 load(1, XDATA, add(CFA_XSP16, literal(-11)))
          CFI (cfiCond134) V8 load(1, XDATA, add(CFA_XSP16, literal(-10)))
          CFI (cfiCond134) V9 load(1, XDATA, add(CFA_XSP16, literal(-9)))
          CFI (cfiCond134) V10 load(1, XDATA, add(CFA_XSP16, literal(-8)))
          CFI (cfiCond134) V11 load(1, XDATA, add(CFA_XSP16, literal(-7)))
          CFI (cfiCond134) R7 load(1, XDATA, add(CFA_XSP16, literal(-6)))
          CFI (cfiCond134) ?RET_LOW load(1, XDATA, add(CFA_XSP16, literal(-5)))
          CFI (cfiCond134) ?RET_HIGH load(1, XDATA, add(CFA_XSP16, literal(-4)))
          CFI (cfiCond134) ?BRET_EXT load(1, XDATA, add(CFA_XSP16, literal(-3)))
          CFI (cfiCond134) DPL0 load(1, XDATA, add(CFA_XSP16, literal(-2)))
          CFI (cfiCond134) DPH0 load(1, XDATA, add(CFA_XSP16, literal(-1)))
          CFI (cfiCond134) CFA_SP SP+-2
          CFI (cfiCond134) CFA_XSP16 add(XSP16, 34)
          CFI Block cfiCond135 Using cfiCommon0
          CFI (cfiCond135) Function MT_AfDataConfirm
          CFI (cfiCond135) Conditional ??CrossCallReturnLabel_77, ??CrossCallReturnLabel_4
          CFI (cfiCond135) DPL0 Frame(CFA_SP, 4)
          CFI (cfiCond135) DPH0 Frame(CFA_SP, 5)
          CFI (cfiCond135) CFA_SP SP+-9
          CFI (cfiCond135) CFA_XSP16 add(XSP16, 3)
          CFI Block cfiCond136 Using cfiCommon0
          CFI (cfiCond136) Function MT_AfReflectError
          CFI (cfiCond136) Conditional ??CrossCallReturnLabel_77, ??CrossCallReturnLabel_5
          CFI (cfiCond136) DPL0 Frame(CFA_SP, 4)
          CFI (cfiCond136) DPH0 Frame(CFA_SP, 5)
          CFI (cfiCond136) CFA_SP SP+-9
          CFI (cfiCond136) CFA_XSP16 add(XSP16, 6)
          CFI Block cfiPicker137 Using cfiCommon1
          CFI (cfiPicker137) NoFunction
          CFI (cfiPicker137) Picker
        LCALL     ?Subroutine49 & 0xFFFF
??CrossCallReturnLabel_94:
        INC       DPTR
        MOVX      A,@DPTR
        RET
          CFI EndBlock cfiCond132
          CFI EndBlock cfiCond133
          CFI EndBlock cfiCond134
          CFI EndBlock cfiCond135
          CFI EndBlock cfiCond136
          CFI EndBlock cfiPicker137
//  649 
//  650 /***************************************************************************************************
//  651  * @fn          MT_AfIncomingMsg
//  652  *
//  653  * @brief       Process the callback subscription for AF Incoming data.
//  654  *
//  655  * @param       pkt - Incoming AF data.
//  656  *
//  657  * @return      none
//  658  ***************************************************************************************************/

        RSEG BANKED_CODE:HUGECODE:NOROOT(0)
//  659 void MT_AfIncomingMsg(afIncomingMSGPacket_t *pMsg)
MT_AfIncomingMsg:
          CFI Block cfiBlock138 Using cfiCommon0
          CFI Function MT_AfIncomingMsg
        CODE
//  660 {
        FUNCALL MT_AfIncomingMsg, StubAPS_InterPan
        LOCFRAME ISTACK, 0, STACK
        LOCFRAME PSTACK, 0, STACK
        LOCFRAME XSTACK, 22, STACK
        LOCFRAME IOVERLAY, 0, STATIC
        LOCFRAME DOVERLAY, 0, STATIC
        ARGFRAME ISTACK, 0, STACK
        ARGFRAME PSTACK, 0, STACK
        ARGFRAME XSTACK, 22, STACK
        ARGFRAME IOVERLAY, 0, STATIC
        ARGFRAME DOVERLAY, 0, STATIC
        FUNCALL MT_AfIncomingMsg, osal_mem_alloc
        LOCFRAME ISTACK, 0, STACK
        LOCFRAME PSTACK, 0, STACK
        LOCFRAME XSTACK, 22, STACK
        LOCFRAME IOVERLAY, 0, STATIC
        LOCFRAME DOVERLAY, 0, STATIC
        ARGFRAME ISTACK, 0, STACK
        ARGFRAME PSTACK, 0, STACK
        ARGFRAME XSTACK, 22, STACK
        ARGFRAME IOVERLAY, 0, STATIC
        ARGFRAME DOVERLAY, 0, STATIC
        FUNCALL MT_AfIncomingMsg, osal_mem_alloc
        LOCFRAME ISTACK, 0, STACK
        LOCFRAME PSTACK, 0, STACK
        LOCFRAME XSTACK, 22, STACK
        LOCFRAME IOVERLAY, 0, STATIC
        LOCFRAME DOVERLAY, 0, STATIC
        ARGFRAME ISTACK, 0, STACK
        ARGFRAME PSTACK, 0, STACK
        ARGFRAME XSTACK, 22, STACK
        ARGFRAME IOVERLAY, 0, STATIC
        ARGFRAME DOVERLAY, 0, STATIC
        FUNCALL MT_AfIncomingMsg, osal_mem_free
        LOCFRAME ISTACK, 0, STACK
        LOCFRAME PSTACK, 0, STACK
        LOCFRAME XSTACK, 22, STACK
        LOCFRAME IOVERLAY, 0, STATIC
        LOCFRAME DOVERLAY, 0, STATIC
        ARGFRAME ISTACK, 0, STACK
        ARGFRAME PSTACK, 0, STACK
        ARGFRAME XSTACK, 22, STACK
        ARGFRAME IOVERLAY, 0, STATIC
        ARGFRAME DOVERLAY, 0, STATIC
        FUNCALL MT_AfIncomingMsg, osal_memcpy
        LOCFRAME ISTACK, 0, STACK
        LOCFRAME PSTACK, 0, STACK
        LOCFRAME XSTACK, 25, STACK
        LOCFRAME IOVERLAY, 0, STATIC
        LOCFRAME DOVERLAY, 0, STATIC
        ARGFRAME ISTACK, 0, STACK
        ARGFRAME PSTACK, 0, STACK
        ARGFRAME XSTACK, 25, STACK
        ARGFRAME IOVERLAY, 0, STATIC
        ARGFRAME DOVERLAY, 0, STATIC
        FUNCALL MT_AfIncomingMsg, osal_buffer_uint32
        LOCFRAME ISTACK, 0, STACK
        LOCFRAME PSTACK, 0, STACK
        LOCFRAME XSTACK, 26, STACK
        LOCFRAME IOVERLAY, 0, STATIC
        LOCFRAME DOVERLAY, 0, STATIC
        ARGFRAME ISTACK, 0, STACK
        ARGFRAME PSTACK, 0, STACK
        ARGFRAME XSTACK, 26, STACK
        ARGFRAME IOVERLAY, 0, STATIC
        ARGFRAME DOVERLAY, 0, STATIC
        FUNCALL MT_AfIncomingMsg, osal_start_timerEx
        LOCFRAME ISTACK, 0, STACK
        LOCFRAME PSTACK, 0, STACK
        LOCFRAME XSTACK, 26, STACK
        LOCFRAME IOVERLAY, 0, STATIC
        LOCFRAME DOVERLAY, 0, STATIC
        ARGFRAME ISTACK, 0, STACK
        ARGFRAME PSTACK, 0, STACK
        ARGFRAME XSTACK, 26, STACK
        ARGFRAME IOVERLAY, 0, STATIC
        ARGFRAME DOVERLAY, 0, STATIC
        FUNCALL MT_AfIncomingMsg, osal_set_event
        LOCFRAME ISTACK, 0, STACK
        LOCFRAME PSTACK, 0, STACK
        LOCFRAME XSTACK, 22, STACK
        LOCFRAME IOVERLAY, 0, STATIC
        LOCFRAME DOVERLAY, 0, STATIC
        ARGFRAME ISTACK, 0, STACK
        ARGFRAME PSTACK, 0, STACK
        ARGFRAME XSTACK, 22, STACK
        ARGFRAME IOVERLAY, 0, STATIC
        ARGFRAME DOVERLAY, 0, STATIC
        FUNCALL MT_AfIncomingMsg, osal_memcpy
        LOCFRAME ISTACK, 0, STACK
        LOCFRAME PSTACK, 0, STACK
        LOCFRAME XSTACK, 25, STACK
        LOCFRAME IOVERLAY, 0, STATIC
        LOCFRAME DOVERLAY, 0, STATIC
        ARGFRAME ISTACK, 0, STACK
        ARGFRAME PSTACK, 0, STACK
        ARGFRAME XSTACK, 25, STACK
        ARGFRAME IOVERLAY, 0, STATIC
        ARGFRAME DOVERLAY, 0, STATIC
        FUNCALL MT_AfIncomingMsg, osal_memcpy
        LOCFRAME ISTACK, 0, STACK
        LOCFRAME PSTACK, 0, STACK
        LOCFRAME XSTACK, 25, STACK
        LOCFRAME IOVERLAY, 0, STATIC
        LOCFRAME DOVERLAY, 0, STATIC
        ARGFRAME ISTACK, 0, STACK
        ARGFRAME PSTACK, 0, STACK
        ARGFRAME XSTACK, 25, STACK
        ARGFRAME IOVERLAY, 0, STATIC
        ARGFRAME DOVERLAY, 0, STATIC
        FUNCALL MT_AfIncomingMsg, MT_BuildAndSendZToolResponse
        LOCFRAME ISTACK, 0, STACK
        LOCFRAME PSTACK, 0, STACK
        LOCFRAME XSTACK, 22, STACK
        LOCFRAME IOVERLAY, 0, STATIC
        LOCFRAME DOVERLAY, 0, STATIC
        ARGFRAME ISTACK, 0, STACK
        ARGFRAME PSTACK, 0, STACK
        ARGFRAME XSTACK, 22, STACK
        ARGFRAME IOVERLAY, 0, STATIC
        ARGFRAME DOVERLAY, 0, STATIC
        FUNCALL MT_AfIncomingMsg, osal_mem_free
        LOCFRAME ISTACK, 0, STACK
        LOCFRAME PSTACK, 0, STACK
        LOCFRAME XSTACK, 22, STACK
        LOCFRAME IOVERLAY, 0, STATIC
        LOCFRAME DOVERLAY, 0, STATIC
        ARGFRAME ISTACK, 0, STACK
        ARGFRAME PSTACK, 0, STACK
        ARGFRAME XSTACK, 22, STACK
        ARGFRAME IOVERLAY, 0, STATIC
        ARGFRAME DOVERLAY, 0, STATIC
        REQUIRE ?V0
        REQUIRE ?V1
        REQUIRE ?V2
        REQUIRE ?V3
        REQUIRE ?V4
        REQUIRE ?V5
        REQUIRE ?V6
        REQUIRE ?V7
        REQUIRE ?V8
        REQUIRE ?V9
        REQUIRE ?V10
        REQUIRE ?V11
        REQUIRE ?V12
        REQUIRE ?V13
        MOV       A,#-0x16
        LCALL     ?BANKED_ENTER_XDATA
          CFI DPH0 load(1, XDATA, add(CFA_XSP16, literal(-1)))
          CFI DPL0 load(1, XDATA, add(CFA_XSP16, literal(-2)))
          CFI ?BRET_EXT load(1, XDATA, add(CFA_XSP16, literal(-3)))
          CFI ?RET_HIGH load(1, XDATA, add(CFA_XSP16, literal(-4)))
          CFI ?RET_LOW load(1, XDATA, add(CFA_XSP16, literal(-5)))
          CFI R7 load(1, XDATA, add(CFA_XSP16, literal(-6)))
          CFI V13 load(1, XDATA, add(CFA_XSP16, literal(-7)))
          CFI V12 load(1, XDATA, add(CFA_XSP16, literal(-8)))
          CFI V11 load(1, XDATA, add(CFA_XSP16, literal(-9)))
          CFI V10 load(1, XDATA, add(CFA_XSP16, literal(-10)))
          CFI V9 load(1, XDATA, add(CFA_XSP16, literal(-11)))
          CFI V8 load(1, XDATA, add(CFA_XSP16, literal(-12)))
          CFI V7 load(1, XDATA, add(CFA_XSP16, literal(-13)))
          CFI V6 load(1, XDATA, add(CFA_XSP16, literal(-14)))
          CFI V5 load(1, XDATA, add(CFA_XSP16, literal(-15)))
          CFI V4 load(1, XDATA, add(CFA_XSP16, literal(-16)))
          CFI V3 load(1, XDATA, add(CFA_XSP16, literal(-17)))
          CFI V2 load(1, XDATA, add(CFA_XSP16, literal(-18)))
          CFI V1 load(1, XDATA, add(CFA_XSP16, literal(-19)))
          CFI V0 load(1, XDATA, add(CFA_XSP16, literal(-20)))
          CFI VB load(1, XDATA, add(CFA_XSP16, literal(-21)))
          CFI R6 load(1, XDATA, add(CFA_XSP16, literal(-22)))
          CFI CFA_SP SP+0
          CFI CFA_XSP16 add(XSP16, 22)
        ; Saved register size: 22
        ; Auto size: 0
        MOV       ?V8,R2
        MOV       ?V9,R3
//  661   #define MT_AF_INC_MSG_LEN  20
//  662   #define MT_AF_INC_MSG_EXT  10
//  663 
//  664   uint16 dataLen = pMsg->cmd.DataLength;  // Length of the data section in the response packet.
        MOV       A,R2
        ADD       A,#0x20
        LCALL     ?Subroutine34 & 0xFFFF
??CrossCallReturnLabel_59:
        MOV       ?V0,A
        INC       DPTR
        MOVX      A,@DPTR
        MOV       ?V1,A
//  665   uint16 respLen = MT_AF_INC_MSG_LEN + dataLen;
        MOV       A,?V0
        ADD       A,#0x14
        MOV       R6,A
        CLR       A
        ADDC      A,?V1
        MOV       R7,A
//  666   uint8 cmd = MT_AF_INCOMING_MSG;
        MOV       ?V7,#-0x7f
//  667   uint8 *pRsp, *pTmp;
//  668   mtAfInMsgList_t *pItem = NULL;
        MOV       ?V10,#0x0
        MOV       ?V11,#0x0
//  669 
//  670 #if defined INTER_PAN
//  671   if (StubAPS_InterPan(pMsg->srcAddr.panId, pMsg->srcAddr.endPoint))
        ; Setup parameters for call to function StubAPS_InterPan
        MOV       A,R2
        ADD       A,#0xf
        LCALL     ?Subroutine34 & 0xFFFF
??CrossCallReturnLabel_60:
        MOV       R1,A
        MOV       A,R2
        ADD       A,#0x10
        LCALL     ?Subroutine34 & 0xFFFF
??CrossCallReturnLabel_61:
        MOV       R2,A
        INC       DPTR
        MOVX      A,@DPTR
        MOV       R3,A
        LCALL     `??StubAPS_InterPan::?relay`; Banked call to: StubAPS_InterPan
        MOV       A,R1
        JNZ       ??MT_AfIncomingMsg_0
//  672   {
//  673     cmd = MT_AF_INCOMING_MSG_EXT;
//  674   }
//  675   else
//  676 #endif
//  677   if ((pMsg->srcAddr.addrMode == afAddr64Bit) ||
//  678       (respLen > (uint16)(MT_RPC_DATA_MAX - MT_AF_INC_MSG_EXT)))
        MOV       A,?V8
        ADD       A,#0xe
        LCALL     ?Subroutine34 & 0xFFFF
??CrossCallReturnLabel_62:
        XRL       A,#0x3
        JZ        ??MT_AfIncomingMsg_0
        CLR       C
        MOV       A,R6
        SUBB      A,#-0xf
        MOV       A,R7
        SUBB      A,#0x0
        JC        ??MT_AfIncomingMsg_1
//  679   {
//  680     cmd = MT_AF_INCOMING_MSG_EXT;
??MT_AfIncomingMsg_0:
        MOV       ?V7,#-0x7e
//  681   }
//  682 
//  683   if (cmd == MT_AF_INCOMING_MSG_EXT)
//  684   {
//  685     respLen += MT_AF_INC_MSG_EXT;
        MOV       A,R6
        ADD       A,#0xa
        MOV       R6,A
        CLR       A
        ADDC      A,R7
        MOV       R7,A
//  686   }
//  687 
//  688   if (respLen > (uint16)MT_RPC_DATA_MAX)
??MT_AfIncomingMsg_1:
        CLR       C
        MOV       A,R6
        SUBB      A,#-0x5
        MOV       A,R7
        SUBB      A,#0x0
        JC        ??MT_AfIncomingMsg_2
//  689   {
//  690     if ((pItem = (mtAfInMsgList_t *)osal_mem_alloc(sizeof(mtAfInMsgList_t) + dataLen)) == NULL)
        ; Setup parameters for call to function osal_mem_alloc
        MOV       A,?V0
        ADD       A,#0x9
        MOV       R2,A
        CLR       A
        ADDC      A,?V1
        MOV       R3,A
        LCALL     `??osal_mem_alloc::?relay`; Banked call to: osal_mem_alloc
        MOV       ?V10,R2
        MOV       ?V11,R3
        MOV       A,R2
        ORL       A,R3
        JNZ       $+5
        LJMP      ??MT_AfIncomingMsg_3 & 0xFFFF
//  691     {
//  692       return;  // If cannot hold a huge message, cannot give indication at all.
//  693     }
//  694 
//  695     pItem->data = (uint8 *)(pItem+1);
        MOV       A,R2
        ADD       A,#0x9
        MOV       R0,A
        CLR       A
        ADDC      A,?V11
        MOV       R1,A
        MOV       DPL,R2
        MOV       DPH,R3
        INC       DPTR
        INC       DPTR
        MOV       A,R0
        MOVX      @DPTR,A
        INC       DPTR
        MOV       A,R1
        MOVX      @DPTR,A
//  696     respLen -= dataLen;  // Zero data bytes are sent with an over-sized incoming indication.
        CLR       C
        MOV       A,R6
        SUBB      A,?V0
        MOV       R6,A
        MOV       A,R7
        SUBB      A,?V1
        MOV       R7,A
//  697   }
//  698 
//  699   // Attempt to allocate memory for the response packet.
//  700   if ((pRsp = osal_mem_alloc(respLen)) == NULL)
??MT_AfIncomingMsg_2:
        ; Setup parameters for call to function osal_mem_alloc
        MOV       A,R6
        MOV       R2,A
        MOV       A,R7
        MOV       R3,A
        LCALL     `??osal_mem_alloc::?relay`; Banked call to: osal_mem_alloc
        MOV       ?V12,R2
        MOV       ?V13,R3
        MOV       A,R2
        ORL       A,R3
        JNZ       ??MT_AfIncomingMsg_4
//  701   {
//  702     if (pItem != NULL)
        MOV       A,?V10
        ORL       A,?V11
        JZ        ??MT_AfIncomingMsg_5
//  703     {
//  704       (void)osal_mem_free(pItem);
        ; Setup parameters for call to function osal_mem_free
        MOV       R2,?V10
        MOV       R3,?V11
        LCALL     `??osal_mem_free::?relay`; Banked call to: osal_mem_free
//  705     }
//  706     return;
??MT_AfIncomingMsg_5:
        LJMP      ??MT_AfIncomingMsg_3 & 0xFFFF
//  707   }
//  708   pTmp = pRsp;
//  709 
//  710   /* Group ID */
//  711   *pTmp++ = LO_UINT16(pMsg->groupId);
??MT_AfIncomingMsg_4:
        MOV       A,?V8
        ADD       A,#0x2
        LCALL     ?Subroutine35 & 0xFFFF
??CrossCallReturnLabel_64:
        MOVX      A,@DPTR
        MOV       DPL,R2
        MOV       DPH,R3
        LCALL     ?Subroutine18 & 0xFFFF
//  712   *pTmp++ = HI_UINT16(pMsg->groupId);
??CrossCallReturnLabel_117:
        MOVX      @DPTR,A
//  713 
//  714   /* Cluster ID */
//  715   *pTmp++ = LO_UINT16(pMsg->clusterId);
        MOV       A,?V8
        ADD       A,#0x4
        LCALL     ?Subroutine35 & 0xFFFF
??CrossCallReturnLabel_65:
        LCALL     ??Subroutine55_0 & 0xFFFF
??CrossCallReturnLabel_119:
        INC       DPTR
        LCALL     ?Subroutine18 & 0xFFFF
//  716   *pTmp++ = HI_UINT16(pMsg->clusterId);
??CrossCallReturnLabel_118:
        INC       DPTR
        INC       DPTR
        MOVX      @DPTR,A
//  717 
//  718   if (cmd == MT_AF_INCOMING_MSG_EXT)
        MOV       A,#-0x7e
        XRL       A,?V7
        JNZ       ??MT_AfIncomingMsg_6
//  719   {
//  720     *pTmp++ = pMsg->srcAddr.addrMode;
        MOV       A,?V8
        ADD       A,#0xe
        LCALL     ?Subroutine14 & 0xFFFF
??CrossCallReturnLabel_22:
        MOV       A,R2
        ADD       A,#0x5
        MOV       ?V2,A
        CLR       A
        ADDC      A,?V13
        MOV       ?V3,A
//  721 
//  722     if (pMsg->srcAddr.addrMode == afAddr64Bit)
        MOV       DPL,R0
        MOV       DPH,R1
        MOVX      A,@DPTR
        XRL       A,#0x3
        JNZ       ??MT_AfIncomingMsg_7
//  723     {
//  724       (void)osal_memcpy(pTmp, pMsg->srcAddr.addr.extAddr, Z_EXTADDR_LEN);
        ; Setup parameters for call to function osal_memcpy
        MOV       A,?V8
        ADD       A,#0x6
        MOV       ?V4,A
        CLR       A
        ADDC      A,?V9
        MOV       ?V5,A
        MOV       ?V6,#0x0
        MOV       R0,#?V4
        LCALL     ?PUSH_XSTACK_I_THREE
          CFI CFA_XSP16 add(XSP16, 25)
        MOV       R4,#0x8
        MOV       R5,#0x0
        LCALL     ?Subroutine32 & 0xFFFF
//  725     }
??CrossCallReturnLabel_120:
        LCALL     ?DEALLOC_XSTACK8
          CFI CFA_XSP16 add(XSP16, 22)
        SJMP      ??CrossCallReturnLabel_0
//  726     else
//  727     {
//  728       pTmp[0] = LO_UINT16(pMsg->srcAddr.addr.shortAddr);
??MT_AfIncomingMsg_7:
        MOV       A,?V8
        ADD       A,#0x6
        LCALL     ?Subroutine2 & 0xFFFF
//  729       pTmp[1] = HI_UINT16(pMsg->srcAddr.addr.shortAddr);
//  730     }
//  731     pTmp += Z_EXTADDR_LEN;
//  732 
//  733     *pTmp++ = pMsg->srcAddr.endPoint;
??CrossCallReturnLabel_0:
        MOV       A,?V8
        ADD       A,#0xf
        LCALL     ?Subroutine13 & 0xFFFF
??CrossCallReturnLabel_20:
        INC       DPTR
        INC       DPTR
        INC       DPTR
        INC       DPTR
        MOVX      @DPTR,A
//  734 #if defined INTER_PAN
//  735     *pTmp++ = LO_UINT16(pMsg->srcAddr.panId);
        MOV       A,?V8
        ADD       A,#0x10
        LCALL     ?Subroutine35 & 0xFFFF
//  736     *pTmp++ = HI_UINT16(pMsg->srcAddr.panId);
//  737 #else
//  738     *pTmp++ = 0;
//  739     *pTmp++ = 0;
//  740 #endif
//  741   }
??CrossCallReturnLabel_66:
        LCALL     ?Subroutine4 & 0xFFFF
??CrossCallReturnLabel_2:
        LCALL     ?Subroutine43 & 0xFFFF
??CrossCallReturnLabel_79:
        LCALL     ?Subroutine4 & 0xFFFF
??CrossCallReturnLabel_3:
        INC       DPTR
        MOVX      @DPTR,A
        MOV       A,?V2
        ADD       A,#0xb
        MOV       ?V2,A
        JNC       ??MT_AfIncomingMsg_8
        INC       ?V3
        SJMP      ??MT_AfIncomingMsg_8
//  742   else
//  743   {
//  744     /* Source Address */
//  745     *pTmp++ = LO_UINT16(pMsg->srcAddr.addr.shortAddr);
??MT_AfIncomingMsg_6:
        MOV       A,?V8
        ADD       A,#0x6
        LCALL     ?Subroutine14 & 0xFFFF
//  746     *pTmp++ = HI_UINT16(pMsg->srcAddr.addr.shortAddr);
??CrossCallReturnLabel_23:
        MOV       DPL,R0
        MOV       DPH,R1
        INC       DPTR
        LCALL     ?Subroutine15 & 0xFFFF
??CrossCallReturnLabel_24:
        MOVX      @DPTR,A
//  747 
//  748     /* Source EP */
//  749     *pTmp++ = pMsg->srcAddr.endPoint;
        MOV       A,?V8
        ADD       A,#0xf
        LCALL     ?Subroutine50 & 0xFFFF
//  750   }
??CrossCallReturnLabel_95:
        LCALL     ?Subroutine15 & 0xFFFF
??CrossCallReturnLabel_25:
        INC       DPTR
        MOVX      @DPTR,A
        MOV       A,R2
        ADD       A,#0x7
        MOV       ?V2,A
        CLR       A
        ADDC      A,?V13
        MOV       ?V3,A
//  751 
//  752   /* Destination EP */
//  753   *pTmp++ = pMsg->endPoint;
??MT_AfIncomingMsg_8:
        MOV       A,?V8
        ADD       A,#0x14
        LCALL     ?Subroutine34 & 0xFFFF
??CrossCallReturnLabel_63:
        MOV       DPL,?V2
        MOV       DPH,?V3
        MOVX      @DPTR,A
//  754 
//  755   /* WasBroadCast */
//  756   *pTmp++ = pMsg->wasBroadcast;
        MOV       A,?V8
        ADD       A,#0x15
        LCALL     ?Subroutine22 & 0xFFFF
??CrossCallReturnLabel_35:
        MOVX      @DPTR,A
//  757 
//  758   /* LinkQuality */
//  759   *pTmp++ = pMsg->LinkQuality;
        MOV       A,?V8
        ADD       A,#0x16
        LCALL     ?Subroutine16 & 0xFFFF
//  760 
//  761   /* SecurityUse */
//  762   *pTmp++ = pMsg->SecurityUse;
??CrossCallReturnLabel_26:
        MOV       A,?V8
        ADD       A,#0x19
        LCALL     ?Subroutine22 & 0xFFFF
??CrossCallReturnLabel_36:
        INC       DPTR
        INC       DPTR
        MOVX      @DPTR,A
        MOV       A,?V2
        ADD       A,#0x4
        MOV       ?V2,A
        JNC       ??MT_AfIncomingMsg_9
        INC       ?V3
//  763 
//  764   /* Timestamp */
//  765   osal_buffer_uint32( pTmp, pMsg->timestamp );
??MT_AfIncomingMsg_9:
        ; Setup parameters for call to function osal_buffer_uint32
        LCALL     ?Subroutine37 & 0xFFFF
??CrossCallReturnLabel_69:
        LCALL     ?PUSH_XSTACK8_X_FOUR
          CFI CFA_XSP16 add(XSP16, 26)
        MOV       R2,?V2
        MOV       R3,?V3
        LCALL     `??osal_buffer_uint32::?relay`; Banked call to: osal_buffer_uint32
        MOV       A,#0x4
        LCALL     ?DEALLOC_XSTACK8
          CFI CFA_XSP16 add(XSP16, 22)
//  766   pTmp += 4;
//  767 
//  768   /* Data Length */
//  769   if (cmd == MT_AF_INCOMING_MSG_EXT)
        MOV       A,#-0x7e
        XRL       A,?V7
        JNZ       ??MT_AfIncomingMsg_10
//  770   {
//  771     /* Z-Tool apparently takes the last Byte before the data buffer as the dynamic length and
//  772      * ignores the bigger UInt16 length of an EXT incoming message. But no data bytes will be sent
//  773      * with a huge message, so it's necessary to work-around and fake-out Z-Tool with a zero here.
//  774      */
//  775     *pTmp++ = 0;  // TODO - workaround Z-Tool shortcoming; should be: = pMsg->cmd.TransSeqNumber;
        MOV       DPL,?V2
        MOV       DPH,?V3
        INC       DPTR
        INC       DPTR
        INC       DPTR
        INC       DPTR
        CLR       A
        LCALL     ?Subroutine23 & 0xFFFF
//  776     *pTmp++ = LO_UINT16(dataLen);
//  777     *pTmp++ = HI_UINT16(dataLen);
??CrossCallReturnLabel_37:
        MOV       DPL,?V2
        MOV       DPH,?V3
        INC       DPTR
        INC       DPTR
        INC       DPTR
        INC       DPTR
        INC       DPTR
        INC       DPTR
        MOV       A,?V1
        MOVX      @DPTR,A
        MOV       A,?V2
        ADD       A,#0x7
        SJMP      ??MT_AfIncomingMsg_11
//  778   }
//  779   else
//  780   {
//  781     *pTmp++ = pMsg->cmd.TransSeqNumber;
??MT_AfIncomingMsg_10:
        MOV       A,?V8
        ADD       A,#0x1f
        LCALL     ?Subroutine13 & 0xFFFF
//  782     *pTmp++ = dataLen;
//  783   }
??CrossCallReturnLabel_21:
        LCALL     ?Subroutine23 & 0xFFFF
??CrossCallReturnLabel_38:
        MOV       A,?V2
        ADD       A,#0x6
??MT_AfIncomingMsg_11:
        MOV       ?V2,A
        JNC       ??MT_AfIncomingMsg_12
        INC       ?V3
//  784 
//  785   /* Data */
//  786   if (pItem != NULL)
??MT_AfIncomingMsg_12:
        MOV       A,?V10
        ORL       A,?V11
        JZ        ??MT_AfIncomingMsg_13
//  787   {
//  788     // Enqueue the new huge incoming item.
//  789     pItem->next = pMtAfInMsgList;
        LCALL     ?Subroutine20 & 0xFFFF
??CrossCallReturnLabel_130:
        MOV       DPL,?V10
        MOV       DPH,?V11
        MOV       A,R0
        MOVX      @DPTR,A
        INC       DPTR
        MOV       A,R1
        MOVX      @DPTR,A
//  790     pMtAfInMsgList = pItem;
        MOV       DPTR,#pMtAfInMsgList
        MOV       A,?V10
        MOVX      @DPTR,A
        INC       DPTR
        MOV       A,?V11
        MOVX      @DPTR,A
//  791 
//  792     // Setup to time-out the huge incoming item if host does not MT_AF_DATA_RETRIEVE it.
//  793     pItem->tick = MT_AF_EXEC_CNT;
        MOV       DPL,?V10
        MOV       DPH,A
        INC       DPTR
        INC       DPTR
        INC       DPTR
        INC       DPTR
        INC       DPTR
        INC       DPTR
        INC       DPTR
        INC       DPTR
        MOV       A,#0xf
        MOVX      @DPTR,A
//  794     if (ZSuccess != osal_start_timerEx(MT_TaskID, MT_AF_EXEC_EVT, MT_AF_EXEC_DLY))
        ; Setup parameters for call to function osal_start_timerEx
        MOV       DPTR,#__Constant_3e8
        LCALL     ?PUSH_XSTACK8_X_FOUR
          CFI CFA_XSP16 add(XSP16, 26)
        LCALL     ?Subroutine11 & 0xFFFF
??CrossCallReturnLabel_17:
        LCALL     ?DEALLOC_XSTACK8
          CFI CFA_XSP16 add(XSP16, 22)
        MOV       A,R1
        JZ        ??CrossCallReturnLabel_34
//  795     {
//  796       (void)osal_set_event(MT_TaskID, MT_AF_EXEC_EVT);
        ; Setup parameters for call to function osal_set_event
        LCALL     ?Subroutine21 & 0xFFFF
//  797     }
//  798 
//  799     pItem->timestamp = pMsg->timestamp;
??CrossCallReturnLabel_34:
        LCALL     ?Subroutine37 & 0xFFFF
??CrossCallReturnLabel_70:
        LCALL     ?XLOAD_R0123
        MOV       DPL,?V10
        MOV       DPH,?V11
        INC       DPTR
        INC       DPTR
        INC       DPTR
        INC       DPTR
        LCALL     ?XSTORE_R0123
//  800     (void)osal_memcpy(pItem->data, pMsg->cmd.Data, dataLen);
        ; Setup parameters for call to function osal_memcpy
        LCALL     ?Subroutine10 & 0xFFFF
//  801   }
??CrossCallReturnLabel_13:
        LCALL     ?PUSH_XSTACK_I_THREE
          CFI CFA_XSP16 add(XSP16, 25)
        MOV       R4,?V0
        MOV       R5,?V1
        MOV       DPL,?V10
        MOV       DPH,?V11
        INC       DPTR
        INC       DPTR
        MOVX      A,@DPTR
        MOV       R2,A
        INC       DPTR
        MOVX      A,@DPTR
        MOV       R3,A
        LCALL     ??Subroutine56_0 & 0xFFFF
??CrossCallReturnLabel_124:
        LCALL     ?DEALLOC_XSTACK8
          CFI CFA_XSP16 add(XSP16, 22)
        SJMP      ??MT_AfIncomingMsg_14
//  802   else
//  803   {
//  804     (void)osal_memcpy(pTmp, pMsg->cmd.Data, dataLen);
??MT_AfIncomingMsg_13:
        ; Setup parameters for call to function osal_memcpy
        LCALL     ?Subroutine10 & 0xFFFF
??CrossCallReturnLabel_14:
        LCALL     ?PUSH_XSTACK_I_THREE
          CFI CFA_XSP16 add(XSP16, 25)
        MOV       R4,?V0
        MOV       R5,?V1
        LCALL     ?Subroutine32 & 0xFFFF
??CrossCallReturnLabel_121:
        LCALL     ?DEALLOC_XSTACK8
          CFI CFA_XSP16 add(XSP16, 22)
//  805     pTmp += dataLen;
        MOV       A,?V2
        ADD       A,?V0
        MOV       ?V2,A
        MOV       A,?V3
        ADDC      A,?V1
        MOV       ?V3,A
//  806   }
//  807 
//  808   // MAC Source address
//  809   *pTmp++ = LO_UINT16(pMsg->macSrcAddr);
??MT_AfIncomingMsg_14:
        MOV       A,?V8
        ADD       A,#0x24
        LCALL     ?Subroutine2 & 0xFFFF
//  810   *pTmp++ = HI_UINT16(pMsg->macSrcAddr);
//  811 
//  812   // messages result radius
//  813   *pTmp = pMsg->radius;
??CrossCallReturnLabel_1:
        MOV       A,?V8
        ADD       A,#0x26
        LCALL     ?Subroutine16 & 0xFFFF
//  814 
//  815   /* Build and send back the response */
//  816   MT_BuildAndSendZToolResponse(((uint8)MT_RPC_CMD_AREQ|(uint8)MT_RPC_SYS_AF), cmd, respLen, pRsp);
??CrossCallReturnLabel_27:
        ; Setup parameters for call to function MT_BuildAndSendZToolResponse
        MOV       R4,?V12
        MOV       R5,?V13
        MOV       A,R6
        MOV       R3,A
        MOV       R2,?V7
        MOV       R1,#0x44
        LCALL     `??MT_BuildAndSendZToolResponse::?relay`; Banked call to: MT_BuildAndSendZToolResponse
//  817 
//  818   (void)osal_mem_free(pRsp);
        ; Setup parameters for call to function osal_mem_free
        MOV       R2,?V12
        MOV       R3,?V13
        LCALL     `??osal_mem_free::?relay`; Banked call to: osal_mem_free
//  819 }
??MT_AfIncomingMsg_3:
        MOV       R7,#0xe
        LJMP      ?BANKED_LEAVE_XDATA
          CFI EndBlock cfiBlock138

        RSEG BANKED_CODE:HUGECODE:NOROOT(0)
?Subroutine37:
          CFI Block cfiCond139 Using cfiCommon0
          CFI Function MT_AfIncomingMsg
          CFI Conditional ??CrossCallReturnLabel_69
          CFI R6 load(1, XDATA, add(CFA_XSP16, literal(-22)))
          CFI VB load(1, XDATA, add(CFA_XSP16, literal(-21)))
          CFI V0 load(1, XDATA, add(CFA_XSP16, literal(-20)))
          CFI V1 load(1, XDATA, add(CFA_XSP16, literal(-19)))
          CFI V2 load(1, XDATA, add(CFA_XSP16, literal(-18)))
          CFI V3 load(1, XDATA, add(CFA_XSP16, literal(-17)))
          CFI V4 load(1, XDATA, add(CFA_XSP16, literal(-16)))
          CFI V5 load(1, XDATA, add(CFA_XSP16, literal(-15)))
          CFI V6 load(1, XDATA, add(CFA_XSP16, literal(-14)))
          CFI V7 load(1, XDATA, add(CFA_XSP16, literal(-13)))
          CFI V8 load(1, XDATA, add(CFA_XSP16, literal(-12)))
          CFI V9 load(1, XDATA, add(CFA_XSP16, literal(-11)))
          CFI V10 load(1, XDATA, add(CFA_XSP16, literal(-10)))
          CFI V11 load(1, XDATA, add(CFA_XSP16, literal(-9)))
          CFI V12 load(1, XDATA, add(CFA_XSP16, literal(-8)))
          CFI V13 load(1, XDATA, add(CFA_XSP16, literal(-7)))
          CFI R7 load(1, XDATA, add(CFA_XSP16, literal(-6)))
          CFI ?RET_LOW load(1, XDATA, add(CFA_XSP16, literal(-5)))
          CFI ?RET_HIGH load(1, XDATA, add(CFA_XSP16, literal(-4)))
          CFI ?BRET_EXT load(1, XDATA, add(CFA_XSP16, literal(-3)))
          CFI DPL0 load(1, XDATA, add(CFA_XSP16, literal(-2)))
          CFI DPH0 load(1, XDATA, add(CFA_XSP16, literal(-1)))
          CFI CFA_SP SP+-2
          CFI CFA_XSP16 add(XSP16, 22)
          CFI Block cfiCond140 Using cfiCommon0
          CFI (cfiCond140) Function MT_AfIncomingMsg
          CFI (cfiCond140) Conditional ??CrossCallReturnLabel_70
          CFI (cfiCond140) R6 load(1, XDATA, add(CFA_XSP16, literal(-22)))
          CFI (cfiCond140) VB load(1, XDATA, add(CFA_XSP16, literal(-21)))
          CFI (cfiCond140) V0 load(1, XDATA, add(CFA_XSP16, literal(-20)))
          CFI (cfiCond140) V1 load(1, XDATA, add(CFA_XSP16, literal(-19)))
          CFI (cfiCond140) V2 load(1, XDATA, add(CFA_XSP16, literal(-18)))
          CFI (cfiCond140) V3 load(1, XDATA, add(CFA_XSP16, literal(-17)))
          CFI (cfiCond140) V4 load(1, XDATA, add(CFA_XSP16, literal(-16)))
          CFI (cfiCond140) V5 load(1, XDATA, add(CFA_XSP16, literal(-15)))
          CFI (cfiCond140) V6 load(1, XDATA, add(CFA_XSP16, literal(-14)))
          CFI (cfiCond140) V7 load(1, XDATA, add(CFA_XSP16, literal(-13)))
          CFI (cfiCond140) V8 load(1, XDATA, add(CFA_XSP16, literal(-12)))
          CFI (cfiCond140) V9 load(1, XDATA, add(CFA_XSP16, literal(-11)))
          CFI (cfiCond140) V10 load(1, XDATA, add(CFA_XSP16, literal(-10)))
          CFI (cfiCond140) V11 load(1, XDATA, add(CFA_XSP16, literal(-9)))
          CFI (cfiCond140) V12 load(1, XDATA, add(CFA_XSP16, literal(-8)))
          CFI (cfiCond140) V13 load(1, XDATA, add(CFA_XSP16, literal(-7)))
          CFI (cfiCond140) R7 load(1, XDATA, add(CFA_XSP16, literal(-6)))
          CFI (cfiCond140) ?RET_LOW load(1, XDATA, add(CFA_XSP16, literal(-5)))
          CFI (cfiCond140) ?RET_HIGH load(1, XDATA, add(CFA_XSP16, literal(-4)))
          CFI (cfiCond140) ?BRET_EXT load(1, XDATA, add(CFA_XSP16, literal(-3)))
          CFI (cfiCond140) DPL0 load(1, XDATA, add(CFA_XSP16, literal(-2)))
          CFI (cfiCond140) DPH0 load(1, XDATA, add(CFA_XSP16, literal(-1)))
          CFI (cfiCond140) CFA_SP SP+-2
          CFI (cfiCond140) CFA_XSP16 add(XSP16, 22)
          CFI Block cfiPicker141 Using cfiCommon1
          CFI (cfiPicker141) NoFunction
          CFI (cfiPicker141) Picker
        MOV       A,?V8
        ADD       A,#0x1a
        LCALL     ?Subroutine50 & 0xFFFF
??CrossCallReturnLabel_99:
        RET
          CFI EndBlock cfiCond139
          CFI EndBlock cfiCond140
          CFI EndBlock cfiPicker141

        RSEG BANKED_CODE:HUGECODE:NOROOT(0)
?Subroutine50:
          CFI Block cfiCond142 Using cfiCommon0
          CFI Function MT_AfIncomingMsg
          CFI Conditional ??CrossCallReturnLabel_95
          CFI R6 load(1, XDATA, add(CFA_XSP16, literal(-22)))
          CFI VB load(1, XDATA, add(CFA_XSP16, literal(-21)))
          CFI V0 load(1, XDATA, add(CFA_XSP16, literal(-20)))
          CFI V1 load(1, XDATA, add(CFA_XSP16, literal(-19)))
          CFI V2 load(1, XDATA, add(CFA_XSP16, literal(-18)))
          CFI V3 load(1, XDATA, add(CFA_XSP16, literal(-17)))
          CFI V4 load(1, XDATA, add(CFA_XSP16, literal(-16)))
          CFI V5 load(1, XDATA, add(CFA_XSP16, literal(-15)))
          CFI V6 load(1, XDATA, add(CFA_XSP16, literal(-14)))
          CFI V7 load(1, XDATA, add(CFA_XSP16, literal(-13)))
          CFI V8 load(1, XDATA, add(CFA_XSP16, literal(-12)))
          CFI V9 load(1, XDATA, add(CFA_XSP16, literal(-11)))
          CFI V10 load(1, XDATA, add(CFA_XSP16, literal(-10)))
          CFI V11 load(1, XDATA, add(CFA_XSP16, literal(-9)))
          CFI V12 load(1, XDATA, add(CFA_XSP16, literal(-8)))
          CFI V13 load(1, XDATA, add(CFA_XSP16, literal(-7)))
          CFI R7 load(1, XDATA, add(CFA_XSP16, literal(-6)))
          CFI ?RET_LOW load(1, XDATA, add(CFA_XSP16, literal(-5)))
          CFI ?RET_HIGH load(1, XDATA, add(CFA_XSP16, literal(-4)))
          CFI ?BRET_EXT load(1, XDATA, add(CFA_XSP16, literal(-3)))
          CFI DPL0 load(1, XDATA, add(CFA_XSP16, literal(-2)))
          CFI DPH0 load(1, XDATA, add(CFA_XSP16, literal(-1)))
          CFI CFA_SP SP+-2
          CFI CFA_XSP16 add(XSP16, 22)
          CFI Block cfiCond143 Using cfiCommon0
          CFI (cfiCond143) Function MT_AfIncomingMsg
          CFI (cfiCond143) Conditional ??CrossCallReturnLabel_99, ??CrossCallReturnLabel_69
          CFI (cfiCond143) R6 load(1, XDATA, add(CFA_XSP16, literal(-22)))
          CFI (cfiCond143) VB load(1, XDATA, add(CFA_XSP16, literal(-21)))
          CFI (cfiCond143) V0 load(1, XDATA, add(CFA_XSP16, literal(-20)))
          CFI (cfiCond143) V1 load(1, XDATA, add(CFA_XSP16, literal(-19)))
          CFI (cfiCond143) V2 load(1, XDATA, add(CFA_XSP16, literal(-18)))
          CFI (cfiCond143) V3 load(1, XDATA, add(CFA_XSP16, literal(-17)))
          CFI (cfiCond143) V4 load(1, XDATA, add(CFA_XSP16, literal(-16)))
          CFI (cfiCond143) V5 load(1, XDATA, add(CFA_XSP16, literal(-15)))
          CFI (cfiCond143) V6 load(1, XDATA, add(CFA_XSP16, literal(-14)))
          CFI (cfiCond143) V7 load(1, XDATA, add(CFA_XSP16, literal(-13)))
          CFI (cfiCond143) V8 load(1, XDATA, add(CFA_XSP16, literal(-12)))
          CFI (cfiCond143) V9 load(1, XDATA, add(CFA_XSP16, literal(-11)))
          CFI (cfiCond143) V10 load(1, XDATA, add(CFA_XSP16, literal(-10)))
          CFI (cfiCond143) V11 load(1, XDATA, add(CFA_XSP16, literal(-9)))
          CFI (cfiCond143) V12 load(1, XDATA, add(CFA_XSP16, literal(-8)))
          CFI (cfiCond143) V13 load(1, XDATA, add(CFA_XSP16, literal(-7)))
          CFI (cfiCond143) R7 load(1, XDATA, add(CFA_XSP16, literal(-6)))
          CFI (cfiCond143) ?RET_LOW load(1, XDATA, add(CFA_XSP16, literal(-5)))
          CFI (cfiCond143) ?RET_HIGH load(1, XDATA, add(CFA_XSP16, literal(-4)))
          CFI (cfiCond143) ?BRET_EXT load(1, XDATA, add(CFA_XSP16, literal(-3)))
          CFI (cfiCond143) DPL0 load(1, XDATA, add(CFA_XSP16, literal(-2)))
          CFI (cfiCond143) DPH0 load(1, XDATA, add(CFA_XSP16, literal(-1)))
          CFI (cfiCond143) CFA_SP SP+-4
          CFI (cfiCond143) CFA_XSP16 add(XSP16, 22)
          CFI Block cfiCond144 Using cfiCommon0
          CFI (cfiCond144) Function MT_AfIncomingMsg
          CFI (cfiCond144) Conditional ??CrossCallReturnLabel_99, ??CrossCallReturnLabel_70
          CFI (cfiCond144) R6 load(1, XDATA, add(CFA_XSP16, literal(-22)))
          CFI (cfiCond144) VB load(1, XDATA, add(CFA_XSP16, literal(-21)))
          CFI (cfiCond144) V0 load(1, XDATA, add(CFA_XSP16, literal(-20)))
          CFI (cfiCond144) V1 load(1, XDATA, add(CFA_XSP16, literal(-19)))
          CFI (cfiCond144) V2 load(1, XDATA, add(CFA_XSP16, literal(-18)))
          CFI (cfiCond144) V3 load(1, XDATA, add(CFA_XSP16, literal(-17)))
          CFI (cfiCond144) V4 load(1, XDATA, add(CFA_XSP16, literal(-16)))
          CFI (cfiCond144) V5 load(1, XDATA, add(CFA_XSP16, literal(-15)))
          CFI (cfiCond144) V6 load(1, XDATA, add(CFA_XSP16, literal(-14)))
          CFI (cfiCond144) V7 load(1, XDATA, add(CFA_XSP16, literal(-13)))
          CFI (cfiCond144) V8 load(1, XDATA, add(CFA_XSP16, literal(-12)))
          CFI (cfiCond144) V9 load(1, XDATA, add(CFA_XSP16, literal(-11)))
          CFI (cfiCond144) V10 load(1, XDATA, add(CFA_XSP16, literal(-10)))
          CFI (cfiCond144) V11 load(1, XDATA, add(CFA_XSP16, literal(-9)))
          CFI (cfiCond144) V12 load(1, XDATA, add(CFA_XSP16, literal(-8)))
          CFI (cfiCond144) V13 load(1, XDATA, add(CFA_XSP16, literal(-7)))
          CFI (cfiCond144) R7 load(1, XDATA, add(CFA_XSP16, literal(-6)))
          CFI (cfiCond144) ?RET_LOW load(1, XDATA, add(CFA_XSP16, literal(-5)))
          CFI (cfiCond144) ?RET_HIGH load(1, XDATA, add(CFA_XSP16, literal(-4)))
          CFI (cfiCond144) ?BRET_EXT load(1, XDATA, add(CFA_XSP16, literal(-3)))
          CFI (cfiCond144) DPL0 load(1, XDATA, add(CFA_XSP16, literal(-2)))
          CFI (cfiCond144) DPH0 load(1, XDATA, add(CFA_XSP16, literal(-1)))
          CFI (cfiCond144) CFA_SP SP+-4
          CFI (cfiCond144) CFA_XSP16 add(XSP16, 22)
          CFI Block cfiCond145 Using cfiCommon0
          CFI (cfiCond145) Function MT_AfIncomingMsg
          CFI (cfiCond145) Conditional ??CrossCallReturnLabel_98, ??CrossCallReturnLabel_59
          CFI (cfiCond145) R6 load(1, XDATA, add(CFA_XSP16, literal(-22)))
          CFI (cfiCond145) VB load(1, XDATA, add(CFA_XSP16, literal(-21)))
          CFI (cfiCond145) V0 load(1, XDATA, add(CFA_XSP16, literal(-20)))
          CFI (cfiCond145) V1 load(1, XDATA, add(CFA_XSP16, literal(-19)))
          CFI (cfiCond145) V2 load(1, XDATA, add(CFA_XSP16, literal(-18)))
          CFI (cfiCond145) V3 load(1, XDATA, add(CFA_XSP16, literal(-17)))
          CFI (cfiCond145) V4 load(1, XDATA, add(CFA_XSP16, literal(-16)))
          CFI (cfiCond145) V5 load(1, XDATA, add(CFA_XSP16, literal(-15)))
          CFI (cfiCond145) V6 load(1, XDATA, add(CFA_XSP16, literal(-14)))
          CFI (cfiCond145) V7 load(1, XDATA, add(CFA_XSP16, literal(-13)))
          CFI (cfiCond145) V8 load(1, XDATA, add(CFA_XSP16, literal(-12)))
          CFI (cfiCond145) V9 load(1, XDATA, add(CFA_XSP16, literal(-11)))
          CFI (cfiCond145) V10 load(1, XDATA, add(CFA_XSP16, literal(-10)))
          CFI (cfiCond145) V11 load(1, XDATA, add(CFA_XSP16, literal(-9)))
          CFI (cfiCond145) V12 load(1, XDATA, add(CFA_XSP16, literal(-8)))
          CFI (cfiCond145) V13 load(1, XDATA, add(CFA_XSP16, literal(-7)))
          CFI (cfiCond145) R7 load(1, XDATA, add(CFA_XSP16, literal(-6)))
          CFI (cfiCond145) ?RET_LOW load(1, XDATA, add(CFA_XSP16, literal(-5)))
          CFI (cfiCond145) ?RET_HIGH load(1, XDATA, add(CFA_XSP16, literal(-4)))
          CFI (cfiCond145) ?BRET_EXT load(1, XDATA, add(CFA_XSP16, literal(-3)))
          CFI (cfiCond145) DPL0 load(1, XDATA, add(CFA_XSP16, literal(-2)))
          CFI (cfiCond145) DPH0 load(1, XDATA, add(CFA_XSP16, literal(-1)))
          CFI (cfiCond145) CFA_SP SP+-4
          CFI (cfiCond145) CFA_XSP16 add(XSP16, 22)
          CFI Block cfiCond146 Using cfiCommon0
          CFI (cfiCond146) Function MT_AfIncomingMsg
          CFI (cfiCond146) Conditional ??CrossCallReturnLabel_98, ??CrossCallReturnLabel_60
          CFI (cfiCond146) R6 load(1, XDATA, add(CFA_XSP16, literal(-22)))
          CFI (cfiCond146) VB load(1, XDATA, add(CFA_XSP16, literal(-21)))
          CFI (cfiCond146) V0 load(1, XDATA, add(CFA_XSP16, literal(-20)))
          CFI (cfiCond146) V1 load(1, XDATA, add(CFA_XSP16, literal(-19)))
          CFI (cfiCond146) V2 load(1, XDATA, add(CFA_XSP16, literal(-18)))
          CFI (cfiCond146) V3 load(1, XDATA, add(CFA_XSP16, literal(-17)))
          CFI (cfiCond146) V4 load(1, XDATA, add(CFA_XSP16, literal(-16)))
          CFI (cfiCond146) V5 load(1, XDATA, add(CFA_XSP16, literal(-15)))
          CFI (cfiCond146) V6 load(1, XDATA, add(CFA_XSP16, literal(-14)))
          CFI (cfiCond146) V7 load(1, XDATA, add(CFA_XSP16, literal(-13)))
          CFI (cfiCond146) V8 load(1, XDATA, add(CFA_XSP16, literal(-12)))
          CFI (cfiCond146) V9 load(1, XDATA, add(CFA_XSP16, literal(-11)))
          CFI (cfiCond146) V10 load(1, XDATA, add(CFA_XSP16, literal(-10)))
          CFI (cfiCond146) V11 load(1, XDATA, add(CFA_XSP16, literal(-9)))
          CFI (cfiCond146) V12 load(1, XDATA, add(CFA_XSP16, literal(-8)))
          CFI (cfiCond146) V13 load(1, XDATA, add(CFA_XSP16, literal(-7)))
          CFI (cfiCond146) R7 load(1, XDATA, add(CFA_XSP16, literal(-6)))
          CFI (cfiCond146) ?RET_LOW load(1, XDATA, add(CFA_XSP16, literal(-5)))
          CFI (cfiCond146) ?RET_HIGH load(1, XDATA, add(CFA_XSP16, literal(-4)))
          CFI (cfiCond146) ?BRET_EXT load(1, XDATA, add(CFA_XSP16, literal(-3)))
          CFI (cfiCond146) DPL0 load(1, XDATA, add(CFA_XSP16, literal(-2)))
          CFI (cfiCond146) DPH0 load(1, XDATA, add(CFA_XSP16, literal(-1)))
          CFI (cfiCond146) CFA_SP SP+-4
          CFI (cfiCond146) CFA_XSP16 add(XSP16, 22)
          CFI Block cfiCond147 Using cfiCommon0
          CFI (cfiCond147) Function MT_AfIncomingMsg
          CFI (cfiCond147) Conditional ??CrossCallReturnLabel_98, ??CrossCallReturnLabel_61
          CFI (cfiCond147) R6 load(1, XDATA, add(CFA_XSP16, literal(-22)))
          CFI (cfiCond147) VB load(1, XDATA, add(CFA_XSP16, literal(-21)))
          CFI (cfiCond147) V0 load(1, XDATA, add(CFA_XSP16, literal(-20)))
          CFI (cfiCond147) V1 load(1, XDATA, add(CFA_XSP16, literal(-19)))
          CFI (cfiCond147) V2 load(1, XDATA, add(CFA_XSP16, literal(-18)))
          CFI (cfiCond147) V3 load(1, XDATA, add(CFA_XSP16, literal(-17)))
          CFI (cfiCond147) V4 load(1, XDATA, add(CFA_XSP16, literal(-16)))
          CFI (cfiCond147) V5 load(1, XDATA, add(CFA_XSP16, literal(-15)))
          CFI (cfiCond147) V6 load(1, XDATA, add(CFA_XSP16, literal(-14)))
          CFI (cfiCond147) V7 load(1, XDATA, add(CFA_XSP16, literal(-13)))
          CFI (cfiCond147) V8 load(1, XDATA, add(CFA_XSP16, literal(-12)))
          CFI (cfiCond147) V9 load(1, XDATA, add(CFA_XSP16, literal(-11)))
          CFI (cfiCond147) V10 load(1, XDATA, add(CFA_XSP16, literal(-10)))
          CFI (cfiCond147) V11 load(1, XDATA, add(CFA_XSP16, literal(-9)))
          CFI (cfiCond147) V12 load(1, XDATA, add(CFA_XSP16, literal(-8)))
          CFI (cfiCond147) V13 load(1, XDATA, add(CFA_XSP16, literal(-7)))
          CFI (cfiCond147) R7 load(1, XDATA, add(CFA_XSP16, literal(-6)))
          CFI (cfiCond147) ?RET_LOW load(1, XDATA, add(CFA_XSP16, literal(-5)))
          CFI (cfiCond147) ?RET_HIGH load(1, XDATA, add(CFA_XSP16, literal(-4)))
          CFI (cfiCond147) ?BRET_EXT load(1, XDATA, add(CFA_XSP16, literal(-3)))
          CFI (cfiCond147) DPL0 load(1, XDATA, add(CFA_XSP16, literal(-2)))
          CFI (cfiCond147) DPH0 load(1, XDATA, add(CFA_XSP16, literal(-1)))
          CFI (cfiCond147) CFA_SP SP+-4
          CFI (cfiCond147) CFA_XSP16 add(XSP16, 22)
          CFI Block cfiCond148 Using cfiCommon0
          CFI (cfiCond148) Function MT_AfIncomingMsg
          CFI (cfiCond148) Conditional ??CrossCallReturnLabel_98, ??CrossCallReturnLabel_62
          CFI (cfiCond148) R6 load(1, XDATA, add(CFA_XSP16, literal(-22)))
          CFI (cfiCond148) VB load(1, XDATA, add(CFA_XSP16, literal(-21)))
          CFI (cfiCond148) V0 load(1, XDATA, add(CFA_XSP16, literal(-20)))
          CFI (cfiCond148) V1 load(1, XDATA, add(CFA_XSP16, literal(-19)))
          CFI (cfiCond148) V2 load(1, XDATA, add(CFA_XSP16, literal(-18)))
          CFI (cfiCond148) V3 load(1, XDATA, add(CFA_XSP16, literal(-17)))
          CFI (cfiCond148) V4 load(1, XDATA, add(CFA_XSP16, literal(-16)))
          CFI (cfiCond148) V5 load(1, XDATA, add(CFA_XSP16, literal(-15)))
          CFI (cfiCond148) V6 load(1, XDATA, add(CFA_XSP16, literal(-14)))
          CFI (cfiCond148) V7 load(1, XDATA, add(CFA_XSP16, literal(-13)))
          CFI (cfiCond148) V8 load(1, XDATA, add(CFA_XSP16, literal(-12)))
          CFI (cfiCond148) V9 load(1, XDATA, add(CFA_XSP16, literal(-11)))
          CFI (cfiCond148) V10 load(1, XDATA, add(CFA_XSP16, literal(-10)))
          CFI (cfiCond148) V11 load(1, XDATA, add(CFA_XSP16, literal(-9)))
          CFI (cfiCond148) V12 load(1, XDATA, add(CFA_XSP16, literal(-8)))
          CFI (cfiCond148) V13 load(1, XDATA, add(CFA_XSP16, literal(-7)))
          CFI (cfiCond148) R7 load(1, XDATA, add(CFA_XSP16, literal(-6)))
          CFI (cfiCond148) ?RET_LOW load(1, XDATA, add(CFA_XSP16, literal(-5)))
          CFI (cfiCond148) ?RET_HIGH load(1, XDATA, add(CFA_XSP16, literal(-4)))
          CFI (cfiCond148) ?BRET_EXT load(1, XDATA, add(CFA_XSP16, literal(-3)))
          CFI (cfiCond148) DPL0 load(1, XDATA, add(CFA_XSP16, literal(-2)))
          CFI (cfiCond148) DPH0 load(1, XDATA, add(CFA_XSP16, literal(-1)))
          CFI (cfiCond148) CFA_SP SP+-4
          CFI (cfiCond148) CFA_XSP16 add(XSP16, 22)
          CFI Block cfiCond149 Using cfiCommon0
          CFI (cfiCond149) Function MT_AfIncomingMsg
          CFI (cfiCond149) Conditional ??CrossCallReturnLabel_98, ??CrossCallReturnLabel_63
          CFI (cfiCond149) R6 load(1, XDATA, add(CFA_XSP16, literal(-22)))
          CFI (cfiCond149) VB load(1, XDATA, add(CFA_XSP16, literal(-21)))
          CFI (cfiCond149) V0 load(1, XDATA, add(CFA_XSP16, literal(-20)))
          CFI (cfiCond149) V1 load(1, XDATA, add(CFA_XSP16, literal(-19)))
          CFI (cfiCond149) V2 load(1, XDATA, add(CFA_XSP16, literal(-18)))
          CFI (cfiCond149) V3 load(1, XDATA, add(CFA_XSP16, literal(-17)))
          CFI (cfiCond149) V4 load(1, XDATA, add(CFA_XSP16, literal(-16)))
          CFI (cfiCond149) V5 load(1, XDATA, add(CFA_XSP16, literal(-15)))
          CFI (cfiCond149) V6 load(1, XDATA, add(CFA_XSP16, literal(-14)))
          CFI (cfiCond149) V7 load(1, XDATA, add(CFA_XSP16, literal(-13)))
          CFI (cfiCond149) V8 load(1, XDATA, add(CFA_XSP16, literal(-12)))
          CFI (cfiCond149) V9 load(1, XDATA, add(CFA_XSP16, literal(-11)))
          CFI (cfiCond149) V10 load(1, XDATA, add(CFA_XSP16, literal(-10)))
          CFI (cfiCond149) V11 load(1, XDATA, add(CFA_XSP16, literal(-9)))
          CFI (cfiCond149) V12 load(1, XDATA, add(CFA_XSP16, literal(-8)))
          CFI (cfiCond149) V13 load(1, XDATA, add(CFA_XSP16, literal(-7)))
          CFI (cfiCond149) R7 load(1, XDATA, add(CFA_XSP16, literal(-6)))
          CFI (cfiCond149) ?RET_LOW load(1, XDATA, add(CFA_XSP16, literal(-5)))
          CFI (cfiCond149) ?RET_HIGH load(1, XDATA, add(CFA_XSP16, literal(-4)))
          CFI (cfiCond149) ?BRET_EXT load(1, XDATA, add(CFA_XSP16, literal(-3)))
          CFI (cfiCond149) DPL0 load(1, XDATA, add(CFA_XSP16, literal(-2)))
          CFI (cfiCond149) DPH0 load(1, XDATA, add(CFA_XSP16, literal(-1)))
          CFI (cfiCond149) CFA_SP SP+-4
          CFI (cfiCond149) CFA_XSP16 add(XSP16, 22)
          CFI Block cfiCond150 Using cfiCommon0
          CFI (cfiCond150) Function MT_AfIncomingMsg
          CFI (cfiCond150) Conditional ??CrossCallReturnLabel_100, ??CrossCallReturnLabel_114, ??CrossCallReturnLabel_35
          CFI (cfiCond150) R6 load(1, XDATA, add(CFA_XSP16, literal(-22)))
          CFI (cfiCond150) VB load(1, XDATA, add(CFA_XSP16, literal(-21)))
          CFI (cfiCond150) V0 load(1, XDATA, add(CFA_XSP16, literal(-20)))
          CFI (cfiCond150) V1 load(1, XDATA, add(CFA_XSP16, literal(-19)))
          CFI (cfiCond150) V2 load(1, XDATA, add(CFA_XSP16, literal(-18)))
          CFI (cfiCond150) V3 load(1, XDATA, add(CFA_XSP16, literal(-17)))
          CFI (cfiCond150) V4 load(1, XDATA, add(CFA_XSP16, literal(-16)))
          CFI (cfiCond150) V5 load(1, XDATA, add(CFA_XSP16, literal(-15)))
          CFI (cfiCond150) V6 load(1, XDATA, add(CFA_XSP16, literal(-14)))
          CFI (cfiCond150) V7 load(1, XDATA, add(CFA_XSP16, literal(-13)))
          CFI (cfiCond150) V8 load(1, XDATA, add(CFA_XSP16, literal(-12)))
          CFI (cfiCond150) V9 load(1, XDATA, add(CFA_XSP16, literal(-11)))
          CFI (cfiCond150) V10 load(1, XDATA, add(CFA_XSP16, literal(-10)))
          CFI (cfiCond150) V11 load(1, XDATA, add(CFA_XSP16, literal(-9)))
          CFI (cfiCond150) V12 load(1, XDATA, add(CFA_XSP16, literal(-8)))
          CFI (cfiCond150) V13 load(1, XDATA, add(CFA_XSP16, literal(-7)))
          CFI (cfiCond150) R7 load(1, XDATA, add(CFA_XSP16, literal(-6)))
          CFI (cfiCond150) ?RET_LOW load(1, XDATA, add(CFA_XSP16, literal(-5)))
          CFI (cfiCond150) ?RET_HIGH load(1, XDATA, add(CFA_XSP16, literal(-4)))
          CFI (cfiCond150) ?BRET_EXT load(1, XDATA, add(CFA_XSP16, literal(-3)))
          CFI (cfiCond150) DPL0 load(1, XDATA, add(CFA_XSP16, literal(-2)))
          CFI (cfiCond150) DPH0 load(1, XDATA, add(CFA_XSP16, literal(-1)))
          CFI (cfiCond150) CFA_SP SP+-6
          CFI (cfiCond150) CFA_XSP16 add(XSP16, 22)
          CFI Block cfiCond151 Using cfiCommon0
          CFI (cfiCond151) Function MT_AfIncomingMsg
          CFI (cfiCond151) Conditional ??CrossCallReturnLabel_100, ??CrossCallReturnLabel_114, ??CrossCallReturnLabel_36
          CFI (cfiCond151) R6 load(1, XDATA, add(CFA_XSP16, literal(-22)))
          CFI (cfiCond151) VB load(1, XDATA, add(CFA_XSP16, literal(-21)))
          CFI (cfiCond151) V0 load(1, XDATA, add(CFA_XSP16, literal(-20)))
          CFI (cfiCond151) V1 load(1, XDATA, add(CFA_XSP16, literal(-19)))
          CFI (cfiCond151) V2 load(1, XDATA, add(CFA_XSP16, literal(-18)))
          CFI (cfiCond151) V3 load(1, XDATA, add(CFA_XSP16, literal(-17)))
          CFI (cfiCond151) V4 load(1, XDATA, add(CFA_XSP16, literal(-16)))
          CFI (cfiCond151) V5 load(1, XDATA, add(CFA_XSP16, literal(-15)))
          CFI (cfiCond151) V6 load(1, XDATA, add(CFA_XSP16, literal(-14)))
          CFI (cfiCond151) V7 load(1, XDATA, add(CFA_XSP16, literal(-13)))
          CFI (cfiCond151) V8 load(1, XDATA, add(CFA_XSP16, literal(-12)))
          CFI (cfiCond151) V9 load(1, XDATA, add(CFA_XSP16, literal(-11)))
          CFI (cfiCond151) V10 load(1, XDATA, add(CFA_XSP16, literal(-10)))
          CFI (cfiCond151) V11 load(1, XDATA, add(CFA_XSP16, literal(-9)))
          CFI (cfiCond151) V12 load(1, XDATA, add(CFA_XSP16, literal(-8)))
          CFI (cfiCond151) V13 load(1, XDATA, add(CFA_XSP16, literal(-7)))
          CFI (cfiCond151) R7 load(1, XDATA, add(CFA_XSP16, literal(-6)))
          CFI (cfiCond151) ?RET_LOW load(1, XDATA, add(CFA_XSP16, literal(-5)))
          CFI (cfiCond151) ?RET_HIGH load(1, XDATA, add(CFA_XSP16, literal(-4)))
          CFI (cfiCond151) ?BRET_EXT load(1, XDATA, add(CFA_XSP16, literal(-3)))
          CFI (cfiCond151) DPL0 load(1, XDATA, add(CFA_XSP16, literal(-2)))
          CFI (cfiCond151) DPH0 load(1, XDATA, add(CFA_XSP16, literal(-1)))
          CFI (cfiCond151) CFA_SP SP+-6
          CFI (cfiCond151) CFA_XSP16 add(XSP16, 22)
          CFI Block cfiCond152 Using cfiCommon0
          CFI (cfiCond152) Function MT_AfIncomingMsg
          CFI (cfiCond152) Conditional ??CrossCallReturnLabel_100, ??CrossCallReturnLabel_113, ??CrossCallReturnLabel_26
          CFI (cfiCond152) R6 load(1, XDATA, add(CFA_XSP16, literal(-22)))
          CFI (cfiCond152) VB load(1, XDATA, add(CFA_XSP16, literal(-21)))
          CFI (cfiCond152) V0 load(1, XDATA, add(CFA_XSP16, literal(-20)))
          CFI (cfiCond152) V1 load(1, XDATA, add(CFA_XSP16, literal(-19)))
          CFI (cfiCond152) V2 load(1, XDATA, add(CFA_XSP16, literal(-18)))
          CFI (cfiCond152) V3 load(1, XDATA, add(CFA_XSP16, literal(-17)))
          CFI (cfiCond152) V4 load(1, XDATA, add(CFA_XSP16, literal(-16)))
          CFI (cfiCond152) V5 load(1, XDATA, add(CFA_XSP16, literal(-15)))
          CFI (cfiCond152) V6 load(1, XDATA, add(CFA_XSP16, literal(-14)))
          CFI (cfiCond152) V7 load(1, XDATA, add(CFA_XSP16, literal(-13)))
          CFI (cfiCond152) V8 load(1, XDATA, add(CFA_XSP16, literal(-12)))
          CFI (cfiCond152) V9 load(1, XDATA, add(CFA_XSP16, literal(-11)))
          CFI (cfiCond152) V10 load(1, XDATA, add(CFA_XSP16, literal(-10)))
          CFI (cfiCond152) V11 load(1, XDATA, add(CFA_XSP16, literal(-9)))
          CFI (cfiCond152) V12 load(1, XDATA, add(CFA_XSP16, literal(-8)))
          CFI (cfiCond152) V13 load(1, XDATA, add(CFA_XSP16, literal(-7)))
          CFI (cfiCond152) R7 load(1, XDATA, add(CFA_XSP16, literal(-6)))
          CFI (cfiCond152) ?RET_LOW load(1, XDATA, add(CFA_XSP16, literal(-5)))
          CFI (cfiCond152) ?RET_HIGH load(1, XDATA, add(CFA_XSP16, literal(-4)))
          CFI (cfiCond152) ?BRET_EXT load(1, XDATA, add(CFA_XSP16, literal(-3)))
          CFI (cfiCond152) DPL0 load(1, XDATA, add(CFA_XSP16, literal(-2)))
          CFI (cfiCond152) DPH0 load(1, XDATA, add(CFA_XSP16, literal(-1)))
          CFI (cfiCond152) CFA_SP SP+-6
          CFI (cfiCond152) CFA_XSP16 add(XSP16, 22)
          CFI Block cfiCond153 Using cfiCommon0
          CFI (cfiCond153) Function MT_AfIncomingMsg
          CFI (cfiCond153) Conditional ??CrossCallReturnLabel_100, ??CrossCallReturnLabel_113, ??CrossCallReturnLabel_27
          CFI (cfiCond153) R6 load(1, XDATA, add(CFA_XSP16, literal(-22)))
          CFI (cfiCond153) VB load(1, XDATA, add(CFA_XSP16, literal(-21)))
          CFI (cfiCond153) V0 load(1, XDATA, add(CFA_XSP16, literal(-20)))
          CFI (cfiCond153) V1 load(1, XDATA, add(CFA_XSP16, literal(-19)))
          CFI (cfiCond153) V2 load(1, XDATA, add(CFA_XSP16, literal(-18)))
          CFI (cfiCond153) V3 load(1, XDATA, add(CFA_XSP16, literal(-17)))
          CFI (cfiCond153) V4 load(1, XDATA, add(CFA_XSP16, literal(-16)))
          CFI (cfiCond153) V5 load(1, XDATA, add(CFA_XSP16, literal(-15)))
          CFI (cfiCond153) V6 load(1, XDATA, add(CFA_XSP16, literal(-14)))
          CFI (cfiCond153) V7 load(1, XDATA, add(CFA_XSP16, literal(-13)))
          CFI (cfiCond153) V8 load(1, XDATA, add(CFA_XSP16, literal(-12)))
          CFI (cfiCond153) V9 load(1, XDATA, add(CFA_XSP16, literal(-11)))
          CFI (cfiCond153) V10 load(1, XDATA, add(CFA_XSP16, literal(-10)))
          CFI (cfiCond153) V11 load(1, XDATA, add(CFA_XSP16, literal(-9)))
          CFI (cfiCond153) V12 load(1, XDATA, add(CFA_XSP16, literal(-8)))
          CFI (cfiCond153) V13 load(1, XDATA, add(CFA_XSP16, literal(-7)))
          CFI (cfiCond153) R7 load(1, XDATA, add(CFA_XSP16, literal(-6)))
          CFI (cfiCond153) ?RET_LOW load(1, XDATA, add(CFA_XSP16, literal(-5)))
          CFI (cfiCond153) ?RET_HIGH load(1, XDATA, add(CFA_XSP16, literal(-4)))
          CFI (cfiCond153) ?BRET_EXT load(1, XDATA, add(CFA_XSP16, literal(-3)))
          CFI (cfiCond153) DPL0 load(1, XDATA, add(CFA_XSP16, literal(-2)))
          CFI (cfiCond153) DPH0 load(1, XDATA, add(CFA_XSP16, literal(-1)))
          CFI (cfiCond153) CFA_SP SP+-6
          CFI (cfiCond153) CFA_XSP16 add(XSP16, 22)
          CFI Block cfiCond154 Using cfiCommon0
          CFI (cfiCond154) Function MT_AfIncomingMsg
          CFI (cfiCond154) Conditional ??CrossCallReturnLabel_97, ??CrossCallReturnLabel_20
          CFI (cfiCond154) R6 load(1, XDATA, add(CFA_XSP16, literal(-22)))
          CFI (cfiCond154) VB load(1, XDATA, add(CFA_XSP16, literal(-21)))
          CFI (cfiCond154) V0 load(1, XDATA, add(CFA_XSP16, literal(-20)))
          CFI (cfiCond154) V1 load(1, XDATA, add(CFA_XSP16, literal(-19)))
          CFI (cfiCond154) V2 load(1, XDATA, add(CFA_XSP16, literal(-18)))
          CFI (cfiCond154) V3 load(1, XDATA, add(CFA_XSP16, literal(-17)))
          CFI (cfiCond154) V4 load(1, XDATA, add(CFA_XSP16, literal(-16)))
          CFI (cfiCond154) V5 load(1, XDATA, add(CFA_XSP16, literal(-15)))
          CFI (cfiCond154) V6 load(1, XDATA, add(CFA_XSP16, literal(-14)))
          CFI (cfiCond154) V7 load(1, XDATA, add(CFA_XSP16, literal(-13)))
          CFI (cfiCond154) V8 load(1, XDATA, add(CFA_XSP16, literal(-12)))
          CFI (cfiCond154) V9 load(1, XDATA, add(CFA_XSP16, literal(-11)))
          CFI (cfiCond154) V10 load(1, XDATA, add(CFA_XSP16, literal(-10)))
          CFI (cfiCond154) V11 load(1, XDATA, add(CFA_XSP16, literal(-9)))
          CFI (cfiCond154) V12 load(1, XDATA, add(CFA_XSP16, literal(-8)))
          CFI (cfiCond154) V13 load(1, XDATA, add(CFA_XSP16, literal(-7)))
          CFI (cfiCond154) R7 load(1, XDATA, add(CFA_XSP16, literal(-6)))
          CFI (cfiCond154) ?RET_LOW load(1, XDATA, add(CFA_XSP16, literal(-5)))
          CFI (cfiCond154) ?RET_HIGH load(1, XDATA, add(CFA_XSP16, literal(-4)))
          CFI (cfiCond154) ?BRET_EXT load(1, XDATA, add(CFA_XSP16, literal(-3)))
          CFI (cfiCond154) DPL0 load(1, XDATA, add(CFA_XSP16, literal(-2)))
          CFI (cfiCond154) DPH0 load(1, XDATA, add(CFA_XSP16, literal(-1)))
          CFI (cfiCond154) CFA_SP SP+-4
          CFI (cfiCond154) CFA_XSP16 add(XSP16, 22)
          CFI Block cfiCond155 Using cfiCommon0
          CFI (cfiCond155) Function MT_AfIncomingMsg
          CFI (cfiCond155) Conditional ??CrossCallReturnLabel_97, ??CrossCallReturnLabel_21
          CFI (cfiCond155) R6 load(1, XDATA, add(CFA_XSP16, literal(-22)))
          CFI (cfiCond155) VB load(1, XDATA, add(CFA_XSP16, literal(-21)))
          CFI (cfiCond155) V0 load(1, XDATA, add(CFA_XSP16, literal(-20)))
          CFI (cfiCond155) V1 load(1, XDATA, add(CFA_XSP16, literal(-19)))
          CFI (cfiCond155) V2 load(1, XDATA, add(CFA_XSP16, literal(-18)))
          CFI (cfiCond155) V3 load(1, XDATA, add(CFA_XSP16, literal(-17)))
          CFI (cfiCond155) V4 load(1, XDATA, add(CFA_XSP16, literal(-16)))
          CFI (cfiCond155) V5 load(1, XDATA, add(CFA_XSP16, literal(-15)))
          CFI (cfiCond155) V6 load(1, XDATA, add(CFA_XSP16, literal(-14)))
          CFI (cfiCond155) V7 load(1, XDATA, add(CFA_XSP16, literal(-13)))
          CFI (cfiCond155) V8 load(1, XDATA, add(CFA_XSP16, literal(-12)))
          CFI (cfiCond155) V9 load(1, XDATA, add(CFA_XSP16, literal(-11)))
          CFI (cfiCond155) V10 load(1, XDATA, add(CFA_XSP16, literal(-10)))
          CFI (cfiCond155) V11 load(1, XDATA, add(CFA_XSP16, literal(-9)))
          CFI (cfiCond155) V12 load(1, XDATA, add(CFA_XSP16, literal(-8)))
          CFI (cfiCond155) V13 load(1, XDATA, add(CFA_XSP16, literal(-7)))
          CFI (cfiCond155) R7 load(1, XDATA, add(CFA_XSP16, literal(-6)))
          CFI (cfiCond155) ?RET_LOW load(1, XDATA, add(CFA_XSP16, literal(-5)))
          CFI (cfiCond155) ?RET_HIGH load(1, XDATA, add(CFA_XSP16, literal(-4)))
          CFI (cfiCond155) ?BRET_EXT load(1, XDATA, add(CFA_XSP16, literal(-3)))
          CFI (cfiCond155) DPL0 load(1, XDATA, add(CFA_XSP16, literal(-2)))
          CFI (cfiCond155) DPH0 load(1, XDATA, add(CFA_XSP16, literal(-1)))
          CFI (cfiCond155) CFA_SP SP+-4
          CFI (cfiCond155) CFA_XSP16 add(XSP16, 22)
          CFI Block cfiCond156 Using cfiCommon0
          CFI (cfiCond156) Function MT_AfIncomingMsg
          CFI (cfiCond156) Conditional ??CrossCallReturnLabel_96, ??CrossCallReturnLabel_13
          CFI (cfiCond156) R6 load(1, XDATA, add(CFA_XSP16, literal(-22)))
          CFI (cfiCond156) VB load(1, XDATA, add(CFA_XSP16, literal(-21)))
          CFI (cfiCond156) V0 load(1, XDATA, add(CFA_XSP16, literal(-20)))
          CFI (cfiCond156) V1 load(1, XDATA, add(CFA_XSP16, literal(-19)))
          CFI (cfiCond156) V2 load(1, XDATA, add(CFA_XSP16, literal(-18)))
          CFI (cfiCond156) V3 load(1, XDATA, add(CFA_XSP16, literal(-17)))
          CFI (cfiCond156) V4 load(1, XDATA, add(CFA_XSP16, literal(-16)))
          CFI (cfiCond156) V5 load(1, XDATA, add(CFA_XSP16, literal(-15)))
          CFI (cfiCond156) V6 load(1, XDATA, add(CFA_XSP16, literal(-14)))
          CFI (cfiCond156) V7 load(1, XDATA, add(CFA_XSP16, literal(-13)))
          CFI (cfiCond156) V8 load(1, XDATA, add(CFA_XSP16, literal(-12)))
          CFI (cfiCond156) V9 load(1, XDATA, add(CFA_XSP16, literal(-11)))
          CFI (cfiCond156) V10 load(1, XDATA, add(CFA_XSP16, literal(-10)))
          CFI (cfiCond156) V11 load(1, XDATA, add(CFA_XSP16, literal(-9)))
          CFI (cfiCond156) V12 load(1, XDATA, add(CFA_XSP16, literal(-8)))
          CFI (cfiCond156) V13 load(1, XDATA, add(CFA_XSP16, literal(-7)))
          CFI (cfiCond156) R7 load(1, XDATA, add(CFA_XSP16, literal(-6)))
          CFI (cfiCond156) ?RET_LOW load(1, XDATA, add(CFA_XSP16, literal(-5)))
          CFI (cfiCond156) ?RET_HIGH load(1, XDATA, add(CFA_XSP16, literal(-4)))
          CFI (cfiCond156) ?BRET_EXT load(1, XDATA, add(CFA_XSP16, literal(-3)))
          CFI (cfiCond156) DPL0 load(1, XDATA, add(CFA_XSP16, literal(-2)))
          CFI (cfiCond156) DPH0 load(1, XDATA, add(CFA_XSP16, literal(-1)))
          CFI (cfiCond156) CFA_SP SP+-4
          CFI (cfiCond156) CFA_XSP16 add(XSP16, 22)
          CFI Block cfiCond157 Using cfiCommon0
          CFI (cfiCond157) Function MT_AfIncomingMsg
          CFI (cfiCond157) Conditional ??CrossCallReturnLabel_96, ??CrossCallReturnLabel_14
          CFI (cfiCond157) R6 load(1, XDATA, add(CFA_XSP16, literal(-22)))
          CFI (cfiCond157) VB load(1, XDATA, add(CFA_XSP16, literal(-21)))
          CFI (cfiCond157) V0 load(1, XDATA, add(CFA_XSP16, literal(-20)))
          CFI (cfiCond157) V1 load(1, XDATA, add(CFA_XSP16, literal(-19)))
          CFI (cfiCond157) V2 load(1, XDATA, add(CFA_XSP16, literal(-18)))
          CFI (cfiCond157) V3 load(1, XDATA, add(CFA_XSP16, literal(-17)))
          CFI (cfiCond157) V4 load(1, XDATA, add(CFA_XSP16, literal(-16)))
          CFI (cfiCond157) V5 load(1, XDATA, add(CFA_XSP16, literal(-15)))
          CFI (cfiCond157) V6 load(1, XDATA, add(CFA_XSP16, literal(-14)))
          CFI (cfiCond157) V7 load(1, XDATA, add(CFA_XSP16, literal(-13)))
          CFI (cfiCond157) V8 load(1, XDATA, add(CFA_XSP16, literal(-12)))
          CFI (cfiCond157) V9 load(1, XDATA, add(CFA_XSP16, literal(-11)))
          CFI (cfiCond157) V10 load(1, XDATA, add(CFA_XSP16, literal(-10)))
          CFI (cfiCond157) V11 load(1, XDATA, add(CFA_XSP16, literal(-9)))
          CFI (cfiCond157) V12 load(1, XDATA, add(CFA_XSP16, literal(-8)))
          CFI (cfiCond157) V13 load(1, XDATA, add(CFA_XSP16, literal(-7)))
          CFI (cfiCond157) R7 load(1, XDATA, add(CFA_XSP16, literal(-6)))
          CFI (cfiCond157) ?RET_LOW load(1, XDATA, add(CFA_XSP16, literal(-5)))
          CFI (cfiCond157) ?RET_HIGH load(1, XDATA, add(CFA_XSP16, literal(-4)))
          CFI (cfiCond157) ?BRET_EXT load(1, XDATA, add(CFA_XSP16, literal(-3)))
          CFI (cfiCond157) DPL0 load(1, XDATA, add(CFA_XSP16, literal(-2)))
          CFI (cfiCond157) DPH0 load(1, XDATA, add(CFA_XSP16, literal(-1)))
          CFI (cfiCond157) CFA_SP SP+-4
          CFI (cfiCond157) CFA_XSP16 add(XSP16, 22)
          CFI Block cfiPicker158 Using cfiCommon1
          CFI (cfiPicker158) NoFunction
          CFI (cfiPicker158) Picker
        MOV       DPL,A
        CLR       A
        ADDC      A,?V9
        MOV       DPH,A
        RET
          CFI EndBlock cfiCond142
          CFI EndBlock cfiCond143
          CFI EndBlock cfiCond144
          CFI EndBlock cfiCond145
          CFI EndBlock cfiCond146
          CFI EndBlock cfiCond147
          CFI EndBlock cfiCond148
          CFI EndBlock cfiCond149
          CFI EndBlock cfiCond150
          CFI EndBlock cfiCond151
          CFI EndBlock cfiCond152
          CFI EndBlock cfiCond153
          CFI EndBlock cfiCond154
          CFI EndBlock cfiCond155
          CFI EndBlock cfiCond156
          CFI EndBlock cfiCond157
          CFI EndBlock cfiPicker158

        RSEG BANKED_CODE:HUGECODE:NOROOT(0)
?Subroutine35:
          CFI Block cfiCond159 Using cfiCommon0
          CFI Function MT_AfIncomingMsg
          CFI Conditional ??CrossCallReturnLabel_64
          CFI R6 load(1, XDATA, add(CFA_XSP16, literal(-22)))
          CFI VB load(1, XDATA, add(CFA_XSP16, literal(-21)))
          CFI V0 load(1, XDATA, add(CFA_XSP16, literal(-20)))
          CFI V1 load(1, XDATA, add(CFA_XSP16, literal(-19)))
          CFI V2 load(1, XDATA, add(CFA_XSP16, literal(-18)))
          CFI V3 load(1, XDATA, add(CFA_XSP16, literal(-17)))
          CFI V4 load(1, XDATA, add(CFA_XSP16, literal(-16)))
          CFI V5 load(1, XDATA, add(CFA_XSP16, literal(-15)))
          CFI V6 load(1, XDATA, add(CFA_XSP16, literal(-14)))
          CFI V7 load(1, XDATA, add(CFA_XSP16, literal(-13)))
          CFI V8 load(1, XDATA, add(CFA_XSP16, literal(-12)))
          CFI V9 load(1, XDATA, add(CFA_XSP16, literal(-11)))
          CFI V10 load(1, XDATA, add(CFA_XSP16, literal(-10)))
          CFI V11 load(1, XDATA, add(CFA_XSP16, literal(-9)))
          CFI V12 load(1, XDATA, add(CFA_XSP16, literal(-8)))
          CFI V13 load(1, XDATA, add(CFA_XSP16, literal(-7)))
          CFI R7 load(1, XDATA, add(CFA_XSP16, literal(-6)))
          CFI ?RET_LOW load(1, XDATA, add(CFA_XSP16, literal(-5)))
          CFI ?RET_HIGH load(1, XDATA, add(CFA_XSP16, literal(-4)))
          CFI ?BRET_EXT load(1, XDATA, add(CFA_XSP16, literal(-3)))
          CFI DPL0 load(1, XDATA, add(CFA_XSP16, literal(-2)))
          CFI DPH0 load(1, XDATA, add(CFA_XSP16, literal(-1)))
          CFI CFA_SP SP+-2
          CFI CFA_XSP16 add(XSP16, 22)
          CFI Block cfiCond160 Using cfiCommon0
          CFI (cfiCond160) Function MT_AfIncomingMsg
          CFI (cfiCond160) Conditional ??CrossCallReturnLabel_65
          CFI (cfiCond160) R6 load(1, XDATA, add(CFA_XSP16, literal(-22)))
          CFI (cfiCond160) VB load(1, XDATA, add(CFA_XSP16, literal(-21)))
          CFI (cfiCond160) V0 load(1, XDATA, add(CFA_XSP16, literal(-20)))
          CFI (cfiCond160) V1 load(1, XDATA, add(CFA_XSP16, literal(-19)))
          CFI (cfiCond160) V2 load(1, XDATA, add(CFA_XSP16, literal(-18)))
          CFI (cfiCond160) V3 load(1, XDATA, add(CFA_XSP16, literal(-17)))
          CFI (cfiCond160) V4 load(1, XDATA, add(CFA_XSP16, literal(-16)))
          CFI (cfiCond160) V5 load(1, XDATA, add(CFA_XSP16, literal(-15)))
          CFI (cfiCond160) V6 load(1, XDATA, add(CFA_XSP16, literal(-14)))
          CFI (cfiCond160) V7 load(1, XDATA, add(CFA_XSP16, literal(-13)))
          CFI (cfiCond160) V8 load(1, XDATA, add(CFA_XSP16, literal(-12)))
          CFI (cfiCond160) V9 load(1, XDATA, add(CFA_XSP16, literal(-11)))
          CFI (cfiCond160) V10 load(1, XDATA, add(CFA_XSP16, literal(-10)))
          CFI (cfiCond160) V11 load(1, XDATA, add(CFA_XSP16, literal(-9)))
          CFI (cfiCond160) V12 load(1, XDATA, add(CFA_XSP16, literal(-8)))
          CFI (cfiCond160) V13 load(1, XDATA, add(CFA_XSP16, literal(-7)))
          CFI (cfiCond160) R7 load(1, XDATA, add(CFA_XSP16, literal(-6)))
          CFI (cfiCond160) ?RET_LOW load(1, XDATA, add(CFA_XSP16, literal(-5)))
          CFI (cfiCond160) ?RET_HIGH load(1, XDATA, add(CFA_XSP16, literal(-4)))
          CFI (cfiCond160) ?BRET_EXT load(1, XDATA, add(CFA_XSP16, literal(-3)))
          CFI (cfiCond160) DPL0 load(1, XDATA, add(CFA_XSP16, literal(-2)))
          CFI (cfiCond160) DPH0 load(1, XDATA, add(CFA_XSP16, literal(-1)))
          CFI (cfiCond160) CFA_SP SP+-2
          CFI (cfiCond160) CFA_XSP16 add(XSP16, 22)
          CFI Block cfiCond161 Using cfiCommon0
          CFI (cfiCond161) Function MT_AfIncomingMsg
          CFI (cfiCond161) Conditional ??CrossCallReturnLabel_66
          CFI (cfiCond161) R6 load(1, XDATA, add(CFA_XSP16, literal(-22)))
          CFI (cfiCond161) VB load(1, XDATA, add(CFA_XSP16, literal(-21)))
          CFI (cfiCond161) V0 load(1, XDATA, add(CFA_XSP16, literal(-20)))
          CFI (cfiCond161) V1 load(1, XDATA, add(CFA_XSP16, literal(-19)))
          CFI (cfiCond161) V2 load(1, XDATA, add(CFA_XSP16, literal(-18)))
          CFI (cfiCond161) V3 load(1, XDATA, add(CFA_XSP16, literal(-17)))
          CFI (cfiCond161) V4 load(1, XDATA, add(CFA_XSP16, literal(-16)))
          CFI (cfiCond161) V5 load(1, XDATA, add(CFA_XSP16, literal(-15)))
          CFI (cfiCond161) V6 load(1, XDATA, add(CFA_XSP16, literal(-14)))
          CFI (cfiCond161) V7 load(1, XDATA, add(CFA_XSP16, literal(-13)))
          CFI (cfiCond161) V8 load(1, XDATA, add(CFA_XSP16, literal(-12)))
          CFI (cfiCond161) V9 load(1, XDATA, add(CFA_XSP16, literal(-11)))
          CFI (cfiCond161) V10 load(1, XDATA, add(CFA_XSP16, literal(-10)))
          CFI (cfiCond161) V11 load(1, XDATA, add(CFA_XSP16, literal(-9)))
          CFI (cfiCond161) V12 load(1, XDATA, add(CFA_XSP16, literal(-8)))
          CFI (cfiCond161) V13 load(1, XDATA, add(CFA_XSP16, literal(-7)))
          CFI (cfiCond161) R7 load(1, XDATA, add(CFA_XSP16, literal(-6)))
          CFI (cfiCond161) ?RET_LOW load(1, XDATA, add(CFA_XSP16, literal(-5)))
          CFI (cfiCond161) ?RET_HIGH load(1, XDATA, add(CFA_XSP16, literal(-4)))
          CFI (cfiCond161) ?BRET_EXT load(1, XDATA, add(CFA_XSP16, literal(-3)))
          CFI (cfiCond161) DPL0 load(1, XDATA, add(CFA_XSP16, literal(-2)))
          CFI (cfiCond161) DPH0 load(1, XDATA, add(CFA_XSP16, literal(-1)))
          CFI (cfiCond161) CFA_SP SP+-2
          CFI (cfiCond161) CFA_XSP16 add(XSP16, 22)
          CFI Block cfiPicker162 Using cfiCommon1
          CFI (cfiPicker162) NoFunction
          CFI (cfiPicker162) Picker
        LCALL     ?Subroutine47 & 0xFFFF
??CrossCallReturnLabel_91:
        RET
          CFI EndBlock cfiCond159
          CFI EndBlock cfiCond160
          CFI EndBlock cfiCond161
          CFI EndBlock cfiPicker162

        RSEG BANKED_CODE:HUGECODE:NOROOT(0)
?Subroutine47:
          CFI Block cfiCond163 Using cfiCommon0
          CFI Function MT_AfIncomingMsg
          CFI Conditional ??CrossCallReturnLabel_91, ??CrossCallReturnLabel_64
          CFI R6 load(1, XDATA, add(CFA_XSP16, literal(-22)))
          CFI VB load(1, XDATA, add(CFA_XSP16, literal(-21)))
          CFI V0 load(1, XDATA, add(CFA_XSP16, literal(-20)))
          CFI V1 load(1, XDATA, add(CFA_XSP16, literal(-19)))
          CFI V2 load(1, XDATA, add(CFA_XSP16, literal(-18)))
          CFI V3 load(1, XDATA, add(CFA_XSP16, literal(-17)))
          CFI V4 load(1, XDATA, add(CFA_XSP16, literal(-16)))
          CFI V5 load(1, XDATA, add(CFA_XSP16, literal(-15)))
          CFI V6 load(1, XDATA, add(CFA_XSP16, literal(-14)))
          CFI V7 load(1, XDATA, add(CFA_XSP16, literal(-13)))
          CFI V8 load(1, XDATA, add(CFA_XSP16, literal(-12)))
          CFI V9 load(1, XDATA, add(CFA_XSP16, literal(-11)))
          CFI V10 load(1, XDATA, add(CFA_XSP16, literal(-10)))
          CFI V11 load(1, XDATA, add(CFA_XSP16, literal(-9)))
          CFI V12 load(1, XDATA, add(CFA_XSP16, literal(-8)))
          CFI V13 load(1, XDATA, add(CFA_XSP16, literal(-7)))
          CFI R7 load(1, XDATA, add(CFA_XSP16, literal(-6)))
          CFI ?RET_LOW load(1, XDATA, add(CFA_XSP16, literal(-5)))
          CFI ?RET_HIGH load(1, XDATA, add(CFA_XSP16, literal(-4)))
          CFI ?BRET_EXT load(1, XDATA, add(CFA_XSP16, literal(-3)))
          CFI DPL0 load(1, XDATA, add(CFA_XSP16, literal(-2)))
          CFI DPH0 load(1, XDATA, add(CFA_XSP16, literal(-1)))
          CFI CFA_SP SP+-4
          CFI CFA_XSP16 add(XSP16, 22)
          CFI Block cfiCond164 Using cfiCommon0
          CFI (cfiCond164) Function MT_AfIncomingMsg
          CFI (cfiCond164) Conditional ??CrossCallReturnLabel_91, ??CrossCallReturnLabel_65
          CFI (cfiCond164) R6 load(1, XDATA, add(CFA_XSP16, literal(-22)))
          CFI (cfiCond164) VB load(1, XDATA, add(CFA_XSP16, literal(-21)))
          CFI (cfiCond164) V0 load(1, XDATA, add(CFA_XSP16, literal(-20)))
          CFI (cfiCond164) V1 load(1, XDATA, add(CFA_XSP16, literal(-19)))
          CFI (cfiCond164) V2 load(1, XDATA, add(CFA_XSP16, literal(-18)))
          CFI (cfiCond164) V3 load(1, XDATA, add(CFA_XSP16, literal(-17)))
          CFI (cfiCond164) V4 load(1, XDATA, add(CFA_XSP16, literal(-16)))
          CFI (cfiCond164) V5 load(1, XDATA, add(CFA_XSP16, literal(-15)))
          CFI (cfiCond164) V6 load(1, XDATA, add(CFA_XSP16, literal(-14)))
          CFI (cfiCond164) V7 load(1, XDATA, add(CFA_XSP16, literal(-13)))
          CFI (cfiCond164) V8 load(1, XDATA, add(CFA_XSP16, literal(-12)))
          CFI (cfiCond164) V9 load(1, XDATA, add(CFA_XSP16, literal(-11)))
          CFI (cfiCond164) V10 load(1, XDATA, add(CFA_XSP16, literal(-10)))
          CFI (cfiCond164) V11 load(1, XDATA, add(CFA_XSP16, literal(-9)))
          CFI (cfiCond164) V12 load(1, XDATA, add(CFA_XSP16, literal(-8)))
          CFI (cfiCond164) V13 load(1, XDATA, add(CFA_XSP16, literal(-7)))
          CFI (cfiCond164) R7 load(1, XDATA, add(CFA_XSP16, literal(-6)))
          CFI (cfiCond164) ?RET_LOW load(1, XDATA, add(CFA_XSP16, literal(-5)))
          CFI (cfiCond164) ?RET_HIGH load(1, XDATA, add(CFA_XSP16, literal(-4)))
          CFI (cfiCond164) ?BRET_EXT load(1, XDATA, add(CFA_XSP16, literal(-3)))
          CFI (cfiCond164) DPL0 load(1, XDATA, add(CFA_XSP16, literal(-2)))
          CFI (cfiCond164) DPH0 load(1, XDATA, add(CFA_XSP16, literal(-1)))
          CFI (cfiCond164) CFA_SP SP+-4
          CFI (cfiCond164) CFA_XSP16 add(XSP16, 22)
          CFI Block cfiCond165 Using cfiCommon0
          CFI (cfiCond165) Function MT_AfIncomingMsg
          CFI (cfiCond165) Conditional ??CrossCallReturnLabel_91, ??CrossCallReturnLabel_66
          CFI (cfiCond165) R6 load(1, XDATA, add(CFA_XSP16, literal(-22)))
          CFI (cfiCond165) VB load(1, XDATA, add(CFA_XSP16, literal(-21)))
          CFI (cfiCond165) V0 load(1, XDATA, add(CFA_XSP16, literal(-20)))
          CFI (cfiCond165) V1 load(1, XDATA, add(CFA_XSP16, literal(-19)))
          CFI (cfiCond165) V2 load(1, XDATA, add(CFA_XSP16, literal(-18)))
          CFI (cfiCond165) V3 load(1, XDATA, add(CFA_XSP16, literal(-17)))
          CFI (cfiCond165) V4 load(1, XDATA, add(CFA_XSP16, literal(-16)))
          CFI (cfiCond165) V5 load(1, XDATA, add(CFA_XSP16, literal(-15)))
          CFI (cfiCond165) V6 load(1, XDATA, add(CFA_XSP16, literal(-14)))
          CFI (cfiCond165) V7 load(1, XDATA, add(CFA_XSP16, literal(-13)))
          CFI (cfiCond165) V8 load(1, XDATA, add(CFA_XSP16, literal(-12)))
          CFI (cfiCond165) V9 load(1, XDATA, add(CFA_XSP16, literal(-11)))
          CFI (cfiCond165) V10 load(1, XDATA, add(CFA_XSP16, literal(-10)))
          CFI (cfiCond165) V11 load(1, XDATA, add(CFA_XSP16, literal(-9)))
          CFI (cfiCond165) V12 load(1, XDATA, add(CFA_XSP16, literal(-8)))
          CFI (cfiCond165) V13 load(1, XDATA, add(CFA_XSP16, literal(-7)))
          CFI (cfiCond165) R7 load(1, XDATA, add(CFA_XSP16, literal(-6)))
          CFI (cfiCond165) ?RET_LOW load(1, XDATA, add(CFA_XSP16, literal(-5)))
          CFI (cfiCond165) ?RET_HIGH load(1, XDATA, add(CFA_XSP16, literal(-4)))
          CFI (cfiCond165) ?BRET_EXT load(1, XDATA, add(CFA_XSP16, literal(-3)))
          CFI (cfiCond165) DPL0 load(1, XDATA, add(CFA_XSP16, literal(-2)))
          CFI (cfiCond165) DPH0 load(1, XDATA, add(CFA_XSP16, literal(-1)))
          CFI (cfiCond165) CFA_SP SP+-4
          CFI (cfiCond165) CFA_XSP16 add(XSP16, 22)
          CFI Block cfiCond166 Using cfiCommon0
          CFI (cfiCond166) Function MT_AfIncomingMsg
          CFI (cfiCond166) Conditional ??CrossCallReturnLabel_90, ??CrossCallReturnLabel_22
          CFI (cfiCond166) R6 load(1, XDATA, add(CFA_XSP16, literal(-22)))
          CFI (cfiCond166) VB load(1, XDATA, add(CFA_XSP16, literal(-21)))
          CFI (cfiCond166) V0 load(1, XDATA, add(CFA_XSP16, literal(-20)))
          CFI (cfiCond166) V1 load(1, XDATA, add(CFA_XSP16, literal(-19)))
          CFI (cfiCond166) V2 load(1, XDATA, add(CFA_XSP16, literal(-18)))
          CFI (cfiCond166) V3 load(1, XDATA, add(CFA_XSP16, literal(-17)))
          CFI (cfiCond166) V4 load(1, XDATA, add(CFA_XSP16, literal(-16)))
          CFI (cfiCond166) V5 load(1, XDATA, add(CFA_XSP16, literal(-15)))
          CFI (cfiCond166) V6 load(1, XDATA, add(CFA_XSP16, literal(-14)))
          CFI (cfiCond166) V7 load(1, XDATA, add(CFA_XSP16, literal(-13)))
          CFI (cfiCond166) V8 load(1, XDATA, add(CFA_XSP16, literal(-12)))
          CFI (cfiCond166) V9 load(1, XDATA, add(CFA_XSP16, literal(-11)))
          CFI (cfiCond166) V10 load(1, XDATA, add(CFA_XSP16, literal(-10)))
          CFI (cfiCond166) V11 load(1, XDATA, add(CFA_XSP16, literal(-9)))
          CFI (cfiCond166) V12 load(1, XDATA, add(CFA_XSP16, literal(-8)))
          CFI (cfiCond166) V13 load(1, XDATA, add(CFA_XSP16, literal(-7)))
          CFI (cfiCond166) R7 load(1, XDATA, add(CFA_XSP16, literal(-6)))
          CFI (cfiCond166) ?RET_LOW load(1, XDATA, add(CFA_XSP16, literal(-5)))
          CFI (cfiCond166) ?RET_HIGH load(1, XDATA, add(CFA_XSP16, literal(-4)))
          CFI (cfiCond166) ?BRET_EXT load(1, XDATA, add(CFA_XSP16, literal(-3)))
          CFI (cfiCond166) DPL0 load(1, XDATA, add(CFA_XSP16, literal(-2)))
          CFI (cfiCond166) DPH0 load(1, XDATA, add(CFA_XSP16, literal(-1)))
          CFI (cfiCond166) CFA_SP SP+-4
          CFI (cfiCond166) CFA_XSP16 add(XSP16, 22)
          CFI Block cfiCond167 Using cfiCommon0
          CFI (cfiCond167) Function MT_AfIncomingMsg
          CFI (cfiCond167) Conditional ??CrossCallReturnLabel_90, ??CrossCallReturnLabel_23
          CFI (cfiCond167) R6 load(1, XDATA, add(CFA_XSP16, literal(-22)))
          CFI (cfiCond167) VB load(1, XDATA, add(CFA_XSP16, literal(-21)))
          CFI (cfiCond167) V0 load(1, XDATA, add(CFA_XSP16, literal(-20)))
          CFI (cfiCond167) V1 load(1, XDATA, add(CFA_XSP16, literal(-19)))
          CFI (cfiCond167) V2 load(1, XDATA, add(CFA_XSP16, literal(-18)))
          CFI (cfiCond167) V3 load(1, XDATA, add(CFA_XSP16, literal(-17)))
          CFI (cfiCond167) V4 load(1, XDATA, add(CFA_XSP16, literal(-16)))
          CFI (cfiCond167) V5 load(1, XDATA, add(CFA_XSP16, literal(-15)))
          CFI (cfiCond167) V6 load(1, XDATA, add(CFA_XSP16, literal(-14)))
          CFI (cfiCond167) V7 load(1, XDATA, add(CFA_XSP16, literal(-13)))
          CFI (cfiCond167) V8 load(1, XDATA, add(CFA_XSP16, literal(-12)))
          CFI (cfiCond167) V9 load(1, XDATA, add(CFA_XSP16, literal(-11)))
          CFI (cfiCond167) V10 load(1, XDATA, add(CFA_XSP16, literal(-10)))
          CFI (cfiCond167) V11 load(1, XDATA, add(CFA_XSP16, literal(-9)))
          CFI (cfiCond167) V12 load(1, XDATA, add(CFA_XSP16, literal(-8)))
          CFI (cfiCond167) V13 load(1, XDATA, add(CFA_XSP16, literal(-7)))
          CFI (cfiCond167) R7 load(1, XDATA, add(CFA_XSP16, literal(-6)))
          CFI (cfiCond167) ?RET_LOW load(1, XDATA, add(CFA_XSP16, literal(-5)))
          CFI (cfiCond167) ?RET_HIGH load(1, XDATA, add(CFA_XSP16, literal(-4)))
          CFI (cfiCond167) ?BRET_EXT load(1, XDATA, add(CFA_XSP16, literal(-3)))
          CFI (cfiCond167) DPL0 load(1, XDATA, add(CFA_XSP16, literal(-2)))
          CFI (cfiCond167) DPH0 load(1, XDATA, add(CFA_XSP16, literal(-1)))
          CFI (cfiCond167) CFA_SP SP+-4
          CFI (cfiCond167) CFA_XSP16 add(XSP16, 22)
          CFI Block cfiCond168 Using cfiCommon0
          CFI (cfiCond168) Function MT_AfIncomingMsg
          CFI (cfiCond168) Conditional ??CrossCallReturnLabel_89, ??CrossCallReturnLabel_0
          CFI (cfiCond168) R6 load(1, XDATA, add(CFA_XSP16, literal(-22)))
          CFI (cfiCond168) VB load(1, XDATA, add(CFA_XSP16, literal(-21)))
          CFI (cfiCond168) V0 load(1, XDATA, add(CFA_XSP16, literal(-20)))
          CFI (cfiCond168) V1 load(1, XDATA, add(CFA_XSP16, literal(-19)))
          CFI (cfiCond168) V2 load(1, XDATA, add(CFA_XSP16, literal(-18)))
          CFI (cfiCond168) V3 load(1, XDATA, add(CFA_XSP16, literal(-17)))
          CFI (cfiCond168) V4 load(1, XDATA, add(CFA_XSP16, literal(-16)))
          CFI (cfiCond168) V5 load(1, XDATA, add(CFA_XSP16, literal(-15)))
          CFI (cfiCond168) V6 load(1, XDATA, add(CFA_XSP16, literal(-14)))
          CFI (cfiCond168) V7 load(1, XDATA, add(CFA_XSP16, literal(-13)))
          CFI (cfiCond168) V8 load(1, XDATA, add(CFA_XSP16, literal(-12)))
          CFI (cfiCond168) V9 load(1, XDATA, add(CFA_XSP16, literal(-11)))
          CFI (cfiCond168) V10 load(1, XDATA, add(CFA_XSP16, literal(-10)))
          CFI (cfiCond168) V11 load(1, XDATA, add(CFA_XSP16, literal(-9)))
          CFI (cfiCond168) V12 load(1, XDATA, add(CFA_XSP16, literal(-8)))
          CFI (cfiCond168) V13 load(1, XDATA, add(CFA_XSP16, literal(-7)))
          CFI (cfiCond168) R7 load(1, XDATA, add(CFA_XSP16, literal(-6)))
          CFI (cfiCond168) ?RET_LOW load(1, XDATA, add(CFA_XSP16, literal(-5)))
          CFI (cfiCond168) ?RET_HIGH load(1, XDATA, add(CFA_XSP16, literal(-4)))
          CFI (cfiCond168) ?BRET_EXT load(1, XDATA, add(CFA_XSP16, literal(-3)))
          CFI (cfiCond168) DPL0 load(1, XDATA, add(CFA_XSP16, literal(-2)))
          CFI (cfiCond168) DPH0 load(1, XDATA, add(CFA_XSP16, literal(-1)))
          CFI (cfiCond168) CFA_SP SP+-4
          CFI (cfiCond168) CFA_XSP16 add(XSP16, 22)
          CFI Block cfiCond169 Using cfiCommon0
          CFI (cfiCond169) Function MT_AfIncomingMsg
          CFI (cfiCond169) Conditional ??CrossCallReturnLabel_89, ??CrossCallReturnLabel_1
          CFI (cfiCond169) R6 load(1, XDATA, add(CFA_XSP16, literal(-22)))
          CFI (cfiCond169) VB load(1, XDATA, add(CFA_XSP16, literal(-21)))
          CFI (cfiCond169) V0 load(1, XDATA, add(CFA_XSP16, literal(-20)))
          CFI (cfiCond169) V1 load(1, XDATA, add(CFA_XSP16, literal(-19)))
          CFI (cfiCond169) V2 load(1, XDATA, add(CFA_XSP16, literal(-18)))
          CFI (cfiCond169) V3 load(1, XDATA, add(CFA_XSP16, literal(-17)))
          CFI (cfiCond169) V4 load(1, XDATA, add(CFA_XSP16, literal(-16)))
          CFI (cfiCond169) V5 load(1, XDATA, add(CFA_XSP16, literal(-15)))
          CFI (cfiCond169) V6 load(1, XDATA, add(CFA_XSP16, literal(-14)))
          CFI (cfiCond169) V7 load(1, XDATA, add(CFA_XSP16, literal(-13)))
          CFI (cfiCond169) V8 load(1, XDATA, add(CFA_XSP16, literal(-12)))
          CFI (cfiCond169) V9 load(1, XDATA, add(CFA_XSP16, literal(-11)))
          CFI (cfiCond169) V10 load(1, XDATA, add(CFA_XSP16, literal(-10)))
          CFI (cfiCond169) V11 load(1, XDATA, add(CFA_XSP16, literal(-9)))
          CFI (cfiCond169) V12 load(1, XDATA, add(CFA_XSP16, literal(-8)))
          CFI (cfiCond169) V13 load(1, XDATA, add(CFA_XSP16, literal(-7)))
          CFI (cfiCond169) R7 load(1, XDATA, add(CFA_XSP16, literal(-6)))
          CFI (cfiCond169) ?RET_LOW load(1, XDATA, add(CFA_XSP16, literal(-5)))
          CFI (cfiCond169) ?RET_HIGH load(1, XDATA, add(CFA_XSP16, literal(-4)))
          CFI (cfiCond169) ?BRET_EXT load(1, XDATA, add(CFA_XSP16, literal(-3)))
          CFI (cfiCond169) DPL0 load(1, XDATA, add(CFA_XSP16, literal(-2)))
          CFI (cfiCond169) DPH0 load(1, XDATA, add(CFA_XSP16, literal(-1)))
          CFI (cfiCond169) CFA_SP SP+-4
          CFI (cfiCond169) CFA_XSP16 add(XSP16, 22)
          CFI Block cfiPicker170 Using cfiCommon1
          CFI (cfiPicker170) NoFunction
          CFI (cfiPicker170) Picker
        MOV       R0,A
        CLR       A
        ADDC      A,?V9
        MOV       R1,A
        MOV       DPL,R0
        MOV       DPH,A
        RET
          CFI EndBlock cfiCond163
          CFI EndBlock cfiCond164
          CFI EndBlock cfiCond165
          CFI EndBlock cfiCond166
          CFI EndBlock cfiCond167
          CFI EndBlock cfiCond168
          CFI EndBlock cfiCond169
          CFI EndBlock cfiPicker170

        RSEG BANKED_CODE:HUGECODE:NOROOT(0)
?Subroutine34:
          CFI Block cfiCond171 Using cfiCommon0
          CFI Function MT_AfIncomingMsg
          CFI Conditional ??CrossCallReturnLabel_59
          CFI R6 load(1, XDATA, add(CFA_XSP16, literal(-22)))
          CFI VB load(1, XDATA, add(CFA_XSP16, literal(-21)))
          CFI V0 load(1, XDATA, add(CFA_XSP16, literal(-20)))
          CFI V1 load(1, XDATA, add(CFA_XSP16, literal(-19)))
          CFI V2 load(1, XDATA, add(CFA_XSP16, literal(-18)))
          CFI V3 load(1, XDATA, add(CFA_XSP16, literal(-17)))
          CFI V4 load(1, XDATA, add(CFA_XSP16, literal(-16)))
          CFI V5 load(1, XDATA, add(CFA_XSP16, literal(-15)))
          CFI V6 load(1, XDATA, add(CFA_XSP16, literal(-14)))
          CFI V7 load(1, XDATA, add(CFA_XSP16, literal(-13)))
          CFI V8 load(1, XDATA, add(CFA_XSP16, literal(-12)))
          CFI V9 load(1, XDATA, add(CFA_XSP16, literal(-11)))
          CFI V10 load(1, XDATA, add(CFA_XSP16, literal(-10)))
          CFI V11 load(1, XDATA, add(CFA_XSP16, literal(-9)))
          CFI V12 load(1, XDATA, add(CFA_XSP16, literal(-8)))
          CFI V13 load(1, XDATA, add(CFA_XSP16, literal(-7)))
          CFI R7 load(1, XDATA, add(CFA_XSP16, literal(-6)))
          CFI ?RET_LOW load(1, XDATA, add(CFA_XSP16, literal(-5)))
          CFI ?RET_HIGH load(1, XDATA, add(CFA_XSP16, literal(-4)))
          CFI ?BRET_EXT load(1, XDATA, add(CFA_XSP16, literal(-3)))
          CFI DPL0 load(1, XDATA, add(CFA_XSP16, literal(-2)))
          CFI DPH0 load(1, XDATA, add(CFA_XSP16, literal(-1)))
          CFI CFA_SP SP+-2
          CFI CFA_XSP16 add(XSP16, 22)
          CFI Block cfiCond172 Using cfiCommon0
          CFI (cfiCond172) Function MT_AfIncomingMsg
          CFI (cfiCond172) Conditional ??CrossCallReturnLabel_60
          CFI (cfiCond172) R6 load(1, XDATA, add(CFA_XSP16, literal(-22)))
          CFI (cfiCond172) VB load(1, XDATA, add(CFA_XSP16, literal(-21)))
          CFI (cfiCond172) V0 load(1, XDATA, add(CFA_XSP16, literal(-20)))
          CFI (cfiCond172) V1 load(1, XDATA, add(CFA_XSP16, literal(-19)))
          CFI (cfiCond172) V2 load(1, XDATA, add(CFA_XSP16, literal(-18)))
          CFI (cfiCond172) V3 load(1, XDATA, add(CFA_XSP16, literal(-17)))
          CFI (cfiCond172) V4 load(1, XDATA, add(CFA_XSP16, literal(-16)))
          CFI (cfiCond172) V5 load(1, XDATA, add(CFA_XSP16, literal(-15)))
          CFI (cfiCond172) V6 load(1, XDATA, add(CFA_XSP16, literal(-14)))
          CFI (cfiCond172) V7 load(1, XDATA, add(CFA_XSP16, literal(-13)))
          CFI (cfiCond172) V8 load(1, XDATA, add(CFA_XSP16, literal(-12)))
          CFI (cfiCond172) V9 load(1, XDATA, add(CFA_XSP16, literal(-11)))
          CFI (cfiCond172) V10 load(1, XDATA, add(CFA_XSP16, literal(-10)))
          CFI (cfiCond172) V11 load(1, XDATA, add(CFA_XSP16, literal(-9)))
          CFI (cfiCond172) V12 load(1, XDATA, add(CFA_XSP16, literal(-8)))
          CFI (cfiCond172) V13 load(1, XDATA, add(CFA_XSP16, literal(-7)))
          CFI (cfiCond172) R7 load(1, XDATA, add(CFA_XSP16, literal(-6)))
          CFI (cfiCond172) ?RET_LOW load(1, XDATA, add(CFA_XSP16, literal(-5)))
          CFI (cfiCond172) ?RET_HIGH load(1, XDATA, add(CFA_XSP16, literal(-4)))
          CFI (cfiCond172) ?BRET_EXT load(1, XDATA, add(CFA_XSP16, literal(-3)))
          CFI (cfiCond172) DPL0 load(1, XDATA, add(CFA_XSP16, literal(-2)))
          CFI (cfiCond172) DPH0 load(1, XDATA, add(CFA_XSP16, literal(-1)))
          CFI (cfiCond172) CFA_SP SP+-2
          CFI (cfiCond172) CFA_XSP16 add(XSP16, 22)
          CFI Block cfiCond173 Using cfiCommon0
          CFI (cfiCond173) Function MT_AfIncomingMsg
          CFI (cfiCond173) Conditional ??CrossCallReturnLabel_61
          CFI (cfiCond173) R6 load(1, XDATA, add(CFA_XSP16, literal(-22)))
          CFI (cfiCond173) VB load(1, XDATA, add(CFA_XSP16, literal(-21)))
          CFI (cfiCond173) V0 load(1, XDATA, add(CFA_XSP16, literal(-20)))
          CFI (cfiCond173) V1 load(1, XDATA, add(CFA_XSP16, literal(-19)))
          CFI (cfiCond173) V2 load(1, XDATA, add(CFA_XSP16, literal(-18)))
          CFI (cfiCond173) V3 load(1, XDATA, add(CFA_XSP16, literal(-17)))
          CFI (cfiCond173) V4 load(1, XDATA, add(CFA_XSP16, literal(-16)))
          CFI (cfiCond173) V5 load(1, XDATA, add(CFA_XSP16, literal(-15)))
          CFI (cfiCond173) V6 load(1, XDATA, add(CFA_XSP16, literal(-14)))
          CFI (cfiCond173) V7 load(1, XDATA, add(CFA_XSP16, literal(-13)))
          CFI (cfiCond173) V8 load(1, XDATA, add(CFA_XSP16, literal(-12)))
          CFI (cfiCond173) V9 load(1, XDATA, add(CFA_XSP16, literal(-11)))
          CFI (cfiCond173) V10 load(1, XDATA, add(CFA_XSP16, literal(-10)))
          CFI (cfiCond173) V11 load(1, XDATA, add(CFA_XSP16, literal(-9)))
          CFI (cfiCond173) V12 load(1, XDATA, add(CFA_XSP16, literal(-8)))
          CFI (cfiCond173) V13 load(1, XDATA, add(CFA_XSP16, literal(-7)))
          CFI (cfiCond173) R7 load(1, XDATA, add(CFA_XSP16, literal(-6)))
          CFI (cfiCond173) ?RET_LOW load(1, XDATA, add(CFA_XSP16, literal(-5)))
          CFI (cfiCond173) ?RET_HIGH load(1, XDATA, add(CFA_XSP16, literal(-4)))
          CFI (cfiCond173) ?BRET_EXT load(1, XDATA, add(CFA_XSP16, literal(-3)))
          CFI (cfiCond173) DPL0 load(1, XDATA, add(CFA_XSP16, literal(-2)))
          CFI (cfiCond173) DPH0 load(1, XDATA, add(CFA_XSP16, literal(-1)))
          CFI (cfiCond173) CFA_SP SP+-2
          CFI (cfiCond173) CFA_XSP16 add(XSP16, 22)
          CFI Block cfiCond174 Using cfiCommon0
          CFI (cfiCond174) Function MT_AfIncomingMsg
          CFI (cfiCond174) Conditional ??CrossCallReturnLabel_62
          CFI (cfiCond174) R6 load(1, XDATA, add(CFA_XSP16, literal(-22)))
          CFI (cfiCond174) VB load(1, XDATA, add(CFA_XSP16, literal(-21)))
          CFI (cfiCond174) V0 load(1, XDATA, add(CFA_XSP16, literal(-20)))
          CFI (cfiCond174) V1 load(1, XDATA, add(CFA_XSP16, literal(-19)))
          CFI (cfiCond174) V2 load(1, XDATA, add(CFA_XSP16, literal(-18)))
          CFI (cfiCond174) V3 load(1, XDATA, add(CFA_XSP16, literal(-17)))
          CFI (cfiCond174) V4 load(1, XDATA, add(CFA_XSP16, literal(-16)))
          CFI (cfiCond174) V5 load(1, XDATA, add(CFA_XSP16, literal(-15)))
          CFI (cfiCond174) V6 load(1, XDATA, add(CFA_XSP16, literal(-14)))
          CFI (cfiCond174) V7 load(1, XDATA, add(CFA_XSP16, literal(-13)))
          CFI (cfiCond174) V8 load(1, XDATA, add(CFA_XSP16, literal(-12)))
          CFI (cfiCond174) V9 load(1, XDATA, add(CFA_XSP16, literal(-11)))
          CFI (cfiCond174) V10 load(1, XDATA, add(CFA_XSP16, literal(-10)))
          CFI (cfiCond174) V11 load(1, XDATA, add(CFA_XSP16, literal(-9)))
          CFI (cfiCond174) V12 load(1, XDATA, add(CFA_XSP16, literal(-8)))
          CFI (cfiCond174) V13 load(1, XDATA, add(CFA_XSP16, literal(-7)))
          CFI (cfiCond174) R7 load(1, XDATA, add(CFA_XSP16, literal(-6)))
          CFI (cfiCond174) ?RET_LOW load(1, XDATA, add(CFA_XSP16, literal(-5)))
          CFI (cfiCond174) ?RET_HIGH load(1, XDATA, add(CFA_XSP16, literal(-4)))
          CFI (cfiCond174) ?BRET_EXT load(1, XDATA, add(CFA_XSP16, literal(-3)))
          CFI (cfiCond174) DPL0 load(1, XDATA, add(CFA_XSP16, literal(-2)))
          CFI (cfiCond174) DPH0 load(1, XDATA, add(CFA_XSP16, literal(-1)))
          CFI (cfiCond174) CFA_SP SP+-2
          CFI (cfiCond174) CFA_XSP16 add(XSP16, 22)
          CFI Block cfiCond175 Using cfiCommon0
          CFI (cfiCond175) Function MT_AfIncomingMsg
          CFI (cfiCond175) Conditional ??CrossCallReturnLabel_63
          CFI (cfiCond175) R6 load(1, XDATA, add(CFA_XSP16, literal(-22)))
          CFI (cfiCond175) VB load(1, XDATA, add(CFA_XSP16, literal(-21)))
          CFI (cfiCond175) V0 load(1, XDATA, add(CFA_XSP16, literal(-20)))
          CFI (cfiCond175) V1 load(1, XDATA, add(CFA_XSP16, literal(-19)))
          CFI (cfiCond175) V2 load(1, XDATA, add(CFA_XSP16, literal(-18)))
          CFI (cfiCond175) V3 load(1, XDATA, add(CFA_XSP16, literal(-17)))
          CFI (cfiCond175) V4 load(1, XDATA, add(CFA_XSP16, literal(-16)))
          CFI (cfiCond175) V5 load(1, XDATA, add(CFA_XSP16, literal(-15)))
          CFI (cfiCond175) V6 load(1, XDATA, add(CFA_XSP16, literal(-14)))
          CFI (cfiCond175) V7 load(1, XDATA, add(CFA_XSP16, literal(-13)))
          CFI (cfiCond175) V8 load(1, XDATA, add(CFA_XSP16, literal(-12)))
          CFI (cfiCond175) V9 load(1, XDATA, add(CFA_XSP16, literal(-11)))
          CFI (cfiCond175) V10 load(1, XDATA, add(CFA_XSP16, literal(-10)))
          CFI (cfiCond175) V11 load(1, XDATA, add(CFA_XSP16, literal(-9)))
          CFI (cfiCond175) V12 load(1, XDATA, add(CFA_XSP16, literal(-8)))
          CFI (cfiCond175) V13 load(1, XDATA, add(CFA_XSP16, literal(-7)))
          CFI (cfiCond175) R7 load(1, XDATA, add(CFA_XSP16, literal(-6)))
          CFI (cfiCond175) ?RET_LOW load(1, XDATA, add(CFA_XSP16, literal(-5)))
          CFI (cfiCond175) ?RET_HIGH load(1, XDATA, add(CFA_XSP16, literal(-4)))
          CFI (cfiCond175) ?BRET_EXT load(1, XDATA, add(CFA_XSP16, literal(-3)))
          CFI (cfiCond175) DPL0 load(1, XDATA, add(CFA_XSP16, literal(-2)))
          CFI (cfiCond175) DPH0 load(1, XDATA, add(CFA_XSP16, literal(-1)))
          CFI (cfiCond175) CFA_SP SP+-2
          CFI (cfiCond175) CFA_XSP16 add(XSP16, 22)
          CFI Block cfiPicker176 Using cfiCommon1
          CFI (cfiPicker176) NoFunction
          CFI (cfiPicker176) Picker
        LCALL     ?Subroutine50 & 0xFFFF
??CrossCallReturnLabel_98:
        MOVX      A,@DPTR
        RET
          CFI EndBlock cfiCond171
          CFI EndBlock cfiCond172
          CFI EndBlock cfiCond173
          CFI EndBlock cfiCond174
          CFI EndBlock cfiCond175
          CFI EndBlock cfiPicker176

        RSEG BANKED_CODE:HUGECODE:NOROOT(0)
?Subroutine23:
          CFI Block cfiCond177 Using cfiCommon0
          CFI Function MT_AfIncomingMsg
          CFI Conditional ??CrossCallReturnLabel_37
          CFI R6 load(1, XDATA, add(CFA_XSP16, literal(-22)))
          CFI VB load(1, XDATA, add(CFA_XSP16, literal(-21)))
          CFI V0 load(1, XDATA, add(CFA_XSP16, literal(-20)))
          CFI V1 load(1, XDATA, add(CFA_XSP16, literal(-19)))
          CFI V2 load(1, XDATA, add(CFA_XSP16, literal(-18)))
          CFI V3 load(1, XDATA, add(CFA_XSP16, literal(-17)))
          CFI V4 load(1, XDATA, add(CFA_XSP16, literal(-16)))
          CFI V5 load(1, XDATA, add(CFA_XSP16, literal(-15)))
          CFI V6 load(1, XDATA, add(CFA_XSP16, literal(-14)))
          CFI V7 load(1, XDATA, add(CFA_XSP16, literal(-13)))
          CFI V8 load(1, XDATA, add(CFA_XSP16, literal(-12)))
          CFI V9 load(1, XDATA, add(CFA_XSP16, literal(-11)))
          CFI V10 load(1, XDATA, add(CFA_XSP16, literal(-10)))
          CFI V11 load(1, XDATA, add(CFA_XSP16, literal(-9)))
          CFI V12 load(1, XDATA, add(CFA_XSP16, literal(-8)))
          CFI V13 load(1, XDATA, add(CFA_XSP16, literal(-7)))
          CFI R7 load(1, XDATA, add(CFA_XSP16, literal(-6)))
          CFI ?RET_LOW load(1, XDATA, add(CFA_XSP16, literal(-5)))
          CFI ?RET_HIGH load(1, XDATA, add(CFA_XSP16, literal(-4)))
          CFI ?BRET_EXT load(1, XDATA, add(CFA_XSP16, literal(-3)))
          CFI DPL0 load(1, XDATA, add(CFA_XSP16, literal(-2)))
          CFI DPH0 load(1, XDATA, add(CFA_XSP16, literal(-1)))
          CFI CFA_SP SP+-2
          CFI CFA_XSP16 add(XSP16, 22)
          CFI Block cfiCond178 Using cfiCommon0
          CFI (cfiCond178) Function MT_AfIncomingMsg
          CFI (cfiCond178) Conditional ??CrossCallReturnLabel_38
          CFI (cfiCond178) R6 load(1, XDATA, add(CFA_XSP16, literal(-22)))
          CFI (cfiCond178) VB load(1, XDATA, add(CFA_XSP16, literal(-21)))
          CFI (cfiCond178) V0 load(1, XDATA, add(CFA_XSP16, literal(-20)))
          CFI (cfiCond178) V1 load(1, XDATA, add(CFA_XSP16, literal(-19)))
          CFI (cfiCond178) V2 load(1, XDATA, add(CFA_XSP16, literal(-18)))
          CFI (cfiCond178) V3 load(1, XDATA, add(CFA_XSP16, literal(-17)))
          CFI (cfiCond178) V4 load(1, XDATA, add(CFA_XSP16, literal(-16)))
          CFI (cfiCond178) V5 load(1, XDATA, add(CFA_XSP16, literal(-15)))
          CFI (cfiCond178) V6 load(1, XDATA, add(CFA_XSP16, literal(-14)))
          CFI (cfiCond178) V7 load(1, XDATA, add(CFA_XSP16, literal(-13)))
          CFI (cfiCond178) V8 load(1, XDATA, add(CFA_XSP16, literal(-12)))
          CFI (cfiCond178) V9 load(1, XDATA, add(CFA_XSP16, literal(-11)))
          CFI (cfiCond178) V10 load(1, XDATA, add(CFA_XSP16, literal(-10)))
          CFI (cfiCond178) V11 load(1, XDATA, add(CFA_XSP16, literal(-9)))
          CFI (cfiCond178) V12 load(1, XDATA, add(CFA_XSP16, literal(-8)))
          CFI (cfiCond178) V13 load(1, XDATA, add(CFA_XSP16, literal(-7)))
          CFI (cfiCond178) R7 load(1, XDATA, add(CFA_XSP16, literal(-6)))
          CFI (cfiCond178) ?RET_LOW load(1, XDATA, add(CFA_XSP16, literal(-5)))
          CFI (cfiCond178) ?RET_HIGH load(1, XDATA, add(CFA_XSP16, literal(-4)))
          CFI (cfiCond178) ?BRET_EXT load(1, XDATA, add(CFA_XSP16, literal(-3)))
          CFI (cfiCond178) DPL0 load(1, XDATA, add(CFA_XSP16, literal(-2)))
          CFI (cfiCond178) DPH0 load(1, XDATA, add(CFA_XSP16, literal(-1)))
          CFI (cfiCond178) CFA_SP SP+-2
          CFI (cfiCond178) CFA_XSP16 add(XSP16, 22)
          CFI Block cfiPicker179 Using cfiCommon1
          CFI (cfiPicker179) NoFunction
          CFI (cfiPicker179) Picker
        LCALL     ?Subroutine45 & 0xFFFF
??CrossCallReturnLabel_85:
        INC       DPTR
        INC       DPTR
        INC       DPTR
        MOV       A,?V0
        MOVX      @DPTR,A
        RET
          CFI EndBlock cfiCond177
          CFI EndBlock cfiCond178
          CFI EndBlock cfiPicker179

        RSEG BANKED_CODE:HUGECODE:NOROOT(0)
?Subroutine22:
          CFI Block cfiCond180 Using cfiCommon0
          CFI Function MT_AfIncomingMsg
          CFI Conditional ??CrossCallReturnLabel_35
          CFI R6 load(1, XDATA, add(CFA_XSP16, literal(-22)))
          CFI VB load(1, XDATA, add(CFA_XSP16, literal(-21)))
          CFI V0 load(1, XDATA, add(CFA_XSP16, literal(-20)))
          CFI V1 load(1, XDATA, add(CFA_XSP16, literal(-19)))
          CFI V2 load(1, XDATA, add(CFA_XSP16, literal(-18)))
          CFI V3 load(1, XDATA, add(CFA_XSP16, literal(-17)))
          CFI V4 load(1, XDATA, add(CFA_XSP16, literal(-16)))
          CFI V5 load(1, XDATA, add(CFA_XSP16, literal(-15)))
          CFI V6 load(1, XDATA, add(CFA_XSP16, literal(-14)))
          CFI V7 load(1, XDATA, add(CFA_XSP16, literal(-13)))
          CFI V8 load(1, XDATA, add(CFA_XSP16, literal(-12)))
          CFI V9 load(1, XDATA, add(CFA_XSP16, literal(-11)))
          CFI V10 load(1, XDATA, add(CFA_XSP16, literal(-10)))
          CFI V11 load(1, XDATA, add(CFA_XSP16, literal(-9)))
          CFI V12 load(1, XDATA, add(CFA_XSP16, literal(-8)))
          CFI V13 load(1, XDATA, add(CFA_XSP16, literal(-7)))
          CFI R7 load(1, XDATA, add(CFA_XSP16, literal(-6)))
          CFI ?RET_LOW load(1, XDATA, add(CFA_XSP16, literal(-5)))
          CFI ?RET_HIGH load(1, XDATA, add(CFA_XSP16, literal(-4)))
          CFI ?BRET_EXT load(1, XDATA, add(CFA_XSP16, literal(-3)))
          CFI DPL0 load(1, XDATA, add(CFA_XSP16, literal(-2)))
          CFI DPH0 load(1, XDATA, add(CFA_XSP16, literal(-1)))
          CFI CFA_SP SP+-2
          CFI CFA_XSP16 add(XSP16, 22)
          CFI Block cfiCond181 Using cfiCommon0
          CFI (cfiCond181) Function MT_AfIncomingMsg
          CFI (cfiCond181) Conditional ??CrossCallReturnLabel_36
          CFI (cfiCond181) R6 load(1, XDATA, add(CFA_XSP16, literal(-22)))
          CFI (cfiCond181) VB load(1, XDATA, add(CFA_XSP16, literal(-21)))
          CFI (cfiCond181) V0 load(1, XDATA, add(CFA_XSP16, literal(-20)))
          CFI (cfiCond181) V1 load(1, XDATA, add(CFA_XSP16, literal(-19)))
          CFI (cfiCond181) V2 load(1, XDATA, add(CFA_XSP16, literal(-18)))
          CFI (cfiCond181) V3 load(1, XDATA, add(CFA_XSP16, literal(-17)))
          CFI (cfiCond181) V4 load(1, XDATA, add(CFA_XSP16, literal(-16)))
          CFI (cfiCond181) V5 load(1, XDATA, add(CFA_XSP16, literal(-15)))
          CFI (cfiCond181) V6 load(1, XDATA, add(CFA_XSP16, literal(-14)))
          CFI (cfiCond181) V7 load(1, XDATA, add(CFA_XSP16, literal(-13)))
          CFI (cfiCond181) V8 load(1, XDATA, add(CFA_XSP16, literal(-12)))
          CFI (cfiCond181) V9 load(1, XDATA, add(CFA_XSP16, literal(-11)))
          CFI (cfiCond181) V10 load(1, XDATA, add(CFA_XSP16, literal(-10)))
          CFI (cfiCond181) V11 load(1, XDATA, add(CFA_XSP16, literal(-9)))
          CFI (cfiCond181) V12 load(1, XDATA, add(CFA_XSP16, literal(-8)))
          CFI (cfiCond181) V13 load(1, XDATA, add(CFA_XSP16, literal(-7)))
          CFI (cfiCond181) R7 load(1, XDATA, add(CFA_XSP16, literal(-6)))
          CFI (cfiCond181) ?RET_LOW load(1, XDATA, add(CFA_XSP16, literal(-5)))
          CFI (cfiCond181) ?RET_HIGH load(1, XDATA, add(CFA_XSP16, literal(-4)))
          CFI (cfiCond181) ?BRET_EXT load(1, XDATA, add(CFA_XSP16, literal(-3)))
          CFI (cfiCond181) DPL0 load(1, XDATA, add(CFA_XSP16, literal(-2)))
          CFI (cfiCond181) DPH0 load(1, XDATA, add(CFA_XSP16, literal(-1)))
          CFI (cfiCond181) CFA_SP SP+-2
          CFI (cfiCond181) CFA_XSP16 add(XSP16, 22)
          CFI Block cfiPicker182 Using cfiCommon1
          CFI (cfiPicker182) NoFunction
          CFI (cfiPicker182) Picker
        LCALL     ?Subroutine39 & 0xFFFF
??CrossCallReturnLabel_114:
        RET
          CFI EndBlock cfiCond180
          CFI EndBlock cfiCond181
          CFI EndBlock cfiPicker182

        RSEG BANKED_CODE:HUGECODE:NOROOT(0)
?Subroutine39:
          CFI Block cfiCond183 Using cfiCommon0
          CFI Function MT_AfIncomingMsg
          CFI Conditional ??CrossCallReturnLabel_114, ??CrossCallReturnLabel_35
          CFI R6 load(1, XDATA, add(CFA_XSP16, literal(-22)))
          CFI VB load(1, XDATA, add(CFA_XSP16, literal(-21)))
          CFI V0 load(1, XDATA, add(CFA_XSP16, literal(-20)))
          CFI V1 load(1, XDATA, add(CFA_XSP16, literal(-19)))
          CFI V2 load(1, XDATA, add(CFA_XSP16, literal(-18)))
          CFI V3 load(1, XDATA, add(CFA_XSP16, literal(-17)))
          CFI V4 load(1, XDATA, add(CFA_XSP16, literal(-16)))
          CFI V5 load(1, XDATA, add(CFA_XSP16, literal(-15)))
          CFI V6 load(1, XDATA, add(CFA_XSP16, literal(-14)))
          CFI V7 load(1, XDATA, add(CFA_XSP16, literal(-13)))
          CFI V8 load(1, XDATA, add(CFA_XSP16, literal(-12)))
          CFI V9 load(1, XDATA, add(CFA_XSP16, literal(-11)))
          CFI V10 load(1, XDATA, add(CFA_XSP16, literal(-10)))
          CFI V11 load(1, XDATA, add(CFA_XSP16, literal(-9)))
          CFI V12 load(1, XDATA, add(CFA_XSP16, literal(-8)))
          CFI V13 load(1, XDATA, add(CFA_XSP16, literal(-7)))
          CFI R7 load(1, XDATA, add(CFA_XSP16, literal(-6)))
          CFI ?RET_LOW load(1, XDATA, add(CFA_XSP16, literal(-5)))
          CFI ?RET_HIGH load(1, XDATA, add(CFA_XSP16, literal(-4)))
          CFI ?BRET_EXT load(1, XDATA, add(CFA_XSP16, literal(-3)))
          CFI DPL0 load(1, XDATA, add(CFA_XSP16, literal(-2)))
          CFI DPH0 load(1, XDATA, add(CFA_XSP16, literal(-1)))
          CFI CFA_SP SP+-4
          CFI CFA_XSP16 add(XSP16, 22)
          CFI Block cfiCond184 Using cfiCommon0
          CFI (cfiCond184) Function MT_AfIncomingMsg
          CFI (cfiCond184) Conditional ??CrossCallReturnLabel_114, ??CrossCallReturnLabel_36
          CFI (cfiCond184) R6 load(1, XDATA, add(CFA_XSP16, literal(-22)))
          CFI (cfiCond184) VB load(1, XDATA, add(CFA_XSP16, literal(-21)))
          CFI (cfiCond184) V0 load(1, XDATA, add(CFA_XSP16, literal(-20)))
          CFI (cfiCond184) V1 load(1, XDATA, add(CFA_XSP16, literal(-19)))
          CFI (cfiCond184) V2 load(1, XDATA, add(CFA_XSP16, literal(-18)))
          CFI (cfiCond184) V3 load(1, XDATA, add(CFA_XSP16, literal(-17)))
          CFI (cfiCond184) V4 load(1, XDATA, add(CFA_XSP16, literal(-16)))
          CFI (cfiCond184) V5 load(1, XDATA, add(CFA_XSP16, literal(-15)))
          CFI (cfiCond184) V6 load(1, XDATA, add(CFA_XSP16, literal(-14)))
          CFI (cfiCond184) V7 load(1, XDATA, add(CFA_XSP16, literal(-13)))
          CFI (cfiCond184) V8 load(1, XDATA, add(CFA_XSP16, literal(-12)))
          CFI (cfiCond184) V9 load(1, XDATA, add(CFA_XSP16, literal(-11)))
          CFI (cfiCond184) V10 load(1, XDATA, add(CFA_XSP16, literal(-10)))
          CFI (cfiCond184) V11 load(1, XDATA, add(CFA_XSP16, literal(-9)))
          CFI (cfiCond184) V12 load(1, XDATA, add(CFA_XSP16, literal(-8)))
          CFI (cfiCond184) V13 load(1, XDATA, add(CFA_XSP16, literal(-7)))
          CFI (cfiCond184) R7 load(1, XDATA, add(CFA_XSP16, literal(-6)))
          CFI (cfiCond184) ?RET_LOW load(1, XDATA, add(CFA_XSP16, literal(-5)))
          CFI (cfiCond184) ?RET_HIGH load(1, XDATA, add(CFA_XSP16, literal(-4)))
          CFI (cfiCond184) ?BRET_EXT load(1, XDATA, add(CFA_XSP16, literal(-3)))
          CFI (cfiCond184) DPL0 load(1, XDATA, add(CFA_XSP16, literal(-2)))
          CFI (cfiCond184) DPH0 load(1, XDATA, add(CFA_XSP16, literal(-1)))
          CFI (cfiCond184) CFA_SP SP+-4
          CFI (cfiCond184) CFA_XSP16 add(XSP16, 22)
          CFI Block cfiCond185 Using cfiCommon0
          CFI (cfiCond185) Function MT_AfIncomingMsg
          CFI (cfiCond185) Conditional ??CrossCallReturnLabel_113, ??CrossCallReturnLabel_26
          CFI (cfiCond185) R6 load(1, XDATA, add(CFA_XSP16, literal(-22)))
          CFI (cfiCond185) VB load(1, XDATA, add(CFA_XSP16, literal(-21)))
          CFI (cfiCond185) V0 load(1, XDATA, add(CFA_XSP16, literal(-20)))
          CFI (cfiCond185) V1 load(1, XDATA, add(CFA_XSP16, literal(-19)))
          CFI (cfiCond185) V2 load(1, XDATA, add(CFA_XSP16, literal(-18)))
          CFI (cfiCond185) V3 load(1, XDATA, add(CFA_XSP16, literal(-17)))
          CFI (cfiCond185) V4 load(1, XDATA, add(CFA_XSP16, literal(-16)))
          CFI (cfiCond185) V5 load(1, XDATA, add(CFA_XSP16, literal(-15)))
          CFI (cfiCond185) V6 load(1, XDATA, add(CFA_XSP16, literal(-14)))
          CFI (cfiCond185) V7 load(1, XDATA, add(CFA_XSP16, literal(-13)))
          CFI (cfiCond185) V8 load(1, XDATA, add(CFA_XSP16, literal(-12)))
          CFI (cfiCond185) V9 load(1, XDATA, add(CFA_XSP16, literal(-11)))
          CFI (cfiCond185) V10 load(1, XDATA, add(CFA_XSP16, literal(-10)))
          CFI (cfiCond185) V11 load(1, XDATA, add(CFA_XSP16, literal(-9)))
          CFI (cfiCond185) V12 load(1, XDATA, add(CFA_XSP16, literal(-8)))
          CFI (cfiCond185) V13 load(1, XDATA, add(CFA_XSP16, literal(-7)))
          CFI (cfiCond185) R7 load(1, XDATA, add(CFA_XSP16, literal(-6)))
          CFI (cfiCond185) ?RET_LOW load(1, XDATA, add(CFA_XSP16, literal(-5)))
          CFI (cfiCond185) ?RET_HIGH load(1, XDATA, add(CFA_XSP16, literal(-4)))
          CFI (cfiCond185) ?BRET_EXT load(1, XDATA, add(CFA_XSP16, literal(-3)))
          CFI (cfiCond185) DPL0 load(1, XDATA, add(CFA_XSP16, literal(-2)))
          CFI (cfiCond185) DPH0 load(1, XDATA, add(CFA_XSP16, literal(-1)))
          CFI (cfiCond185) CFA_SP SP+-4
          CFI (cfiCond185) CFA_XSP16 add(XSP16, 22)
          CFI Block cfiCond186 Using cfiCommon0
          CFI (cfiCond186) Function MT_AfIncomingMsg
          CFI (cfiCond186) Conditional ??CrossCallReturnLabel_113, ??CrossCallReturnLabel_27
          CFI (cfiCond186) R6 load(1, XDATA, add(CFA_XSP16, literal(-22)))
          CFI (cfiCond186) VB load(1, XDATA, add(CFA_XSP16, literal(-21)))
          CFI (cfiCond186) V0 load(1, XDATA, add(CFA_XSP16, literal(-20)))
          CFI (cfiCond186) V1 load(1, XDATA, add(CFA_XSP16, literal(-19)))
          CFI (cfiCond186) V2 load(1, XDATA, add(CFA_XSP16, literal(-18)))
          CFI (cfiCond186) V3 load(1, XDATA, add(CFA_XSP16, literal(-17)))
          CFI (cfiCond186) V4 load(1, XDATA, add(CFA_XSP16, literal(-16)))
          CFI (cfiCond186) V5 load(1, XDATA, add(CFA_XSP16, literal(-15)))
          CFI (cfiCond186) V6 load(1, XDATA, add(CFA_XSP16, literal(-14)))
          CFI (cfiCond186) V7 load(1, XDATA, add(CFA_XSP16, literal(-13)))
          CFI (cfiCond186) V8 load(1, XDATA, add(CFA_XSP16, literal(-12)))
          CFI (cfiCond186) V9 load(1, XDATA, add(CFA_XSP16, literal(-11)))
          CFI (cfiCond186) V10 load(1, XDATA, add(CFA_XSP16, literal(-10)))
          CFI (cfiCond186) V11 load(1, XDATA, add(CFA_XSP16, literal(-9)))
          CFI (cfiCond186) V12 load(1, XDATA, add(CFA_XSP16, literal(-8)))
          CFI (cfiCond186) V13 load(1, XDATA, add(CFA_XSP16, literal(-7)))
          CFI (cfiCond186) R7 load(1, XDATA, add(CFA_XSP16, literal(-6)))
          CFI (cfiCond186) ?RET_LOW load(1, XDATA, add(CFA_XSP16, literal(-5)))
          CFI (cfiCond186) ?RET_HIGH load(1, XDATA, add(CFA_XSP16, literal(-4)))
          CFI (cfiCond186) ?BRET_EXT load(1, XDATA, add(CFA_XSP16, literal(-3)))
          CFI (cfiCond186) DPL0 load(1, XDATA, add(CFA_XSP16, literal(-2)))
          CFI (cfiCond186) DPH0 load(1, XDATA, add(CFA_XSP16, literal(-1)))
          CFI (cfiCond186) CFA_SP SP+-4
          CFI (cfiCond186) CFA_XSP16 add(XSP16, 22)
          CFI Block cfiPicker187 Using cfiCommon1
          CFI (cfiPicker187) NoFunction
          CFI (cfiPicker187) Picker
        LCALL     ?Subroutine50 & 0xFFFF
??CrossCallReturnLabel_100:
          CFI EndBlock cfiCond183
          CFI EndBlock cfiCond184
          CFI EndBlock cfiCond185
          CFI EndBlock cfiCond186
          CFI EndBlock cfiPicker187
        REQUIRE ??Subroutine54_0
        ; // Fall through to label ??Subroutine54_0

        RSEG BANKED_CODE:HUGECODE:NOROOT(0)
??Subroutine54_0:
          CFI Block cfiCond188 Using cfiCommon0
          CFI Function MT_AfIncomingMsg
          CFI Conditional ??CrossCallReturnLabel_112, ??CrossCallReturnLabel_0
          CFI R6 load(1, XDATA, add(CFA_XSP16, literal(-22)))
          CFI VB load(1, XDATA, add(CFA_XSP16, literal(-21)))
          CFI V0 load(1, XDATA, add(CFA_XSP16, literal(-20)))
          CFI V1 load(1, XDATA, add(CFA_XSP16, literal(-19)))
          CFI V2 load(1, XDATA, add(CFA_XSP16, literal(-18)))
          CFI V3 load(1, XDATA, add(CFA_XSP16, literal(-17)))
          CFI V4 load(1, XDATA, add(CFA_XSP16, literal(-16)))
          CFI V5 load(1, XDATA, add(CFA_XSP16, literal(-15)))
          CFI V6 load(1, XDATA, add(CFA_XSP16, literal(-14)))
          CFI V7 load(1, XDATA, add(CFA_XSP16, literal(-13)))
          CFI V8 load(1, XDATA, add(CFA_XSP16, literal(-12)))
          CFI V9 load(1, XDATA, add(CFA_XSP16, literal(-11)))
          CFI V10 load(1, XDATA, add(CFA_XSP16, literal(-10)))
          CFI V11 load(1, XDATA, add(CFA_XSP16, literal(-9)))
          CFI V12 load(1, XDATA, add(CFA_XSP16, literal(-8)))
          CFI V13 load(1, XDATA, add(CFA_XSP16, literal(-7)))
          CFI R7 load(1, XDATA, add(CFA_XSP16, literal(-6)))
          CFI ?RET_LOW load(1, XDATA, add(CFA_XSP16, literal(-5)))
          CFI ?RET_HIGH load(1, XDATA, add(CFA_XSP16, literal(-4)))
          CFI ?BRET_EXT load(1, XDATA, add(CFA_XSP16, literal(-3)))
          CFI DPL0 load(1, XDATA, add(CFA_XSP16, literal(-2)))
          CFI DPH0 load(1, XDATA, add(CFA_XSP16, literal(-1)))
          CFI CFA_SP SP+-4
          CFI CFA_XSP16 add(XSP16, 22)
          CFI Block cfiCond189 Using cfiCommon0
          CFI (cfiCond189) Function MT_AfIncomingMsg
          CFI (cfiCond189) Conditional ??CrossCallReturnLabel_112, ??CrossCallReturnLabel_1
          CFI (cfiCond189) R6 load(1, XDATA, add(CFA_XSP16, literal(-22)))
          CFI (cfiCond189) VB load(1, XDATA, add(CFA_XSP16, literal(-21)))
          CFI (cfiCond189) V0 load(1, XDATA, add(CFA_XSP16, literal(-20)))
          CFI (cfiCond189) V1 load(1, XDATA, add(CFA_XSP16, literal(-19)))
          CFI (cfiCond189) V2 load(1, XDATA, add(CFA_XSP16, literal(-18)))
          CFI (cfiCond189) V3 load(1, XDATA, add(CFA_XSP16, literal(-17)))
          CFI (cfiCond189) V4 load(1, XDATA, add(CFA_XSP16, literal(-16)))
          CFI (cfiCond189) V5 load(1, XDATA, add(CFA_XSP16, literal(-15)))
          CFI (cfiCond189) V6 load(1, XDATA, add(CFA_XSP16, literal(-14)))
          CFI (cfiCond189) V7 load(1, XDATA, add(CFA_XSP16, literal(-13)))
          CFI (cfiCond189) V8 load(1, XDATA, add(CFA_XSP16, literal(-12)))
          CFI (cfiCond189) V9 load(1, XDATA, add(CFA_XSP16, literal(-11)))
          CFI (cfiCond189) V10 load(1, XDATA, add(CFA_XSP16, literal(-10)))
          CFI (cfiCond189) V11 load(1, XDATA, add(CFA_XSP16, literal(-9)))
          CFI (cfiCond189) V12 load(1, XDATA, add(CFA_XSP16, literal(-8)))
          CFI (cfiCond189) V13 load(1, XDATA, add(CFA_XSP16, literal(-7)))
          CFI (cfiCond189) R7 load(1, XDATA, add(CFA_XSP16, literal(-6)))
          CFI (cfiCond189) ?RET_LOW load(1, XDATA, add(CFA_XSP16, literal(-5)))
          CFI (cfiCond189) ?RET_HIGH load(1, XDATA, add(CFA_XSP16, literal(-4)))
          CFI (cfiCond189) ?BRET_EXT load(1, XDATA, add(CFA_XSP16, literal(-3)))
          CFI (cfiCond189) DPL0 load(1, XDATA, add(CFA_XSP16, literal(-2)))
          CFI (cfiCond189) DPH0 load(1, XDATA, add(CFA_XSP16, literal(-1)))
          CFI (cfiCond189) CFA_SP SP+-4
          CFI (cfiCond189) CFA_XSP16 add(XSP16, 22)
          CFI Block cfiCond190 Using cfiCommon0
          CFI (cfiCond190) Function MT_AfIncomingMsg
          CFI (cfiCond190) Conditional ??CrossCallReturnLabel_114, ??CrossCallReturnLabel_35
          CFI (cfiCond190) R6 load(1, XDATA, add(CFA_XSP16, literal(-22)))
          CFI (cfiCond190) VB load(1, XDATA, add(CFA_XSP16, literal(-21)))
          CFI (cfiCond190) V0 load(1, XDATA, add(CFA_XSP16, literal(-20)))
          CFI (cfiCond190) V1 load(1, XDATA, add(CFA_XSP16, literal(-19)))
          CFI (cfiCond190) V2 load(1, XDATA, add(CFA_XSP16, literal(-18)))
          CFI (cfiCond190) V3 load(1, XDATA, add(CFA_XSP16, literal(-17)))
          CFI (cfiCond190) V4 load(1, XDATA, add(CFA_XSP16, literal(-16)))
          CFI (cfiCond190) V5 load(1, XDATA, add(CFA_XSP16, literal(-15)))
          CFI (cfiCond190) V6 load(1, XDATA, add(CFA_XSP16, literal(-14)))
          CFI (cfiCond190) V7 load(1, XDATA, add(CFA_XSP16, literal(-13)))
          CFI (cfiCond190) V8 load(1, XDATA, add(CFA_XSP16, literal(-12)))
          CFI (cfiCond190) V9 load(1, XDATA, add(CFA_XSP16, literal(-11)))
          CFI (cfiCond190) V10 load(1, XDATA, add(CFA_XSP16, literal(-10)))
          CFI (cfiCond190) V11 load(1, XDATA, add(CFA_XSP16, literal(-9)))
          CFI (cfiCond190) V12 load(1, XDATA, add(CFA_XSP16, literal(-8)))
          CFI (cfiCond190) V13 load(1, XDATA, add(CFA_XSP16, literal(-7)))
          CFI (cfiCond190) R7 load(1, XDATA, add(CFA_XSP16, literal(-6)))
          CFI (cfiCond190) ?RET_LOW load(1, XDATA, add(CFA_XSP16, literal(-5)))
          CFI (cfiCond190) ?RET_HIGH load(1, XDATA, add(CFA_XSP16, literal(-4)))
          CFI (cfiCond190) ?BRET_EXT load(1, XDATA, add(CFA_XSP16, literal(-3)))
          CFI (cfiCond190) DPL0 load(1, XDATA, add(CFA_XSP16, literal(-2)))
          CFI (cfiCond190) DPH0 load(1, XDATA, add(CFA_XSP16, literal(-1)))
          CFI (cfiCond190) CFA_SP SP+-4
          CFI (cfiCond190) CFA_XSP16 add(XSP16, 22)
          CFI Block cfiCond191 Using cfiCommon0
          CFI (cfiCond191) Function MT_AfIncomingMsg
          CFI (cfiCond191) Conditional ??CrossCallReturnLabel_114, ??CrossCallReturnLabel_36
          CFI (cfiCond191) R6 load(1, XDATA, add(CFA_XSP16, literal(-22)))
          CFI (cfiCond191) VB load(1, XDATA, add(CFA_XSP16, literal(-21)))
          CFI (cfiCond191) V0 load(1, XDATA, add(CFA_XSP16, literal(-20)))
          CFI (cfiCond191) V1 load(1, XDATA, add(CFA_XSP16, literal(-19)))
          CFI (cfiCond191) V2 load(1, XDATA, add(CFA_XSP16, literal(-18)))
          CFI (cfiCond191) V3 load(1, XDATA, add(CFA_XSP16, literal(-17)))
          CFI (cfiCond191) V4 load(1, XDATA, add(CFA_XSP16, literal(-16)))
          CFI (cfiCond191) V5 load(1, XDATA, add(CFA_XSP16, literal(-15)))
          CFI (cfiCond191) V6 load(1, XDATA, add(CFA_XSP16, literal(-14)))
          CFI (cfiCond191) V7 load(1, XDATA, add(CFA_XSP16, literal(-13)))
          CFI (cfiCond191) V8 load(1, XDATA, add(CFA_XSP16, literal(-12)))
          CFI (cfiCond191) V9 load(1, XDATA, add(CFA_XSP16, literal(-11)))
          CFI (cfiCond191) V10 load(1, XDATA, add(CFA_XSP16, literal(-10)))
          CFI (cfiCond191) V11 load(1, XDATA, add(CFA_XSP16, literal(-9)))
          CFI (cfiCond191) V12 load(1, XDATA, add(CFA_XSP16, literal(-8)))
          CFI (cfiCond191) V13 load(1, XDATA, add(CFA_XSP16, literal(-7)))
          CFI (cfiCond191) R7 load(1, XDATA, add(CFA_XSP16, literal(-6)))
          CFI (cfiCond191) ?RET_LOW load(1, XDATA, add(CFA_XSP16, literal(-5)))
          CFI (cfiCond191) ?RET_HIGH load(1, XDATA, add(CFA_XSP16, literal(-4)))
          CFI (cfiCond191) ?BRET_EXT load(1, XDATA, add(CFA_XSP16, literal(-3)))
          CFI (cfiCond191) DPL0 load(1, XDATA, add(CFA_XSP16, literal(-2)))
          CFI (cfiCond191) DPH0 load(1, XDATA, add(CFA_XSP16, literal(-1)))
          CFI (cfiCond191) CFA_SP SP+-4
          CFI (cfiCond191) CFA_XSP16 add(XSP16, 22)
          CFI Block cfiCond192 Using cfiCommon0
          CFI (cfiCond192) Function MT_AfIncomingMsg
          CFI (cfiCond192) Conditional ??CrossCallReturnLabel_113, ??CrossCallReturnLabel_26
          CFI (cfiCond192) R6 load(1, XDATA, add(CFA_XSP16, literal(-22)))
          CFI (cfiCond192) VB load(1, XDATA, add(CFA_XSP16, literal(-21)))
          CFI (cfiCond192) V0 load(1, XDATA, add(CFA_XSP16, literal(-20)))
          CFI (cfiCond192) V1 load(1, XDATA, add(CFA_XSP16, literal(-19)))
          CFI (cfiCond192) V2 load(1, XDATA, add(CFA_XSP16, literal(-18)))
          CFI (cfiCond192) V3 load(1, XDATA, add(CFA_XSP16, literal(-17)))
          CFI (cfiCond192) V4 load(1, XDATA, add(CFA_XSP16, literal(-16)))
          CFI (cfiCond192) V5 load(1, XDATA, add(CFA_XSP16, literal(-15)))
          CFI (cfiCond192) V6 load(1, XDATA, add(CFA_XSP16, literal(-14)))
          CFI (cfiCond192) V7 load(1, XDATA, add(CFA_XSP16, literal(-13)))
          CFI (cfiCond192) V8 load(1, XDATA, add(CFA_XSP16, literal(-12)))
          CFI (cfiCond192) V9 load(1, XDATA, add(CFA_XSP16, literal(-11)))
          CFI (cfiCond192) V10 load(1, XDATA, add(CFA_XSP16, literal(-10)))
          CFI (cfiCond192) V11 load(1, XDATA, add(CFA_XSP16, literal(-9)))
          CFI (cfiCond192) V12 load(1, XDATA, add(CFA_XSP16, literal(-8)))
          CFI (cfiCond192) V13 load(1, XDATA, add(CFA_XSP16, literal(-7)))
          CFI (cfiCond192) R7 load(1, XDATA, add(CFA_XSP16, literal(-6)))
          CFI (cfiCond192) ?RET_LOW load(1, XDATA, add(CFA_XSP16, literal(-5)))
          CFI (cfiCond192) ?RET_HIGH load(1, XDATA, add(CFA_XSP16, literal(-4)))
          CFI (cfiCond192) ?BRET_EXT load(1, XDATA, add(CFA_XSP16, literal(-3)))
          CFI (cfiCond192) DPL0 load(1, XDATA, add(CFA_XSP16, literal(-2)))
          CFI (cfiCond192) DPH0 load(1, XDATA, add(CFA_XSP16, literal(-1)))
          CFI (cfiCond192) CFA_SP SP+-4
          CFI (cfiCond192) CFA_XSP16 add(XSP16, 22)
          CFI Block cfiCond193 Using cfiCommon0
          CFI (cfiCond193) Function MT_AfIncomingMsg
          CFI (cfiCond193) Conditional ??CrossCallReturnLabel_113, ??CrossCallReturnLabel_27
          CFI (cfiCond193) R6 load(1, XDATA, add(CFA_XSP16, literal(-22)))
          CFI (cfiCond193) VB load(1, XDATA, add(CFA_XSP16, literal(-21)))
          CFI (cfiCond193) V0 load(1, XDATA, add(CFA_XSP16, literal(-20)))
          CFI (cfiCond193) V1 load(1, XDATA, add(CFA_XSP16, literal(-19)))
          CFI (cfiCond193) V2 load(1, XDATA, add(CFA_XSP16, literal(-18)))
          CFI (cfiCond193) V3 load(1, XDATA, add(CFA_XSP16, literal(-17)))
          CFI (cfiCond193) V4 load(1, XDATA, add(CFA_XSP16, literal(-16)))
          CFI (cfiCond193) V5 load(1, XDATA, add(CFA_XSP16, literal(-15)))
          CFI (cfiCond193) V6 load(1, XDATA, add(CFA_XSP16, literal(-14)))
          CFI (cfiCond193) V7 load(1, XDATA, add(CFA_XSP16, literal(-13)))
          CFI (cfiCond193) V8 load(1, XDATA, add(CFA_XSP16, literal(-12)))
          CFI (cfiCond193) V9 load(1, XDATA, add(CFA_XSP16, literal(-11)))
          CFI (cfiCond193) V10 load(1, XDATA, add(CFA_XSP16, literal(-10)))
          CFI (cfiCond193) V11 load(1, XDATA, add(CFA_XSP16, literal(-9)))
          CFI (cfiCond193) V12 load(1, XDATA, add(CFA_XSP16, literal(-8)))
          CFI (cfiCond193) V13 load(1, XDATA, add(CFA_XSP16, literal(-7)))
          CFI (cfiCond193) R7 load(1, XDATA, add(CFA_XSP16, literal(-6)))
          CFI (cfiCond193) ?RET_LOW load(1, XDATA, add(CFA_XSP16, literal(-5)))
          CFI (cfiCond193) ?RET_HIGH load(1, XDATA, add(CFA_XSP16, literal(-4)))
          CFI (cfiCond193) ?BRET_EXT load(1, XDATA, add(CFA_XSP16, literal(-3)))
          CFI (cfiCond193) DPL0 load(1, XDATA, add(CFA_XSP16, literal(-2)))
          CFI (cfiCond193) DPH0 load(1, XDATA, add(CFA_XSP16, literal(-1)))
          CFI (cfiCond193) CFA_SP SP+-4
          CFI (cfiCond193) CFA_XSP16 add(XSP16, 22)
          CFI Block cfiPicker194 Using cfiCommon1
          CFI (cfiPicker194) NoFunction
          CFI (cfiPicker194) Picker
        LCALL     ?Subroutine48 & 0xFFFF
??CrossCallReturnLabel_116:
        RET
          CFI EndBlock cfiCond188
          CFI EndBlock cfiCond189
          CFI EndBlock cfiCond190
          CFI EndBlock cfiCond191
          CFI EndBlock cfiCond192
          CFI EndBlock cfiCond193
          CFI EndBlock cfiPicker194

        RSEG BANKED_CODE:HUGECODE:NOROOT(0)
?Subroutine48:
          CFI Block cfiCond195 Using cfiCommon0
          CFI Function MT_AfIncomingMsg
          CFI Conditional ??CrossCallReturnLabel_116, ??CrossCallReturnLabel_114, ??CrossCallReturnLabel_35
          CFI R6 load(1, XDATA, add(CFA_XSP16, literal(-22)))
          CFI VB load(1, XDATA, add(CFA_XSP16, literal(-21)))
          CFI V0 load(1, XDATA, add(CFA_XSP16, literal(-20)))
          CFI V1 load(1, XDATA, add(CFA_XSP16, literal(-19)))
          CFI V2 load(1, XDATA, add(CFA_XSP16, literal(-18)))
          CFI V3 load(1, XDATA, add(CFA_XSP16, literal(-17)))
          CFI V4 load(1, XDATA, add(CFA_XSP16, literal(-16)))
          CFI V5 load(1, XDATA, add(CFA_XSP16, literal(-15)))
          CFI V6 load(1, XDATA, add(CFA_XSP16, literal(-14)))
          CFI V7 load(1, XDATA, add(CFA_XSP16, literal(-13)))
          CFI V8 load(1, XDATA, add(CFA_XSP16, literal(-12)))
          CFI V9 load(1, XDATA, add(CFA_XSP16, literal(-11)))
          CFI V10 load(1, XDATA, add(CFA_XSP16, literal(-10)))
          CFI V11 load(1, XDATA, add(CFA_XSP16, literal(-9)))
          CFI V12 load(1, XDATA, add(CFA_XSP16, literal(-8)))
          CFI V13 load(1, XDATA, add(CFA_XSP16, literal(-7)))
          CFI R7 load(1, XDATA, add(CFA_XSP16, literal(-6)))
          CFI ?RET_LOW load(1, XDATA, add(CFA_XSP16, literal(-5)))
          CFI ?RET_HIGH load(1, XDATA, add(CFA_XSP16, literal(-4)))
          CFI ?BRET_EXT load(1, XDATA, add(CFA_XSP16, literal(-3)))
          CFI DPL0 load(1, XDATA, add(CFA_XSP16, literal(-2)))
          CFI DPH0 load(1, XDATA, add(CFA_XSP16, literal(-1)))
          CFI CFA_SP SP+-6
          CFI CFA_XSP16 add(XSP16, 22)
          CFI Block cfiCond196 Using cfiCommon0
          CFI (cfiCond196) Function MT_AfIncomingMsg
          CFI (cfiCond196) Conditional ??CrossCallReturnLabel_116, ??CrossCallReturnLabel_114, ??CrossCallReturnLabel_36
          CFI (cfiCond196) R6 load(1, XDATA, add(CFA_XSP16, literal(-22)))
          CFI (cfiCond196) VB load(1, XDATA, add(CFA_XSP16, literal(-21)))
          CFI (cfiCond196) V0 load(1, XDATA, add(CFA_XSP16, literal(-20)))
          CFI (cfiCond196) V1 load(1, XDATA, add(CFA_XSP16, literal(-19)))
          CFI (cfiCond196) V2 load(1, XDATA, add(CFA_XSP16, literal(-18)))
          CFI (cfiCond196) V3 load(1, XDATA, add(CFA_XSP16, literal(-17)))
          CFI (cfiCond196) V4 load(1, XDATA, add(CFA_XSP16, literal(-16)))
          CFI (cfiCond196) V5 load(1, XDATA, add(CFA_XSP16, literal(-15)))
          CFI (cfiCond196) V6 load(1, XDATA, add(CFA_XSP16, literal(-14)))
          CFI (cfiCond196) V7 load(1, XDATA, add(CFA_XSP16, literal(-13)))
          CFI (cfiCond196) V8 load(1, XDATA, add(CFA_XSP16, literal(-12)))
          CFI (cfiCond196) V9 load(1, XDATA, add(CFA_XSP16, literal(-11)))
          CFI (cfiCond196) V10 load(1, XDATA, add(CFA_XSP16, literal(-10)))
          CFI (cfiCond196) V11 load(1, XDATA, add(CFA_XSP16, literal(-9)))
          CFI (cfiCond196) V12 load(1, XDATA, add(CFA_XSP16, literal(-8)))
          CFI (cfiCond196) V13 load(1, XDATA, add(CFA_XSP16, literal(-7)))
          CFI (cfiCond196) R7 load(1, XDATA, add(CFA_XSP16, literal(-6)))
          CFI (cfiCond196) ?RET_LOW load(1, XDATA, add(CFA_XSP16, literal(-5)))
          CFI (cfiCond196) ?RET_HIGH load(1, XDATA, add(CFA_XSP16, literal(-4)))
          CFI (cfiCond196) ?BRET_EXT load(1, XDATA, add(CFA_XSP16, literal(-3)))
          CFI (cfiCond196) DPL0 load(1, XDATA, add(CFA_XSP16, literal(-2)))
          CFI (cfiCond196) DPH0 load(1, XDATA, add(CFA_XSP16, literal(-1)))
          CFI (cfiCond196) CFA_SP SP+-6
          CFI (cfiCond196) CFA_XSP16 add(XSP16, 22)
          CFI Block cfiCond197 Using cfiCommon0
          CFI (cfiCond197) Function MT_AfIncomingMsg
          CFI (cfiCond197) Conditional ??CrossCallReturnLabel_116, ??CrossCallReturnLabel_113, ??CrossCallReturnLabel_26
          CFI (cfiCond197) R6 load(1, XDATA, add(CFA_XSP16, literal(-22)))
          CFI (cfiCond197) VB load(1, XDATA, add(CFA_XSP16, literal(-21)))
          CFI (cfiCond197) V0 load(1, XDATA, add(CFA_XSP16, literal(-20)))
          CFI (cfiCond197) V1 load(1, XDATA, add(CFA_XSP16, literal(-19)))
          CFI (cfiCond197) V2 load(1, XDATA, add(CFA_XSP16, literal(-18)))
          CFI (cfiCond197) V3 load(1, XDATA, add(CFA_XSP16, literal(-17)))
          CFI (cfiCond197) V4 load(1, XDATA, add(CFA_XSP16, literal(-16)))
          CFI (cfiCond197) V5 load(1, XDATA, add(CFA_XSP16, literal(-15)))
          CFI (cfiCond197) V6 load(1, XDATA, add(CFA_XSP16, literal(-14)))
          CFI (cfiCond197) V7 load(1, XDATA, add(CFA_XSP16, literal(-13)))
          CFI (cfiCond197) V8 load(1, XDATA, add(CFA_XSP16, literal(-12)))
          CFI (cfiCond197) V9 load(1, XDATA, add(CFA_XSP16, literal(-11)))
          CFI (cfiCond197) V10 load(1, XDATA, add(CFA_XSP16, literal(-10)))
          CFI (cfiCond197) V11 load(1, XDATA, add(CFA_XSP16, literal(-9)))
          CFI (cfiCond197) V12 load(1, XDATA, add(CFA_XSP16, literal(-8)))
          CFI (cfiCond197) V13 load(1, XDATA, add(CFA_XSP16, literal(-7)))
          CFI (cfiCond197) R7 load(1, XDATA, add(CFA_XSP16, literal(-6)))
          CFI (cfiCond197) ?RET_LOW load(1, XDATA, add(CFA_XSP16, literal(-5)))
          CFI (cfiCond197) ?RET_HIGH load(1, XDATA, add(CFA_XSP16, literal(-4)))
          CFI (cfiCond197) ?BRET_EXT load(1, XDATA, add(CFA_XSP16, literal(-3)))
          CFI (cfiCond197) DPL0 load(1, XDATA, add(CFA_XSP16, literal(-2)))
          CFI (cfiCond197) DPH0 load(1, XDATA, add(CFA_XSP16, literal(-1)))
          CFI (cfiCond197) CFA_SP SP+-6
          CFI (cfiCond197) CFA_XSP16 add(XSP16, 22)
          CFI Block cfiCond198 Using cfiCommon0
          CFI (cfiCond198) Function MT_AfIncomingMsg
          CFI (cfiCond198) Conditional ??CrossCallReturnLabel_116, ??CrossCallReturnLabel_113, ??CrossCallReturnLabel_27
          CFI (cfiCond198) R6 load(1, XDATA, add(CFA_XSP16, literal(-22)))
          CFI (cfiCond198) VB load(1, XDATA, add(CFA_XSP16, literal(-21)))
          CFI (cfiCond198) V0 load(1, XDATA, add(CFA_XSP16, literal(-20)))
          CFI (cfiCond198) V1 load(1, XDATA, add(CFA_XSP16, literal(-19)))
          CFI (cfiCond198) V2 load(1, XDATA, add(CFA_XSP16, literal(-18)))
          CFI (cfiCond198) V3 load(1, XDATA, add(CFA_XSP16, literal(-17)))
          CFI (cfiCond198) V4 load(1, XDATA, add(CFA_XSP16, literal(-16)))
          CFI (cfiCond198) V5 load(1, XDATA, add(CFA_XSP16, literal(-15)))
          CFI (cfiCond198) V6 load(1, XDATA, add(CFA_XSP16, literal(-14)))
          CFI (cfiCond198) V7 load(1, XDATA, add(CFA_XSP16, literal(-13)))
          CFI (cfiCond198) V8 load(1, XDATA, add(CFA_XSP16, literal(-12)))
          CFI (cfiCond198) V9 load(1, XDATA, add(CFA_XSP16, literal(-11)))
          CFI (cfiCond198) V10 load(1, XDATA, add(CFA_XSP16, literal(-10)))
          CFI (cfiCond198) V11 load(1, XDATA, add(CFA_XSP16, literal(-9)))
          CFI (cfiCond198) V12 load(1, XDATA, add(CFA_XSP16, literal(-8)))
          CFI (cfiCond198) V13 load(1, XDATA, add(CFA_XSP16, literal(-7)))
          CFI (cfiCond198) R7 load(1, XDATA, add(CFA_XSP16, literal(-6)))
          CFI (cfiCond198) ?RET_LOW load(1, XDATA, add(CFA_XSP16, literal(-5)))
          CFI (cfiCond198) ?RET_HIGH load(1, XDATA, add(CFA_XSP16, literal(-4)))
          CFI (cfiCond198) ?BRET_EXT load(1, XDATA, add(CFA_XSP16, literal(-3)))
          CFI (cfiCond198) DPL0 load(1, XDATA, add(CFA_XSP16, literal(-2)))
          CFI (cfiCond198) DPH0 load(1, XDATA, add(CFA_XSP16, literal(-1)))
          CFI (cfiCond198) CFA_SP SP+-6
          CFI (cfiCond198) CFA_XSP16 add(XSP16, 22)
          CFI Block cfiCond199 Using cfiCommon0
          CFI (cfiCond199) Function MT_AfIncomingMsg
          CFI (cfiCond199) Conditional ??CrossCallReturnLabel_116, ??CrossCallReturnLabel_112, ??CrossCallReturnLabel_0
          CFI (cfiCond199) R6 load(1, XDATA, add(CFA_XSP16, literal(-22)))
          CFI (cfiCond199) VB load(1, XDATA, add(CFA_XSP16, literal(-21)))
          CFI (cfiCond199) V0 load(1, XDATA, add(CFA_XSP16, literal(-20)))
          CFI (cfiCond199) V1 load(1, XDATA, add(CFA_XSP16, literal(-19)))
          CFI (cfiCond199) V2 load(1, XDATA, add(CFA_XSP16, literal(-18)))
          CFI (cfiCond199) V3 load(1, XDATA, add(CFA_XSP16, literal(-17)))
          CFI (cfiCond199) V4 load(1, XDATA, add(CFA_XSP16, literal(-16)))
          CFI (cfiCond199) V5 load(1, XDATA, add(CFA_XSP16, literal(-15)))
          CFI (cfiCond199) V6 load(1, XDATA, add(CFA_XSP16, literal(-14)))
          CFI (cfiCond199) V7 load(1, XDATA, add(CFA_XSP16, literal(-13)))
          CFI (cfiCond199) V8 load(1, XDATA, add(CFA_XSP16, literal(-12)))
          CFI (cfiCond199) V9 load(1, XDATA, add(CFA_XSP16, literal(-11)))
          CFI (cfiCond199) V10 load(1, XDATA, add(CFA_XSP16, literal(-10)))
          CFI (cfiCond199) V11 load(1, XDATA, add(CFA_XSP16, literal(-9)))
          CFI (cfiCond199) V12 load(1, XDATA, add(CFA_XSP16, literal(-8)))
          CFI (cfiCond199) V13 load(1, XDATA, add(CFA_XSP16, literal(-7)))
          CFI (cfiCond199) R7 load(1, XDATA, add(CFA_XSP16, literal(-6)))
          CFI (cfiCond199) ?RET_LOW load(1, XDATA, add(CFA_XSP16, literal(-5)))
          CFI (cfiCond199) ?RET_HIGH load(1, XDATA, add(CFA_XSP16, literal(-4)))
          CFI (cfiCond199) ?BRET_EXT load(1, XDATA, add(CFA_XSP16, literal(-3)))
          CFI (cfiCond199) DPL0 load(1, XDATA, add(CFA_XSP16, literal(-2)))
          CFI (cfiCond199) DPH0 load(1, XDATA, add(CFA_XSP16, literal(-1)))
          CFI (cfiCond199) CFA_SP SP+-6
          CFI (cfiCond199) CFA_XSP16 add(XSP16, 22)
          CFI Block cfiCond200 Using cfiCommon0
          CFI (cfiCond200) Function MT_AfIncomingMsg
          CFI (cfiCond200) Conditional ??CrossCallReturnLabel_116, ??CrossCallReturnLabel_112, ??CrossCallReturnLabel_1
          CFI (cfiCond200) R6 load(1, XDATA, add(CFA_XSP16, literal(-22)))
          CFI (cfiCond200) VB load(1, XDATA, add(CFA_XSP16, literal(-21)))
          CFI (cfiCond200) V0 load(1, XDATA, add(CFA_XSP16, literal(-20)))
          CFI (cfiCond200) V1 load(1, XDATA, add(CFA_XSP16, literal(-19)))
          CFI (cfiCond200) V2 load(1, XDATA, add(CFA_XSP16, literal(-18)))
          CFI (cfiCond200) V3 load(1, XDATA, add(CFA_XSP16, literal(-17)))
          CFI (cfiCond200) V4 load(1, XDATA, add(CFA_XSP16, literal(-16)))
          CFI (cfiCond200) V5 load(1, XDATA, add(CFA_XSP16, literal(-15)))
          CFI (cfiCond200) V6 load(1, XDATA, add(CFA_XSP16, literal(-14)))
          CFI (cfiCond200) V7 load(1, XDATA, add(CFA_XSP16, literal(-13)))
          CFI (cfiCond200) V8 load(1, XDATA, add(CFA_XSP16, literal(-12)))
          CFI (cfiCond200) V9 load(1, XDATA, add(CFA_XSP16, literal(-11)))
          CFI (cfiCond200) V10 load(1, XDATA, add(CFA_XSP16, literal(-10)))
          CFI (cfiCond200) V11 load(1, XDATA, add(CFA_XSP16, literal(-9)))
          CFI (cfiCond200) V12 load(1, XDATA, add(CFA_XSP16, literal(-8)))
          CFI (cfiCond200) V13 load(1, XDATA, add(CFA_XSP16, literal(-7)))
          CFI (cfiCond200) R7 load(1, XDATA, add(CFA_XSP16, literal(-6)))
          CFI (cfiCond200) ?RET_LOW load(1, XDATA, add(CFA_XSP16, literal(-5)))
          CFI (cfiCond200) ?RET_HIGH load(1, XDATA, add(CFA_XSP16, literal(-4)))
          CFI (cfiCond200) ?BRET_EXT load(1, XDATA, add(CFA_XSP16, literal(-3)))
          CFI (cfiCond200) DPL0 load(1, XDATA, add(CFA_XSP16, literal(-2)))
          CFI (cfiCond200) DPH0 load(1, XDATA, add(CFA_XSP16, literal(-1)))
          CFI (cfiCond200) CFA_SP SP+-6
          CFI (cfiCond200) CFA_XSP16 add(XSP16, 22)
          CFI Block cfiCond201 Using cfiCommon0
          CFI (cfiCond201) Function MT_AfIncomingMsg
          CFI (cfiCond201) Conditional ??CrossCallReturnLabel_115, ??CrossCallReturnLabel_72, ??CrossCallReturnLabel_20
          CFI (cfiCond201) R6 load(1, XDATA, add(CFA_XSP16, literal(-22)))
          CFI (cfiCond201) VB load(1, XDATA, add(CFA_XSP16, literal(-21)))
          CFI (cfiCond201) V0 load(1, XDATA, add(CFA_XSP16, literal(-20)))
          CFI (cfiCond201) V1 load(1, XDATA, add(CFA_XSP16, literal(-19)))
          CFI (cfiCond201) V2 load(1, XDATA, add(CFA_XSP16, literal(-18)))
          CFI (cfiCond201) V3 load(1, XDATA, add(CFA_XSP16, literal(-17)))
          CFI (cfiCond201) V4 load(1, XDATA, add(CFA_XSP16, literal(-16)))
          CFI (cfiCond201) V5 load(1, XDATA, add(CFA_XSP16, literal(-15)))
          CFI (cfiCond201) V6 load(1, XDATA, add(CFA_XSP16, literal(-14)))
          CFI (cfiCond201) V7 load(1, XDATA, add(CFA_XSP16, literal(-13)))
          CFI (cfiCond201) V8 load(1, XDATA, add(CFA_XSP16, literal(-12)))
          CFI (cfiCond201) V9 load(1, XDATA, add(CFA_XSP16, literal(-11)))
          CFI (cfiCond201) V10 load(1, XDATA, add(CFA_XSP16, literal(-10)))
          CFI (cfiCond201) V11 load(1, XDATA, add(CFA_XSP16, literal(-9)))
          CFI (cfiCond201) V12 load(1, XDATA, add(CFA_XSP16, literal(-8)))
          CFI (cfiCond201) V13 load(1, XDATA, add(CFA_XSP16, literal(-7)))
          CFI (cfiCond201) R7 load(1, XDATA, add(CFA_XSP16, literal(-6)))
          CFI (cfiCond201) ?RET_LOW load(1, XDATA, add(CFA_XSP16, literal(-5)))
          CFI (cfiCond201) ?RET_HIGH load(1, XDATA, add(CFA_XSP16, literal(-4)))
          CFI (cfiCond201) ?BRET_EXT load(1, XDATA, add(CFA_XSP16, literal(-3)))
          CFI (cfiCond201) DPL0 load(1, XDATA, add(CFA_XSP16, literal(-2)))
          CFI (cfiCond201) DPH0 load(1, XDATA, add(CFA_XSP16, literal(-1)))
          CFI (cfiCond201) CFA_SP SP+-6
          CFI (cfiCond201) CFA_XSP16 add(XSP16, 22)
          CFI Block cfiCond202 Using cfiCommon0
          CFI (cfiCond202) Function MT_AfIncomingMsg
          CFI (cfiCond202) Conditional ??CrossCallReturnLabel_115, ??CrossCallReturnLabel_72, ??CrossCallReturnLabel_21
          CFI (cfiCond202) R6 load(1, XDATA, add(CFA_XSP16, literal(-22)))
          CFI (cfiCond202) VB load(1, XDATA, add(CFA_XSP16, literal(-21)))
          CFI (cfiCond202) V0 load(1, XDATA, add(CFA_XSP16, literal(-20)))
          CFI (cfiCond202) V1 load(1, XDATA, add(CFA_XSP16, literal(-19)))
          CFI (cfiCond202) V2 load(1, XDATA, add(CFA_XSP16, literal(-18)))
          CFI (cfiCond202) V3 load(1, XDATA, add(CFA_XSP16, literal(-17)))
          CFI (cfiCond202) V4 load(1, XDATA, add(CFA_XSP16, literal(-16)))
          CFI (cfiCond202) V5 load(1, XDATA, add(CFA_XSP16, literal(-15)))
          CFI (cfiCond202) V6 load(1, XDATA, add(CFA_XSP16, literal(-14)))
          CFI (cfiCond202) V7 load(1, XDATA, add(CFA_XSP16, literal(-13)))
          CFI (cfiCond202) V8 load(1, XDATA, add(CFA_XSP16, literal(-12)))
          CFI (cfiCond202) V9 load(1, XDATA, add(CFA_XSP16, literal(-11)))
          CFI (cfiCond202) V10 load(1, XDATA, add(CFA_XSP16, literal(-10)))
          CFI (cfiCond202) V11 load(1, XDATA, add(CFA_XSP16, literal(-9)))
          CFI (cfiCond202) V12 load(1, XDATA, add(CFA_XSP16, literal(-8)))
          CFI (cfiCond202) V13 load(1, XDATA, add(CFA_XSP16, literal(-7)))
          CFI (cfiCond202) R7 load(1, XDATA, add(CFA_XSP16, literal(-6)))
          CFI (cfiCond202) ?RET_LOW load(1, XDATA, add(CFA_XSP16, literal(-5)))
          CFI (cfiCond202) ?RET_HIGH load(1, XDATA, add(CFA_XSP16, literal(-4)))
          CFI (cfiCond202) ?BRET_EXT load(1, XDATA, add(CFA_XSP16, literal(-3)))
          CFI (cfiCond202) DPL0 load(1, XDATA, add(CFA_XSP16, literal(-2)))
          CFI (cfiCond202) DPH0 load(1, XDATA, add(CFA_XSP16, literal(-1)))
          CFI (cfiCond202) CFA_SP SP+-6
          CFI (cfiCond202) CFA_XSP16 add(XSP16, 22)
          CFI Block cfiCond203 Using cfiCommon0
          CFI (cfiCond203) Function MT_AfIncomingMsg
          CFI (cfiCond203) Conditional ??CrossCallReturnLabel_115, ??CrossCallReturnLabel_71, ??CrossCallReturnLabel_2
          CFI (cfiCond203) R6 load(1, XDATA, add(CFA_XSP16, literal(-22)))
          CFI (cfiCond203) VB load(1, XDATA, add(CFA_XSP16, literal(-21)))
          CFI (cfiCond203) V0 load(1, XDATA, add(CFA_XSP16, literal(-20)))
          CFI (cfiCond203) V1 load(1, XDATA, add(CFA_XSP16, literal(-19)))
          CFI (cfiCond203) V2 load(1, XDATA, add(CFA_XSP16, literal(-18)))
          CFI (cfiCond203) V3 load(1, XDATA, add(CFA_XSP16, literal(-17)))
          CFI (cfiCond203) V4 load(1, XDATA, add(CFA_XSP16, literal(-16)))
          CFI (cfiCond203) V5 load(1, XDATA, add(CFA_XSP16, literal(-15)))
          CFI (cfiCond203) V6 load(1, XDATA, add(CFA_XSP16, literal(-14)))
          CFI (cfiCond203) V7 load(1, XDATA, add(CFA_XSP16, literal(-13)))
          CFI (cfiCond203) V8 load(1, XDATA, add(CFA_XSP16, literal(-12)))
          CFI (cfiCond203) V9 load(1, XDATA, add(CFA_XSP16, literal(-11)))
          CFI (cfiCond203) V10 load(1, XDATA, add(CFA_XSP16, literal(-10)))
          CFI (cfiCond203) V11 load(1, XDATA, add(CFA_XSP16, literal(-9)))
          CFI (cfiCond203) V12 load(1, XDATA, add(CFA_XSP16, literal(-8)))
          CFI (cfiCond203) V13 load(1, XDATA, add(CFA_XSP16, literal(-7)))
          CFI (cfiCond203) R7 load(1, XDATA, add(CFA_XSP16, literal(-6)))
          CFI (cfiCond203) ?RET_LOW load(1, XDATA, add(CFA_XSP16, literal(-5)))
          CFI (cfiCond203) ?RET_HIGH load(1, XDATA, add(CFA_XSP16, literal(-4)))
          CFI (cfiCond203) ?BRET_EXT load(1, XDATA, add(CFA_XSP16, literal(-3)))
          CFI (cfiCond203) DPL0 load(1, XDATA, add(CFA_XSP16, literal(-2)))
          CFI (cfiCond203) DPH0 load(1, XDATA, add(CFA_XSP16, literal(-1)))
          CFI (cfiCond203) CFA_SP SP+-6
          CFI (cfiCond203) CFA_XSP16 add(XSP16, 22)
          CFI Block cfiCond204 Using cfiCommon0
          CFI (cfiCond204) Function MT_AfIncomingMsg
          CFI (cfiCond204) Conditional ??CrossCallReturnLabel_115, ??CrossCallReturnLabel_71, ??CrossCallReturnLabel_3
          CFI (cfiCond204) R6 load(1, XDATA, add(CFA_XSP16, literal(-22)))
          CFI (cfiCond204) VB load(1, XDATA, add(CFA_XSP16, literal(-21)))
          CFI (cfiCond204) V0 load(1, XDATA, add(CFA_XSP16, literal(-20)))
          CFI (cfiCond204) V1 load(1, XDATA, add(CFA_XSP16, literal(-19)))
          CFI (cfiCond204) V2 load(1, XDATA, add(CFA_XSP16, literal(-18)))
          CFI (cfiCond204) V3 load(1, XDATA, add(CFA_XSP16, literal(-17)))
          CFI (cfiCond204) V4 load(1, XDATA, add(CFA_XSP16, literal(-16)))
          CFI (cfiCond204) V5 load(1, XDATA, add(CFA_XSP16, literal(-15)))
          CFI (cfiCond204) V6 load(1, XDATA, add(CFA_XSP16, literal(-14)))
          CFI (cfiCond204) V7 load(1, XDATA, add(CFA_XSP16, literal(-13)))
          CFI (cfiCond204) V8 load(1, XDATA, add(CFA_XSP16, literal(-12)))
          CFI (cfiCond204) V9 load(1, XDATA, add(CFA_XSP16, literal(-11)))
          CFI (cfiCond204) V10 load(1, XDATA, add(CFA_XSP16, literal(-10)))
          CFI (cfiCond204) V11 load(1, XDATA, add(CFA_XSP16, literal(-9)))
          CFI (cfiCond204) V12 load(1, XDATA, add(CFA_XSP16, literal(-8)))
          CFI (cfiCond204) V13 load(1, XDATA, add(CFA_XSP16, literal(-7)))
          CFI (cfiCond204) R7 load(1, XDATA, add(CFA_XSP16, literal(-6)))
          CFI (cfiCond204) ?RET_LOW load(1, XDATA, add(CFA_XSP16, literal(-5)))
          CFI (cfiCond204) ?RET_HIGH load(1, XDATA, add(CFA_XSP16, literal(-4)))
          CFI (cfiCond204) ?BRET_EXT load(1, XDATA, add(CFA_XSP16, literal(-3)))
          CFI (cfiCond204) DPL0 load(1, XDATA, add(CFA_XSP16, literal(-2)))
          CFI (cfiCond204) DPH0 load(1, XDATA, add(CFA_XSP16, literal(-1)))
          CFI (cfiCond204) CFA_SP SP+-6
          CFI (cfiCond204) CFA_XSP16 add(XSP16, 22)
          CFI Block cfiPicker205 Using cfiCommon1
          CFI (cfiPicker205) NoFunction
          CFI (cfiPicker205) Picker
        MOVX      A,@DPTR
        MOV       DPL,?V2
        MOV       DPH,?V3
        INC       DPTR
        RET
          CFI EndBlock cfiCond195
          CFI EndBlock cfiCond196
          CFI EndBlock cfiCond197
          CFI EndBlock cfiCond198
          CFI EndBlock cfiCond199
          CFI EndBlock cfiCond200
          CFI EndBlock cfiCond201
          CFI EndBlock cfiCond202
          CFI EndBlock cfiCond203
          CFI EndBlock cfiCond204
          CFI EndBlock cfiPicker205

        RSEG BANKED_CODE:HUGECODE:NOROOT(0)
?Subroutine18:
          CFI Block cfiCond206 Using cfiCommon0
          CFI Function MT_AfIncomingMsg
          CFI Conditional ??CrossCallReturnLabel_117
          CFI R6 load(1, XDATA, add(CFA_XSP16, literal(-22)))
          CFI VB load(1, XDATA, add(CFA_XSP16, literal(-21)))
          CFI V0 load(1, XDATA, add(CFA_XSP16, literal(-20)))
          CFI V1 load(1, XDATA, add(CFA_XSP16, literal(-19)))
          CFI V2 load(1, XDATA, add(CFA_XSP16, literal(-18)))
          CFI V3 load(1, XDATA, add(CFA_XSP16, literal(-17)))
          CFI V4 load(1, XDATA, add(CFA_XSP16, literal(-16)))
          CFI V5 load(1, XDATA, add(CFA_XSP16, literal(-15)))
          CFI V6 load(1, XDATA, add(CFA_XSP16, literal(-14)))
          CFI V7 load(1, XDATA, add(CFA_XSP16, literal(-13)))
          CFI V8 load(1, XDATA, add(CFA_XSP16, literal(-12)))
          CFI V9 load(1, XDATA, add(CFA_XSP16, literal(-11)))
          CFI V10 load(1, XDATA, add(CFA_XSP16, literal(-10)))
          CFI V11 load(1, XDATA, add(CFA_XSP16, literal(-9)))
          CFI V12 load(1, XDATA, add(CFA_XSP16, literal(-8)))
          CFI V13 load(1, XDATA, add(CFA_XSP16, literal(-7)))
          CFI R7 load(1, XDATA, add(CFA_XSP16, literal(-6)))
          CFI ?RET_LOW load(1, XDATA, add(CFA_XSP16, literal(-5)))
          CFI ?RET_HIGH load(1, XDATA, add(CFA_XSP16, literal(-4)))
          CFI ?BRET_EXT load(1, XDATA, add(CFA_XSP16, literal(-3)))
          CFI DPL0 load(1, XDATA, add(CFA_XSP16, literal(-2)))
          CFI DPH0 load(1, XDATA, add(CFA_XSP16, literal(-1)))
          CFI CFA_SP SP+-2
          CFI CFA_XSP16 add(XSP16, 22)
          CFI Block cfiCond207 Using cfiCommon0
          CFI (cfiCond207) Function MT_AfIncomingMsg
          CFI (cfiCond207) Conditional ??CrossCallReturnLabel_118
          CFI (cfiCond207) R6 load(1, XDATA, add(CFA_XSP16, literal(-22)))
          CFI (cfiCond207) VB load(1, XDATA, add(CFA_XSP16, literal(-21)))
          CFI (cfiCond207) V0 load(1, XDATA, add(CFA_XSP16, literal(-20)))
          CFI (cfiCond207) V1 load(1, XDATA, add(CFA_XSP16, literal(-19)))
          CFI (cfiCond207) V2 load(1, XDATA, add(CFA_XSP16, literal(-18)))
          CFI (cfiCond207) V3 load(1, XDATA, add(CFA_XSP16, literal(-17)))
          CFI (cfiCond207) V4 load(1, XDATA, add(CFA_XSP16, literal(-16)))
          CFI (cfiCond207) V5 load(1, XDATA, add(CFA_XSP16, literal(-15)))
          CFI (cfiCond207) V6 load(1, XDATA, add(CFA_XSP16, literal(-14)))
          CFI (cfiCond207) V7 load(1, XDATA, add(CFA_XSP16, literal(-13)))
          CFI (cfiCond207) V8 load(1, XDATA, add(CFA_XSP16, literal(-12)))
          CFI (cfiCond207) V9 load(1, XDATA, add(CFA_XSP16, literal(-11)))
          CFI (cfiCond207) V10 load(1, XDATA, add(CFA_XSP16, literal(-10)))
          CFI (cfiCond207) V11 load(1, XDATA, add(CFA_XSP16, literal(-9)))
          CFI (cfiCond207) V12 load(1, XDATA, add(CFA_XSP16, literal(-8)))
          CFI (cfiCond207) V13 load(1, XDATA, add(CFA_XSP16, literal(-7)))
          CFI (cfiCond207) R7 load(1, XDATA, add(CFA_XSP16, literal(-6)))
          CFI (cfiCond207) ?RET_LOW load(1, XDATA, add(CFA_XSP16, literal(-5)))
          CFI (cfiCond207) ?RET_HIGH load(1, XDATA, add(CFA_XSP16, literal(-4)))
          CFI (cfiCond207) ?BRET_EXT load(1, XDATA, add(CFA_XSP16, literal(-3)))
          CFI (cfiCond207) DPL0 load(1, XDATA, add(CFA_XSP16, literal(-2)))
          CFI (cfiCond207) DPH0 load(1, XDATA, add(CFA_XSP16, literal(-1)))
          CFI (cfiCond207) CFA_SP SP+-2
          CFI (cfiCond207) CFA_XSP16 add(XSP16, 22)
          CFI Block cfiPicker208 Using cfiCommon1
          CFI (cfiPicker208) NoFunction
          CFI (cfiPicker208) Picker
        LCALL     ?Subroutine43 & 0xFFFF
??CrossCallReturnLabel_80:
          CFI EndBlock cfiCond206
          CFI EndBlock cfiCond207
          CFI EndBlock cfiPicker208
        REQUIRE ??Subroutine55_0
        ; // Fall through to label ??Subroutine55_0

        RSEG BANKED_CODE:HUGECODE:NOROOT(0)
??Subroutine55_0:
          CFI Block cfiCond209 Using cfiCommon0
          CFI Function MT_AfIncomingMsg
          CFI Conditional ??CrossCallReturnLabel_119
          CFI R6 load(1, XDATA, add(CFA_XSP16, literal(-22)))
          CFI VB load(1, XDATA, add(CFA_XSP16, literal(-21)))
          CFI V0 load(1, XDATA, add(CFA_XSP16, literal(-20)))
          CFI V1 load(1, XDATA, add(CFA_XSP16, literal(-19)))
          CFI V2 load(1, XDATA, add(CFA_XSP16, literal(-18)))
          CFI V3 load(1, XDATA, add(CFA_XSP16, literal(-17)))
          CFI V4 load(1, XDATA, add(CFA_XSP16, literal(-16)))
          CFI V5 load(1, XDATA, add(CFA_XSP16, literal(-15)))
          CFI V6 load(1, XDATA, add(CFA_XSP16, literal(-14)))
          CFI V7 load(1, XDATA, add(CFA_XSP16, literal(-13)))
          CFI V8 load(1, XDATA, add(CFA_XSP16, literal(-12)))
          CFI V9 load(1, XDATA, add(CFA_XSP16, literal(-11)))
          CFI V10 load(1, XDATA, add(CFA_XSP16, literal(-10)))
          CFI V11 load(1, XDATA, add(CFA_XSP16, literal(-9)))
          CFI V12 load(1, XDATA, add(CFA_XSP16, literal(-8)))
          CFI V13 load(1, XDATA, add(CFA_XSP16, literal(-7)))
          CFI R7 load(1, XDATA, add(CFA_XSP16, literal(-6)))
          CFI ?RET_LOW load(1, XDATA, add(CFA_XSP16, literal(-5)))
          CFI ?RET_HIGH load(1, XDATA, add(CFA_XSP16, literal(-4)))
          CFI ?BRET_EXT load(1, XDATA, add(CFA_XSP16, literal(-3)))
          CFI DPL0 load(1, XDATA, add(CFA_XSP16, literal(-2)))
          CFI DPH0 load(1, XDATA, add(CFA_XSP16, literal(-1)))
          CFI CFA_SP SP+-2
          CFI CFA_XSP16 add(XSP16, 22)
          CFI Block cfiCond210 Using cfiCommon0
          CFI (cfiCond210) Function MT_AfIncomingMsg
          CFI (cfiCond210) Conditional ??CrossCallReturnLabel_117
          CFI (cfiCond210) R6 load(1, XDATA, add(CFA_XSP16, literal(-22)))
          CFI (cfiCond210) VB load(1, XDATA, add(CFA_XSP16, literal(-21)))
          CFI (cfiCond210) V0 load(1, XDATA, add(CFA_XSP16, literal(-20)))
          CFI (cfiCond210) V1 load(1, XDATA, add(CFA_XSP16, literal(-19)))
          CFI (cfiCond210) V2 load(1, XDATA, add(CFA_XSP16, literal(-18)))
          CFI (cfiCond210) V3 load(1, XDATA, add(CFA_XSP16, literal(-17)))
          CFI (cfiCond210) V4 load(1, XDATA, add(CFA_XSP16, literal(-16)))
          CFI (cfiCond210) V5 load(1, XDATA, add(CFA_XSP16, literal(-15)))
          CFI (cfiCond210) V6 load(1, XDATA, add(CFA_XSP16, literal(-14)))
          CFI (cfiCond210) V7 load(1, XDATA, add(CFA_XSP16, literal(-13)))
          CFI (cfiCond210) V8 load(1, XDATA, add(CFA_XSP16, literal(-12)))
          CFI (cfiCond210) V9 load(1, XDATA, add(CFA_XSP16, literal(-11)))
          CFI (cfiCond210) V10 load(1, XDATA, add(CFA_XSP16, literal(-10)))
          CFI (cfiCond210) V11 load(1, XDATA, add(CFA_XSP16, literal(-9)))
          CFI (cfiCond210) V12 load(1, XDATA, add(CFA_XSP16, literal(-8)))
          CFI (cfiCond210) V13 load(1, XDATA, add(CFA_XSP16, literal(-7)))
          CFI (cfiCond210) R7 load(1, XDATA, add(CFA_XSP16, literal(-6)))
          CFI (cfiCond210) ?RET_LOW load(1, XDATA, add(CFA_XSP16, literal(-5)))
          CFI (cfiCond210) ?RET_HIGH load(1, XDATA, add(CFA_XSP16, literal(-4)))
          CFI (cfiCond210) ?BRET_EXT load(1, XDATA, add(CFA_XSP16, literal(-3)))
          CFI (cfiCond210) DPL0 load(1, XDATA, add(CFA_XSP16, literal(-2)))
          CFI (cfiCond210) DPH0 load(1, XDATA, add(CFA_XSP16, literal(-1)))
          CFI (cfiCond210) CFA_SP SP+-2
          CFI (cfiCond210) CFA_XSP16 add(XSP16, 22)
          CFI Block cfiCond211 Using cfiCommon0
          CFI (cfiCond211) Function MT_AfIncomingMsg
          CFI (cfiCond211) Conditional ??CrossCallReturnLabel_118
          CFI (cfiCond211) R6 load(1, XDATA, add(CFA_XSP16, literal(-22)))
          CFI (cfiCond211) VB load(1, XDATA, add(CFA_XSP16, literal(-21)))
          CFI (cfiCond211) V0 load(1, XDATA, add(CFA_XSP16, literal(-20)))
          CFI (cfiCond211) V1 load(1, XDATA, add(CFA_XSP16, literal(-19)))
          CFI (cfiCond211) V2 load(1, XDATA, add(CFA_XSP16, literal(-18)))
          CFI (cfiCond211) V3 load(1, XDATA, add(CFA_XSP16, literal(-17)))
          CFI (cfiCond211) V4 load(1, XDATA, add(CFA_XSP16, literal(-16)))
          CFI (cfiCond211) V5 load(1, XDATA, add(CFA_XSP16, literal(-15)))
          CFI (cfiCond211) V6 load(1, XDATA, add(CFA_XSP16, literal(-14)))
          CFI (cfiCond211) V7 load(1, XDATA, add(CFA_XSP16, literal(-13)))
          CFI (cfiCond211) V8 load(1, XDATA, add(CFA_XSP16, literal(-12)))
          CFI (cfiCond211) V9 load(1, XDATA, add(CFA_XSP16, literal(-11)))
          CFI (cfiCond211) V10 load(1, XDATA, add(CFA_XSP16, literal(-10)))
          CFI (cfiCond211) V11 load(1, XDATA, add(CFA_XSP16, literal(-9)))
          CFI (cfiCond211) V12 load(1, XDATA, add(CFA_XSP16, literal(-8)))
          CFI (cfiCond211) V13 load(1, XDATA, add(CFA_XSP16, literal(-7)))
          CFI (cfiCond211) R7 load(1, XDATA, add(CFA_XSP16, literal(-6)))
          CFI (cfiCond211) ?RET_LOW load(1, XDATA, add(CFA_XSP16, literal(-5)))
          CFI (cfiCond211) ?RET_HIGH load(1, XDATA, add(CFA_XSP16, literal(-4)))
          CFI (cfiCond211) ?BRET_EXT load(1, XDATA, add(CFA_XSP16, literal(-3)))
          CFI (cfiCond211) DPL0 load(1, XDATA, add(CFA_XSP16, literal(-2)))
          CFI (cfiCond211) DPH0 load(1, XDATA, add(CFA_XSP16, literal(-1)))
          CFI (cfiCond211) CFA_SP SP+-2
          CFI (cfiCond211) CFA_XSP16 add(XSP16, 22)
          CFI Block cfiPicker212 Using cfiCommon1
          CFI (cfiPicker212) NoFunction
          CFI (cfiPicker212) Picker
        MOVX      A,@DPTR
        MOV       DPL,R2
        MOV       DPH,R3
        INC       DPTR
        RET
          CFI EndBlock cfiCond209
          CFI EndBlock cfiCond210
          CFI EndBlock cfiCond211
          CFI EndBlock cfiPicker212

        RSEG BANKED_CODE:HUGECODE:NOROOT(0)
?Subroutine43:
          CFI Block cfiCond213 Using cfiCommon0
          CFI Function MT_AfReflectError
          CFI Conditional ??CrossCallReturnLabel_78
          CFI DPL0 Frame(CFA_SP, 4)
          CFI DPH0 Frame(CFA_SP, 5)
          CFI CFA_SP SP+-7
          CFI CFA_XSP16 add(XSP16, 6)
          CFI Block cfiCond214 Using cfiCommon0
          CFI (cfiCond214) Function MT_AfIncomingMsg
          CFI (cfiCond214) Conditional ??CrossCallReturnLabel_79
          CFI (cfiCond214) R6 load(1, XDATA, add(CFA_XSP16, literal(-22)))
          CFI (cfiCond214) VB load(1, XDATA, add(CFA_XSP16, literal(-21)))
          CFI (cfiCond214) V0 load(1, XDATA, add(CFA_XSP16, literal(-20)))
          CFI (cfiCond214) V1 load(1, XDATA, add(CFA_XSP16, literal(-19)))
          CFI (cfiCond214) V2 load(1, XDATA, add(CFA_XSP16, literal(-18)))
          CFI (cfiCond214) V3 load(1, XDATA, add(CFA_XSP16, literal(-17)))
          CFI (cfiCond214) V4 load(1, XDATA, add(CFA_XSP16, literal(-16)))
          CFI (cfiCond214) V5 load(1, XDATA, add(CFA_XSP16, literal(-15)))
          CFI (cfiCond214) V6 load(1, XDATA, add(CFA_XSP16, literal(-14)))
          CFI (cfiCond214) V7 load(1, XDATA, add(CFA_XSP16, literal(-13)))
          CFI (cfiCond214) V8 load(1, XDATA, add(CFA_XSP16, literal(-12)))
          CFI (cfiCond214) V9 load(1, XDATA, add(CFA_XSP16, literal(-11)))
          CFI (cfiCond214) V10 load(1, XDATA, add(CFA_XSP16, literal(-10)))
          CFI (cfiCond214) V11 load(1, XDATA, add(CFA_XSP16, literal(-9)))
          CFI (cfiCond214) V12 load(1, XDATA, add(CFA_XSP16, literal(-8)))
          CFI (cfiCond214) V13 load(1, XDATA, add(CFA_XSP16, literal(-7)))
          CFI (cfiCond214) R7 load(1, XDATA, add(CFA_XSP16, literal(-6)))
          CFI (cfiCond214) ?RET_LOW load(1, XDATA, add(CFA_XSP16, literal(-5)))
          CFI (cfiCond214) ?RET_HIGH load(1, XDATA, add(CFA_XSP16, literal(-4)))
          CFI (cfiCond214) ?BRET_EXT load(1, XDATA, add(CFA_XSP16, literal(-3)))
          CFI (cfiCond214) DPL0 load(1, XDATA, add(CFA_XSP16, literal(-2)))
          CFI (cfiCond214) DPH0 load(1, XDATA, add(CFA_XSP16, literal(-1)))
          CFI (cfiCond214) CFA_SP SP+-2
          CFI (cfiCond214) CFA_XSP16 add(XSP16, 22)
          CFI Block cfiCond215 Using cfiCommon0
          CFI (cfiCond215) Function MT_AfIncomingMsg
          CFI (cfiCond215) Conditional ??CrossCallReturnLabel_80, ??CrossCallReturnLabel_117
          CFI (cfiCond215) R6 load(1, XDATA, add(CFA_XSP16, literal(-22)))
          CFI (cfiCond215) VB load(1, XDATA, add(CFA_XSP16, literal(-21)))
          CFI (cfiCond215) V0 load(1, XDATA, add(CFA_XSP16, literal(-20)))
          CFI (cfiCond215) V1 load(1, XDATA, add(CFA_XSP16, literal(-19)))
          CFI (cfiCond215) V2 load(1, XDATA, add(CFA_XSP16, literal(-18)))
          CFI (cfiCond215) V3 load(1, XDATA, add(CFA_XSP16, literal(-17)))
          CFI (cfiCond215) V4 load(1, XDATA, add(CFA_XSP16, literal(-16)))
          CFI (cfiCond215) V5 load(1, XDATA, add(CFA_XSP16, literal(-15)))
          CFI (cfiCond215) V6 load(1, XDATA, add(CFA_XSP16, literal(-14)))
          CFI (cfiCond215) V7 load(1, XDATA, add(CFA_XSP16, literal(-13)))
          CFI (cfiCond215) V8 load(1, XDATA, add(CFA_XSP16, literal(-12)))
          CFI (cfiCond215) V9 load(1, XDATA, add(CFA_XSP16, literal(-11)))
          CFI (cfiCond215) V10 load(1, XDATA, add(CFA_XSP16, literal(-10)))
          CFI (cfiCond215) V11 load(1, XDATA, add(CFA_XSP16, literal(-9)))
          CFI (cfiCond215) V12 load(1, XDATA, add(CFA_XSP16, literal(-8)))
          CFI (cfiCond215) V13 load(1, XDATA, add(CFA_XSP16, literal(-7)))
          CFI (cfiCond215) R7 load(1, XDATA, add(CFA_XSP16, literal(-6)))
          CFI (cfiCond215) ?RET_LOW load(1, XDATA, add(CFA_XSP16, literal(-5)))
          CFI (cfiCond215) ?RET_HIGH load(1, XDATA, add(CFA_XSP16, literal(-4)))
          CFI (cfiCond215) ?BRET_EXT load(1, XDATA, add(CFA_XSP16, literal(-3)))
          CFI (cfiCond215) DPL0 load(1, XDATA, add(CFA_XSP16, literal(-2)))
          CFI (cfiCond215) DPH0 load(1, XDATA, add(CFA_XSP16, literal(-1)))
          CFI (cfiCond215) CFA_SP SP+-4
          CFI (cfiCond215) CFA_XSP16 add(XSP16, 22)
          CFI Block cfiCond216 Using cfiCommon0
          CFI (cfiCond216) Function MT_AfIncomingMsg
          CFI (cfiCond216) Conditional ??CrossCallReturnLabel_80, ??CrossCallReturnLabel_118
          CFI (cfiCond216) R6 load(1, XDATA, add(CFA_XSP16, literal(-22)))
          CFI (cfiCond216) VB load(1, XDATA, add(CFA_XSP16, literal(-21)))
          CFI (cfiCond216) V0 load(1, XDATA, add(CFA_XSP16, literal(-20)))
          CFI (cfiCond216) V1 load(1, XDATA, add(CFA_XSP16, literal(-19)))
          CFI (cfiCond216) V2 load(1, XDATA, add(CFA_XSP16, literal(-18)))
          CFI (cfiCond216) V3 load(1, XDATA, add(CFA_XSP16, literal(-17)))
          CFI (cfiCond216) V4 load(1, XDATA, add(CFA_XSP16, literal(-16)))
          CFI (cfiCond216) V5 load(1, XDATA, add(CFA_XSP16, literal(-15)))
          CFI (cfiCond216) V6 load(1, XDATA, add(CFA_XSP16, literal(-14)))
          CFI (cfiCond216) V7 load(1, XDATA, add(CFA_XSP16, literal(-13)))
          CFI (cfiCond216) V8 load(1, XDATA, add(CFA_XSP16, literal(-12)))
          CFI (cfiCond216) V9 load(1, XDATA, add(CFA_XSP16, literal(-11)))
          CFI (cfiCond216) V10 load(1, XDATA, add(CFA_XSP16, literal(-10)))
          CFI (cfiCond216) V11 load(1, XDATA, add(CFA_XSP16, literal(-9)))
          CFI (cfiCond216) V12 load(1, XDATA, add(CFA_XSP16, literal(-8)))
          CFI (cfiCond216) V13 load(1, XDATA, add(CFA_XSP16, literal(-7)))
          CFI (cfiCond216) R7 load(1, XDATA, add(CFA_XSP16, literal(-6)))
          CFI (cfiCond216) ?RET_LOW load(1, XDATA, add(CFA_XSP16, literal(-5)))
          CFI (cfiCond216) ?RET_HIGH load(1, XDATA, add(CFA_XSP16, literal(-4)))
          CFI (cfiCond216) ?BRET_EXT load(1, XDATA, add(CFA_XSP16, literal(-3)))
          CFI (cfiCond216) DPL0 load(1, XDATA, add(CFA_XSP16, literal(-2)))
          CFI (cfiCond216) DPH0 load(1, XDATA, add(CFA_XSP16, literal(-1)))
          CFI (cfiCond216) CFA_SP SP+-4
          CFI (cfiCond216) CFA_XSP16 add(XSP16, 22)
          CFI Block cfiCond217 Using cfiCommon0
          CFI (cfiCond217) Function MT_AfIncomingMsg
          CFI (cfiCond217) Conditional ??CrossCallReturnLabel_81, ??CrossCallReturnLabel_0
          CFI (cfiCond217) R6 load(1, XDATA, add(CFA_XSP16, literal(-22)))
          CFI (cfiCond217) VB load(1, XDATA, add(CFA_XSP16, literal(-21)))
          CFI (cfiCond217) V0 load(1, XDATA, add(CFA_XSP16, literal(-20)))
          CFI (cfiCond217) V1 load(1, XDATA, add(CFA_XSP16, literal(-19)))
          CFI (cfiCond217) V2 load(1, XDATA, add(CFA_XSP16, literal(-18)))
          CFI (cfiCond217) V3 load(1, XDATA, add(CFA_XSP16, literal(-17)))
          CFI (cfiCond217) V4 load(1, XDATA, add(CFA_XSP16, literal(-16)))
          CFI (cfiCond217) V5 load(1, XDATA, add(CFA_XSP16, literal(-15)))
          CFI (cfiCond217) V6 load(1, XDATA, add(CFA_XSP16, literal(-14)))
          CFI (cfiCond217) V7 load(1, XDATA, add(CFA_XSP16, literal(-13)))
          CFI (cfiCond217) V8 load(1, XDATA, add(CFA_XSP16, literal(-12)))
          CFI (cfiCond217) V9 load(1, XDATA, add(CFA_XSP16, literal(-11)))
          CFI (cfiCond217) V10 load(1, XDATA, add(CFA_XSP16, literal(-10)))
          CFI (cfiCond217) V11 load(1, XDATA, add(CFA_XSP16, literal(-9)))
          CFI (cfiCond217) V12 load(1, XDATA, add(CFA_XSP16, literal(-8)))
          CFI (cfiCond217) V13 load(1, XDATA, add(CFA_XSP16, literal(-7)))
          CFI (cfiCond217) R7 load(1, XDATA, add(CFA_XSP16, literal(-6)))
          CFI (cfiCond217) ?RET_LOW load(1, XDATA, add(CFA_XSP16, literal(-5)))
          CFI (cfiCond217) ?RET_HIGH load(1, XDATA, add(CFA_XSP16, literal(-4)))
          CFI (cfiCond217) ?BRET_EXT load(1, XDATA, add(CFA_XSP16, literal(-3)))
          CFI (cfiCond217) DPL0 load(1, XDATA, add(CFA_XSP16, literal(-2)))
          CFI (cfiCond217) DPH0 load(1, XDATA, add(CFA_XSP16, literal(-1)))
          CFI (cfiCond217) CFA_SP SP+-4
          CFI (cfiCond217) CFA_XSP16 add(XSP16, 22)
          CFI Block cfiCond218 Using cfiCommon0
          CFI (cfiCond218) Function MT_AfIncomingMsg
          CFI (cfiCond218) Conditional ??CrossCallReturnLabel_81, ??CrossCallReturnLabel_1
          CFI (cfiCond218) R6 load(1, XDATA, add(CFA_XSP16, literal(-22)))
          CFI (cfiCond218) VB load(1, XDATA, add(CFA_XSP16, literal(-21)))
          CFI (cfiCond218) V0 load(1, XDATA, add(CFA_XSP16, literal(-20)))
          CFI (cfiCond218) V1 load(1, XDATA, add(CFA_XSP16, literal(-19)))
          CFI (cfiCond218) V2 load(1, XDATA, add(CFA_XSP16, literal(-18)))
          CFI (cfiCond218) V3 load(1, XDATA, add(CFA_XSP16, literal(-17)))
          CFI (cfiCond218) V4 load(1, XDATA, add(CFA_XSP16, literal(-16)))
          CFI (cfiCond218) V5 load(1, XDATA, add(CFA_XSP16, literal(-15)))
          CFI (cfiCond218) V6 load(1, XDATA, add(CFA_XSP16, literal(-14)))
          CFI (cfiCond218) V7 load(1, XDATA, add(CFA_XSP16, literal(-13)))
          CFI (cfiCond218) V8 load(1, XDATA, add(CFA_XSP16, literal(-12)))
          CFI (cfiCond218) V9 load(1, XDATA, add(CFA_XSP16, literal(-11)))
          CFI (cfiCond218) V10 load(1, XDATA, add(CFA_XSP16, literal(-10)))
          CFI (cfiCond218) V11 load(1, XDATA, add(CFA_XSP16, literal(-9)))
          CFI (cfiCond218) V12 load(1, XDATA, add(CFA_XSP16, literal(-8)))
          CFI (cfiCond218) V13 load(1, XDATA, add(CFA_XSP16, literal(-7)))
          CFI (cfiCond218) R7 load(1, XDATA, add(CFA_XSP16, literal(-6)))
          CFI (cfiCond218) ?RET_LOW load(1, XDATA, add(CFA_XSP16, literal(-5)))
          CFI (cfiCond218) ?RET_HIGH load(1, XDATA, add(CFA_XSP16, literal(-4)))
          CFI (cfiCond218) ?BRET_EXT load(1, XDATA, add(CFA_XSP16, literal(-3)))
          CFI (cfiCond218) DPL0 load(1, XDATA, add(CFA_XSP16, literal(-2)))
          CFI (cfiCond218) DPH0 load(1, XDATA, add(CFA_XSP16, literal(-1)))
          CFI (cfiCond218) CFA_SP SP+-4
          CFI (cfiCond218) CFA_XSP16 add(XSP16, 22)
          CFI Block cfiPicker219 Using cfiCommon1
          CFI (cfiPicker219) NoFunction
          CFI (cfiPicker219) Picker
        MOVX      @DPTR,A
        MOV       DPL,R0
        MOV       DPH,R1
        INC       DPTR
        RET
          CFI EndBlock cfiCond213
          CFI EndBlock cfiCond214
          CFI EndBlock cfiCond215
          CFI EndBlock cfiCond216
          CFI EndBlock cfiCond217
          CFI EndBlock cfiCond218
          CFI EndBlock cfiPicker219

        RSEG BANKED_CODE:HUGECODE:NOROOT(0)
?Subroutine16:
          CFI Block cfiCond220 Using cfiCommon0
          CFI Function MT_AfIncomingMsg
          CFI Conditional ??CrossCallReturnLabel_26
          CFI R6 load(1, XDATA, add(CFA_XSP16, literal(-22)))
          CFI VB load(1, XDATA, add(CFA_XSP16, literal(-21)))
          CFI V0 load(1, XDATA, add(CFA_XSP16, literal(-20)))
          CFI V1 load(1, XDATA, add(CFA_XSP16, literal(-19)))
          CFI V2 load(1, XDATA, add(CFA_XSP16, literal(-18)))
          CFI V3 load(1, XDATA, add(CFA_XSP16, literal(-17)))
          CFI V4 load(1, XDATA, add(CFA_XSP16, literal(-16)))
          CFI V5 load(1, XDATA, add(CFA_XSP16, literal(-15)))
          CFI V6 load(1, XDATA, add(CFA_XSP16, literal(-14)))
          CFI V7 load(1, XDATA, add(CFA_XSP16, literal(-13)))
          CFI V8 load(1, XDATA, add(CFA_XSP16, literal(-12)))
          CFI V9 load(1, XDATA, add(CFA_XSP16, literal(-11)))
          CFI V10 load(1, XDATA, add(CFA_XSP16, literal(-10)))
          CFI V11 load(1, XDATA, add(CFA_XSP16, literal(-9)))
          CFI V12 load(1, XDATA, add(CFA_XSP16, literal(-8)))
          CFI V13 load(1, XDATA, add(CFA_XSP16, literal(-7)))
          CFI R7 load(1, XDATA, add(CFA_XSP16, literal(-6)))
          CFI ?RET_LOW load(1, XDATA, add(CFA_XSP16, literal(-5)))
          CFI ?RET_HIGH load(1, XDATA, add(CFA_XSP16, literal(-4)))
          CFI ?BRET_EXT load(1, XDATA, add(CFA_XSP16, literal(-3)))
          CFI DPL0 load(1, XDATA, add(CFA_XSP16, literal(-2)))
          CFI DPH0 load(1, XDATA, add(CFA_XSP16, literal(-1)))
          CFI CFA_SP SP+-2
          CFI CFA_XSP16 add(XSP16, 22)
          CFI Block cfiCond221 Using cfiCommon0
          CFI (cfiCond221) Function MT_AfIncomingMsg
          CFI (cfiCond221) Conditional ??CrossCallReturnLabel_27
          CFI (cfiCond221) R6 load(1, XDATA, add(CFA_XSP16, literal(-22)))
          CFI (cfiCond221) VB load(1, XDATA, add(CFA_XSP16, literal(-21)))
          CFI (cfiCond221) V0 load(1, XDATA, add(CFA_XSP16, literal(-20)))
          CFI (cfiCond221) V1 load(1, XDATA, add(CFA_XSP16, literal(-19)))
          CFI (cfiCond221) V2 load(1, XDATA, add(CFA_XSP16, literal(-18)))
          CFI (cfiCond221) V3 load(1, XDATA, add(CFA_XSP16, literal(-17)))
          CFI (cfiCond221) V4 load(1, XDATA, add(CFA_XSP16, literal(-16)))
          CFI (cfiCond221) V5 load(1, XDATA, add(CFA_XSP16, literal(-15)))
          CFI (cfiCond221) V6 load(1, XDATA, add(CFA_XSP16, literal(-14)))
          CFI (cfiCond221) V7 load(1, XDATA, add(CFA_XSP16, literal(-13)))
          CFI (cfiCond221) V8 load(1, XDATA, add(CFA_XSP16, literal(-12)))
          CFI (cfiCond221) V9 load(1, XDATA, add(CFA_XSP16, literal(-11)))
          CFI (cfiCond221) V10 load(1, XDATA, add(CFA_XSP16, literal(-10)))
          CFI (cfiCond221) V11 load(1, XDATA, add(CFA_XSP16, literal(-9)))
          CFI (cfiCond221) V12 load(1, XDATA, add(CFA_XSP16, literal(-8)))
          CFI (cfiCond221) V13 load(1, XDATA, add(CFA_XSP16, literal(-7)))
          CFI (cfiCond221) R7 load(1, XDATA, add(CFA_XSP16, literal(-6)))
          CFI (cfiCond221) ?RET_LOW load(1, XDATA, add(CFA_XSP16, literal(-5)))
          CFI (cfiCond221) ?RET_HIGH load(1, XDATA, add(CFA_XSP16, literal(-4)))
          CFI (cfiCond221) ?BRET_EXT load(1, XDATA, add(CFA_XSP16, literal(-3)))
          CFI (cfiCond221) DPL0 load(1, XDATA, add(CFA_XSP16, literal(-2)))
          CFI (cfiCond221) DPH0 load(1, XDATA, add(CFA_XSP16, literal(-1)))
          CFI (cfiCond221) CFA_SP SP+-2
          CFI (cfiCond221) CFA_XSP16 add(XSP16, 22)
          CFI Block cfiPicker222 Using cfiCommon1
          CFI (cfiPicker222) NoFunction
          CFI (cfiPicker222) Picker
        LCALL     ?Subroutine39 & 0xFFFF
??CrossCallReturnLabel_113:
        INC       DPTR
        MOVX      @DPTR,A
        RET
          CFI EndBlock cfiCond220
          CFI EndBlock cfiCond221
          CFI EndBlock cfiPicker222

        RSEG BANKED_CODE:HUGECODE:NOROOT(0)
?Subroutine15:
          CFI Block cfiCond223 Using cfiCommon0
          CFI Function MT_AfIncomingMsg
          CFI Conditional ??CrossCallReturnLabel_24
          CFI R6 load(1, XDATA, add(CFA_XSP16, literal(-22)))
          CFI VB load(1, XDATA, add(CFA_XSP16, literal(-21)))
          CFI V0 load(1, XDATA, add(CFA_XSP16, literal(-20)))
          CFI V1 load(1, XDATA, add(CFA_XSP16, literal(-19)))
          CFI V2 load(1, XDATA, add(CFA_XSP16, literal(-18)))
          CFI V3 load(1, XDATA, add(CFA_XSP16, literal(-17)))
          CFI V4 load(1, XDATA, add(CFA_XSP16, literal(-16)))
          CFI V5 load(1, XDATA, add(CFA_XSP16, literal(-15)))
          CFI V6 load(1, XDATA, add(CFA_XSP16, literal(-14)))
          CFI V7 load(1, XDATA, add(CFA_XSP16, literal(-13)))
          CFI V8 load(1, XDATA, add(CFA_XSP16, literal(-12)))
          CFI V9 load(1, XDATA, add(CFA_XSP16, literal(-11)))
          CFI V10 load(1, XDATA, add(CFA_XSP16, literal(-10)))
          CFI V11 load(1, XDATA, add(CFA_XSP16, literal(-9)))
          CFI V12 load(1, XDATA, add(CFA_XSP16, literal(-8)))
          CFI V13 load(1, XDATA, add(CFA_XSP16, literal(-7)))
          CFI R7 load(1, XDATA, add(CFA_XSP16, literal(-6)))
          CFI ?RET_LOW load(1, XDATA, add(CFA_XSP16, literal(-5)))
          CFI ?RET_HIGH load(1, XDATA, add(CFA_XSP16, literal(-4)))
          CFI ?BRET_EXT load(1, XDATA, add(CFA_XSP16, literal(-3)))
          CFI DPL0 load(1, XDATA, add(CFA_XSP16, literal(-2)))
          CFI DPH0 load(1, XDATA, add(CFA_XSP16, literal(-1)))
          CFI CFA_SP SP+-2
          CFI CFA_XSP16 add(XSP16, 22)
          CFI Block cfiCond224 Using cfiCommon0
          CFI (cfiCond224) Function MT_AfIncomingMsg
          CFI (cfiCond224) Conditional ??CrossCallReturnLabel_25
          CFI (cfiCond224) R6 load(1, XDATA, add(CFA_XSP16, literal(-22)))
          CFI (cfiCond224) VB load(1, XDATA, add(CFA_XSP16, literal(-21)))
          CFI (cfiCond224) V0 load(1, XDATA, add(CFA_XSP16, literal(-20)))
          CFI (cfiCond224) V1 load(1, XDATA, add(CFA_XSP16, literal(-19)))
          CFI (cfiCond224) V2 load(1, XDATA, add(CFA_XSP16, literal(-18)))
          CFI (cfiCond224) V3 load(1, XDATA, add(CFA_XSP16, literal(-17)))
          CFI (cfiCond224) V4 load(1, XDATA, add(CFA_XSP16, literal(-16)))
          CFI (cfiCond224) V5 load(1, XDATA, add(CFA_XSP16, literal(-15)))
          CFI (cfiCond224) V6 load(1, XDATA, add(CFA_XSP16, literal(-14)))
          CFI (cfiCond224) V7 load(1, XDATA, add(CFA_XSP16, literal(-13)))
          CFI (cfiCond224) V8 load(1, XDATA, add(CFA_XSP16, literal(-12)))
          CFI (cfiCond224) V9 load(1, XDATA, add(CFA_XSP16, literal(-11)))
          CFI (cfiCond224) V10 load(1, XDATA, add(CFA_XSP16, literal(-10)))
          CFI (cfiCond224) V11 load(1, XDATA, add(CFA_XSP16, literal(-9)))
          CFI (cfiCond224) V12 load(1, XDATA, add(CFA_XSP16, literal(-8)))
          CFI (cfiCond224) V13 load(1, XDATA, add(CFA_XSP16, literal(-7)))
          CFI (cfiCond224) R7 load(1, XDATA, add(CFA_XSP16, literal(-6)))
          CFI (cfiCond224) ?RET_LOW load(1, XDATA, add(CFA_XSP16, literal(-5)))
          CFI (cfiCond224) ?RET_HIGH load(1, XDATA, add(CFA_XSP16, literal(-4)))
          CFI (cfiCond224) ?BRET_EXT load(1, XDATA, add(CFA_XSP16, literal(-3)))
          CFI (cfiCond224) DPL0 load(1, XDATA, add(CFA_XSP16, literal(-2)))
          CFI (cfiCond224) DPH0 load(1, XDATA, add(CFA_XSP16, literal(-1)))
          CFI (cfiCond224) CFA_SP SP+-2
          CFI (cfiCond224) CFA_XSP16 add(XSP16, 22)
          CFI Block cfiPicker225 Using cfiCommon1
          CFI (cfiPicker225) NoFunction
          CFI (cfiPicker225) Picker
        LCALL     ?Subroutine40 & 0xFFFF
??CrossCallReturnLabel_74:
        INC       DPTR
        RET
          CFI EndBlock cfiCond223
          CFI EndBlock cfiCond224
          CFI EndBlock cfiPicker225

        RSEG BANKED_CODE:HUGECODE:NOROOT(0)
?Subroutine14:
          CFI Block cfiCond226 Using cfiCommon0
          CFI Function MT_AfIncomingMsg
          CFI Conditional ??CrossCallReturnLabel_22
          CFI R6 load(1, XDATA, add(CFA_XSP16, literal(-22)))
          CFI VB load(1, XDATA, add(CFA_XSP16, literal(-21)))
          CFI V0 load(1, XDATA, add(CFA_XSP16, literal(-20)))
          CFI V1 load(1, XDATA, add(CFA_XSP16, literal(-19)))
          CFI V2 load(1, XDATA, add(CFA_XSP16, literal(-18)))
          CFI V3 load(1, XDATA, add(CFA_XSP16, literal(-17)))
          CFI V4 load(1, XDATA, add(CFA_XSP16, literal(-16)))
          CFI V5 load(1, XDATA, add(CFA_XSP16, literal(-15)))
          CFI V6 load(1, XDATA, add(CFA_XSP16, literal(-14)))
          CFI V7 load(1, XDATA, add(CFA_XSP16, literal(-13)))
          CFI V8 load(1, XDATA, add(CFA_XSP16, literal(-12)))
          CFI V9 load(1, XDATA, add(CFA_XSP16, literal(-11)))
          CFI V10 load(1, XDATA, add(CFA_XSP16, literal(-10)))
          CFI V11 load(1, XDATA, add(CFA_XSP16, literal(-9)))
          CFI V12 load(1, XDATA, add(CFA_XSP16, literal(-8)))
          CFI V13 load(1, XDATA, add(CFA_XSP16, literal(-7)))
          CFI R7 load(1, XDATA, add(CFA_XSP16, literal(-6)))
          CFI ?RET_LOW load(1, XDATA, add(CFA_XSP16, literal(-5)))
          CFI ?RET_HIGH load(1, XDATA, add(CFA_XSP16, literal(-4)))
          CFI ?BRET_EXT load(1, XDATA, add(CFA_XSP16, literal(-3)))
          CFI DPL0 load(1, XDATA, add(CFA_XSP16, literal(-2)))
          CFI DPH0 load(1, XDATA, add(CFA_XSP16, literal(-1)))
          CFI CFA_SP SP+-2
          CFI CFA_XSP16 add(XSP16, 22)
          CFI Block cfiCond227 Using cfiCommon0
          CFI (cfiCond227) Function MT_AfIncomingMsg
          CFI (cfiCond227) Conditional ??CrossCallReturnLabel_23
          CFI (cfiCond227) R6 load(1, XDATA, add(CFA_XSP16, literal(-22)))
          CFI (cfiCond227) VB load(1, XDATA, add(CFA_XSP16, literal(-21)))
          CFI (cfiCond227) V0 load(1, XDATA, add(CFA_XSP16, literal(-20)))
          CFI (cfiCond227) V1 load(1, XDATA, add(CFA_XSP16, literal(-19)))
          CFI (cfiCond227) V2 load(1, XDATA, add(CFA_XSP16, literal(-18)))
          CFI (cfiCond227) V3 load(1, XDATA, add(CFA_XSP16, literal(-17)))
          CFI (cfiCond227) V4 load(1, XDATA, add(CFA_XSP16, literal(-16)))
          CFI (cfiCond227) V5 load(1, XDATA, add(CFA_XSP16, literal(-15)))
          CFI (cfiCond227) V6 load(1, XDATA, add(CFA_XSP16, literal(-14)))
          CFI (cfiCond227) V7 load(1, XDATA, add(CFA_XSP16, literal(-13)))
          CFI (cfiCond227) V8 load(1, XDATA, add(CFA_XSP16, literal(-12)))
          CFI (cfiCond227) V9 load(1, XDATA, add(CFA_XSP16, literal(-11)))
          CFI (cfiCond227) V10 load(1, XDATA, add(CFA_XSP16, literal(-10)))
          CFI (cfiCond227) V11 load(1, XDATA, add(CFA_XSP16, literal(-9)))
          CFI (cfiCond227) V12 load(1, XDATA, add(CFA_XSP16, literal(-8)))
          CFI (cfiCond227) V13 load(1, XDATA, add(CFA_XSP16, literal(-7)))
          CFI (cfiCond227) R7 load(1, XDATA, add(CFA_XSP16, literal(-6)))
          CFI (cfiCond227) ?RET_LOW load(1, XDATA, add(CFA_XSP16, literal(-5)))
          CFI (cfiCond227) ?RET_HIGH load(1, XDATA, add(CFA_XSP16, literal(-4)))
          CFI (cfiCond227) ?BRET_EXT load(1, XDATA, add(CFA_XSP16, literal(-3)))
          CFI (cfiCond227) DPL0 load(1, XDATA, add(CFA_XSP16, literal(-2)))
          CFI (cfiCond227) DPH0 load(1, XDATA, add(CFA_XSP16, literal(-1)))
          CFI (cfiCond227) CFA_SP SP+-2
          CFI (cfiCond227) CFA_XSP16 add(XSP16, 22)
          CFI Block cfiPicker228 Using cfiCommon1
          CFI (cfiPicker228) NoFunction
          CFI (cfiPicker228) Picker
        LCALL     ?Subroutine47 & 0xFFFF
??CrossCallReturnLabel_90:
        LCALL     ?Subroutine40 & 0xFFFF
??CrossCallReturnLabel_73:
        MOVX      @DPTR,A
        RET
          CFI EndBlock cfiCond226
          CFI EndBlock cfiCond227
          CFI EndBlock cfiPicker228

        RSEG BANKED_CODE:HUGECODE:NOROOT(0)
?Subroutine40:
          CFI Block cfiCond229 Using cfiCommon0
          CFI Function MT_AfIncomingMsg
          CFI Conditional ??CrossCallReturnLabel_74, ??CrossCallReturnLabel_24
          CFI R6 load(1, XDATA, add(CFA_XSP16, literal(-22)))
          CFI VB load(1, XDATA, add(CFA_XSP16, literal(-21)))
          CFI V0 load(1, XDATA, add(CFA_XSP16, literal(-20)))
          CFI V1 load(1, XDATA, add(CFA_XSP16, literal(-19)))
          CFI V2 load(1, XDATA, add(CFA_XSP16, literal(-18)))
          CFI V3 load(1, XDATA, add(CFA_XSP16, literal(-17)))
          CFI V4 load(1, XDATA, add(CFA_XSP16, literal(-16)))
          CFI V5 load(1, XDATA, add(CFA_XSP16, literal(-15)))
          CFI V6 load(1, XDATA, add(CFA_XSP16, literal(-14)))
          CFI V7 load(1, XDATA, add(CFA_XSP16, literal(-13)))
          CFI V8 load(1, XDATA, add(CFA_XSP16, literal(-12)))
          CFI V9 load(1, XDATA, add(CFA_XSP16, literal(-11)))
          CFI V10 load(1, XDATA, add(CFA_XSP16, literal(-10)))
          CFI V11 load(1, XDATA, add(CFA_XSP16, literal(-9)))
          CFI V12 load(1, XDATA, add(CFA_XSP16, literal(-8)))
          CFI V13 load(1, XDATA, add(CFA_XSP16, literal(-7)))
          CFI R7 load(1, XDATA, add(CFA_XSP16, literal(-6)))
          CFI ?RET_LOW load(1, XDATA, add(CFA_XSP16, literal(-5)))
          CFI ?RET_HIGH load(1, XDATA, add(CFA_XSP16, literal(-4)))
          CFI ?BRET_EXT load(1, XDATA, add(CFA_XSP16, literal(-3)))
          CFI DPL0 load(1, XDATA, add(CFA_XSP16, literal(-2)))
          CFI DPH0 load(1, XDATA, add(CFA_XSP16, literal(-1)))
          CFI CFA_SP SP+-4
          CFI CFA_XSP16 add(XSP16, 22)
          CFI Block cfiCond230 Using cfiCommon0
          CFI (cfiCond230) Function MT_AfIncomingMsg
          CFI (cfiCond230) Conditional ??CrossCallReturnLabel_74, ??CrossCallReturnLabel_25
          CFI (cfiCond230) R6 load(1, XDATA, add(CFA_XSP16, literal(-22)))
          CFI (cfiCond230) VB load(1, XDATA, add(CFA_XSP16, literal(-21)))
          CFI (cfiCond230) V0 load(1, XDATA, add(CFA_XSP16, literal(-20)))
          CFI (cfiCond230) V1 load(1, XDATA, add(CFA_XSP16, literal(-19)))
          CFI (cfiCond230) V2 load(1, XDATA, add(CFA_XSP16, literal(-18)))
          CFI (cfiCond230) V3 load(1, XDATA, add(CFA_XSP16, literal(-17)))
          CFI (cfiCond230) V4 load(1, XDATA, add(CFA_XSP16, literal(-16)))
          CFI (cfiCond230) V5 load(1, XDATA, add(CFA_XSP16, literal(-15)))
          CFI (cfiCond230) V6 load(1, XDATA, add(CFA_XSP16, literal(-14)))
          CFI (cfiCond230) V7 load(1, XDATA, add(CFA_XSP16, literal(-13)))
          CFI (cfiCond230) V8 load(1, XDATA, add(CFA_XSP16, literal(-12)))
          CFI (cfiCond230) V9 load(1, XDATA, add(CFA_XSP16, literal(-11)))
          CFI (cfiCond230) V10 load(1, XDATA, add(CFA_XSP16, literal(-10)))
          CFI (cfiCond230) V11 load(1, XDATA, add(CFA_XSP16, literal(-9)))
          CFI (cfiCond230) V12 load(1, XDATA, add(CFA_XSP16, literal(-8)))
          CFI (cfiCond230) V13 load(1, XDATA, add(CFA_XSP16, literal(-7)))
          CFI (cfiCond230) R7 load(1, XDATA, add(CFA_XSP16, literal(-6)))
          CFI (cfiCond230) ?RET_LOW load(1, XDATA, add(CFA_XSP16, literal(-5)))
          CFI (cfiCond230) ?RET_HIGH load(1, XDATA, add(CFA_XSP16, literal(-4)))
          CFI (cfiCond230) ?BRET_EXT load(1, XDATA, add(CFA_XSP16, literal(-3)))
          CFI (cfiCond230) DPL0 load(1, XDATA, add(CFA_XSP16, literal(-2)))
          CFI (cfiCond230) DPH0 load(1, XDATA, add(CFA_XSP16, literal(-1)))
          CFI (cfiCond230) CFA_SP SP+-4
          CFI (cfiCond230) CFA_XSP16 add(XSP16, 22)
          CFI Block cfiCond231 Using cfiCommon0
          CFI (cfiCond231) Function MT_AfIncomingMsg
          CFI (cfiCond231) Conditional ??CrossCallReturnLabel_73, ??CrossCallReturnLabel_22
          CFI (cfiCond231) R6 load(1, XDATA, add(CFA_XSP16, literal(-22)))
          CFI (cfiCond231) VB load(1, XDATA, add(CFA_XSP16, literal(-21)))
          CFI (cfiCond231) V0 load(1, XDATA, add(CFA_XSP16, literal(-20)))
          CFI (cfiCond231) V1 load(1, XDATA, add(CFA_XSP16, literal(-19)))
          CFI (cfiCond231) V2 load(1, XDATA, add(CFA_XSP16, literal(-18)))
          CFI (cfiCond231) V3 load(1, XDATA, add(CFA_XSP16, literal(-17)))
          CFI (cfiCond231) V4 load(1, XDATA, add(CFA_XSP16, literal(-16)))
          CFI (cfiCond231) V5 load(1, XDATA, add(CFA_XSP16, literal(-15)))
          CFI (cfiCond231) V6 load(1, XDATA, add(CFA_XSP16, literal(-14)))
          CFI (cfiCond231) V7 load(1, XDATA, add(CFA_XSP16, literal(-13)))
          CFI (cfiCond231) V8 load(1, XDATA, add(CFA_XSP16, literal(-12)))
          CFI (cfiCond231) V9 load(1, XDATA, add(CFA_XSP16, literal(-11)))
          CFI (cfiCond231) V10 load(1, XDATA, add(CFA_XSP16, literal(-10)))
          CFI (cfiCond231) V11 load(1, XDATA, add(CFA_XSP16, literal(-9)))
          CFI (cfiCond231) V12 load(1, XDATA, add(CFA_XSP16, literal(-8)))
          CFI (cfiCond231) V13 load(1, XDATA, add(CFA_XSP16, literal(-7)))
          CFI (cfiCond231) R7 load(1, XDATA, add(CFA_XSP16, literal(-6)))
          CFI (cfiCond231) ?RET_LOW load(1, XDATA, add(CFA_XSP16, literal(-5)))
          CFI (cfiCond231) ?RET_HIGH load(1, XDATA, add(CFA_XSP16, literal(-4)))
          CFI (cfiCond231) ?BRET_EXT load(1, XDATA, add(CFA_XSP16, literal(-3)))
          CFI (cfiCond231) DPL0 load(1, XDATA, add(CFA_XSP16, literal(-2)))
          CFI (cfiCond231) DPH0 load(1, XDATA, add(CFA_XSP16, literal(-1)))
          CFI (cfiCond231) CFA_SP SP+-4
          CFI (cfiCond231) CFA_XSP16 add(XSP16, 22)
          CFI Block cfiCond232 Using cfiCommon0
          CFI (cfiCond232) Function MT_AfIncomingMsg
          CFI (cfiCond232) Conditional ??CrossCallReturnLabel_73, ??CrossCallReturnLabel_23
          CFI (cfiCond232) R6 load(1, XDATA, add(CFA_XSP16, literal(-22)))
          CFI (cfiCond232) VB load(1, XDATA, add(CFA_XSP16, literal(-21)))
          CFI (cfiCond232) V0 load(1, XDATA, add(CFA_XSP16, literal(-20)))
          CFI (cfiCond232) V1 load(1, XDATA, add(CFA_XSP16, literal(-19)))
          CFI (cfiCond232) V2 load(1, XDATA, add(CFA_XSP16, literal(-18)))
          CFI (cfiCond232) V3 load(1, XDATA, add(CFA_XSP16, literal(-17)))
          CFI (cfiCond232) V4 load(1, XDATA, add(CFA_XSP16, literal(-16)))
          CFI (cfiCond232) V5 load(1, XDATA, add(CFA_XSP16, literal(-15)))
          CFI (cfiCond232) V6 load(1, XDATA, add(CFA_XSP16, literal(-14)))
          CFI (cfiCond232) V7 load(1, XDATA, add(CFA_XSP16, literal(-13)))
          CFI (cfiCond232) V8 load(1, XDATA, add(CFA_XSP16, literal(-12)))
          CFI (cfiCond232) V9 load(1, XDATA, add(CFA_XSP16, literal(-11)))
          CFI (cfiCond232) V10 load(1, XDATA, add(CFA_XSP16, literal(-10)))
          CFI (cfiCond232) V11 load(1, XDATA, add(CFA_XSP16, literal(-9)))
          CFI (cfiCond232) V12 load(1, XDATA, add(CFA_XSP16, literal(-8)))
          CFI (cfiCond232) V13 load(1, XDATA, add(CFA_XSP16, literal(-7)))
          CFI (cfiCond232) R7 load(1, XDATA, add(CFA_XSP16, literal(-6)))
          CFI (cfiCond232) ?RET_LOW load(1, XDATA, add(CFA_XSP16, literal(-5)))
          CFI (cfiCond232) ?RET_HIGH load(1, XDATA, add(CFA_XSP16, literal(-4)))
          CFI (cfiCond232) ?BRET_EXT load(1, XDATA, add(CFA_XSP16, literal(-3)))
          CFI (cfiCond232) DPL0 load(1, XDATA, add(CFA_XSP16, literal(-2)))
          CFI (cfiCond232) DPH0 load(1, XDATA, add(CFA_XSP16, literal(-1)))
          CFI (cfiCond232) CFA_SP SP+-4
          CFI (cfiCond232) CFA_XSP16 add(XSP16, 22)
          CFI Block cfiPicker233 Using cfiCommon1
          CFI (cfiPicker233) NoFunction
          CFI (cfiPicker233) Picker
        MOVX      A,@DPTR
        MOV       DPL,R2
        MOV       DPH,R3
        INC       DPTR
        INC       DPTR
        INC       DPTR
        INC       DPTR
        RET
          CFI EndBlock cfiCond229
          CFI EndBlock cfiCond230
          CFI EndBlock cfiCond231
          CFI EndBlock cfiCond232
          CFI EndBlock cfiPicker233

        RSEG BANKED_CODE:HUGECODE:NOROOT(0)
?Subroutine13:
          CFI Block cfiCond234 Using cfiCommon0
          CFI Function MT_AfIncomingMsg
          CFI Conditional ??CrossCallReturnLabel_20
          CFI R6 load(1, XDATA, add(CFA_XSP16, literal(-22)))
          CFI VB load(1, XDATA, add(CFA_XSP16, literal(-21)))
          CFI V0 load(1, XDATA, add(CFA_XSP16, literal(-20)))
          CFI V1 load(1, XDATA, add(CFA_XSP16, literal(-19)))
          CFI V2 load(1, XDATA, add(CFA_XSP16, literal(-18)))
          CFI V3 load(1, XDATA, add(CFA_XSP16, literal(-17)))
          CFI V4 load(1, XDATA, add(CFA_XSP16, literal(-16)))
          CFI V5 load(1, XDATA, add(CFA_XSP16, literal(-15)))
          CFI V6 load(1, XDATA, add(CFA_XSP16, literal(-14)))
          CFI V7 load(1, XDATA, add(CFA_XSP16, literal(-13)))
          CFI V8 load(1, XDATA, add(CFA_XSP16, literal(-12)))
          CFI V9 load(1, XDATA, add(CFA_XSP16, literal(-11)))
          CFI V10 load(1, XDATA, add(CFA_XSP16, literal(-10)))
          CFI V11 load(1, XDATA, add(CFA_XSP16, literal(-9)))
          CFI V12 load(1, XDATA, add(CFA_XSP16, literal(-8)))
          CFI V13 load(1, XDATA, add(CFA_XSP16, literal(-7)))
          CFI R7 load(1, XDATA, add(CFA_XSP16, literal(-6)))
          CFI ?RET_LOW load(1, XDATA, add(CFA_XSP16, literal(-5)))
          CFI ?RET_HIGH load(1, XDATA, add(CFA_XSP16, literal(-4)))
          CFI ?BRET_EXT load(1, XDATA, add(CFA_XSP16, literal(-3)))
          CFI DPL0 load(1, XDATA, add(CFA_XSP16, literal(-2)))
          CFI DPH0 load(1, XDATA, add(CFA_XSP16, literal(-1)))
          CFI CFA_SP SP+-2
          CFI CFA_XSP16 add(XSP16, 22)
          CFI Block cfiCond235 Using cfiCommon0
          CFI (cfiCond235) Function MT_AfIncomingMsg
          CFI (cfiCond235) Conditional ??CrossCallReturnLabel_21
          CFI (cfiCond235) R6 load(1, XDATA, add(CFA_XSP16, literal(-22)))
          CFI (cfiCond235) VB load(1, XDATA, add(CFA_XSP16, literal(-21)))
          CFI (cfiCond235) V0 load(1, XDATA, add(CFA_XSP16, literal(-20)))
          CFI (cfiCond235) V1 load(1, XDATA, add(CFA_XSP16, literal(-19)))
          CFI (cfiCond235) V2 load(1, XDATA, add(CFA_XSP16, literal(-18)))
          CFI (cfiCond235) V3 load(1, XDATA, add(CFA_XSP16, literal(-17)))
          CFI (cfiCond235) V4 load(1, XDATA, add(CFA_XSP16, literal(-16)))
          CFI (cfiCond235) V5 load(1, XDATA, add(CFA_XSP16, literal(-15)))
          CFI (cfiCond235) V6 load(1, XDATA, add(CFA_XSP16, literal(-14)))
          CFI (cfiCond235) V7 load(1, XDATA, add(CFA_XSP16, literal(-13)))
          CFI (cfiCond235) V8 load(1, XDATA, add(CFA_XSP16, literal(-12)))
          CFI (cfiCond235) V9 load(1, XDATA, add(CFA_XSP16, literal(-11)))
          CFI (cfiCond235) V10 load(1, XDATA, add(CFA_XSP16, literal(-10)))
          CFI (cfiCond235) V11 load(1, XDATA, add(CFA_XSP16, literal(-9)))
          CFI (cfiCond235) V12 load(1, XDATA, add(CFA_XSP16, literal(-8)))
          CFI (cfiCond235) V13 load(1, XDATA, add(CFA_XSP16, literal(-7)))
          CFI (cfiCond235) R7 load(1, XDATA, add(CFA_XSP16, literal(-6)))
          CFI (cfiCond235) ?RET_LOW load(1, XDATA, add(CFA_XSP16, literal(-5)))
          CFI (cfiCond235) ?RET_HIGH load(1, XDATA, add(CFA_XSP16, literal(-4)))
          CFI (cfiCond235) ?BRET_EXT load(1, XDATA, add(CFA_XSP16, literal(-3)))
          CFI (cfiCond235) DPL0 load(1, XDATA, add(CFA_XSP16, literal(-2)))
          CFI (cfiCond235) DPH0 load(1, XDATA, add(CFA_XSP16, literal(-1)))
          CFI (cfiCond235) CFA_SP SP+-2
          CFI (cfiCond235) CFA_XSP16 add(XSP16, 22)
          CFI Block cfiPicker236 Using cfiCommon1
          CFI (cfiPicker236) NoFunction
          CFI (cfiPicker236) Picker
        LCALL     ?Subroutine50 & 0xFFFF
??CrossCallReturnLabel_97:
        LCALL     ?Subroutine38 & 0xFFFF
??CrossCallReturnLabel_72:
        RET
          CFI EndBlock cfiCond234
          CFI EndBlock cfiCond235
          CFI EndBlock cfiPicker236

        RSEG BANKED_CODE:HUGECODE:NOROOT(0)
?Subroutine38:
          CFI Block cfiCond237 Using cfiCommon0
          CFI Function MT_AfIncomingMsg
          CFI Conditional ??CrossCallReturnLabel_72, ??CrossCallReturnLabel_20
          CFI R6 load(1, XDATA, add(CFA_XSP16, literal(-22)))
          CFI VB load(1, XDATA, add(CFA_XSP16, literal(-21)))
          CFI V0 load(1, XDATA, add(CFA_XSP16, literal(-20)))
          CFI V1 load(1, XDATA, add(CFA_XSP16, literal(-19)))
          CFI V2 load(1, XDATA, add(CFA_XSP16, literal(-18)))
          CFI V3 load(1, XDATA, add(CFA_XSP16, literal(-17)))
          CFI V4 load(1, XDATA, add(CFA_XSP16, literal(-16)))
          CFI V5 load(1, XDATA, add(CFA_XSP16, literal(-15)))
          CFI V6 load(1, XDATA, add(CFA_XSP16, literal(-14)))
          CFI V7 load(1, XDATA, add(CFA_XSP16, literal(-13)))
          CFI V8 load(1, XDATA, add(CFA_XSP16, literal(-12)))
          CFI V9 load(1, XDATA, add(CFA_XSP16, literal(-11)))
          CFI V10 load(1, XDATA, add(CFA_XSP16, literal(-10)))
          CFI V11 load(1, XDATA, add(CFA_XSP16, literal(-9)))
          CFI V12 load(1, XDATA, add(CFA_XSP16, literal(-8)))
          CFI V13 load(1, XDATA, add(CFA_XSP16, literal(-7)))
          CFI R7 load(1, XDATA, add(CFA_XSP16, literal(-6)))
          CFI ?RET_LOW load(1, XDATA, add(CFA_XSP16, literal(-5)))
          CFI ?RET_HIGH load(1, XDATA, add(CFA_XSP16, literal(-4)))
          CFI ?BRET_EXT load(1, XDATA, add(CFA_XSP16, literal(-3)))
          CFI DPL0 load(1, XDATA, add(CFA_XSP16, literal(-2)))
          CFI DPH0 load(1, XDATA, add(CFA_XSP16, literal(-1)))
          CFI CFA_SP SP+-4
          CFI CFA_XSP16 add(XSP16, 22)
          CFI Block cfiCond238 Using cfiCommon0
          CFI (cfiCond238) Function MT_AfIncomingMsg
          CFI (cfiCond238) Conditional ??CrossCallReturnLabel_72, ??CrossCallReturnLabel_21
          CFI (cfiCond238) R6 load(1, XDATA, add(CFA_XSP16, literal(-22)))
          CFI (cfiCond238) VB load(1, XDATA, add(CFA_XSP16, literal(-21)))
          CFI (cfiCond238) V0 load(1, XDATA, add(CFA_XSP16, literal(-20)))
          CFI (cfiCond238) V1 load(1, XDATA, add(CFA_XSP16, literal(-19)))
          CFI (cfiCond238) V2 load(1, XDATA, add(CFA_XSP16, literal(-18)))
          CFI (cfiCond238) V3 load(1, XDATA, add(CFA_XSP16, literal(-17)))
          CFI (cfiCond238) V4 load(1, XDATA, add(CFA_XSP16, literal(-16)))
          CFI (cfiCond238) V5 load(1, XDATA, add(CFA_XSP16, literal(-15)))
          CFI (cfiCond238) V6 load(1, XDATA, add(CFA_XSP16, literal(-14)))
          CFI (cfiCond238) V7 load(1, XDATA, add(CFA_XSP16, literal(-13)))
          CFI (cfiCond238) V8 load(1, XDATA, add(CFA_XSP16, literal(-12)))
          CFI (cfiCond238) V9 load(1, XDATA, add(CFA_XSP16, literal(-11)))
          CFI (cfiCond238) V10 load(1, XDATA, add(CFA_XSP16, literal(-10)))
          CFI (cfiCond238) V11 load(1, XDATA, add(CFA_XSP16, literal(-9)))
          CFI (cfiCond238) V12 load(1, XDATA, add(CFA_XSP16, literal(-8)))
          CFI (cfiCond238) V13 load(1, XDATA, add(CFA_XSP16, literal(-7)))
          CFI (cfiCond238) R7 load(1, XDATA, add(CFA_XSP16, literal(-6)))
          CFI (cfiCond238) ?RET_LOW load(1, XDATA, add(CFA_XSP16, literal(-5)))
          CFI (cfiCond238) ?RET_HIGH load(1, XDATA, add(CFA_XSP16, literal(-4)))
          CFI (cfiCond238) ?BRET_EXT load(1, XDATA, add(CFA_XSP16, literal(-3)))
          CFI (cfiCond238) DPL0 load(1, XDATA, add(CFA_XSP16, literal(-2)))
          CFI (cfiCond238) DPH0 load(1, XDATA, add(CFA_XSP16, literal(-1)))
          CFI (cfiCond238) CFA_SP SP+-4
          CFI (cfiCond238) CFA_XSP16 add(XSP16, 22)
          CFI Block cfiCond239 Using cfiCommon0
          CFI (cfiCond239) Function MT_AfIncomingMsg
          CFI (cfiCond239) Conditional ??CrossCallReturnLabel_71, ??CrossCallReturnLabel_2
          CFI (cfiCond239) R6 load(1, XDATA, add(CFA_XSP16, literal(-22)))
          CFI (cfiCond239) VB load(1, XDATA, add(CFA_XSP16, literal(-21)))
          CFI (cfiCond239) V0 load(1, XDATA, add(CFA_XSP16, literal(-20)))
          CFI (cfiCond239) V1 load(1, XDATA, add(CFA_XSP16, literal(-19)))
          CFI (cfiCond239) V2 load(1, XDATA, add(CFA_XSP16, literal(-18)))
          CFI (cfiCond239) V3 load(1, XDATA, add(CFA_XSP16, literal(-17)))
          CFI (cfiCond239) V4 load(1, XDATA, add(CFA_XSP16, literal(-16)))
          CFI (cfiCond239) V5 load(1, XDATA, add(CFA_XSP16, literal(-15)))
          CFI (cfiCond239) V6 load(1, XDATA, add(CFA_XSP16, literal(-14)))
          CFI (cfiCond239) V7 load(1, XDATA, add(CFA_XSP16, literal(-13)))
          CFI (cfiCond239) V8 load(1, XDATA, add(CFA_XSP16, literal(-12)))
          CFI (cfiCond239) V9 load(1, XDATA, add(CFA_XSP16, literal(-11)))
          CFI (cfiCond239) V10 load(1, XDATA, add(CFA_XSP16, literal(-10)))
          CFI (cfiCond239) V11 load(1, XDATA, add(CFA_XSP16, literal(-9)))
          CFI (cfiCond239) V12 load(1, XDATA, add(CFA_XSP16, literal(-8)))
          CFI (cfiCond239) V13 load(1, XDATA, add(CFA_XSP16, literal(-7)))
          CFI (cfiCond239) R7 load(1, XDATA, add(CFA_XSP16, literal(-6)))
          CFI (cfiCond239) ?RET_LOW load(1, XDATA, add(CFA_XSP16, literal(-5)))
          CFI (cfiCond239) ?RET_HIGH load(1, XDATA, add(CFA_XSP16, literal(-4)))
          CFI (cfiCond239) ?BRET_EXT load(1, XDATA, add(CFA_XSP16, literal(-3)))
          CFI (cfiCond239) DPL0 load(1, XDATA, add(CFA_XSP16, literal(-2)))
          CFI (cfiCond239) DPH0 load(1, XDATA, add(CFA_XSP16, literal(-1)))
          CFI (cfiCond239) CFA_SP SP+-4
          CFI (cfiCond239) CFA_XSP16 add(XSP16, 22)
          CFI Block cfiCond240 Using cfiCommon0
          CFI (cfiCond240) Function MT_AfIncomingMsg
          CFI (cfiCond240) Conditional ??CrossCallReturnLabel_71, ??CrossCallReturnLabel_3
          CFI (cfiCond240) R6 load(1, XDATA, add(CFA_XSP16, literal(-22)))
          CFI (cfiCond240) VB load(1, XDATA, add(CFA_XSP16, literal(-21)))
          CFI (cfiCond240) V0 load(1, XDATA, add(CFA_XSP16, literal(-20)))
          CFI (cfiCond240) V1 load(1, XDATA, add(CFA_XSP16, literal(-19)))
          CFI (cfiCond240) V2 load(1, XDATA, add(CFA_XSP16, literal(-18)))
          CFI (cfiCond240) V3 load(1, XDATA, add(CFA_XSP16, literal(-17)))
          CFI (cfiCond240) V4 load(1, XDATA, add(CFA_XSP16, literal(-16)))
          CFI (cfiCond240) V5 load(1, XDATA, add(CFA_XSP16, literal(-15)))
          CFI (cfiCond240) V6 load(1, XDATA, add(CFA_XSP16, literal(-14)))
          CFI (cfiCond240) V7 load(1, XDATA, add(CFA_XSP16, literal(-13)))
          CFI (cfiCond240) V8 load(1, XDATA, add(CFA_XSP16, literal(-12)))
          CFI (cfiCond240) V9 load(1, XDATA, add(CFA_XSP16, literal(-11)))
          CFI (cfiCond240) V10 load(1, XDATA, add(CFA_XSP16, literal(-10)))
          CFI (cfiCond240) V11 load(1, XDATA, add(CFA_XSP16, literal(-9)))
          CFI (cfiCond240) V12 load(1, XDATA, add(CFA_XSP16, literal(-8)))
          CFI (cfiCond240) V13 load(1, XDATA, add(CFA_XSP16, literal(-7)))
          CFI (cfiCond240) R7 load(1, XDATA, add(CFA_XSP16, literal(-6)))
          CFI (cfiCond240) ?RET_LOW load(1, XDATA, add(CFA_XSP16, literal(-5)))
          CFI (cfiCond240) ?RET_HIGH load(1, XDATA, add(CFA_XSP16, literal(-4)))
          CFI (cfiCond240) ?BRET_EXT load(1, XDATA, add(CFA_XSP16, literal(-3)))
          CFI (cfiCond240) DPL0 load(1, XDATA, add(CFA_XSP16, literal(-2)))
          CFI (cfiCond240) DPH0 load(1, XDATA, add(CFA_XSP16, literal(-1)))
          CFI (cfiCond240) CFA_SP SP+-4
          CFI (cfiCond240) CFA_XSP16 add(XSP16, 22)
          CFI Block cfiPicker241 Using cfiCommon1
          CFI (cfiPicker241) NoFunction
          CFI (cfiPicker241) Picker
        LCALL     ?Subroutine48 & 0xFFFF
??CrossCallReturnLabel_115:
        INC       DPTR
        INC       DPTR
        INC       DPTR
        RET
          CFI EndBlock cfiCond237
          CFI EndBlock cfiCond238
          CFI EndBlock cfiCond239
          CFI EndBlock cfiCond240
          CFI EndBlock cfiPicker241

        RSEG BANKED_CODE:HUGECODE:NOROOT(0)
?Subroutine10:
          CFI Block cfiCond242 Using cfiCommon0
          CFI Function MT_AfIncomingMsg
          CFI Conditional ??CrossCallReturnLabel_13
          CFI R6 load(1, XDATA, add(CFA_XSP16, literal(-22)))
          CFI VB load(1, XDATA, add(CFA_XSP16, literal(-21)))
          CFI V0 load(1, XDATA, add(CFA_XSP16, literal(-20)))
          CFI V1 load(1, XDATA, add(CFA_XSP16, literal(-19)))
          CFI V2 load(1, XDATA, add(CFA_XSP16, literal(-18)))
          CFI V3 load(1, XDATA, add(CFA_XSP16, literal(-17)))
          CFI V4 load(1, XDATA, add(CFA_XSP16, literal(-16)))
          CFI V5 load(1, XDATA, add(CFA_XSP16, literal(-15)))
          CFI V6 load(1, XDATA, add(CFA_XSP16, literal(-14)))
          CFI V7 load(1, XDATA, add(CFA_XSP16, literal(-13)))
          CFI V8 load(1, XDATA, add(CFA_XSP16, literal(-12)))
          CFI V9 load(1, XDATA, add(CFA_XSP16, literal(-11)))
          CFI V10 load(1, XDATA, add(CFA_XSP16, literal(-10)))
          CFI V11 load(1, XDATA, add(CFA_XSP16, literal(-9)))
          CFI V12 load(1, XDATA, add(CFA_XSP16, literal(-8)))
          CFI V13 load(1, XDATA, add(CFA_XSP16, literal(-7)))
          CFI R7 load(1, XDATA, add(CFA_XSP16, literal(-6)))
          CFI ?RET_LOW load(1, XDATA, add(CFA_XSP16, literal(-5)))
          CFI ?RET_HIGH load(1, XDATA, add(CFA_XSP16, literal(-4)))
          CFI ?BRET_EXT load(1, XDATA, add(CFA_XSP16, literal(-3)))
          CFI DPL0 load(1, XDATA, add(CFA_XSP16, literal(-2)))
          CFI DPH0 load(1, XDATA, add(CFA_XSP16, literal(-1)))
          CFI CFA_SP SP+-2
          CFI CFA_XSP16 add(XSP16, 22)
          CFI Block cfiCond243 Using cfiCommon0
          CFI (cfiCond243) Function MT_AfIncomingMsg
          CFI (cfiCond243) Conditional ??CrossCallReturnLabel_14
          CFI (cfiCond243) R6 load(1, XDATA, add(CFA_XSP16, literal(-22)))
          CFI (cfiCond243) VB load(1, XDATA, add(CFA_XSP16, literal(-21)))
          CFI (cfiCond243) V0 load(1, XDATA, add(CFA_XSP16, literal(-20)))
          CFI (cfiCond243) V1 load(1, XDATA, add(CFA_XSP16, literal(-19)))
          CFI (cfiCond243) V2 load(1, XDATA, add(CFA_XSP16, literal(-18)))
          CFI (cfiCond243) V3 load(1, XDATA, add(CFA_XSP16, literal(-17)))
          CFI (cfiCond243) V4 load(1, XDATA, add(CFA_XSP16, literal(-16)))
          CFI (cfiCond243) V5 load(1, XDATA, add(CFA_XSP16, literal(-15)))
          CFI (cfiCond243) V6 load(1, XDATA, add(CFA_XSP16, literal(-14)))
          CFI (cfiCond243) V7 load(1, XDATA, add(CFA_XSP16, literal(-13)))
          CFI (cfiCond243) V8 load(1, XDATA, add(CFA_XSP16, literal(-12)))
          CFI (cfiCond243) V9 load(1, XDATA, add(CFA_XSP16, literal(-11)))
          CFI (cfiCond243) V10 load(1, XDATA, add(CFA_XSP16, literal(-10)))
          CFI (cfiCond243) V11 load(1, XDATA, add(CFA_XSP16, literal(-9)))
          CFI (cfiCond243) V12 load(1, XDATA, add(CFA_XSP16, literal(-8)))
          CFI (cfiCond243) V13 load(1, XDATA, add(CFA_XSP16, literal(-7)))
          CFI (cfiCond243) R7 load(1, XDATA, add(CFA_XSP16, literal(-6)))
          CFI (cfiCond243) ?RET_LOW load(1, XDATA, add(CFA_XSP16, literal(-5)))
          CFI (cfiCond243) ?RET_HIGH load(1, XDATA, add(CFA_XSP16, literal(-4)))
          CFI (cfiCond243) ?BRET_EXT load(1, XDATA, add(CFA_XSP16, literal(-3)))
          CFI (cfiCond243) DPL0 load(1, XDATA, add(CFA_XSP16, literal(-2)))
          CFI (cfiCond243) DPH0 load(1, XDATA, add(CFA_XSP16, literal(-1)))
          CFI (cfiCond243) CFA_SP SP+-2
          CFI (cfiCond243) CFA_XSP16 add(XSP16, 22)
          CFI Block cfiPicker244 Using cfiCommon1
          CFI (cfiPicker244) NoFunction
          CFI (cfiPicker244) Picker
        MOV       A,?V8
        ADD       A,#0x22
        LCALL     ?Subroutine50 & 0xFFFF
??CrossCallReturnLabel_96:
        MOVX      A,@DPTR
        MOV       ?V4,A
        INC       DPTR
        MOVX      A,@DPTR
        MOV       ?V5,A
        MOV       ?V6,#0x0
        MOV       R0,#?V4
        RET
          CFI EndBlock cfiCond242
          CFI EndBlock cfiCond243
          CFI EndBlock cfiPicker244

        RSEG BANKED_CODE:HUGECODE:NOROOT(0)
?Subroutine4:
          CFI Block cfiCond245 Using cfiCommon0
          CFI Function MT_AfIncomingMsg
          CFI Conditional ??CrossCallReturnLabel_2
          CFI R6 load(1, XDATA, add(CFA_XSP16, literal(-22)))
          CFI VB load(1, XDATA, add(CFA_XSP16, literal(-21)))
          CFI V0 load(1, XDATA, add(CFA_XSP16, literal(-20)))
          CFI V1 load(1, XDATA, add(CFA_XSP16, literal(-19)))
          CFI V2 load(1, XDATA, add(CFA_XSP16, literal(-18)))
          CFI V3 load(1, XDATA, add(CFA_XSP16, literal(-17)))
          CFI V4 load(1, XDATA, add(CFA_XSP16, literal(-16)))
          CFI V5 load(1, XDATA, add(CFA_XSP16, literal(-15)))
          CFI V6 load(1, XDATA, add(CFA_XSP16, literal(-14)))
          CFI V7 load(1, XDATA, add(CFA_XSP16, literal(-13)))
          CFI V8 load(1, XDATA, add(CFA_XSP16, literal(-12)))
          CFI V9 load(1, XDATA, add(CFA_XSP16, literal(-11)))
          CFI V10 load(1, XDATA, add(CFA_XSP16, literal(-10)))
          CFI V11 load(1, XDATA, add(CFA_XSP16, literal(-9)))
          CFI V12 load(1, XDATA, add(CFA_XSP16, literal(-8)))
          CFI V13 load(1, XDATA, add(CFA_XSP16, literal(-7)))
          CFI R7 load(1, XDATA, add(CFA_XSP16, literal(-6)))
          CFI ?RET_LOW load(1, XDATA, add(CFA_XSP16, literal(-5)))
          CFI ?RET_HIGH load(1, XDATA, add(CFA_XSP16, literal(-4)))
          CFI ?BRET_EXT load(1, XDATA, add(CFA_XSP16, literal(-3)))
          CFI DPL0 load(1, XDATA, add(CFA_XSP16, literal(-2)))
          CFI DPH0 load(1, XDATA, add(CFA_XSP16, literal(-1)))
          CFI CFA_SP SP+-2
          CFI CFA_XSP16 add(XSP16, 22)
          CFI Block cfiCond246 Using cfiCommon0
          CFI (cfiCond246) Function MT_AfIncomingMsg
          CFI (cfiCond246) Conditional ??CrossCallReturnLabel_3
          CFI (cfiCond246) R6 load(1, XDATA, add(CFA_XSP16, literal(-22)))
          CFI (cfiCond246) VB load(1, XDATA, add(CFA_XSP16, literal(-21)))
          CFI (cfiCond246) V0 load(1, XDATA, add(CFA_XSP16, literal(-20)))
          CFI (cfiCond246) V1 load(1, XDATA, add(CFA_XSP16, literal(-19)))
          CFI (cfiCond246) V2 load(1, XDATA, add(CFA_XSP16, literal(-18)))
          CFI (cfiCond246) V3 load(1, XDATA, add(CFA_XSP16, literal(-17)))
          CFI (cfiCond246) V4 load(1, XDATA, add(CFA_XSP16, literal(-16)))
          CFI (cfiCond246) V5 load(1, XDATA, add(CFA_XSP16, literal(-15)))
          CFI (cfiCond246) V6 load(1, XDATA, add(CFA_XSP16, literal(-14)))
          CFI (cfiCond246) V7 load(1, XDATA, add(CFA_XSP16, literal(-13)))
          CFI (cfiCond246) V8 load(1, XDATA, add(CFA_XSP16, literal(-12)))
          CFI (cfiCond246) V9 load(1, XDATA, add(CFA_XSP16, literal(-11)))
          CFI (cfiCond246) V10 load(1, XDATA, add(CFA_XSP16, literal(-10)))
          CFI (cfiCond246) V11 load(1, XDATA, add(CFA_XSP16, literal(-9)))
          CFI (cfiCond246) V12 load(1, XDATA, add(CFA_XSP16, literal(-8)))
          CFI (cfiCond246) V13 load(1, XDATA, add(CFA_XSP16, literal(-7)))
          CFI (cfiCond246) R7 load(1, XDATA, add(CFA_XSP16, literal(-6)))
          CFI (cfiCond246) ?RET_LOW load(1, XDATA, add(CFA_XSP16, literal(-5)))
          CFI (cfiCond246) ?RET_HIGH load(1, XDATA, add(CFA_XSP16, literal(-4)))
          CFI (cfiCond246) ?BRET_EXT load(1, XDATA, add(CFA_XSP16, literal(-3)))
          CFI (cfiCond246) DPL0 load(1, XDATA, add(CFA_XSP16, literal(-2)))
          CFI (cfiCond246) DPH0 load(1, XDATA, add(CFA_XSP16, literal(-1)))
          CFI (cfiCond246) CFA_SP SP+-2
          CFI (cfiCond246) CFA_XSP16 add(XSP16, 22)
          CFI Block cfiPicker247 Using cfiCommon1
          CFI (cfiPicker247) NoFunction
          CFI (cfiPicker247) Picker
        LCALL     ?Subroutine38 & 0xFFFF
??CrossCallReturnLabel_71:
        INC       DPTR
        INC       DPTR
        INC       DPTR
        INC       DPTR
        INC       DPTR
        RET
          CFI EndBlock cfiCond245
          CFI EndBlock cfiCond246
          CFI EndBlock cfiPicker247

        RSEG BANKED_CODE:HUGECODE:NOROOT(0)
?Subroutine2:
          CFI Block cfiCond248 Using cfiCommon0
          CFI Function MT_AfIncomingMsg
          CFI Conditional ??CrossCallReturnLabel_0
          CFI R6 load(1, XDATA, add(CFA_XSP16, literal(-22)))
          CFI VB load(1, XDATA, add(CFA_XSP16, literal(-21)))
          CFI V0 load(1, XDATA, add(CFA_XSP16, literal(-20)))
          CFI V1 load(1, XDATA, add(CFA_XSP16, literal(-19)))
          CFI V2 load(1, XDATA, add(CFA_XSP16, literal(-18)))
          CFI V3 load(1, XDATA, add(CFA_XSP16, literal(-17)))
          CFI V4 load(1, XDATA, add(CFA_XSP16, literal(-16)))
          CFI V5 load(1, XDATA, add(CFA_XSP16, literal(-15)))
          CFI V6 load(1, XDATA, add(CFA_XSP16, literal(-14)))
          CFI V7 load(1, XDATA, add(CFA_XSP16, literal(-13)))
          CFI V8 load(1, XDATA, add(CFA_XSP16, literal(-12)))
          CFI V9 load(1, XDATA, add(CFA_XSP16, literal(-11)))
          CFI V10 load(1, XDATA, add(CFA_XSP16, literal(-10)))
          CFI V11 load(1, XDATA, add(CFA_XSP16, literal(-9)))
          CFI V12 load(1, XDATA, add(CFA_XSP16, literal(-8)))
          CFI V13 load(1, XDATA, add(CFA_XSP16, literal(-7)))
          CFI R7 load(1, XDATA, add(CFA_XSP16, literal(-6)))
          CFI ?RET_LOW load(1, XDATA, add(CFA_XSP16, literal(-5)))
          CFI ?RET_HIGH load(1, XDATA, add(CFA_XSP16, literal(-4)))
          CFI ?BRET_EXT load(1, XDATA, add(CFA_XSP16, literal(-3)))
          CFI DPL0 load(1, XDATA, add(CFA_XSP16, literal(-2)))
          CFI DPH0 load(1, XDATA, add(CFA_XSP16, literal(-1)))
          CFI CFA_SP SP+-2
          CFI CFA_XSP16 add(XSP16, 22)
          CFI Block cfiCond249 Using cfiCommon0
          CFI (cfiCond249) Function MT_AfIncomingMsg
          CFI (cfiCond249) Conditional ??CrossCallReturnLabel_1
          CFI (cfiCond249) R6 load(1, XDATA, add(CFA_XSP16, literal(-22)))
          CFI (cfiCond249) VB load(1, XDATA, add(CFA_XSP16, literal(-21)))
          CFI (cfiCond249) V0 load(1, XDATA, add(CFA_XSP16, literal(-20)))
          CFI (cfiCond249) V1 load(1, XDATA, add(CFA_XSP16, literal(-19)))
          CFI (cfiCond249) V2 load(1, XDATA, add(CFA_XSP16, literal(-18)))
          CFI (cfiCond249) V3 load(1, XDATA, add(CFA_XSP16, literal(-17)))
          CFI (cfiCond249) V4 load(1, XDATA, add(CFA_XSP16, literal(-16)))
          CFI (cfiCond249) V5 load(1, XDATA, add(CFA_XSP16, literal(-15)))
          CFI (cfiCond249) V6 load(1, XDATA, add(CFA_XSP16, literal(-14)))
          CFI (cfiCond249) V7 load(1, XDATA, add(CFA_XSP16, literal(-13)))
          CFI (cfiCond249) V8 load(1, XDATA, add(CFA_XSP16, literal(-12)))
          CFI (cfiCond249) V9 load(1, XDATA, add(CFA_XSP16, literal(-11)))
          CFI (cfiCond249) V10 load(1, XDATA, add(CFA_XSP16, literal(-10)))
          CFI (cfiCond249) V11 load(1, XDATA, add(CFA_XSP16, literal(-9)))
          CFI (cfiCond249) V12 load(1, XDATA, add(CFA_XSP16, literal(-8)))
          CFI (cfiCond249) V13 load(1, XDATA, add(CFA_XSP16, literal(-7)))
          CFI (cfiCond249) R7 load(1, XDATA, add(CFA_XSP16, literal(-6)))
          CFI (cfiCond249) ?RET_LOW load(1, XDATA, add(CFA_XSP16, literal(-5)))
          CFI (cfiCond249) ?RET_HIGH load(1, XDATA, add(CFA_XSP16, literal(-4)))
          CFI (cfiCond249) ?BRET_EXT load(1, XDATA, add(CFA_XSP16, literal(-3)))
          CFI (cfiCond249) DPL0 load(1, XDATA, add(CFA_XSP16, literal(-2)))
          CFI (cfiCond249) DPH0 load(1, XDATA, add(CFA_XSP16, literal(-1)))
          CFI (cfiCond249) CFA_SP SP+-2
          CFI (cfiCond249) CFA_XSP16 add(XSP16, 22)
          CFI Block cfiPicker250 Using cfiCommon1
          CFI (cfiPicker250) NoFunction
          CFI (cfiPicker250) Picker
        LCALL     ?Subroutine47 & 0xFFFF
??CrossCallReturnLabel_89:
        MOVX      A,@DPTR
        MOV       DPL,?V2
        MOV       DPH,?V3
        LCALL     ?Subroutine43 & 0xFFFF
??CrossCallReturnLabel_81:
        LCALL     ??Subroutine54_0 & 0xFFFF
??CrossCallReturnLabel_112:
        MOVX      @DPTR,A
        RET
          CFI EndBlock cfiCond248
          CFI EndBlock cfiCond249
          CFI EndBlock cfiPicker250
//  820 
//  821 /**************************************************************************************************
//  822  * @fn          MT_AfDataRetrieve
//  823  *
//  824  * @brief   Process AF Data Retrieve command to incrementally read out a very large
//  825  *          incoming AF message.
//  826  *
//  827  * input parameters
//  828  *
//  829  * @param pBuf - pointer to the received buffer
//  830  *
//  831  * output parameters
//  832  *
//  833  * @param rtrn - AF-Status of the operation.
//  834  *
//  835  * @return      None.
//  836  **************************************************************************************************
//  837  */

        RSEG BANKED_CODE:HUGECODE:NOROOT(0)
//  838 static void MT_AfDataRetrieve(uint8 *pBuf)
MT_AfDataRetrieve:
          CFI Block cfiBlock251 Using cfiCommon0
          CFI Function MT_AfDataRetrieve
        CODE
//  839 {
        FUNCALL MT_AfDataRetrieve, osal_build_uint32
        LOCFRAME ISTACK, 0, STACK
        LOCFRAME PSTACK, 0, STACK
        LOCFRAME XSTACK, 19, STACK
        LOCFRAME IOVERLAY, 0, STATIC
        LOCFRAME DOVERLAY, 0, STATIC
        ARGFRAME ISTACK, 0, STACK
        ARGFRAME PSTACK, 0, STACK
        ARGFRAME XSTACK, 19, STACK
        ARGFRAME IOVERLAY, 0, STATIC
        ARGFRAME DOVERLAY, 0, STATIC
        FUNCALL MT_AfDataRetrieve, osal_build_uint16
        LOCFRAME ISTACK, 0, STACK
        LOCFRAME PSTACK, 0, STACK
        LOCFRAME XSTACK, 19, STACK
        LOCFRAME IOVERLAY, 0, STATIC
        LOCFRAME DOVERLAY, 0, STATIC
        ARGFRAME ISTACK, 0, STACK
        ARGFRAME PSTACK, 0, STACK
        ARGFRAME XSTACK, 19, STACK
        ARGFRAME IOVERLAY, 0, STATIC
        ARGFRAME DOVERLAY, 0, STATIC
        FUNCALL MT_AfDataRetrieve, osal_mem_free
        LOCFRAME ISTACK, 0, STACK
        LOCFRAME PSTACK, 0, STACK
        LOCFRAME XSTACK, 19, STACK
        LOCFRAME IOVERLAY, 0, STATIC
        LOCFRAME DOVERLAY, 0, STATIC
        ARGFRAME ISTACK, 0, STACK
        ARGFRAME PSTACK, 0, STACK
        ARGFRAME XSTACK, 19, STACK
        ARGFRAME IOVERLAY, 0, STATIC
        ARGFRAME DOVERLAY, 0, STATIC
        FUNCALL MT_AfDataRetrieve, MT_BuildAndSendZToolResponse
        LOCFRAME ISTACK, 0, STACK
        LOCFRAME PSTACK, 0, STACK
        LOCFRAME XSTACK, 19, STACK
        LOCFRAME IOVERLAY, 0, STATIC
        LOCFRAME DOVERLAY, 0, STATIC
        ARGFRAME ISTACK, 0, STACK
        ARGFRAME PSTACK, 0, STACK
        ARGFRAME XSTACK, 19, STACK
        ARGFRAME IOVERLAY, 0, STATIC
        ARGFRAME DOVERLAY, 0, STATIC
        FUNCALL MT_AfDataRetrieve, osal_mem_alloc
        LOCFRAME ISTACK, 0, STACK
        LOCFRAME PSTACK, 0, STACK
        LOCFRAME XSTACK, 19, STACK
        LOCFRAME IOVERLAY, 0, STATIC
        LOCFRAME DOVERLAY, 0, STATIC
        ARGFRAME ISTACK, 0, STACK
        ARGFRAME PSTACK, 0, STACK
        ARGFRAME XSTACK, 19, STACK
        ARGFRAME IOVERLAY, 0, STATIC
        ARGFRAME DOVERLAY, 0, STATIC
        FUNCALL MT_AfDataRetrieve, osal_memcpy
        LOCFRAME ISTACK, 0, STACK
        LOCFRAME PSTACK, 0, STACK
        LOCFRAME XSTACK, 22, STACK
        LOCFRAME IOVERLAY, 0, STATIC
        LOCFRAME DOVERLAY, 0, STATIC
        ARGFRAME ISTACK, 0, STACK
        ARGFRAME PSTACK, 0, STACK
        ARGFRAME XSTACK, 22, STACK
        ARGFRAME IOVERLAY, 0, STATIC
        ARGFRAME DOVERLAY, 0, STATIC
        FUNCALL MT_AfDataRetrieve, MT_BuildAndSendZToolResponse
        LOCFRAME ISTACK, 0, STACK
        LOCFRAME PSTACK, 0, STACK
        LOCFRAME XSTACK, 19, STACK
        LOCFRAME IOVERLAY, 0, STATIC
        LOCFRAME DOVERLAY, 0, STATIC
        ARGFRAME ISTACK, 0, STACK
        ARGFRAME PSTACK, 0, STACK
        ARGFRAME XSTACK, 19, STACK
        ARGFRAME IOVERLAY, 0, STATIC
        ARGFRAME DOVERLAY, 0, STATIC
        FUNCALL MT_AfDataRetrieve, osal_mem_free
        LOCFRAME ISTACK, 0, STACK
        LOCFRAME PSTACK, 0, STACK
        LOCFRAME XSTACK, 19, STACK
        LOCFRAME IOVERLAY, 0, STATIC
        LOCFRAME DOVERLAY, 0, STATIC
        ARGFRAME ISTACK, 0, STACK
        ARGFRAME PSTACK, 0, STACK
        ARGFRAME XSTACK, 19, STACK
        ARGFRAME IOVERLAY, 0, STATIC
        ARGFRAME DOVERLAY, 0, STATIC
        REQUIRE ?V0
        REQUIRE ?V1
        REQUIRE ?V2
        REQUIRE ?V3
        REQUIRE ?V4
        REQUIRE ?V5
        REQUIRE ?V6
        REQUIRE ?V7
        REQUIRE ?V8
        REQUIRE ?V9
        REQUIRE ?V10
        MOV       A,#-0x13
        LCALL     ?BANKED_ENTER_XDATA
          CFI DPH0 load(1, XDATA, add(CFA_XSP16, literal(-1)))
          CFI DPL0 load(1, XDATA, add(CFA_XSP16, literal(-2)))
          CFI ?BRET_EXT load(1, XDATA, add(CFA_XSP16, literal(-3)))
          CFI ?RET_HIGH load(1, XDATA, add(CFA_XSP16, literal(-4)))
          CFI ?RET_LOW load(1, XDATA, add(CFA_XSP16, literal(-5)))
          CFI R7 load(1, XDATA, add(CFA_XSP16, literal(-6)))
          CFI V10 load(1, XDATA, add(CFA_XSP16, literal(-7)))
          CFI V9 load(1, XDATA, add(CFA_XSP16, literal(-8)))
          CFI V8 load(1, XDATA, add(CFA_XSP16, literal(-9)))
          CFI V7 load(1, XDATA, add(CFA_XSP16, literal(-10)))
          CFI V6 load(1, XDATA, add(CFA_XSP16, literal(-11)))
          CFI V5 load(1, XDATA, add(CFA_XSP16, literal(-12)))
          CFI V4 load(1, XDATA, add(CFA_XSP16, literal(-13)))
          CFI V3 load(1, XDATA, add(CFA_XSP16, literal(-14)))
          CFI V2 load(1, XDATA, add(CFA_XSP16, literal(-15)))
          CFI V1 load(1, XDATA, add(CFA_XSP16, literal(-16)))
          CFI V0 load(1, XDATA, add(CFA_XSP16, literal(-17)))
          CFI VB load(1, XDATA, add(CFA_XSP16, literal(-18)))
          CFI R6 load(1, XDATA, add(CFA_XSP16, literal(-19)))
          CFI CFA_SP SP+0
          CFI CFA_XSP16 add(XSP16, 19)
        ; Saved register size: 19
        ; Auto size: 0
        MOV       A,R3
        MOV       R7,A
//  840   #define MT_AF_RTV_HDR_SZ  2
//  841 
//  842   uint32 timestamp;
//  843   mtAfInMsgList_t *pPrev, *pItem = pMtAfInMsgList;
        MOV       DPTR,#pMtAfInMsgList
        MOVX      A,@DPTR
        MOV       ?V2,A
        INC       DPTR
        MOVX      A,@DPTR
        MOV       ?V3,A
//  844   uint8 rtrn = afStatus_FAILED;
        MOV       ?V1,#0x1
//  845   uint8 len = 0;
        MOV       ?V0,#0x0
//  846 
//  847   pBuf += MT_RPC_FRAME_HDR_SZ;
        MOV       A,R2
        ADD       A,#0x3
        MOV       R6,A
        JNC       ??MT_AfDataRetrieve_0
        INC       R7
//  848   timestamp = osal_build_uint32( pBuf, 4 );
??MT_AfDataRetrieve_0:
        ; Setup parameters for call to function osal_build_uint32
        MOV       R1,#0x4
        MOV       R2,A
        MOV       A,R7
        MOV       R3,A
        LCALL     `??osal_build_uint32::?relay`; Banked call to: osal_build_uint32
        MOV       ?V4,R2
        MOV       ?V5,R3
        MOV       ?V6,R4
        MOV       ?V7,R5
        SJMP      ??MT_AfDataRetrieve_1
//  849 
//  850   while (pItem != NULL)
//  851   {
//  852     pPrev = pItem;
//  853     if (pItem->timestamp == timestamp)
//  854     {
//  855       break;
//  856     }
//  857     pItem = pItem->next;
??MT_AfDataRetrieve_2:
        MOV       DPL,?V2
        MOV       DPH,?V3
        MOVX      A,@DPTR
        MOV       ?V2,A
        INC       DPTR
        MOVX      A,@DPTR
        MOV       ?V3,A
??MT_AfDataRetrieve_1:
        MOV       A,?V2
        ORL       A,?V3
        JZ        ??MT_AfDataRetrieve_3
        MOV       ?V8,?V2
        MOV       ?V9,?V3
        MOV       DPL,?V2
        MOV       DPH,?V3
        INC       DPTR
        INC       DPTR
        INC       DPTR
        INC       DPTR
        MOV       R0,#?V4
        LCALL     ?L_EQ_X
        JNZ       ??MT_AfDataRetrieve_2
//  858   }
//  859 
//  860   if (pItem != NULL)
//  861   {
//  862     uint16 idx;
//  863     uint8 *pRsp;
//  864 
//  865     pBuf += 4;
        MOV       A,R6
        ADD       A,#0x4
        MOV       R6,A
        JNC       ??MT_AfDataRetrieve_4
        INC       R7
//  866     idx = osal_build_uint16( pBuf );
??MT_AfDataRetrieve_4:
        ; Setup parameters for call to function osal_build_uint16
        MOV       R2,A
        MOV       A,R7
        MOV       R3,A
        LCALL     `??osal_build_uint16::?relay`; Banked call to: osal_build_uint16
        MOV       ?V6,R2
        MOV       ?V7,R3
//  867     len = pBuf[2];
        MOV       DPL,R6
        MOV       DPH,R7
        INC       DPTR
        INC       DPTR
        MOVX      A,@DPTR
        MOV       ?V0,A
//  868 
//  869     if (len == 0)  // Indication to delete the afIncomingMSGPacket.
        JNZ       ??MT_AfDataRetrieve_5
//  870     {
//  871       if (pMtAfInMsgList == pItem)
        LCALL     ?Subroutine20 & 0xFFFF
??CrossCallReturnLabel_131:
        MOV       A,?V2
        XRL       A,R0
        JNZ       ??MT_AfDataRetrieve_6
        MOV       A,?V3
        XRL       A,R1
??MT_AfDataRetrieve_6:
        MOV       DPL,?V2
        MOV       DPH,?V3
        JNZ       ??MT_AfDataRetrieve_7
//  872       {
//  873         pMtAfInMsgList = pItem->next;
        LCALL     ?Subroutine19 & 0xFFFF
//  874       }
??CrossCallReturnLabel_31:
        SJMP      ??MT_AfDataRetrieve_8
//  875       else
//  876       {
//  877         pPrev->next = pItem->next;
??MT_AfDataRetrieve_7:
        LCALL     ??Subroutine57_0 & 0xFFFF
//  878       }
??CrossCallReturnLabel_128:
        MOV       DPL,?V8
        MOV       DPH,?V9
??MT_AfDataRetrieve_8:
        MOV       A,R0
        MOVX      @DPTR,A
        INC       DPTR
        MOV       A,R1
        MOVX      @DPTR,A
//  879       (void)osal_mem_free(pItem);
        ; Setup parameters for call to function osal_mem_free
        MOV       R2,?V2
        MOV       R3,?V3
        LCALL     `??osal_mem_free::?relay`; Banked call to: osal_mem_free
//  880       rtrn = afStatus_SUCCESS;
        MOV       ?V1,#0x0
//  881     }
//  882     else if ((pRsp = osal_mem_alloc(len + MT_AF_RTV_HDR_SZ)) == NULL)
//  883     {
//  884       rtrn = afStatus_MEM_FAIL;
//  885       len = 0;
//  886     }
//  887     else
//  888     {
//  889       pRsp[0] = ZSuccess;
//  890       pRsp[1] = len;
//  891       (void)osal_memcpy(pRsp + MT_AF_RTV_HDR_SZ, pItem->data+idx, len);
//  892       MT_BuildAndSendZToolResponse(((uint8)MT_RPC_CMD_SRSP | (uint8)MT_RPC_SYS_AF),
//  893                                            MT_AF_DATA_RETRIEVE, len + MT_AF_RTV_HDR_SZ, pRsp);
//  894       (void)osal_mem_free(pRsp);
//  895       return;
//  896     }
//  897   }
//  898 
//  899   pBuf[0] = rtrn;
??MT_AfDataRetrieve_3:
        MOV       DPL,R6
        MOV       DPH,R7
        MOV       A,?V1
        MOVX      @DPTR,A
//  900   pBuf[1] = len;
        INC       DPTR
        MOV       A,?V0
        MOVX      @DPTR,A
//  901   MT_BuildAndSendZToolResponse(((uint8)MT_RPC_CMD_SRSP | (uint8)MT_RPC_SYS_AF),
//  902                                        MT_AF_DATA_RETRIEVE, MT_AF_RTV_HDR_SZ, pBuf);
        ; Setup parameters for call to function MT_BuildAndSendZToolResponse
        MOV       A,R6
        MOV       R4,A
        MOV       A,R7
        MOV       R5,A
        MOV       R3,#0x2
        MOV       R2,#0x12
        MOV       R1,#0x64
        LCALL     `??MT_BuildAndSendZToolResponse::?relay`; Banked call to: MT_BuildAndSendZToolResponse
//  903 }
??MT_AfDataRetrieve_9:
        MOV       R7,#0xb
        LJMP      ?BANKED_LEAVE_XDATA
??MT_AfDataRetrieve_5:
        ; Setup parameters for call to function osal_mem_alloc
        ADD       A,#0x2
        MOV       R2,A
        CLR       A
        ADDC      A,#0x0
        MOV       R3,A
        LCALL     `??osal_mem_alloc::?relay`; Banked call to: osal_mem_alloc
        MOV       ?V4,R2
        MOV       ?V5,R3
        MOV       A,R2
        ORL       A,R3
        JNZ       ??MT_AfDataRetrieve_10
        MOV       ?V1,#0x10
        MOV       ?V0,#0x0
        SJMP      ??MT_AfDataRetrieve_3
??MT_AfDataRetrieve_10:
        MOV       DPL,R2
        MOV       DPH,R3
        CLR       A
        MOVX      @DPTR,A
        INC       DPTR
        MOV       A,?V0
        LCALL     ?Subroutine45 & 0xFFFF
??CrossCallReturnLabel_86:
        MOVX      A,@DPTR
        ADD       A,?V6
        MOV       ?V8,A
        INC       DPTR
        MOVX      A,@DPTR
        ADDC      A,?V7
        MOV       ?V9,A
        MOV       ?V10,#0x0
        MOV       R0,#?V8
        LCALL     ?PUSH_XSTACK_I_THREE
          CFI CFA_XSP16 add(XSP16, 22)
        MOV       R4,?V0
        MOV       R5,#0x0
        MOV       A,R2
        ADD       A,#0x2
        MOV       R2,A
        CLR       A
        ADDC      A,?V5
        MOV       R3,A
        LCALL     ??Subroutine56_0 & 0xFFFF
??CrossCallReturnLabel_125:
        LCALL     ?DEALLOC_XSTACK8
          CFI CFA_XSP16 add(XSP16, 19)
        ; Setup parameters for call to function MT_BuildAndSendZToolResponse
        MOV       R4,?V4
        MOV       R5,?V5
        MOV       A,#0x2
        ADD       A,?V0
        MOV       R3,A
        MOV       R2,#0x12
        MOV       R1,#0x64
        LCALL     `??MT_BuildAndSendZToolResponse::?relay`; Banked call to: MT_BuildAndSendZToolResponse
        ; Setup parameters for call to function osal_mem_free
        MOV       R2,?V4
        MOV       R3,?V5
        LCALL     `??osal_mem_free::?relay`; Banked call to: osal_mem_free
        SJMP      ??MT_AfDataRetrieve_9
          CFI EndBlock cfiBlock251

        RSEG BANKED_CODE:HUGECODE:NOROOT(0)
?Subroutine45:
          CFI Block cfiCond252 Using cfiCommon0
          CFI Function MT_AfIncomingMsg
          CFI Conditional ??CrossCallReturnLabel_85, ??CrossCallReturnLabel_37
          CFI R6 load(1, XDATA, add(CFA_XSP16, literal(-22)))
          CFI VB load(1, XDATA, add(CFA_XSP16, literal(-21)))
          CFI V0 load(1, XDATA, add(CFA_XSP16, literal(-20)))
          CFI V1 load(1, XDATA, add(CFA_XSP16, literal(-19)))
          CFI V2 load(1, XDATA, add(CFA_XSP16, literal(-18)))
          CFI V3 load(1, XDATA, add(CFA_XSP16, literal(-17)))
          CFI V4 load(1, XDATA, add(CFA_XSP16, literal(-16)))
          CFI V5 load(1, XDATA, add(CFA_XSP16, literal(-15)))
          CFI V6 load(1, XDATA, add(CFA_XSP16, literal(-14)))
          CFI V7 load(1, XDATA, add(CFA_XSP16, literal(-13)))
          CFI V8 load(1, XDATA, add(CFA_XSP16, literal(-12)))
          CFI V9 load(1, XDATA, add(CFA_XSP16, literal(-11)))
          CFI V10 load(1, XDATA, add(CFA_XSP16, literal(-10)))
          CFI V11 load(1, XDATA, add(CFA_XSP16, literal(-9)))
          CFI V12 load(1, XDATA, add(CFA_XSP16, literal(-8)))
          CFI V13 load(1, XDATA, add(CFA_XSP16, literal(-7)))
          CFI R7 load(1, XDATA, add(CFA_XSP16, literal(-6)))
          CFI ?RET_LOW load(1, XDATA, add(CFA_XSP16, literal(-5)))
          CFI ?RET_HIGH load(1, XDATA, add(CFA_XSP16, literal(-4)))
          CFI ?BRET_EXT load(1, XDATA, add(CFA_XSP16, literal(-3)))
          CFI DPL0 load(1, XDATA, add(CFA_XSP16, literal(-2)))
          CFI DPH0 load(1, XDATA, add(CFA_XSP16, literal(-1)))
          CFI CFA_SP SP+-4
          CFI CFA_XSP16 add(XSP16, 22)
          CFI Block cfiCond253 Using cfiCommon0
          CFI (cfiCond253) Function MT_AfIncomingMsg
          CFI (cfiCond253) Conditional ??CrossCallReturnLabel_85, ??CrossCallReturnLabel_38
          CFI (cfiCond253) R6 load(1, XDATA, add(CFA_XSP16, literal(-22)))
          CFI (cfiCond253) VB load(1, XDATA, add(CFA_XSP16, literal(-21)))
          CFI (cfiCond253) V0 load(1, XDATA, add(CFA_XSP16, literal(-20)))
          CFI (cfiCond253) V1 load(1, XDATA, add(CFA_XSP16, literal(-19)))
          CFI (cfiCond253) V2 load(1, XDATA, add(CFA_XSP16, literal(-18)))
          CFI (cfiCond253) V3 load(1, XDATA, add(CFA_XSP16, literal(-17)))
          CFI (cfiCond253) V4 load(1, XDATA, add(CFA_XSP16, literal(-16)))
          CFI (cfiCond253) V5 load(1, XDATA, add(CFA_XSP16, literal(-15)))
          CFI (cfiCond253) V6 load(1, XDATA, add(CFA_XSP16, literal(-14)))
          CFI (cfiCond253) V7 load(1, XDATA, add(CFA_XSP16, literal(-13)))
          CFI (cfiCond253) V8 load(1, XDATA, add(CFA_XSP16, literal(-12)))
          CFI (cfiCond253) V9 load(1, XDATA, add(CFA_XSP16, literal(-11)))
          CFI (cfiCond253) V10 load(1, XDATA, add(CFA_XSP16, literal(-10)))
          CFI (cfiCond253) V11 load(1, XDATA, add(CFA_XSP16, literal(-9)))
          CFI (cfiCond253) V12 load(1, XDATA, add(CFA_XSP16, literal(-8)))
          CFI (cfiCond253) V13 load(1, XDATA, add(CFA_XSP16, literal(-7)))
          CFI (cfiCond253) R7 load(1, XDATA, add(CFA_XSP16, literal(-6)))
          CFI (cfiCond253) ?RET_LOW load(1, XDATA, add(CFA_XSP16, literal(-5)))
          CFI (cfiCond253) ?RET_HIGH load(1, XDATA, add(CFA_XSP16, literal(-4)))
          CFI (cfiCond253) ?BRET_EXT load(1, XDATA, add(CFA_XSP16, literal(-3)))
          CFI (cfiCond253) DPL0 load(1, XDATA, add(CFA_XSP16, literal(-2)))
          CFI (cfiCond253) DPH0 load(1, XDATA, add(CFA_XSP16, literal(-1)))
          CFI (cfiCond253) CFA_SP SP+-4
          CFI (cfiCond253) CFA_XSP16 add(XSP16, 22)
          CFI Block cfiCond254 Using cfiCommon0
          CFI (cfiCond254) Function MT_AfDataRetrieve
          CFI (cfiCond254) Conditional ??CrossCallReturnLabel_86
          CFI (cfiCond254) R6 load(1, XDATA, add(CFA_XSP16, literal(-19)))
          CFI (cfiCond254) VB load(1, XDATA, add(CFA_XSP16, literal(-18)))
          CFI (cfiCond254) V0 load(1, XDATA, add(CFA_XSP16, literal(-17)))
          CFI (cfiCond254) V1 load(1, XDATA, add(CFA_XSP16, literal(-16)))
          CFI (cfiCond254) V2 load(1, XDATA, add(CFA_XSP16, literal(-15)))
          CFI (cfiCond254) V3 load(1, XDATA, add(CFA_XSP16, literal(-14)))
          CFI (cfiCond254) V4 load(1, XDATA, add(CFA_XSP16, literal(-13)))
          CFI (cfiCond254) V5 load(1, XDATA, add(CFA_XSP16, literal(-12)))
          CFI (cfiCond254) V6 load(1, XDATA, add(CFA_XSP16, literal(-11)))
          CFI (cfiCond254) V7 load(1, XDATA, add(CFA_XSP16, literal(-10)))
          CFI (cfiCond254) V8 load(1, XDATA, add(CFA_XSP16, literal(-9)))
          CFI (cfiCond254) V9 load(1, XDATA, add(CFA_XSP16, literal(-8)))
          CFI (cfiCond254) V10 load(1, XDATA, add(CFA_XSP16, literal(-7)))
          CFI (cfiCond254) R7 load(1, XDATA, add(CFA_XSP16, literal(-6)))
          CFI (cfiCond254) ?RET_LOW load(1, XDATA, add(CFA_XSP16, literal(-5)))
          CFI (cfiCond254) ?RET_HIGH load(1, XDATA, add(CFA_XSP16, literal(-4)))
          CFI (cfiCond254) ?BRET_EXT load(1, XDATA, add(CFA_XSP16, literal(-3)))
          CFI (cfiCond254) DPL0 load(1, XDATA, add(CFA_XSP16, literal(-2)))
          CFI (cfiCond254) DPH0 load(1, XDATA, add(CFA_XSP16, literal(-1)))
          CFI (cfiCond254) CFA_SP SP+-2
          CFI (cfiCond254) CFA_XSP16 add(XSP16, 19)
          CFI Block cfiPicker255 Using cfiCommon1
          CFI (cfiPicker255) NoFunction
          CFI (cfiPicker255) Picker
        MOVX      @DPTR,A
        ; Setup parameters for call to function osal_memcpy
        MOV       DPL,?V2
        MOV       DPH,?V3
        INC       DPTR
        INC       DPTR
        RET
          CFI EndBlock cfiCond252
          CFI EndBlock cfiCond253
          CFI EndBlock cfiCond254
          CFI EndBlock cfiPicker255

        RSEG BANKED_CODE:HUGECODE:NOROOT(0)
?Subroutine32:
          CFI Block cfiCond256 Using cfiCommon0
          CFI Function MT_AfIncomingMsg
          CFI Conditional ??CrossCallReturnLabel_120
          CFI R6 load(1, XDATA, add(CFA_XSP16, literal(-22)))
          CFI VB load(1, XDATA, add(CFA_XSP16, literal(-21)))
          CFI V0 load(1, XDATA, add(CFA_XSP16, literal(-20)))
          CFI V1 load(1, XDATA, add(CFA_XSP16, literal(-19)))
          CFI V2 load(1, XDATA, add(CFA_XSP16, literal(-18)))
          CFI V3 load(1, XDATA, add(CFA_XSP16, literal(-17)))
          CFI V4 load(1, XDATA, add(CFA_XSP16, literal(-16)))
          CFI V5 load(1, XDATA, add(CFA_XSP16, literal(-15)))
          CFI V6 load(1, XDATA, add(CFA_XSP16, literal(-14)))
          CFI V7 load(1, XDATA, add(CFA_XSP16, literal(-13)))
          CFI V8 load(1, XDATA, add(CFA_XSP16, literal(-12)))
          CFI V9 load(1, XDATA, add(CFA_XSP16, literal(-11)))
          CFI V10 load(1, XDATA, add(CFA_XSP16, literal(-10)))
          CFI V11 load(1, XDATA, add(CFA_XSP16, literal(-9)))
          CFI V12 load(1, XDATA, add(CFA_XSP16, literal(-8)))
          CFI V13 load(1, XDATA, add(CFA_XSP16, literal(-7)))
          CFI R7 load(1, XDATA, add(CFA_XSP16, literal(-6)))
          CFI ?RET_LOW load(1, XDATA, add(CFA_XSP16, literal(-5)))
          CFI ?RET_HIGH load(1, XDATA, add(CFA_XSP16, literal(-4)))
          CFI ?BRET_EXT load(1, XDATA, add(CFA_XSP16, literal(-3)))
          CFI DPL0 load(1, XDATA, add(CFA_XSP16, literal(-2)))
          CFI DPH0 load(1, XDATA, add(CFA_XSP16, literal(-1)))
          CFI CFA_SP SP+-2
          CFI CFA_XSP16 add(XSP16, 25)
          CFI Block cfiCond257 Using cfiCommon0
          CFI (cfiCond257) Function MT_AfIncomingMsg
          CFI (cfiCond257) Conditional ??CrossCallReturnLabel_121
          CFI (cfiCond257) R6 load(1, XDATA, add(CFA_XSP16, literal(-22)))
          CFI (cfiCond257) VB load(1, XDATA, add(CFA_XSP16, literal(-21)))
          CFI (cfiCond257) V0 load(1, XDATA, add(CFA_XSP16, literal(-20)))
          CFI (cfiCond257) V1 load(1, XDATA, add(CFA_XSP16, literal(-19)))
          CFI (cfiCond257) V2 load(1, XDATA, add(CFA_XSP16, literal(-18)))
          CFI (cfiCond257) V3 load(1, XDATA, add(CFA_XSP16, literal(-17)))
          CFI (cfiCond257) V4 load(1, XDATA, add(CFA_XSP16, literal(-16)))
          CFI (cfiCond257) V5 load(1, XDATA, add(CFA_XSP16, literal(-15)))
          CFI (cfiCond257) V6 load(1, XDATA, add(CFA_XSP16, literal(-14)))
          CFI (cfiCond257) V7 load(1, XDATA, add(CFA_XSP16, literal(-13)))
          CFI (cfiCond257) V8 load(1, XDATA, add(CFA_XSP16, literal(-12)))
          CFI (cfiCond257) V9 load(1, XDATA, add(CFA_XSP16, literal(-11)))
          CFI (cfiCond257) V10 load(1, XDATA, add(CFA_XSP16, literal(-10)))
          CFI (cfiCond257) V11 load(1, XDATA, add(CFA_XSP16, literal(-9)))
          CFI (cfiCond257) V12 load(1, XDATA, add(CFA_XSP16, literal(-8)))
          CFI (cfiCond257) V13 load(1, XDATA, add(CFA_XSP16, literal(-7)))
          CFI (cfiCond257) R7 load(1, XDATA, add(CFA_XSP16, literal(-6)))
          CFI (cfiCond257) ?RET_LOW load(1, XDATA, add(CFA_XSP16, literal(-5)))
          CFI (cfiCond257) ?RET_HIGH load(1, XDATA, add(CFA_XSP16, literal(-4)))
          CFI (cfiCond257) ?BRET_EXT load(1, XDATA, add(CFA_XSP16, literal(-3)))
          CFI (cfiCond257) DPL0 load(1, XDATA, add(CFA_XSP16, literal(-2)))
          CFI (cfiCond257) DPH0 load(1, XDATA, add(CFA_XSP16, literal(-1)))
          CFI (cfiCond257) CFA_SP SP+-2
          CFI (cfiCond257) CFA_XSP16 add(XSP16, 25)
          CFI Block cfiPicker258 Using cfiCommon1
          CFI (cfiPicker258) NoFunction
          CFI (cfiPicker258) Picker
        MOV       R2,?V2
        MOV       R3,?V3
          CFI EndBlock cfiCond256
          CFI EndBlock cfiCond257
          CFI EndBlock cfiPicker258
        REQUIRE ??Subroutine56_0
        ; // Fall through to label ??Subroutine56_0

        RSEG BANKED_CODE:HUGECODE:NOROOT(0)
??Subroutine56_0:
          CFI Block cfiCond259 Using cfiCommon0
          CFI Function MT_AfDataRequest
          CFI Conditional ??CrossCallReturnLabel_122
          CFI R6 load(1, XDATA, add(CFA_XSP16, literal(-21)))
          CFI VB load(1, XDATA, add(CFA_XSP16, literal(-20)))
          CFI V0 load(1, XDATA, add(CFA_XSP16, literal(-19)))
          CFI V1 load(1, XDATA, add(CFA_XSP16, literal(-18)))
          CFI V2 load(1, XDATA, add(CFA_XSP16, literal(-17)))
          CFI V3 load(1, XDATA, add(CFA_XSP16, literal(-16)))
          CFI V4 load(1, XDATA, add(CFA_XSP16, literal(-15)))
          CFI V5 load(1, XDATA, add(CFA_XSP16, literal(-14)))
          CFI V6 load(1, XDATA, add(CFA_XSP16, literal(-13)))
          CFI V7 load(1, XDATA, add(CFA_XSP16, literal(-12)))
          CFI V8 load(1, XDATA, add(CFA_XSP16, literal(-11)))
          CFI V9 load(1, XDATA, add(CFA_XSP16, literal(-10)))
          CFI V10 load(1, XDATA, add(CFA_XSP16, literal(-9)))
          CFI V11 load(1, XDATA, add(CFA_XSP16, literal(-8)))
          CFI V12 load(1, XDATA, add(CFA_XSP16, literal(-7)))
          CFI R7 load(1, XDATA, add(CFA_XSP16, literal(-6)))
          CFI ?RET_LOW load(1, XDATA, add(CFA_XSP16, literal(-5)))
          CFI ?RET_HIGH load(1, XDATA, add(CFA_XSP16, literal(-4)))
          CFI ?BRET_EXT load(1, XDATA, add(CFA_XSP16, literal(-3)))
          CFI DPL0 load(1, XDATA, add(CFA_XSP16, literal(-2)))
          CFI DPH0 load(1, XDATA, add(CFA_XSP16, literal(-1)))
          CFI CFA_SP SP+-2
          CFI CFA_XSP16 add(XSP16, 38)
          CFI Block cfiCond260 Using cfiCommon0
          CFI (cfiCond260) Function MT_AfDataRequest
          CFI (cfiCond260) Conditional ??CrossCallReturnLabel_123
          CFI (cfiCond260) R6 load(1, XDATA, add(CFA_XSP16, literal(-21)))
          CFI (cfiCond260) VB load(1, XDATA, add(CFA_XSP16, literal(-20)))
          CFI (cfiCond260) V0 load(1, XDATA, add(CFA_XSP16, literal(-19)))
          CFI (cfiCond260) V1 load(1, XDATA, add(CFA_XSP16, literal(-18)))
          CFI (cfiCond260) V2 load(1, XDATA, add(CFA_XSP16, literal(-17)))
          CFI (cfiCond260) V3 load(1, XDATA, add(CFA_XSP16, literal(-16)))
          CFI (cfiCond260) V4 load(1, XDATA, add(CFA_XSP16, literal(-15)))
          CFI (cfiCond260) V5 load(1, XDATA, add(CFA_XSP16, literal(-14)))
          CFI (cfiCond260) V6 load(1, XDATA, add(CFA_XSP16, literal(-13)))
          CFI (cfiCond260) V7 load(1, XDATA, add(CFA_XSP16, literal(-12)))
          CFI (cfiCond260) V8 load(1, XDATA, add(CFA_XSP16, literal(-11)))
          CFI (cfiCond260) V9 load(1, XDATA, add(CFA_XSP16, literal(-10)))
          CFI (cfiCond260) V10 load(1, XDATA, add(CFA_XSP16, literal(-9)))
          CFI (cfiCond260) V11 load(1, XDATA, add(CFA_XSP16, literal(-8)))
          CFI (cfiCond260) V12 load(1, XDATA, add(CFA_XSP16, literal(-7)))
          CFI (cfiCond260) R7 load(1, XDATA, add(CFA_XSP16, literal(-6)))
          CFI (cfiCond260) ?RET_LOW load(1, XDATA, add(CFA_XSP16, literal(-5)))
          CFI (cfiCond260) ?RET_HIGH load(1, XDATA, add(CFA_XSP16, literal(-4)))
          CFI (cfiCond260) ?BRET_EXT load(1, XDATA, add(CFA_XSP16, literal(-3)))
          CFI (cfiCond260) DPL0 load(1, XDATA, add(CFA_XSP16, literal(-2)))
          CFI (cfiCond260) DPH0 load(1, XDATA, add(CFA_XSP16, literal(-1)))
          CFI (cfiCond260) CFA_SP SP+-2
          CFI (cfiCond260) CFA_XSP16 add(XSP16, 38)
          CFI Block cfiCond261 Using cfiCommon0
          CFI (cfiCond261) Function MT_AfIncomingMsg
          CFI (cfiCond261) Conditional ??CrossCallReturnLabel_124
          CFI (cfiCond261) R6 load(1, XDATA, add(CFA_XSP16, literal(-22)))
          CFI (cfiCond261) VB load(1, XDATA, add(CFA_XSP16, literal(-21)))
          CFI (cfiCond261) V0 load(1, XDATA, add(CFA_XSP16, literal(-20)))
          CFI (cfiCond261) V1 load(1, XDATA, add(CFA_XSP16, literal(-19)))
          CFI (cfiCond261) V2 load(1, XDATA, add(CFA_XSP16, literal(-18)))
          CFI (cfiCond261) V3 load(1, XDATA, add(CFA_XSP16, literal(-17)))
          CFI (cfiCond261) V4 load(1, XDATA, add(CFA_XSP16, literal(-16)))
          CFI (cfiCond261) V5 load(1, XDATA, add(CFA_XSP16, literal(-15)))
          CFI (cfiCond261) V6 load(1, XDATA, add(CFA_XSP16, literal(-14)))
          CFI (cfiCond261) V7 load(1, XDATA, add(CFA_XSP16, literal(-13)))
          CFI (cfiCond261) V8 load(1, XDATA, add(CFA_XSP16, literal(-12)))
          CFI (cfiCond261) V9 load(1, XDATA, add(CFA_XSP16, literal(-11)))
          CFI (cfiCond261) V10 load(1, XDATA, add(CFA_XSP16, literal(-10)))
          CFI (cfiCond261) V11 load(1, XDATA, add(CFA_XSP16, literal(-9)))
          CFI (cfiCond261) V12 load(1, XDATA, add(CFA_XSP16, literal(-8)))
          CFI (cfiCond261) V13 load(1, XDATA, add(CFA_XSP16, literal(-7)))
          CFI (cfiCond261) R7 load(1, XDATA, add(CFA_XSP16, literal(-6)))
          CFI (cfiCond261) ?RET_LOW load(1, XDATA, add(CFA_XSP16, literal(-5)))
          CFI (cfiCond261) ?RET_HIGH load(1, XDATA, add(CFA_XSP16, literal(-4)))
          CFI (cfiCond261) ?BRET_EXT load(1, XDATA, add(CFA_XSP16, literal(-3)))
          CFI (cfiCond261) DPL0 load(1, XDATA, add(CFA_XSP16, literal(-2)))
          CFI (cfiCond261) DPH0 load(1, XDATA, add(CFA_XSP16, literal(-1)))
          CFI (cfiCond261) CFA_SP SP+-2
          CFI (cfiCond261) CFA_XSP16 add(XSP16, 25)
          CFI Block cfiCond262 Using cfiCommon0
          CFI (cfiCond262) Function MT_AfDataRetrieve
          CFI (cfiCond262) Conditional ??CrossCallReturnLabel_125
          CFI (cfiCond262) R6 load(1, XDATA, add(CFA_XSP16, literal(-19)))
          CFI (cfiCond262) VB load(1, XDATA, add(CFA_XSP16, literal(-18)))
          CFI (cfiCond262) V0 load(1, XDATA, add(CFA_XSP16, literal(-17)))
          CFI (cfiCond262) V1 load(1, XDATA, add(CFA_XSP16, literal(-16)))
          CFI (cfiCond262) V2 load(1, XDATA, add(CFA_XSP16, literal(-15)))
          CFI (cfiCond262) V3 load(1, XDATA, add(CFA_XSP16, literal(-14)))
          CFI (cfiCond262) V4 load(1, XDATA, add(CFA_XSP16, literal(-13)))
          CFI (cfiCond262) V5 load(1, XDATA, add(CFA_XSP16, literal(-12)))
          CFI (cfiCond262) V6 load(1, XDATA, add(CFA_XSP16, literal(-11)))
          CFI (cfiCond262) V7 load(1, XDATA, add(CFA_XSP16, literal(-10)))
          CFI (cfiCond262) V8 load(1, XDATA, add(CFA_XSP16, literal(-9)))
          CFI (cfiCond262) V9 load(1, XDATA, add(CFA_XSP16, literal(-8)))
          CFI (cfiCond262) V10 load(1, XDATA, add(CFA_XSP16, literal(-7)))
          CFI (cfiCond262) R7 load(1, XDATA, add(CFA_XSP16, literal(-6)))
          CFI (cfiCond262) ?RET_LOW load(1, XDATA, add(CFA_XSP16, literal(-5)))
          CFI (cfiCond262) ?RET_HIGH load(1, XDATA, add(CFA_XSP16, literal(-4)))
          CFI (cfiCond262) ?BRET_EXT load(1, XDATA, add(CFA_XSP16, literal(-3)))
          CFI (cfiCond262) DPL0 load(1, XDATA, add(CFA_XSP16, literal(-2)))
          CFI (cfiCond262) DPH0 load(1, XDATA, add(CFA_XSP16, literal(-1)))
          CFI (cfiCond262) CFA_SP SP+-2
          CFI (cfiCond262) CFA_XSP16 add(XSP16, 22)
          CFI Block cfiCond263 Using cfiCommon0
          CFI (cfiCond263) Function MT_AfDataStore
          CFI (cfiCond263) Conditional ??CrossCallReturnLabel_126
          CFI (cfiCond263) R6 load(1, XDATA, add(CFA_XSP16, literal(-14)))
          CFI (cfiCond263) VB load(1, XDATA, add(CFA_XSP16, literal(-13)))
          CFI (cfiCond263) V0 load(1, XDATA, add(CFA_XSP16, literal(-12)))
          CFI (cfiCond263) V1 load(1, XDATA, add(CFA_XSP16, literal(-11)))
          CFI (cfiCond263) V2 load(1, XDATA, add(CFA_XSP16, literal(-10)))
          CFI (cfiCond263) V3 load(1, XDATA, add(CFA_XSP16, literal(-9)))
          CFI (cfiCond263) V4 load(1, XDATA, add(CFA_XSP16, literal(-8)))
          CFI (cfiCond263) V5 load(1, XDATA, add(CFA_XSP16, literal(-7)))
          CFI (cfiCond263) R7 load(1, XDATA, add(CFA_XSP16, literal(-6)))
          CFI (cfiCond263) ?RET_LOW load(1, XDATA, add(CFA_XSP16, literal(-5)))
          CFI (cfiCond263) ?RET_HIGH load(1, XDATA, add(CFA_XSP16, literal(-4)))
          CFI (cfiCond263) ?BRET_EXT load(1, XDATA, add(CFA_XSP16, literal(-3)))
          CFI (cfiCond263) DPL0 load(1, XDATA, add(CFA_XSP16, literal(-2)))
          CFI (cfiCond263) DPH0 load(1, XDATA, add(CFA_XSP16, literal(-1)))
          CFI (cfiCond263) CFA_SP SP+-2
          CFI (cfiCond263) CFA_XSP16 add(XSP16, 18)
          CFI Block cfiCond264 Using cfiCommon0
          CFI (cfiCond264) Function MT_AfIncomingMsg
          CFI (cfiCond264) Conditional ??CrossCallReturnLabel_120
          CFI (cfiCond264) R6 load(1, XDATA, add(CFA_XSP16, literal(-22)))
          CFI (cfiCond264) VB load(1, XDATA, add(CFA_XSP16, literal(-21)))
          CFI (cfiCond264) V0 load(1, XDATA, add(CFA_XSP16, literal(-20)))
          CFI (cfiCond264) V1 load(1, XDATA, add(CFA_XSP16, literal(-19)))
          CFI (cfiCond264) V2 load(1, XDATA, add(CFA_XSP16, literal(-18)))
          CFI (cfiCond264) V3 load(1, XDATA, add(CFA_XSP16, literal(-17)))
          CFI (cfiCond264) V4 load(1, XDATA, add(CFA_XSP16, literal(-16)))
          CFI (cfiCond264) V5 load(1, XDATA, add(CFA_XSP16, literal(-15)))
          CFI (cfiCond264) V6 load(1, XDATA, add(CFA_XSP16, literal(-14)))
          CFI (cfiCond264) V7 load(1, XDATA, add(CFA_XSP16, literal(-13)))
          CFI (cfiCond264) V8 load(1, XDATA, add(CFA_XSP16, literal(-12)))
          CFI (cfiCond264) V9 load(1, XDATA, add(CFA_XSP16, literal(-11)))
          CFI (cfiCond264) V10 load(1, XDATA, add(CFA_XSP16, literal(-10)))
          CFI (cfiCond264) V11 load(1, XDATA, add(CFA_XSP16, literal(-9)))
          CFI (cfiCond264) V12 load(1, XDATA, add(CFA_XSP16, literal(-8)))
          CFI (cfiCond264) V13 load(1, XDATA, add(CFA_XSP16, literal(-7)))
          CFI (cfiCond264) R7 load(1, XDATA, add(CFA_XSP16, literal(-6)))
          CFI (cfiCond264) ?RET_LOW load(1, XDATA, add(CFA_XSP16, literal(-5)))
          CFI (cfiCond264) ?RET_HIGH load(1, XDATA, add(CFA_XSP16, literal(-4)))
          CFI (cfiCond264) ?BRET_EXT load(1, XDATA, add(CFA_XSP16, literal(-3)))
          CFI (cfiCond264) DPL0 load(1, XDATA, add(CFA_XSP16, literal(-2)))
          CFI (cfiCond264) DPH0 load(1, XDATA, add(CFA_XSP16, literal(-1)))
          CFI (cfiCond264) CFA_SP SP+-2
          CFI (cfiCond264) CFA_XSP16 add(XSP16, 25)
          CFI Block cfiCond265 Using cfiCommon0
          CFI (cfiCond265) Function MT_AfIncomingMsg
          CFI (cfiCond265) Conditional ??CrossCallReturnLabel_121
          CFI (cfiCond265) R6 load(1, XDATA, add(CFA_XSP16, literal(-22)))
          CFI (cfiCond265) VB load(1, XDATA, add(CFA_XSP16, literal(-21)))
          CFI (cfiCond265) V0 load(1, XDATA, add(CFA_XSP16, literal(-20)))
          CFI (cfiCond265) V1 load(1, XDATA, add(CFA_XSP16, literal(-19)))
          CFI (cfiCond265) V2 load(1, XDATA, add(CFA_XSP16, literal(-18)))
          CFI (cfiCond265) V3 load(1, XDATA, add(CFA_XSP16, literal(-17)))
          CFI (cfiCond265) V4 load(1, XDATA, add(CFA_XSP16, literal(-16)))
          CFI (cfiCond265) V5 load(1, XDATA, add(CFA_XSP16, literal(-15)))
          CFI (cfiCond265) V6 load(1, XDATA, add(CFA_XSP16, literal(-14)))
          CFI (cfiCond265) V7 load(1, XDATA, add(CFA_XSP16, literal(-13)))
          CFI (cfiCond265) V8 load(1, XDATA, add(CFA_XSP16, literal(-12)))
          CFI (cfiCond265) V9 load(1, XDATA, add(CFA_XSP16, literal(-11)))
          CFI (cfiCond265) V10 load(1, XDATA, add(CFA_XSP16, literal(-10)))
          CFI (cfiCond265) V11 load(1, XDATA, add(CFA_XSP16, literal(-9)))
          CFI (cfiCond265) V12 load(1, XDATA, add(CFA_XSP16, literal(-8)))
          CFI (cfiCond265) V13 load(1, XDATA, add(CFA_XSP16, literal(-7)))
          CFI (cfiCond265) R7 load(1, XDATA, add(CFA_XSP16, literal(-6)))
          CFI (cfiCond265) ?RET_LOW load(1, XDATA, add(CFA_XSP16, literal(-5)))
          CFI (cfiCond265) ?RET_HIGH load(1, XDATA, add(CFA_XSP16, literal(-4)))
          CFI (cfiCond265) ?BRET_EXT load(1, XDATA, add(CFA_XSP16, literal(-3)))
          CFI (cfiCond265) DPL0 load(1, XDATA, add(CFA_XSP16, literal(-2)))
          CFI (cfiCond265) DPH0 load(1, XDATA, add(CFA_XSP16, literal(-1)))
          CFI (cfiCond265) CFA_SP SP+-2
          CFI (cfiCond265) CFA_XSP16 add(XSP16, 25)
          CFI Block cfiPicker266 Using cfiCommon1
          CFI (cfiPicker266) NoFunction
          CFI (cfiPicker266) Picker
        LCALL     `??osal_memcpy::?relay`; Banked call to: osal_memcpy
        MOV       A,#0x3
        RET
          CFI EndBlock cfiCond259
          CFI EndBlock cfiCond260
          CFI EndBlock cfiCond261
          CFI EndBlock cfiCond262
          CFI EndBlock cfiCond263
          CFI EndBlock cfiCond264
          CFI EndBlock cfiCond265
          CFI EndBlock cfiPicker266

        RSEG BANKED_CODE:HUGECODE:NOROOT(0)
?Subroutine20:
          CFI Block cfiCond267 Using cfiCommon0
          CFI Function MT_AfExec
          CFI Conditional ??CrossCallReturnLabel_129
          CFI R6 load(1, XDATA, add(CFA_XSP16, literal(-9)))
          CFI VB load(1, XDATA, add(CFA_XSP16, literal(-8)))
          CFI V0 load(1, XDATA, add(CFA_XSP16, literal(-7)))
          CFI R7 load(1, XDATA, add(CFA_XSP16, literal(-6)))
          CFI ?RET_LOW load(1, XDATA, add(CFA_XSP16, literal(-5)))
          CFI ?RET_HIGH load(1, XDATA, add(CFA_XSP16, literal(-4)))
          CFI ?BRET_EXT load(1, XDATA, add(CFA_XSP16, literal(-3)))
          CFI DPL0 load(1, XDATA, add(CFA_XSP16, literal(-2)))
          CFI DPH0 load(1, XDATA, add(CFA_XSP16, literal(-1)))
          CFI CFA_SP SP+-2
          CFI CFA_XSP16 add(XSP16, 9)
          CFI Block cfiCond268 Using cfiCommon0
          CFI (cfiCond268) Function MT_AfIncomingMsg
          CFI (cfiCond268) Conditional ??CrossCallReturnLabel_130
          CFI (cfiCond268) R6 load(1, XDATA, add(CFA_XSP16, literal(-22)))
          CFI (cfiCond268) VB load(1, XDATA, add(CFA_XSP16, literal(-21)))
          CFI (cfiCond268) V0 load(1, XDATA, add(CFA_XSP16, literal(-20)))
          CFI (cfiCond268) V1 load(1, XDATA, add(CFA_XSP16, literal(-19)))
          CFI (cfiCond268) V2 load(1, XDATA, add(CFA_XSP16, literal(-18)))
          CFI (cfiCond268) V3 load(1, XDATA, add(CFA_XSP16, literal(-17)))
          CFI (cfiCond268) V4 load(1, XDATA, add(CFA_XSP16, literal(-16)))
          CFI (cfiCond268) V5 load(1, XDATA, add(CFA_XSP16, literal(-15)))
          CFI (cfiCond268) V6 load(1, XDATA, add(CFA_XSP16, literal(-14)))
          CFI (cfiCond268) V7 load(1, XDATA, add(CFA_XSP16, literal(-13)))
          CFI (cfiCond268) V8 load(1, XDATA, add(CFA_XSP16, literal(-12)))
          CFI (cfiCond268) V9 load(1, XDATA, add(CFA_XSP16, literal(-11)))
          CFI (cfiCond268) V10 load(1, XDATA, add(CFA_XSP16, literal(-10)))
          CFI (cfiCond268) V11 load(1, XDATA, add(CFA_XSP16, literal(-9)))
          CFI (cfiCond268) V12 load(1, XDATA, add(CFA_XSP16, literal(-8)))
          CFI (cfiCond268) V13 load(1, XDATA, add(CFA_XSP16, literal(-7)))
          CFI (cfiCond268) R7 load(1, XDATA, add(CFA_XSP16, literal(-6)))
          CFI (cfiCond268) ?RET_LOW load(1, XDATA, add(CFA_XSP16, literal(-5)))
          CFI (cfiCond268) ?RET_HIGH load(1, XDATA, add(CFA_XSP16, literal(-4)))
          CFI (cfiCond268) ?BRET_EXT load(1, XDATA, add(CFA_XSP16, literal(-3)))
          CFI (cfiCond268) DPL0 load(1, XDATA, add(CFA_XSP16, literal(-2)))
          CFI (cfiCond268) DPH0 load(1, XDATA, add(CFA_XSP16, literal(-1)))
          CFI (cfiCond268) CFA_SP SP+-2
          CFI (cfiCond268) CFA_XSP16 add(XSP16, 22)
          CFI Block cfiCond269 Using cfiCommon0
          CFI (cfiCond269) Function MT_AfDataRetrieve
          CFI (cfiCond269) Conditional ??CrossCallReturnLabel_131
          CFI (cfiCond269) R6 load(1, XDATA, add(CFA_XSP16, literal(-19)))
          CFI (cfiCond269) VB load(1, XDATA, add(CFA_XSP16, literal(-18)))
          CFI (cfiCond269) V0 load(1, XDATA, add(CFA_XSP16, literal(-17)))
          CFI (cfiCond269) V1 load(1, XDATA, add(CFA_XSP16, literal(-16)))
          CFI (cfiCond269) V2 load(1, XDATA, add(CFA_XSP16, literal(-15)))
          CFI (cfiCond269) V3 load(1, XDATA, add(CFA_XSP16, literal(-14)))
          CFI (cfiCond269) V4 load(1, XDATA, add(CFA_XSP16, literal(-13)))
          CFI (cfiCond269) V5 load(1, XDATA, add(CFA_XSP16, literal(-12)))
          CFI (cfiCond269) V6 load(1, XDATA, add(CFA_XSP16, literal(-11)))
          CFI (cfiCond269) V7 load(1, XDATA, add(CFA_XSP16, literal(-10)))
          CFI (cfiCond269) V8 load(1, XDATA, add(CFA_XSP16, literal(-9)))
          CFI (cfiCond269) V9 load(1, XDATA, add(CFA_XSP16, literal(-8)))
          CFI (cfiCond269) V10 load(1, XDATA, add(CFA_XSP16, literal(-7)))
          CFI (cfiCond269) R7 load(1, XDATA, add(CFA_XSP16, literal(-6)))
          CFI (cfiCond269) ?RET_LOW load(1, XDATA, add(CFA_XSP16, literal(-5)))
          CFI (cfiCond269) ?RET_HIGH load(1, XDATA, add(CFA_XSP16, literal(-4)))
          CFI (cfiCond269) ?BRET_EXT load(1, XDATA, add(CFA_XSP16, literal(-3)))
          CFI (cfiCond269) DPL0 load(1, XDATA, add(CFA_XSP16, literal(-2)))
          CFI (cfiCond269) DPH0 load(1, XDATA, add(CFA_XSP16, literal(-1)))
          CFI (cfiCond269) CFA_SP SP+-2
          CFI (cfiCond269) CFA_XSP16 add(XSP16, 19)
          CFI Block cfiPicker270 Using cfiCommon1
          CFI (cfiPicker270) NoFunction
          CFI (cfiPicker270) Picker
        MOV       DPTR,#pMtAfInMsgList
          CFI EndBlock cfiCond267
          CFI EndBlock cfiCond268
          CFI EndBlock cfiCond269
          CFI EndBlock cfiPicker270
        REQUIRE ??Subroutine57_0
        ; // Fall through to label ??Subroutine57_0

        RSEG BANKED_CODE:HUGECODE:NOROOT(0)
??Subroutine57_0:
          CFI Block cfiCond271 Using cfiCommon0
          CFI Function MT_AfExec
          CFI Conditional ??CrossCallReturnLabel_127
          CFI R6 load(1, XDATA, add(CFA_XSP16, literal(-9)))
          CFI VB load(1, XDATA, add(CFA_XSP16, literal(-8)))
          CFI V0 load(1, XDATA, add(CFA_XSP16, literal(-7)))
          CFI R7 load(1, XDATA, add(CFA_XSP16, literal(-6)))
          CFI ?RET_LOW load(1, XDATA, add(CFA_XSP16, literal(-5)))
          CFI ?RET_HIGH load(1, XDATA, add(CFA_XSP16, literal(-4)))
          CFI ?BRET_EXT load(1, XDATA, add(CFA_XSP16, literal(-3)))
          CFI DPL0 load(1, XDATA, add(CFA_XSP16, literal(-2)))
          CFI DPH0 load(1, XDATA, add(CFA_XSP16, literal(-1)))
          CFI CFA_SP SP+-2
          CFI CFA_XSP16 add(XSP16, 9)
          CFI Block cfiCond272 Using cfiCommon0
          CFI (cfiCond272) Function MT_AfDataRetrieve
          CFI (cfiCond272) Conditional ??CrossCallReturnLabel_128
          CFI (cfiCond272) R6 load(1, XDATA, add(CFA_XSP16, literal(-19)))
          CFI (cfiCond272) VB load(1, XDATA, add(CFA_XSP16, literal(-18)))
          CFI (cfiCond272) V0 load(1, XDATA, add(CFA_XSP16, literal(-17)))
          CFI (cfiCond272) V1 load(1, XDATA, add(CFA_XSP16, literal(-16)))
          CFI (cfiCond272) V2 load(1, XDATA, add(CFA_XSP16, literal(-15)))
          CFI (cfiCond272) V3 load(1, XDATA, add(CFA_XSP16, literal(-14)))
          CFI (cfiCond272) V4 load(1, XDATA, add(CFA_XSP16, literal(-13)))
          CFI (cfiCond272) V5 load(1, XDATA, add(CFA_XSP16, literal(-12)))
          CFI (cfiCond272) V6 load(1, XDATA, add(CFA_XSP16, literal(-11)))
          CFI (cfiCond272) V7 load(1, XDATA, add(CFA_XSP16, literal(-10)))
          CFI (cfiCond272) V8 load(1, XDATA, add(CFA_XSP16, literal(-9)))
          CFI (cfiCond272) V9 load(1, XDATA, add(CFA_XSP16, literal(-8)))
          CFI (cfiCond272) V10 load(1, XDATA, add(CFA_XSP16, literal(-7)))
          CFI (cfiCond272) R7 load(1, XDATA, add(CFA_XSP16, literal(-6)))
          CFI (cfiCond272) ?RET_LOW load(1, XDATA, add(CFA_XSP16, literal(-5)))
          CFI (cfiCond272) ?RET_HIGH load(1, XDATA, add(CFA_XSP16, literal(-4)))
          CFI (cfiCond272) ?BRET_EXT load(1, XDATA, add(CFA_XSP16, literal(-3)))
          CFI (cfiCond272) DPL0 load(1, XDATA, add(CFA_XSP16, literal(-2)))
          CFI (cfiCond272) DPH0 load(1, XDATA, add(CFA_XSP16, literal(-1)))
          CFI (cfiCond272) CFA_SP SP+-2
          CFI (cfiCond272) CFA_XSP16 add(XSP16, 19)
          CFI Block cfiCond273 Using cfiCommon0
          CFI (cfiCond273) Function MT_AfExec
          CFI (cfiCond273) Conditional ??CrossCallReturnLabel_129
          CFI (cfiCond273) R6 load(1, XDATA, add(CFA_XSP16, literal(-9)))
          CFI (cfiCond273) VB load(1, XDATA, add(CFA_XSP16, literal(-8)))
          CFI (cfiCond273) V0 load(1, XDATA, add(CFA_XSP16, literal(-7)))
          CFI (cfiCond273) R7 load(1, XDATA, add(CFA_XSP16, literal(-6)))
          CFI (cfiCond273) ?RET_LOW load(1, XDATA, add(CFA_XSP16, literal(-5)))
          CFI (cfiCond273) ?RET_HIGH load(1, XDATA, add(CFA_XSP16, literal(-4)))
          CFI (cfiCond273) ?BRET_EXT load(1, XDATA, add(CFA_XSP16, literal(-3)))
          CFI (cfiCond273) DPL0 load(1, XDATA, add(CFA_XSP16, literal(-2)))
          CFI (cfiCond273) DPH0 load(1, XDATA, add(CFA_XSP16, literal(-1)))
          CFI (cfiCond273) CFA_SP SP+-2
          CFI (cfiCond273) CFA_XSP16 add(XSP16, 9)
          CFI Block cfiCond274 Using cfiCommon0
          CFI (cfiCond274) Function MT_AfIncomingMsg
          CFI (cfiCond274) Conditional ??CrossCallReturnLabel_130
          CFI (cfiCond274) R6 load(1, XDATA, add(CFA_XSP16, literal(-22)))
          CFI (cfiCond274) VB load(1, XDATA, add(CFA_XSP16, literal(-21)))
          CFI (cfiCond274) V0 load(1, XDATA, add(CFA_XSP16, literal(-20)))
          CFI (cfiCond274) V1 load(1, XDATA, add(CFA_XSP16, literal(-19)))
          CFI (cfiCond274) V2 load(1, XDATA, add(CFA_XSP16, literal(-18)))
          CFI (cfiCond274) V3 load(1, XDATA, add(CFA_XSP16, literal(-17)))
          CFI (cfiCond274) V4 load(1, XDATA, add(CFA_XSP16, literal(-16)))
          CFI (cfiCond274) V5 load(1, XDATA, add(CFA_XSP16, literal(-15)))
          CFI (cfiCond274) V6 load(1, XDATA, add(CFA_XSP16, literal(-14)))
          CFI (cfiCond274) V7 load(1, XDATA, add(CFA_XSP16, literal(-13)))
          CFI (cfiCond274) V8 load(1, XDATA, add(CFA_XSP16, literal(-12)))
          CFI (cfiCond274) V9 load(1, XDATA, add(CFA_XSP16, literal(-11)))
          CFI (cfiCond274) V10 load(1, XDATA, add(CFA_XSP16, literal(-10)))
          CFI (cfiCond274) V11 load(1, XDATA, add(CFA_XSP16, literal(-9)))
          CFI (cfiCond274) V12 load(1, XDATA, add(CFA_XSP16, literal(-8)))
          CFI (cfiCond274) V13 load(1, XDATA, add(CFA_XSP16, literal(-7)))
          CFI (cfiCond274) R7 load(1, XDATA, add(CFA_XSP16, literal(-6)))
          CFI (cfiCond274) ?RET_LOW load(1, XDATA, add(CFA_XSP16, literal(-5)))
          CFI (cfiCond274) ?RET_HIGH load(1, XDATA, add(CFA_XSP16, literal(-4)))
          CFI (cfiCond274) ?BRET_EXT load(1, XDATA, add(CFA_XSP16, literal(-3)))
          CFI (cfiCond274) DPL0 load(1, XDATA, add(CFA_XSP16, literal(-2)))
          CFI (cfiCond274) DPH0 load(1, XDATA, add(CFA_XSP16, literal(-1)))
          CFI (cfiCond274) CFA_SP SP+-2
          CFI (cfiCond274) CFA_XSP16 add(XSP16, 22)
          CFI Block cfiCond275 Using cfiCommon0
          CFI (cfiCond275) Function MT_AfDataRetrieve
          CFI (cfiCond275) Conditional ??CrossCallReturnLabel_131
          CFI (cfiCond275) R6 load(1, XDATA, add(CFA_XSP16, literal(-19)))
          CFI (cfiCond275) VB load(1, XDATA, add(CFA_XSP16, literal(-18)))
          CFI (cfiCond275) V0 load(1, XDATA, add(CFA_XSP16, literal(-17)))
          CFI (cfiCond275) V1 load(1, XDATA, add(CFA_XSP16, literal(-16)))
          CFI (cfiCond275) V2 load(1, XDATA, add(CFA_XSP16, literal(-15)))
          CFI (cfiCond275) V3 load(1, XDATA, add(CFA_XSP16, literal(-14)))
          CFI (cfiCond275) V4 load(1, XDATA, add(CFA_XSP16, literal(-13)))
          CFI (cfiCond275) V5 load(1, XDATA, add(CFA_XSP16, literal(-12)))
          CFI (cfiCond275) V6 load(1, XDATA, add(CFA_XSP16, literal(-11)))
          CFI (cfiCond275) V7 load(1, XDATA, add(CFA_XSP16, literal(-10)))
          CFI (cfiCond275) V8 load(1, XDATA, add(CFA_XSP16, literal(-9)))
          CFI (cfiCond275) V9 load(1, XDATA, add(CFA_XSP16, literal(-8)))
          CFI (cfiCond275) V10 load(1, XDATA, add(CFA_XSP16, literal(-7)))
          CFI (cfiCond275) R7 load(1, XDATA, add(CFA_XSP16, literal(-6)))
          CFI (cfiCond275) ?RET_LOW load(1, XDATA, add(CFA_XSP16, literal(-5)))
          CFI (cfiCond275) ?RET_HIGH load(1, XDATA, add(CFA_XSP16, literal(-4)))
          CFI (cfiCond275) ?BRET_EXT load(1, XDATA, add(CFA_XSP16, literal(-3)))
          CFI (cfiCond275) DPL0 load(1, XDATA, add(CFA_XSP16, literal(-2)))
          CFI (cfiCond275) DPH0 load(1, XDATA, add(CFA_XSP16, literal(-1)))
          CFI (cfiCond275) CFA_SP SP+-2
          CFI (cfiCond275) CFA_XSP16 add(XSP16, 19)
          CFI Block cfiPicker276 Using cfiCommon1
          CFI (cfiPicker276) NoFunction
          CFI (cfiPicker276) Picker
        LCALL     ??Subroutine52_0 & 0xFFFF
??CrossCallReturnLabel_137:
        MOV       R1,A
        RET
          CFI EndBlock cfiCond271
          CFI EndBlock cfiCond272
          CFI EndBlock cfiCond273
          CFI EndBlock cfiCond274
          CFI EndBlock cfiCond275
          CFI EndBlock cfiPicker276

        RSEG BANKED_CODE:HUGECODE:NOROOT(0)
?Subroutine19:
          CFI Block cfiCond277 Using cfiCommon0
          CFI Function MT_AfExec
          CFI Conditional ??CrossCallReturnLabel_30
          CFI R6 load(1, XDATA, add(CFA_XSP16, literal(-9)))
          CFI VB load(1, XDATA, add(CFA_XSP16, literal(-8)))
          CFI V0 load(1, XDATA, add(CFA_XSP16, literal(-7)))
          CFI R7 load(1, XDATA, add(CFA_XSP16, literal(-6)))
          CFI ?RET_LOW load(1, XDATA, add(CFA_XSP16, literal(-5)))
          CFI ?RET_HIGH load(1, XDATA, add(CFA_XSP16, literal(-4)))
          CFI ?BRET_EXT load(1, XDATA, add(CFA_XSP16, literal(-3)))
          CFI DPL0 load(1, XDATA, add(CFA_XSP16, literal(-2)))
          CFI DPH0 load(1, XDATA, add(CFA_XSP16, literal(-1)))
          CFI CFA_SP SP+-2
          CFI CFA_XSP16 add(XSP16, 9)
          CFI Block cfiCond278 Using cfiCommon0
          CFI (cfiCond278) Function MT_AfDataRetrieve
          CFI (cfiCond278) Conditional ??CrossCallReturnLabel_31
          CFI (cfiCond278) R6 load(1, XDATA, add(CFA_XSP16, literal(-19)))
          CFI (cfiCond278) VB load(1, XDATA, add(CFA_XSP16, literal(-18)))
          CFI (cfiCond278) V0 load(1, XDATA, add(CFA_XSP16, literal(-17)))
          CFI (cfiCond278) V1 load(1, XDATA, add(CFA_XSP16, literal(-16)))
          CFI (cfiCond278) V2 load(1, XDATA, add(CFA_XSP16, literal(-15)))
          CFI (cfiCond278) V3 load(1, XDATA, add(CFA_XSP16, literal(-14)))
          CFI (cfiCond278) V4 load(1, XDATA, add(CFA_XSP16, literal(-13)))
          CFI (cfiCond278) V5 load(1, XDATA, add(CFA_XSP16, literal(-12)))
          CFI (cfiCond278) V6 load(1, XDATA, add(CFA_XSP16, literal(-11)))
          CFI (cfiCond278) V7 load(1, XDATA, add(CFA_XSP16, literal(-10)))
          CFI (cfiCond278) V8 load(1, XDATA, add(CFA_XSP16, literal(-9)))
          CFI (cfiCond278) V9 load(1, XDATA, add(CFA_XSP16, literal(-8)))
          CFI (cfiCond278) V10 load(1, XDATA, add(CFA_XSP16, literal(-7)))
          CFI (cfiCond278) R7 load(1, XDATA, add(CFA_XSP16, literal(-6)))
          CFI (cfiCond278) ?RET_LOW load(1, XDATA, add(CFA_XSP16, literal(-5)))
          CFI (cfiCond278) ?RET_HIGH load(1, XDATA, add(CFA_XSP16, literal(-4)))
          CFI (cfiCond278) ?BRET_EXT load(1, XDATA, add(CFA_XSP16, literal(-3)))
          CFI (cfiCond278) DPL0 load(1, XDATA, add(CFA_XSP16, literal(-2)))
          CFI (cfiCond278) DPH0 load(1, XDATA, add(CFA_XSP16, literal(-1)))
          CFI (cfiCond278) CFA_SP SP+-2
          CFI (cfiCond278) CFA_XSP16 add(XSP16, 19)
          CFI Block cfiPicker279 Using cfiCommon1
          CFI (cfiPicker279) NoFunction
          CFI (cfiPicker279) Picker
        LCALL     ??Subroutine52_0 & 0xFFFF
??CrossCallReturnLabel_132:
        MOV       R1,A
        MOV       DPTR,#pMtAfInMsgList
        RET
          CFI EndBlock cfiCond277
          CFI EndBlock cfiCond278
          CFI EndBlock cfiPicker279
//  904 
//  905 /**************************************************************************************************
//  906  * @fn          MT_AfDataStore
//  907  *
//  908  * @brief   Process AF Data Store command to incrementally store the data buffer for very large
//  909  *          outgoing AF message.
//  910  *
//  911  * input parameters
//  912  *
//  913  * @param pBuf - pointer to the received buffer
//  914  *
//  915  * output parameters
//  916  *
//  917  * @param rtrn - AF-Status of the operation.
//  918  *
//  919  * @return      None.
//  920  **************************************************************************************************
//  921  */

        RSEG BANKED_CODE:HUGECODE:NOROOT(0)
//  922 static void MT_AfDataStore(uint8 *pBuf)
MT_AfDataStore:
          CFI Block cfiBlock280 Using cfiCommon0
          CFI Function MT_AfDataStore
        CODE
//  923 {
        FUNCALL MT_AfDataStore, osal_build_uint16
        LOCFRAME ISTACK, 0, STACK
        LOCFRAME PSTACK, 0, STACK
        LOCFRAME XSTACK, 15, STACK
        LOCFRAME IOVERLAY, 0, STATIC
        LOCFRAME DOVERLAY, 0, STATIC
        ARGFRAME ISTACK, 0, STACK
        ARGFRAME PSTACK, 0, STACK
        ARGFRAME XSTACK, 15, STACK
        ARGFRAME IOVERLAY, 0, STATIC
        ARGFRAME DOVERLAY, 0, STATIC
        FUNCALL MT_AfDataStore, AF_DataRequest
        LOCFRAME ISTACK, 0, STACK
        LOCFRAME PSTACK, 0, STACK
        LOCFRAME XSTACK, 24, STACK
        LOCFRAME IOVERLAY, 0, STATIC
        LOCFRAME DOVERLAY, 0, STATIC
        ARGFRAME ISTACK, 0, STACK
        ARGFRAME PSTACK, 0, STACK
        ARGFRAME XSTACK, 24, STACK
        ARGFRAME IOVERLAY, 0, STATIC
        ARGFRAME DOVERLAY, 0, STATIC
        FUNCALL MT_AfDataStore, osal_mem_free
        LOCFRAME ISTACK, 0, STACK
        LOCFRAME PSTACK, 0, STACK
        LOCFRAME XSTACK, 15, STACK
        LOCFRAME IOVERLAY, 0, STATIC
        LOCFRAME DOVERLAY, 0, STATIC
        ARGFRAME ISTACK, 0, STACK
        ARGFRAME PSTACK, 0, STACK
        ARGFRAME XSTACK, 15, STACK
        ARGFRAME IOVERLAY, 0, STATIC
        ARGFRAME DOVERLAY, 0, STATIC
        FUNCALL MT_AfDataStore, osal_memcpy
        LOCFRAME ISTACK, 0, STACK
        LOCFRAME PSTACK, 0, STACK
        LOCFRAME XSTACK, 18, STACK
        LOCFRAME IOVERLAY, 0, STATIC
        LOCFRAME DOVERLAY, 0, STATIC
        ARGFRAME ISTACK, 0, STACK
        ARGFRAME PSTACK, 0, STACK
        ARGFRAME XSTACK, 18, STACK
        ARGFRAME IOVERLAY, 0, STATIC
        ARGFRAME DOVERLAY, 0, STATIC
        FUNCALL MT_AfDataStore, MT_BuildAndSendZToolResponse
        LOCFRAME ISTACK, 0, STACK
        LOCFRAME PSTACK, 0, STACK
        LOCFRAME XSTACK, 15, STACK
        LOCFRAME IOVERLAY, 0, STATIC
        LOCFRAME DOVERLAY, 0, STATIC
        ARGFRAME ISTACK, 0, STACK
        ARGFRAME PSTACK, 0, STACK
        ARGFRAME XSTACK, 15, STACK
        ARGFRAME IOVERLAY, 0, STATIC
        ARGFRAME DOVERLAY, 0, STATIC
        REQUIRE ?V0
        REQUIRE ?V1
        REQUIRE ?V2
        REQUIRE ?V4
        REQUIRE ?V5
        MOV       A,#-0xe
        LCALL     ?BANKED_ENTER_XDATA
          CFI DPH0 load(1, XDATA, add(CFA_XSP16, literal(-1)))
          CFI DPL0 load(1, XDATA, add(CFA_XSP16, literal(-2)))
          CFI ?BRET_EXT load(1, XDATA, add(CFA_XSP16, literal(-3)))
          CFI ?RET_HIGH load(1, XDATA, add(CFA_XSP16, literal(-4)))
          CFI ?RET_LOW load(1, XDATA, add(CFA_XSP16, literal(-5)))
          CFI R7 load(1, XDATA, add(CFA_XSP16, literal(-6)))
          CFI V5 load(1, XDATA, add(CFA_XSP16, literal(-7)))
          CFI V4 load(1, XDATA, add(CFA_XSP16, literal(-8)))
          CFI V3 load(1, XDATA, add(CFA_XSP16, literal(-9)))
          CFI V2 load(1, XDATA, add(CFA_XSP16, literal(-10)))
          CFI V1 load(1, XDATA, add(CFA_XSP16, literal(-11)))
          CFI V0 load(1, XDATA, add(CFA_XSP16, literal(-12)))
          CFI VB load(1, XDATA, add(CFA_XSP16, literal(-13)))
          CFI R6 load(1, XDATA, add(CFA_XSP16, literal(-14)))
          CFI CFA_SP SP+0
          CFI CFA_XSP16 add(XSP16, 14)
        ; Saved register size: 14
        ; Auto size: 1
        MOV       A,#-0x1
        LCALL     ?ALLOC_XSTACK8
          CFI CFA_XSP16 add(XSP16, 15)
        MOV       A,R3
        MOV       R7,A
//  924   uint16 idx;
//  925   uint8 len, rtrn = afStatus_FAILED;
        MOV       DPL,?XSP + 0
        MOV       DPH,?XSP + 1
        MOV       A,#0x1
        MOVX      @DPTR,A
//  926 
//  927   pBuf += MT_RPC_FRAME_HDR_SZ;
        MOV       A,R2
        ADD       A,#0x3
        MOV       R6,A
        JNC       ??MT_AfDataStore_0
        INC       R7
//  928   idx = osal_build_uint16( pBuf );
??MT_AfDataStore_0:
        ; Setup parameters for call to function osal_build_uint16
        LCALL     ?Subroutine33 & 0xFFFF
//  929   len = pBuf[2];
??CrossCallReturnLabel_58:
        MOV       R2,A
//  930   pBuf += 3;
        MOV       A,R6
        ADD       A,#0x3
        MOV       R6,A
        JNC       ??MT_AfDataStore_1
        INC       R7
//  931 
//  932   if (pMtAfDataReq == NULL)
??MT_AfDataStore_1:
        LCALL     ?Subroutine3 & 0xFFFF
??CrossCallReturnLabel_111:
        JNZ       ??MT_AfDataStore_2
//  933   {
//  934     rtrn = afStatus_MEM_FAIL;
        MOV       DPL,?XSP + 0
        MOV       DPH,?XSP + 1
        MOV       A,#0x10
        LJMP      ??MT_AfDataStore_3 & 0xFFFF
//  935   }
//  936   else if (len == 0)  // Indication to send the message.
??MT_AfDataStore_2:
        MOV       A,R2
        JNZ       ??MT_AfDataStore_4
//  937   {
//  938     rtrn = AF_DataRequest(&(pMtAfDataReq->dstAddr), pMtAfDataReq->epDesc, pMtAfDataReq->cId,
//  939                             pMtAfDataReq->dataLen,  pMtAfDataReq->data,
//  940                           &(pMtAfDataReq->transId), pMtAfDataReq->txOpts, pMtAfDataReq->radius);
        ; Setup parameters for call to function AF_DataRequest
        MOV       A,R0
        ADD       A,#0x16
        MOV       DPL,A
        CLR       A
        ADDC      A,R1
        MOV       DPH,A
        MOVX      A,@DPTR
        MOV       ?V0,A
        MOV       R0,#?V0
        LCALL     ?PUSH_XSTACK_I_ONE
          CFI CFA_XSP16 add(XSP16, 16)
        MOV       DPTR,#pMtAfDataReq
        MOVX      A,@DPTR
        ADD       A,#0x14
        MOV       ?V0,A
        INC       DPTR
        MOVX      A,@DPTR
        ADDC      A,#0x0
        MOV       ?V1,A
        MOV       R0,#?V0
        LCALL     ?PUSH_XSTACK_I_TWO
          CFI CFA_XSP16 add(XSP16, 18)
        LCALL     ?Subroutine8 & 0xFFFF
??CrossCallReturnLabel_11:
        LCALL     ?PUSH_XSTACK8_X_TWO
          CFI CFA_XSP16 add(XSP16, 20)
        MOV       A,R0
        ADD       A,#0x12
        MOV       DPL,A
        CLR       A
        ADDC      A,R1
        MOV       DPH,A
        LCALL     ?PUSH_XSTACK8_X_TWO
          CFI CFA_XSP16 add(XSP16, 22)
        MOV       DPTR,#pMtAfDataReq
        MOVX      A,@DPTR
        ADD       A,#0x10
        MOV       DPL,A
        CLR       A
        ADDC      A,R1
        MOV       DPH,A
        LCALL     ?PUSH_XSTACK8_X_TWO
          CFI CFA_XSP16 add(XSP16, 24)
        MOV       DPTR,#pMtAfDataReq
        MOVX      A,@DPTR
        ADD       A,#0x15
        MOV       DPL,A
        CLR       A
        ADDC      A,R1
        MOV       DPH,A
        MOVX      A,@DPTR
        MOV       R1,A
        MOV       DPTR,#pMtAfDataReq + 1
        MOVX      A,@DPTR
        XCH       A,R0
        LCALL     ?Subroutine36 & 0xFFFF
??CrossCallReturnLabel_68:
        MOVX      A,@DPTR
        MOV       R4,A
        INC       DPTR
        MOVX      A,@DPTR
        MOV       R5,A
        LCALL     ?Subroutine17 & 0xFFFF
??CrossCallReturnLabel_29:
        LCALL     `??AF_DataRequest::?relay`; Banked call to: AF_DataRequest
        MOV       A,#0x9
        LCALL     ?DEALLOC_XSTACK8
          CFI CFA_XSP16 add(XSP16, 15)
        MOV       A,R1
        MOV       DPL,?XSP + 0
        MOV       DPH,?XSP + 1
        MOVX      @DPTR,A
//  941     (void)osal_mem_free(pMtAfDataReq);
        ; Setup parameters for call to function osal_mem_free
        LCALL     ?Subroutine6 & 0xFFFF
//  942     pMtAfDataReq = NULL;
//  943   }
??CrossCallReturnLabel_7:
        SJMP      ??MT_AfDataStore_3
//  944   else
//  945   {
//  946     (void)osal_memcpy(pMtAfDataReq->data+idx, pBuf, len);
??MT_AfDataStore_4:
        ; Setup parameters for call to function osal_memcpy
        MOV       ?V0,R6
        MOV       ?V1,R7
        MOV       ?V2,#0x0
        MOV       R0,#?V0
        LCALL     ?PUSH_XSTACK_I_THREE
          CFI CFA_XSP16 add(XSP16, 18)
        MOV       A,R2
        MOV       R4,A
        MOV       R5,#0x0
        LCALL     ?Subroutine8 & 0xFFFF
??CrossCallReturnLabel_12:
        MOVX      A,@DPTR
        ADD       A,?V4
        MOV       R2,A
        INC       DPTR
        MOVX      A,@DPTR
        ADDC      A,?V5
        MOV       R3,A
        LCALL     ??Subroutine56_0 & 0xFFFF
??CrossCallReturnLabel_126:
        LCALL     ?DEALLOC_XSTACK8
          CFI CFA_XSP16 add(XSP16, 15)
//  947     rtrn = afStatus_SUCCESS;
        MOV       DPL,?XSP + 0
        MOV       DPH,?XSP + 1
        CLR       A
//  948   }
??MT_AfDataStore_3:
        LCALL     ?Subroutine27 & 0xFFFF
//  949 
//  950   MT_BuildAndSendZToolResponse(((uint8)MT_RPC_CMD_SRSP | (uint8)MT_RPC_SYS_AF),
//  951                                                                 MT_AF_DATA_STORE, 1, &rtrn);
??CrossCallReturnLabel_48:
        MOV       R3,#0x1
        MOV       R2,#0x11
        MOV       R1,#0x64
        LCALL     `??MT_BuildAndSendZToolResponse::?relay`; Banked call to: MT_BuildAndSendZToolResponse
//  952 }
        MOV       A,#0x1
        LJMP      ?Subroutine0 & 0xFFFF
          CFI EndBlock cfiBlock280

        RSEG BANKED_CODE:HUGECODE:NOROOT(0)
?Subroutine36:
          CFI Block cfiCond281 Using cfiCommon0
          CFI Function MT_AfDataRequest
          CFI Conditional ??CrossCallReturnLabel_67
          CFI R6 load(1, XDATA, add(CFA_XSP16, literal(-21)))
          CFI VB load(1, XDATA, add(CFA_XSP16, literal(-20)))
          CFI V0 load(1, XDATA, add(CFA_XSP16, literal(-19)))
          CFI V1 load(1, XDATA, add(CFA_XSP16, literal(-18)))
          CFI V2 load(1, XDATA, add(CFA_XSP16, literal(-17)))
          CFI V3 load(1, XDATA, add(CFA_XSP16, literal(-16)))
          CFI V4 load(1, XDATA, add(CFA_XSP16, literal(-15)))
          CFI V5 load(1, XDATA, add(CFA_XSP16, literal(-14)))
          CFI V6 load(1, XDATA, add(CFA_XSP16, literal(-13)))
          CFI V7 load(1, XDATA, add(CFA_XSP16, literal(-12)))
          CFI V8 load(1, XDATA, add(CFA_XSP16, literal(-11)))
          CFI V9 load(1, XDATA, add(CFA_XSP16, literal(-10)))
          CFI V10 load(1, XDATA, add(CFA_XSP16, literal(-9)))
          CFI V11 load(1, XDATA, add(CFA_XSP16, literal(-8)))
          CFI V12 load(1, XDATA, add(CFA_XSP16, literal(-7)))
          CFI R7 load(1, XDATA, add(CFA_XSP16, literal(-6)))
          CFI ?RET_LOW load(1, XDATA, add(CFA_XSP16, literal(-5)))
          CFI ?RET_HIGH load(1, XDATA, add(CFA_XSP16, literal(-4)))
          CFI ?BRET_EXT load(1, XDATA, add(CFA_XSP16, literal(-3)))
          CFI DPL0 load(1, XDATA, add(CFA_XSP16, literal(-2)))
          CFI DPH0 load(1, XDATA, add(CFA_XSP16, literal(-1)))
          CFI CFA_SP SP+-2
          CFI CFA_XSP16 add(XSP16, 35)
          CFI Block cfiCond282 Using cfiCommon0
          CFI (cfiCond282) Function MT_AfDataStore
          CFI (cfiCond282) Conditional ??CrossCallReturnLabel_68
          CFI (cfiCond282) R6 load(1, XDATA, add(CFA_XSP16, literal(-14)))
          CFI (cfiCond282) VB load(1, XDATA, add(CFA_XSP16, literal(-13)))
          CFI (cfiCond282) V0 load(1, XDATA, add(CFA_XSP16, literal(-12)))
          CFI (cfiCond282) V1 load(1, XDATA, add(CFA_XSP16, literal(-11)))
          CFI (cfiCond282) V2 load(1, XDATA, add(CFA_XSP16, literal(-10)))
          CFI (cfiCond282) V3 load(1, XDATA, add(CFA_XSP16, literal(-9)))
          CFI (cfiCond282) V4 load(1, XDATA, add(CFA_XSP16, literal(-8)))
          CFI (cfiCond282) V5 load(1, XDATA, add(CFA_XSP16, literal(-7)))
          CFI (cfiCond282) R7 load(1, XDATA, add(CFA_XSP16, literal(-6)))
          CFI (cfiCond282) ?RET_LOW load(1, XDATA, add(CFA_XSP16, literal(-5)))
          CFI (cfiCond282) ?RET_HIGH load(1, XDATA, add(CFA_XSP16, literal(-4)))
          CFI (cfiCond282) ?BRET_EXT load(1, XDATA, add(CFA_XSP16, literal(-3)))
          CFI (cfiCond282) DPL0 load(1, XDATA, add(CFA_XSP16, literal(-2)))
          CFI (cfiCond282) DPH0 load(1, XDATA, add(CFA_XSP16, literal(-1)))
          CFI (cfiCond282) CFA_SP SP+-2
          CFI (cfiCond282) CFA_XSP16 add(XSP16, 24)
          CFI Block cfiPicker283 Using cfiCommon1
          CFI (cfiPicker283) NoFunction
          CFI (cfiPicker283) Picker
        ADD       A,#0xe
        MOV       DPL,A
        CLR       A
        ADDC      A,R0
        MOV       DPH,A
        RET
          CFI EndBlock cfiCond281
          CFI EndBlock cfiCond282
          CFI EndBlock cfiPicker283

        RSEG BANKED_CODE:HUGECODE:NOROOT(0)
?Subroutine33:
          CFI Block cfiCond284 Using cfiCommon0
          CFI Function MT_AfDataRequestSrcRtg
          CFI Conditional ??CrossCallReturnLabel_57
          CFI R6 load(1, XDATA, add(CFA_XSP16, literal(-20)))
          CFI VB load(1, XDATA, add(CFA_XSP16, literal(-19)))
          CFI V0 load(1, XDATA, add(CFA_XSP16, literal(-18)))
          CFI V1 load(1, XDATA, add(CFA_XSP16, literal(-17)))
          CFI V2 load(1, XDATA, add(CFA_XSP16, literal(-16)))
          CFI V3 load(1, XDATA, add(CFA_XSP16, literal(-15)))
          CFI V4 load(1, XDATA, add(CFA_XSP16, literal(-14)))
          CFI V5 load(1, XDATA, add(CFA_XSP16, literal(-13)))
          CFI V6 load(1, XDATA, add(CFA_XSP16, literal(-12)))
          CFI V7 load(1, XDATA, add(CFA_XSP16, literal(-11)))
          CFI V8 load(1, XDATA, add(CFA_XSP16, literal(-10)))
          CFI V9 load(1, XDATA, add(CFA_XSP16, literal(-9)))
          CFI V10 load(1, XDATA, add(CFA_XSP16, literal(-8)))
          CFI V11 load(1, XDATA, add(CFA_XSP16, literal(-7)))
          CFI R7 load(1, XDATA, add(CFA_XSP16, literal(-6)))
          CFI ?RET_LOW load(1, XDATA, add(CFA_XSP16, literal(-5)))
          CFI ?RET_HIGH load(1, XDATA, add(CFA_XSP16, literal(-4)))
          CFI ?BRET_EXT load(1, XDATA, add(CFA_XSP16, literal(-3)))
          CFI DPL0 load(1, XDATA, add(CFA_XSP16, literal(-2)))
          CFI DPH0 load(1, XDATA, add(CFA_XSP16, literal(-1)))
          CFI CFA_SP SP+-2
          CFI CFA_XSP16 add(XSP16, 34)
          CFI Block cfiCond285 Using cfiCommon0
          CFI (cfiCond285) Function MT_AfDataStore
          CFI (cfiCond285) Conditional ??CrossCallReturnLabel_58
          CFI (cfiCond285) R6 load(1, XDATA, add(CFA_XSP16, literal(-14)))
          CFI (cfiCond285) VB load(1, XDATA, add(CFA_XSP16, literal(-13)))
          CFI (cfiCond285) V0 load(1, XDATA, add(CFA_XSP16, literal(-12)))
          CFI (cfiCond285) V1 load(1, XDATA, add(CFA_XSP16, literal(-11)))
          CFI (cfiCond285) V2 load(1, XDATA, add(CFA_XSP16, literal(-10)))
          CFI (cfiCond285) V3 load(1, XDATA, add(CFA_XSP16, literal(-9)))
          CFI (cfiCond285) V4 load(1, XDATA, add(CFA_XSP16, literal(-8)))
          CFI (cfiCond285) V5 load(1, XDATA, add(CFA_XSP16, literal(-7)))
          CFI (cfiCond285) R7 load(1, XDATA, add(CFA_XSP16, literal(-6)))
          CFI (cfiCond285) ?RET_LOW load(1, XDATA, add(CFA_XSP16, literal(-5)))
          CFI (cfiCond285) ?RET_HIGH load(1, XDATA, add(CFA_XSP16, literal(-4)))
          CFI (cfiCond285) ?BRET_EXT load(1, XDATA, add(CFA_XSP16, literal(-3)))
          CFI (cfiCond285) DPL0 load(1, XDATA, add(CFA_XSP16, literal(-2)))
          CFI (cfiCond285) DPH0 load(1, XDATA, add(CFA_XSP16, literal(-1)))
          CFI (cfiCond285) CFA_SP SP+-2
          CFI (cfiCond285) CFA_XSP16 add(XSP16, 15)
          CFI Block cfiPicker286 Using cfiCommon1
          CFI (cfiPicker286) NoFunction
          CFI (cfiPicker286) Picker
        MOV       R2,A
        MOV       A,R7
        MOV       R3,A
        LCALL     `??osal_build_uint16::?relay`; Banked call to: osal_build_uint16
        MOV       ?V4,R2
        MOV       ?V5,R3
        MOV       DPL,R6
        MOV       DPH,R7
        INC       DPTR
        INC       DPTR
        MOVX      A,@DPTR
        RET
          CFI EndBlock cfiCond284
          CFI EndBlock cfiCond285
          CFI EndBlock cfiPicker286

        RSEG BANKED_CODE:HUGECODE:NOROOT(0)
?Subroutine17:
          CFI Block cfiCond287 Using cfiCommon0
          CFI Function MT_AfDataRequest
          CFI Conditional ??CrossCallReturnLabel_28
          CFI R6 load(1, XDATA, add(CFA_XSP16, literal(-21)))
          CFI VB load(1, XDATA, add(CFA_XSP16, literal(-20)))
          CFI V0 load(1, XDATA, add(CFA_XSP16, literal(-19)))
          CFI V1 load(1, XDATA, add(CFA_XSP16, literal(-18)))
          CFI V2 load(1, XDATA, add(CFA_XSP16, literal(-17)))
          CFI V3 load(1, XDATA, add(CFA_XSP16, literal(-16)))
          CFI V4 load(1, XDATA, add(CFA_XSP16, literal(-15)))
          CFI V5 load(1, XDATA, add(CFA_XSP16, literal(-14)))
          CFI V6 load(1, XDATA, add(CFA_XSP16, literal(-13)))
          CFI V7 load(1, XDATA, add(CFA_XSP16, literal(-12)))
          CFI V8 load(1, XDATA, add(CFA_XSP16, literal(-11)))
          CFI V9 load(1, XDATA, add(CFA_XSP16, literal(-10)))
          CFI V10 load(1, XDATA, add(CFA_XSP16, literal(-9)))
          CFI V11 load(1, XDATA, add(CFA_XSP16, literal(-8)))
          CFI V12 load(1, XDATA, add(CFA_XSP16, literal(-7)))
          CFI R7 load(1, XDATA, add(CFA_XSP16, literal(-6)))
          CFI ?RET_LOW load(1, XDATA, add(CFA_XSP16, literal(-5)))
          CFI ?RET_HIGH load(1, XDATA, add(CFA_XSP16, literal(-4)))
          CFI ?BRET_EXT load(1, XDATA, add(CFA_XSP16, literal(-3)))
          CFI DPL0 load(1, XDATA, add(CFA_XSP16, literal(-2)))
          CFI DPH0 load(1, XDATA, add(CFA_XSP16, literal(-1)))
          CFI CFA_SP SP+-2
          CFI CFA_XSP16 add(XSP16, 38)
          CFI Block cfiCond288 Using cfiCommon0
          CFI (cfiCond288) Function MT_AfDataStore
          CFI (cfiCond288) Conditional ??CrossCallReturnLabel_29
          CFI (cfiCond288) R6 load(1, XDATA, add(CFA_XSP16, literal(-14)))
          CFI (cfiCond288) VB load(1, XDATA, add(CFA_XSP16, literal(-13)))
          CFI (cfiCond288) V0 load(1, XDATA, add(CFA_XSP16, literal(-12)))
          CFI (cfiCond288) V1 load(1, XDATA, add(CFA_XSP16, literal(-11)))
          CFI (cfiCond288) V2 load(1, XDATA, add(CFA_XSP16, literal(-10)))
          CFI (cfiCond288) V3 load(1, XDATA, add(CFA_XSP16, literal(-9)))
          CFI (cfiCond288) V4 load(1, XDATA, add(CFA_XSP16, literal(-8)))
          CFI (cfiCond288) V5 load(1, XDATA, add(CFA_XSP16, literal(-7)))
          CFI (cfiCond288) R7 load(1, XDATA, add(CFA_XSP16, literal(-6)))
          CFI (cfiCond288) ?RET_LOW load(1, XDATA, add(CFA_XSP16, literal(-5)))
          CFI (cfiCond288) ?RET_HIGH load(1, XDATA, add(CFA_XSP16, literal(-4)))
          CFI (cfiCond288) ?BRET_EXT load(1, XDATA, add(CFA_XSP16, literal(-3)))
          CFI (cfiCond288) DPL0 load(1, XDATA, add(CFA_XSP16, literal(-2)))
          CFI (cfiCond288) DPH0 load(1, XDATA, add(CFA_XSP16, literal(-1)))
          CFI (cfiCond288) CFA_SP SP+-2
          CFI (cfiCond288) CFA_XSP16 add(XSP16, 24)
          CFI Block cfiPicker289 Using cfiCommon1
          CFI (cfiPicker289) NoFunction
          CFI (cfiPicker289) Picker
        MOV       DPTR,#pMtAfDataReq
        MOVX      A,@DPTR
        ADD       A,#0x2
        MOV       R2,A
        INC       DPTR
        MOVX      A,@DPTR
        ADDC      A,#0x0
        MOV       R3,A
        RET
          CFI EndBlock cfiCond287
          CFI EndBlock cfiCond288
          CFI EndBlock cfiPicker289

        RSEG BANKED_CODE:HUGECODE:NOROOT(0)
?Subroutine8:
          CFI Block cfiCond290 Using cfiCommon0
          CFI Function MT_AfDataRequest
          CFI Conditional ??CrossCallReturnLabel_10
          CFI R6 load(1, XDATA, add(CFA_XSP16, literal(-21)))
          CFI VB load(1, XDATA, add(CFA_XSP16, literal(-20)))
          CFI V0 load(1, XDATA, add(CFA_XSP16, literal(-19)))
          CFI V1 load(1, XDATA, add(CFA_XSP16, literal(-18)))
          CFI V2 load(1, XDATA, add(CFA_XSP16, literal(-17)))
          CFI V3 load(1, XDATA, add(CFA_XSP16, literal(-16)))
          CFI V4 load(1, XDATA, add(CFA_XSP16, literal(-15)))
          CFI V5 load(1, XDATA, add(CFA_XSP16, literal(-14)))
          CFI V6 load(1, XDATA, add(CFA_XSP16, literal(-13)))
          CFI V7 load(1, XDATA, add(CFA_XSP16, literal(-12)))
          CFI V8 load(1, XDATA, add(CFA_XSP16, literal(-11)))
          CFI V9 load(1, XDATA, add(CFA_XSP16, literal(-10)))
          CFI V10 load(1, XDATA, add(CFA_XSP16, literal(-9)))
          CFI V11 load(1, XDATA, add(CFA_XSP16, literal(-8)))
          CFI V12 load(1, XDATA, add(CFA_XSP16, literal(-7)))
          CFI R7 load(1, XDATA, add(CFA_XSP16, literal(-6)))
          CFI ?RET_LOW load(1, XDATA, add(CFA_XSP16, literal(-5)))
          CFI ?RET_HIGH load(1, XDATA, add(CFA_XSP16, literal(-4)))
          CFI ?BRET_EXT load(1, XDATA, add(CFA_XSP16, literal(-3)))
          CFI DPL0 load(1, XDATA, add(CFA_XSP16, literal(-2)))
          CFI DPH0 load(1, XDATA, add(CFA_XSP16, literal(-1)))
          CFI CFA_SP SP+-2
          CFI CFA_XSP16 add(XSP16, 35)
          CFI Block cfiCond291 Using cfiCommon0
          CFI (cfiCond291) Function MT_AfDataStore
          CFI (cfiCond291) Conditional ??CrossCallReturnLabel_11
          CFI (cfiCond291) R6 load(1, XDATA, add(CFA_XSP16, literal(-14)))
          CFI (cfiCond291) VB load(1, XDATA, add(CFA_XSP16, literal(-13)))
          CFI (cfiCond291) V0 load(1, XDATA, add(CFA_XSP16, literal(-12)))
          CFI (cfiCond291) V1 load(1, XDATA, add(CFA_XSP16, literal(-11)))
          CFI (cfiCond291) V2 load(1, XDATA, add(CFA_XSP16, literal(-10)))
          CFI (cfiCond291) V3 load(1, XDATA, add(CFA_XSP16, literal(-9)))
          CFI (cfiCond291) V4 load(1, XDATA, add(CFA_XSP16, literal(-8)))
          CFI (cfiCond291) V5 load(1, XDATA, add(CFA_XSP16, literal(-7)))
          CFI (cfiCond291) R7 load(1, XDATA, add(CFA_XSP16, literal(-6)))
          CFI (cfiCond291) ?RET_LOW load(1, XDATA, add(CFA_XSP16, literal(-5)))
          CFI (cfiCond291) ?RET_HIGH load(1, XDATA, add(CFA_XSP16, literal(-4)))
          CFI (cfiCond291) ?BRET_EXT load(1, XDATA, add(CFA_XSP16, literal(-3)))
          CFI (cfiCond291) DPL0 load(1, XDATA, add(CFA_XSP16, literal(-2)))
          CFI (cfiCond291) DPH0 load(1, XDATA, add(CFA_XSP16, literal(-1)))
          CFI (cfiCond291) CFA_SP SP+-2
          CFI (cfiCond291) CFA_XSP16 add(XSP16, 18)
          CFI Block cfiCond292 Using cfiCommon0
          CFI (cfiCond292) Function MT_AfDataStore
          CFI (cfiCond292) Conditional ??CrossCallReturnLabel_12
          CFI (cfiCond292) R6 load(1, XDATA, add(CFA_XSP16, literal(-14)))
          CFI (cfiCond292) VB load(1, XDATA, add(CFA_XSP16, literal(-13)))
          CFI (cfiCond292) V0 load(1, XDATA, add(CFA_XSP16, literal(-12)))
          CFI (cfiCond292) V1 load(1, XDATA, add(CFA_XSP16, literal(-11)))
          CFI (cfiCond292) V2 load(1, XDATA, add(CFA_XSP16, literal(-10)))
          CFI (cfiCond292) V3 load(1, XDATA, add(CFA_XSP16, literal(-9)))
          CFI (cfiCond292) V4 load(1, XDATA, add(CFA_XSP16, literal(-8)))
          CFI (cfiCond292) V5 load(1, XDATA, add(CFA_XSP16, literal(-7)))
          CFI (cfiCond292) R7 load(1, XDATA, add(CFA_XSP16, literal(-6)))
          CFI (cfiCond292) ?RET_LOW load(1, XDATA, add(CFA_XSP16, literal(-5)))
          CFI (cfiCond292) ?RET_HIGH load(1, XDATA, add(CFA_XSP16, literal(-4)))
          CFI (cfiCond292) ?BRET_EXT load(1, XDATA, add(CFA_XSP16, literal(-3)))
          CFI (cfiCond292) DPL0 load(1, XDATA, add(CFA_XSP16, literal(-2)))
          CFI (cfiCond292) DPH0 load(1, XDATA, add(CFA_XSP16, literal(-1)))
          CFI (cfiCond292) CFA_SP SP+-2
          CFI (cfiCond292) CFA_XSP16 add(XSP16, 18)
          CFI Block cfiPicker293 Using cfiCommon1
          CFI (cfiPicker293) NoFunction
          CFI (cfiPicker293) Picker
        LCALL     ?Subroutine41 & 0xFFFF
??CrossCallReturnLabel_134:
        MOV       DPH,A
        MOV       DPL,R0
        RET
          CFI EndBlock cfiCond290
          CFI EndBlock cfiCond291
          CFI EndBlock cfiCond292
          CFI EndBlock cfiPicker293

        RSEG BANKED_CODE:HUGECODE:NOROOT(0)
?Subroutine6:
          CFI Block cfiCond294 Using cfiCommon0
          CFI Function MT_AfExec
          CFI Conditional ??CrossCallReturnLabel_6
          CFI R6 load(1, XDATA, add(CFA_XSP16, literal(-9)))
          CFI VB load(1, XDATA, add(CFA_XSP16, literal(-8)))
          CFI V0 load(1, XDATA, add(CFA_XSP16, literal(-7)))
          CFI R7 load(1, XDATA, add(CFA_XSP16, literal(-6)))
          CFI ?RET_LOW load(1, XDATA, add(CFA_XSP16, literal(-5)))
          CFI ?RET_HIGH load(1, XDATA, add(CFA_XSP16, literal(-4)))
          CFI ?BRET_EXT load(1, XDATA, add(CFA_XSP16, literal(-3)))
          CFI DPL0 load(1, XDATA, add(CFA_XSP16, literal(-2)))
          CFI DPH0 load(1, XDATA, add(CFA_XSP16, literal(-1)))
          CFI CFA_SP SP+-2
          CFI CFA_XSP16 add(XSP16, 9)
          CFI Block cfiCond295 Using cfiCommon0
          CFI (cfiCond295) Function MT_AfDataStore
          CFI (cfiCond295) Conditional ??CrossCallReturnLabel_7
          CFI (cfiCond295) R6 load(1, XDATA, add(CFA_XSP16, literal(-14)))
          CFI (cfiCond295) VB load(1, XDATA, add(CFA_XSP16, literal(-13)))
          CFI (cfiCond295) V0 load(1, XDATA, add(CFA_XSP16, literal(-12)))
          CFI (cfiCond295) V1 load(1, XDATA, add(CFA_XSP16, literal(-11)))
          CFI (cfiCond295) V2 load(1, XDATA, add(CFA_XSP16, literal(-10)))
          CFI (cfiCond295) V3 load(1, XDATA, add(CFA_XSP16, literal(-9)))
          CFI (cfiCond295) V4 load(1, XDATA, add(CFA_XSP16, literal(-8)))
          CFI (cfiCond295) V5 load(1, XDATA, add(CFA_XSP16, literal(-7)))
          CFI (cfiCond295) R7 load(1, XDATA, add(CFA_XSP16, literal(-6)))
          CFI (cfiCond295) ?RET_LOW load(1, XDATA, add(CFA_XSP16, literal(-5)))
          CFI (cfiCond295) ?RET_HIGH load(1, XDATA, add(CFA_XSP16, literal(-4)))
          CFI (cfiCond295) ?BRET_EXT load(1, XDATA, add(CFA_XSP16, literal(-3)))
          CFI (cfiCond295) DPL0 load(1, XDATA, add(CFA_XSP16, literal(-2)))
          CFI (cfiCond295) DPH0 load(1, XDATA, add(CFA_XSP16, literal(-1)))
          CFI (cfiCond295) CFA_SP SP+-2
          CFI (cfiCond295) CFA_XSP16 add(XSP16, 15)
          CFI Block cfiPicker296 Using cfiCommon1
          CFI (cfiPicker296) NoFunction
          CFI (cfiPicker296) Picker
        MOV       DPTR,#pMtAfDataReq
        MOVX      A,@DPTR
        MOV       R2,A
        INC       DPTR
        MOVX      A,@DPTR
        MOV       R3,A
        LCALL     `??osal_mem_free::?relay`; Banked call to: osal_mem_free
        MOV       DPTR,#pMtAfDataReq
        CLR       A
        MOVX      @DPTR,A
        INC       DPTR
        RET
          CFI EndBlock cfiCond294
          CFI EndBlock cfiCond295
          CFI EndBlock cfiPicker296

        RSEG BANK_RELAYS:CODE:REORDER:NOROOT(0)
`??MT_AfExec::?relay`:
        CODE
        LCALL   ?BDISPATCH
        DATA24
        DC24    MT_AfExec

        RSEG BANK_RELAYS:CODE:REORDER:NOROOT(0)
`??MT_AfCommandProcessing::?relay`:
        CODE
        LCALL   ?BDISPATCH
        DATA24
        DC24    MT_AfCommandProcessing

        RSEG BANK_RELAYS:CODE:REORDER:NOROOT(0)
`??MT_AfDataRequest::?relay`:
        CODE
        LCALL   ?BDISPATCH
        DATA24
        DC24    MT_AfDataRequest

        RSEG BANK_RELAYS:CODE:REORDER:NOROOT(0)
`??MT_AfDataRequestSrcRtg::?relay`:
        CODE
        LCALL   ?BDISPATCH
        DATA24
        DC24    MT_AfDataRequestSrcRtg

        RSEG BANK_RELAYS:CODE:REORDER:NOROOT(0)
`??MT_AfDataConfirm::?relay`:
        CODE
        LCALL   ?BDISPATCH
        DATA24
        DC24    MT_AfDataConfirm

        RSEG BANK_RELAYS:CODE:REORDER:NOROOT(0)
`??MT_AfReflectError::?relay`:
        CODE
        LCALL   ?BDISPATCH
        DATA24
        DC24    MT_AfReflectError

        RSEG BANK_RELAYS:CODE:REORDER:NOROOT(0)
`??MT_AfIncomingMsg::?relay`:
        CODE
        LCALL   ?BDISPATCH
        DATA24
        DC24    MT_AfIncomingMsg

        RSEG BANK_RELAYS:CODE:REORDER:NOROOT(0)
`??MT_AfDataRetrieve::?relay`:
        CODE
        LCALL   ?BDISPATCH
        DATA24
        DC24    MT_AfDataRetrieve

        RSEG BANK_RELAYS:CODE:REORDER:NOROOT(0)
`??MT_AfDataStore::?relay`:
        CODE
        LCALL   ?BDISPATCH
        DATA24
        DC24    MT_AfDataStore

        RSEG XDATA_ROM_C:CONST:REORDER:NOROOT(0)
        DATA16
`?<Constant {0, 0}>`:
        DATA8
        DB 0
        DB 0

        RSEG XDATA_ROM_C:CONST:REORDER:NOROOT(0)
        DATA32
__Constant_3e8:
        DD 1000

        END
//  953 
//  954 /**************************************************************************************************
//  955  * @fn          MT_AfAPSF_ConfigSet
//  956  *
//  957  * @brief       This function is the MT proxy for afAPSF_ConfigSet().
//  958  *
//  959  * input parameters
//  960  *
//  961  * @param       pBuf - Pointer to the received buffer.
//  962  *
//  963  * output parameters
//  964  *
//  965  * None.
//  966  *
//  967  * @return      None.
//  968  */
//  969 static void MT_AfAPSF_ConfigSet(uint8 *pBuf)
//  970 {
//  971   afAPSF_Config_t cfg = { pBuf[MT_RPC_POS_DAT0+1], pBuf[MT_RPC_POS_DAT0+2] };
//  972   afStatus_t rtrn = afAPSF_ConfigSet(pBuf[MT_RPC_POS_DAT0], &cfg);
//  973 
//  974   MT_BuildAndSendZToolResponse(((uint8)MT_RPC_CMD_SRSP | (uint8)MT_RPC_SYS_AF),
//  975                                        MT_AF_APSF_CONFIG_SET, 1, (uint8 *)&rtrn);
//  976 }
//  977 
//  978 /**************************************************************************************************
//  979  * @fn          MT_AfAPSF_ConfigGet
//  980  *
//  981  * @brief       This function is the MT proxy for afAPSF_ConfigGet().
//  982  *
//  983  * input parameters
//  984  *
//  985  * @param       pBuf - Pointer to the received buffer.
//  986  *
//  987  * output parameters
//  988  *
//  989  * None.
//  990  *
//  991  * @return      None.
//  992  */
//  993 static void MT_AfAPSF_ConfigGet(uint8 *pBuf)
//  994 {
//  995   afAPSF_Config_t cfg = { 0, 0 };
//  996   uint8 buf[2];
//  997 
//  998   afAPSF_ConfigGet( pBuf[MT_RPC_POS_DAT0], &cfg );
//  999 
// 1000   buf[0] = cfg.frameDelay;
// 1001   buf[1] = cfg.windowSize;
// 1002 
// 1003   MT_BuildAndSendZToolResponse(((uint8)MT_RPC_CMD_SRSP | (uint8)MT_RPC_SYS_AF),
// 1004                                        MT_AF_APSF_CONFIG_GET, 3, buf );
// 1005 }
// 1006 
// 1007 /***************************************************************************************************
// 1008 ***************************************************************************************************/
// 
// 3 539 bytes in segment BANKED_CODE
//    54 bytes in segment BANK_RELAYS
//     6 bytes in segment XDATA_ROM_C
//     4 bytes in segment XDATA_Z
// 
//    54 bytes of CODE     memory
//     2 bytes of CONST    memory (+ 4 bytes shared)
// 3 539 bytes of HUGECODE memory
//     4 bytes of XDATA    memory
//
//Errors: none
//Warnings: none
