###############################################################################
#
# IAR C/C++ Compiler V10.40.1.7397 for 8051               01/May/2021  16:40:16
# Copyright 2004-2021 IAR Systems AB.
#
#    Core               =  plain
#    Code model         =  banked
#    Data model         =  large
#    Calling convention =  xdata reentrant
#    Constant location  =  data_rom
#    Dptr setup         =  1,16
#                          
#    Source file        =  
#        E:\Texas Instruments\Z-Stack 3.0.2\Components\stack\zdo\ZDObject.c
#    Command line       =  
#        -f C:\Users\asus\AppData\Local\Temp\EW3310.tmp ("E:\Texas
#        Instruments\Z-Stack 3.0.2\Components\stack\zdo\ZDObject.c" -D
#        BDB_FINDING_BINDING_CAPABILITY_ENABLED=0 -D TC_LINKKEY_JOIN -D
#        HAL_UART_DMA_RX_MAX=128 -D MAXMEMHEAP=2765 -D NWK_MAX_DEVICE_LIST=10
#        -D ZDSECMGR_TC_DEVICE_MAX=30 -D DISABLE_GREENPOWER_BASIC_PROXY -D
#        FEATURE_SYSTEM_STATS -D MT_GP_CB_FUNC -D ASSERT_RESET -D FAKE_CRC_SHDW
#        -lC "E:\Texas Instruments\Z-Stack
#        3.0.2\Projects\zstack\ZNP\CC253x\CC2530-ZNP-with-SBL\List" -lA
#        "E:\Texas Instruments\Z-Stack
#        3.0.2\Projects\zstack\ZNP\CC253x\CC2530-ZNP-with-SBL\List"
#        --diag_suppress Pe001,Pa010 -o "E:\Texas Instruments\Z-Stack
#        3.0.2\Projects\zstack\ZNP\CC253x\CC2530-ZNP-with-SBL\Obj" -e --debug
#        --core=plain --dptr=16,1 --data_model=large --code_model=banked
#        --calling_convention=xdata_reentrant --place_constants=data_rom
#        --nr_virtual_regs 16 -f "E:\Texas Instruments\Z-Stack
#        3.0.2\Projects\zstack\ZNP\CC253x\..\Source\znp.cfg"
#        (-DMAC_CFG_APP_PENDING_QUEUE=TRUE
#        "-DZSTACK_DEVICE_BUILD=(DEVICE_BUILD_COORDINATOR | DEVICE_BUILD_ROUTER
#        | DEVICE_BUILD_ENDDEVICE)" -DNWK_AUTO_POLL -DZNP_RUN_WDOG=FALSE
#        -DZNP_UART_BAUD=HAL_UART_BR_115200 -DZIGBEEPRO -DZIGBEE_FRAGMENTATION
#        -DINTER_PAN -DOSAL_CLOCK -DOSAL_SAPI=FALSE -DSAPI_CB_FUNC=FALSE
#        -DHOLD_AUTO_START -DNV_RESTORE -DNV_INIT -DNUM_DISC_ATTEMPTS=0
#        -DMT_UTIL_FUNC -DMT_SYS_FUNC -DMT_AF_FUNC -DMT_SAPI_FUNC
#        -DMT_SAPI_CB_FUNC -DMT_ZDO_CB_FUNC -DMT_ZDO_FUNC -DMT_ZDO_MGMT
#        -DMT_ZDO_EXTENSIONS -DMT_GP_CB_FUNC -DMT_APP_FUNC -DMT_APP_CNF_FUNC
#        -DZNP_ALT) -f "E:\Texas Instruments\Z-Stack
#        3.0.2\Projects\zstack\ZNP\CC253x\..\..\Tools\CC2530DB\f8wConfig.cfg"
#        (-DZIGBEEPRO -DSECURE=1 -DZG_SECURE_DYNAMIC=0 -DREFLECTOR
#        -DDEFAULT_CHANLIST=0x00000800 -DZDAPP_CONFIG_PAN_ID=0xFFFF
#        -DNWK_START_DELAY=100 -DEXTENDED_JOINING_RANDOM_MASK=0x007F
#        -DBEACON_REQUEST_DELAY=100 -DBEACON_REQ_DELAY_MASK=0x00FF
#        -DLINK_STATUS_JITTER_MASK=0x007F -DROUTE_EXPIRY_TIME=30
#        -DAPSC_ACK_WAIT_DURATION_POLLED=3000 -DNWK_INDIRECT_MSG_TIMEOUT=7
#        -DMAX_RREQ_ENTRIES=8 -DAPSC_MAX_FRAME_RETRIES=3
#        -DNWK_MAX_DATA_RETRIES=2 -DMAX_POLL_FAILURE_RETRIES=2 -DMAX_BCAST=9
#        -DAPS_MAX_GROUPS=16 -DMAX_RTG_ENTRIES=40 -DNWK_MAX_BINDING_ENTRIES=4
#        -DMAX_BINDING_CLUSTER_IDS=4 -DDEFAULT_KEY={0} -DMAC_MAX_FRAME_SIZE=116
#        -DZDNWKMGR_MIN_TRANSMISSIONS=20 "-DCONST=const __code"
#        -DGENERIC=__generic -DRFD_RCVC_ALWAYS_ON=FALSE -DPOLL_RATE=1000
#        -DQUEUED_POLL_RATE=100 -DRESPONSE_POLL_RATE=100 -DREJOIN_POLL_RATE=440
#        -DREJOIN_BACKOFF=900000 -DREJOIN_SCAN=900000 -DENABLE_LED4_DISABLE_S1)
#        -f "E:\Texas Instruments\Z-Stack
#        3.0.2\Projects\zstack\ZNP\CC253x\..\..\Tools\CC2530DB\f8wZCL.cfg" -I
#        "E:\Texas Instruments\Z-Stack 3.0.2\Projects\zstack\ZNP\CC253x\" -I
#        "E:\Texas Instruments\Z-Stack
#        3.0.2\Projects\zstack\ZNP\CC253x\Source\" -I "E:\Texas
#        Instruments\Z-Stack 3.0.2\Projects\zstack\ZNP\CC253x\..\Source\" -I
#        "E:\Texas Instruments\Z-Stack
#        3.0.2\Projects\zstack\ZNP\CC253x\..\..\SE\Source\" -I "E:\Texas
#        Instruments\Z-Stack
#        3.0.2\Projects\zstack\ZNP\CC253x\..\..\Utilities\BootLoad\Source\" -I
#        "E:\Texas Instruments\Z-Stack
#        3.0.2\Projects\zstack\ZNP\CC253x\..\..\ZMain\TI2530ZNP\" -I "E:\Texas
#        Instruments\Z-Stack
#        3.0.2\Projects\zstack\ZNP\CC253x\..\..\..\..\Components\hal\include\"
#        -I "E:\Texas Instruments\Z-Stack
#        3.0.2\Projects\zstack\ZNP\CC253x\..\..\..\..\Components\hal\target\CC2530ZNP\"
#        -I "E:\Texas Instruments\Z-Stack
#        3.0.2\Projects\zstack\ZNP\CC253x\..\..\..\..\Components\mac\include\"
#        -I "E:\Texas Instruments\Z-Stack
#        3.0.2\Projects\zstack\ZNP\CC253x\..\..\..\..\Components\mac\high_level\"
#        -I "E:\Texas Instruments\Z-Stack
#        3.0.2\Projects\zstack\ZNP\CC253x\..\..\..\..\Components\mac\low_level\srf04\"
#        -I "E:\Texas Instruments\Z-Stack
#        3.0.2\Projects\zstack\ZNP\CC253x\..\..\..\..\Components\mac\low_level\srf04\single_chip\"
#        -I "E:\Texas Instruments\Z-Stack
#        3.0.2\Projects\zstack\ZNP\CC253x\..\..\..\..\Components\mt\" -I
#        "E:\Texas Instruments\Z-Stack
#        3.0.2\Projects\zstack\ZNP\CC253x\..\..\..\..\Components\osal\include\"
#        -I "E:\Texas Instruments\Z-Stack
#        3.0.2\Projects\zstack\ZNP\CC253x\..\..\..\..\Components\services\ecc\binary163\"
#        -I "E:\Texas Instruments\Z-Stack
#        3.0.2\Projects\zstack\ZNP\CC253x\..\..\..\..\Components\services\ecc\binary283\"
#        -I "E:\Texas Instruments\Z-Stack
#        3.0.2\Projects\zstack\ZNP\CC253x\..\..\..\..\Components\services\saddr\"
#        -I "E:\Texas Instruments\Z-Stack
#        3.0.2\Projects\zstack\ZNP\CC253x\..\..\..\..\Components\services\sdata\"
#        -I "E:\Texas Instruments\Z-Stack
#        3.0.2\Projects\zstack\ZNP\CC253x\..\..\..\..\Components\stack\af\" -I
#        "E:\Texas Instruments\Z-Stack
#        3.0.2\Projects\zstack\ZNP\CC253x\..\..\..\..\Components\stack\gp\" -I
#        "E:\Texas Instruments\Z-Stack
#        3.0.2\Projects\zstack\ZNP\CC253x\..\..\..\..\Components\stack\bdb\" -I
#        "E:\Texas Instruments\Z-Stack
#        3.0.2\Projects\zstack\ZNP\CC253x\..\..\..\..\Components\stack\nwk\" -I
#        "E:\Texas Instruments\Z-Stack
#        3.0.2\Projects\zstack\ZNP\CC253x\..\..\..\..\Components\stack\sapi\"
#        -I "E:\Texas Instruments\Z-Stack
#        3.0.2\Projects\zstack\ZNP\CC253x\..\..\..\..\Components\stack\sec\" -I
#        "E:\Texas Instruments\Z-Stack
#        3.0.2\Projects\zstack\ZNP\CC253x\..\..\..\..\Components\stack\sys\" -I
#        "E:\Texas Instruments\Z-Stack
#        3.0.2\Projects\zstack\ZNP\CC253x\..\..\..\..\Components\stack\zcl\" -I
#        "E:\Texas Instruments\Z-Stack
#        3.0.2\Projects\zstack\ZNP\CC253x\..\..\..\..\Components\stack\zdo\" -I
#        "E:\Texas Instruments\Z-Stack
#        3.0.2\Projects\zstack\ZNP\CC253x\..\..\..\..\Components\zmac\" -I
#        "E:\Texas Instruments\Z-Stack
#        3.0.2\Projects\zstack\ZNP\CC253x\..\..\..\..\Components\zmac\f8w\"
#        -Ohz --require_prototypes --no_code_motion)
#    Locale             =  English_USA.1252
#    List file          =  
#        E:\Texas Instruments\Z-Stack
#        3.0.2\Projects\zstack\ZNP\CC253x\CC2530-ZNP-with-SBL\List\ZDObject.lst
#    Object file        =  
#        E:\Texas Instruments\Z-Stack
#        3.0.2\Projects\zstack\ZNP\CC253x\CC2530-ZNP-with-SBL\Obj\ZDObject.r51
#
###############################################################################

E:\Texas Instruments\Z-Stack 3.0.2\Components\stack\zdo\ZDObject.c
      1          /**************************************************************************************************
      2            Filename:       ZDObject.c
      3            Revised:        $Date: 2015-10-01 15:01:50 -0700 (Thu, 01 Oct 2015) $
      4            Revision:       $Revision: 44513 $
      5          
      6            Description:    This is the Zigbee Device Object.
      7          
      8          
      9            Copyright 2004-2015 Texas Instruments Incorporated. All rights reserved.
     10          
     11            IMPORTANT: Your use of this Software is limited to those specific rights
     12            granted under the terms of a software license agreement between the user
     13            who downloaded the software, his/her employer (which must be your employer)
     14            and Texas Instruments Incorporated (the "License"). You may not use this
     15            Software unless you agree to abide by the terms of the License. The License
     16            limits your use, and you acknowledge, that the Software may not be modified,
     17            copied or distributed unless embedded on a Texas Instruments microcontroller
     18            or used solely and exclusively in conjunction with a Texas Instruments radio
     19            frequency transceiver, which is integrated into your product. Other than for
     20            the foregoing purpose, you may not use, reproduce, copy, prepare derivative
     21            works of, modify, distribute, perform, display or sell this Software and/or
     22            its documentation for any purpose.
     23          
     24            YOU FURTHER ACKNOWLEDGE AND AGREE THAT THE SOFTWARE AND DOCUMENTATION ARE
     25            PROVIDED "AS IS" WITHOUT WARRANTY OF ANY KIND, EITHER EXPRESS OR IMPLIED,
     26            INCLUDING WITHOUT LIMITATION, ANY WARRANTY OF MERCHANTABILITY, TITLE,
     27            NON-INFRINGEMENT AND FITNESS FOR A PARTICULAR PURPOSE. IN NO EVENT SHALL
     28            TEXAS INSTRUMENTS OR ITS LICENSORS BE LIABLE OR OBLIGATED UNDER CONTRACT,
     29            NEGLIGENCE, STRICT LIABILITY, CONTRIBUTION, BREACH OF WARRANTY, OR OTHER
     30            LEGAL EQUITABLE THEORY ANY DIRECT OR INDIRECT DAMAGES OR EXPENSES
     31            INCLUDING BUT NOT LIMITED TO ANY INCIDENTAL, SPECIAL, INDIRECT, PUNITIVE
     32            OR CONSEQUENTIAL DAMAGES, LOST PROFITS OR LOST DATA, COST OF PROCUREMENT
     33            OF SUBSTITUTE GOODS, TECHNOLOGY, SERVICES, OR ANY CLAIMS BY THIRD PARTIES
     34            (INCLUDING BUT NOT LIMITED TO ANY DEFENSE THEREOF), OR OTHER SIMILAR COSTS.
     35          
     36            Should you have any questions regarding your right to use this Software,
     37            contact Texas Instruments Incorporated at www.TI.com.
     38          **************************************************************************************************/
     39          
     40          /*********************************************************************
     41           * INCLUDES
     42           */
     43          #include "ZComDef.h"
     44          #include "OSAL.h"
     45          #include "OSAL_Nv.h"
     46          #include "rtg.h"
     47          #include "NLMEDE.h"
     48          #include "nwk_globals.h"
     49          #include "APS.h"
     50          #include "APSMEDE.h"
     51          #include "AssocList.h"
     52          #include "BindingTable.h"
     53          #include "AddrMgr.h"
     54          #include "AF.h"
     55          #include "ZDObject.h"
     56          #include "ZDProfile.h"
     57          #include "ZDConfig.h"
     58          #include "ZDSecMgr.h"
     59          #include "ZDApp.h"
     60          #include "nwk_util.h"   // NLME_IsAddressBroadcast()
     61          #include "ZGlobals.h"
     62          #if defined MT_ZDO_CB_FUNC
     63          #include "MT.h"
     64          #endif
     65          
     66          #include "bdb.h"
     67          
     68          #if !defined (DISABLE_GREENPOWER_BASIC_PROXY) && (ZG_BUILD_RTR_TYPE)
     69          #include "gp_common.h"
     70          #endif
     71           
     72          #if defined( LCD_SUPPORTED )
     73            #include "OnBoard.h"
     74          #endif
     75          
     76          /* HAL */
     77          #include "hal_lcd.h"
     78          
     79          /*********************************************************************
     80           * MACROS
     81           */
     82          
     83          /*********************************************************************
     84           * CONSTANTS
     85           */
     86          // NLME Stub Implementations
     87          #define ZDO_ProcessMgmtPermitJoinTimeout NLME_PermitJoiningTimeout
     88          
     89          /*********************************************************************
     90           * TYPEDEFS
     91           */
     92          #if defined ( REFLECTOR )
     93          typedef struct
     94          {
     95            byte SrcTransSeq;
     96            zAddrType_t SrcAddr;
     97            uint16 LocalCoordinator;
     98            byte epIntf;
     99            uint16 ProfileID;
    100            byte numInClusters;
    101            uint16 *inClusters;
    102            byte numOutClusters;
    103            uint16 *outClusters;
    104            byte SecurityUse;
    105            byte status;
    106          } ZDO_EDBind_t;
    107          #endif // defined ( REFLECTOR )
    108          
    109          enum
    110          {
    111            ZDMATCH_INIT,           // Initialized
    112            ZDMATCH_WAIT_REQ,       // Received first request, waiting for second
    113            ZDMATCH_SENDING_BINDS   // Received both requests, sending unbind/binds
    114          };
    115          
    116          enum
    117          {
    118            ZDMATCH_SENDING_NOT,
    119            ZDMATCH_SENDING_UNBIND,
    120            ZDMATCH_SENDING_BIND
    121          };
    122          
    123          /*********************************************************************
    124           * GLOBAL VARIABLES
    125           */
    126          
    127          /*********************************************************************
    128           * EXTERNAL VARIABLES
    129           */
    130          
    131          extern bool  requestNewTrustCenterLinkKey;   
    132             
    133          /*********************************************************************
    134           * EXTERNAL FUNCTIONS
    135           */
    136          
    137          /*********************************************************************
    138           * LOCAL VARIABLES
    139           */

   \                                 In  segment XDATA_Z, align 1, keep-with-next
    140          static uint16 ZDOBuildBuf[26];  // temp area to build data without allocation
   \                     ZDOBuildBuf:
   \   000000                DS 52
   \   000034                REQUIRE __INIT_XDATA_Z
    141          
    142          #if defined ( REFLECTOR )

   \                                 In  segment XDATA_Z, align 1, keep-with-next
    143          static ZDO_EDBind_t *ZDO_EDBind;     // Null when not used
   \                     ZDO_EDBind:
   \   000000                DS 2
   \   000002                REQUIRE __INIT_XDATA_Z
    144          #endif
    145          
    146          #if defined ( MANAGED_SCAN )
    147            uint32 managedScanNextChannel = 0;
    148            uint32 managedScanChannelMask = 0;
    149            uint8  managedScanTimesPerChannel = 0;
    150          #endif
    151          

   \                                 In  segment XDATA_Z, align 1, keep-with-next
    152          ZDMatchEndDeviceBind_t *matchED = (ZDMatchEndDeviceBind_t *)NULL;
   \                     matchED:
   \   000000                DS 2
   \   000002                REQUIRE __INIT_XDATA_Z
    153          

   \                                 In  segment XDATA_Z, align 1, keep-with-next
    154          uint32 apsChannelMask = 0;
   \                     apsChannelMask:
   \   000000                DS 4
   \   000004                REQUIRE __INIT_XDATA_Z
    155          

   \                                 In  segment XDATA_I, align 1, keep-with-next
    156          int16 zdpExternalStateTaskID = -1;
   \                     zdpExternalStateTaskID:
   \   000000                DS 2
   \   000002                REQUIRE `?<Initializer for zdpExternalStateTaskID>`
   \   000002                REQUIRE __INIT_XDATA_I
    157          
    158          /*********************************************************************
    159           * LOCAL FUNCTIONS
    160           */
    161          static void ZDODeviceSetup( void );
    162          #if defined ( MANAGED_SCAN )
    163            static void ZDOManagedScan_Next( void );
    164          #endif
    165          #if defined ( REFLECTOR )
    166            static void ZDO_RemoveEndDeviceBind( void );
    167            static void ZDO_SendEDBindRsp( byte TransSeq, zAddrType_t *dstAddr, byte Status, byte secUse );
    168          #endif
    169          #if ( ZG_BUILD_COORDINATOR_TYPE )
    170            static byte ZDO_CompareClusterLists( byte numList1, uint16 *list1,
    171                                                 byte numList2, uint16 *list2, uint16 *pMatches );
    172            static void ZDO_RemoveMatchMemory( void );
    173            static uint8 ZDO_CopyMatchInfo( ZDEndDeviceBind_t *destReq, ZDEndDeviceBind_t *srcReq );
    174            static void ZDO_EndDeviceBindMatchTimeoutCB( void );
    175          #endif
    176          uint8 *ZDO_ConvertOTAClusters( uint8 cnt, uint8 *inBuf, uint16 *outList );
    177          static void zdoSendStateChangeMsg(uint8 state, uint8 taskId);
    178          
    179          /*********************************************************************
    180           * @fn          ZDO_Init
    181           *
    182           * @brief       ZDObject and ZDProfile initialization.
    183           *
    184           * @param       none
    185           *
    186           * @return      none
    187           */

   \                                 In  segment BANKED_CODE, align 1, keep-with-next
    188          void ZDO_Init( void )
   \                     ZDO_Init:
    189          {
   \   000000   C082         PUSH      DPL
   \   000002   C083         PUSH      DPH
   \   000004                ; Saved register size: 2
   \   000004                ; Auto size: 0
    190            // Initialize ZD items
    191            #if defined ( REFLECTOR )
    192            ZDO_EDBind = NULL;
   \   000004   90....       MOV       DPTR,#ZDO_EDBind
   \   000007   E4           CLR       A
   \   000008   F0           MOVX      @DPTR,A
   \   000009   A3           INC       DPTR
   \   00000A   F0           MOVX      @DPTR,A
    193            #endif
    194          
    195            // Initialize default ZDO_UseExtendedPANID to the APS one.
    196            osal_cpyExtAddr( ZDO_UseExtendedPANID, AIB_apsUseExtendedPANID );
   \   00000B                ; Setup parameters for call to function sAddrExtCpy
   \   00000B   7C..         MOV       R4,#AIB_apsUseExtendedPANID & 0xff
   \   00000D   7D..         MOV       R5,#(AIB_apsUseExtendedPANID >> 8) & 0xff
   \   00000F   7A..         MOV       R2,#ZDO_UseExtendedPANID & 0xff
   \   000011   7B..         MOV       R3,#(ZDO_UseExtendedPANID >> 8) & 0xff
   \   000013   12....       LCALL     `??sAddrExtCpy::?relay`; Banked call to: sAddrExtCpy
    197          
    198            // Setup the device - type of device to create.
    199            ZDODeviceSetup();
   \   000016                ; Setup parameters for call to function NLME_CoordinatorInit
   \   000016   12....       LCALL     `??NLME_CoordinatorInit::?relay`; Banked call to: NLME_CoordinatorInit
   \   000019                ; Setup parameters for call to function APS_ReflectorInit
   \   000019   12....       LCALL     `??APS_ReflectorInit::?relay`; Banked call to: APS_ReflectorInit
   \   00001C                ; Setup parameters for call to function NLME_DeviceJoiningInit
   \   00001C   12....       LCALL     `??NLME_DeviceJoiningInit::?relay`; Banked call to: NLME_DeviceJoiningInit
    200          }
   \   00001F   02....       LJMP      ?Subroutine0 & 0xFFFF

   \                                 In  segment BANKED_CODE, align 1, keep-with-next
   \                     ?Subroutine0:
   \   000000   D083         POP       DPH
   \   000002   D082         POP       DPL
   \   000004   02....       LJMP      ?BRET
    201          
    202          #if defined ( MANAGED_SCAN )
    203          /*********************************************************************
    204           * @fn      ZDOManagedScan_Next()
    205           *
    206           * @brief   Setup a managed scan.
    207           *
    208           * @param   none
    209           *
    210           * @return  none
    211           */
    212          static void ZDOManagedScan_Next( void )
    213          {
    214            // Is it the first time
    215            if ( managedScanNextChannel == 0 && managedScanTimesPerChannel == 0 )
    216            {
    217              // Setup the defaults
    218              managedScanNextChannel  = 1;
    219          
    220              while( managedScanNextChannel && (runtimeChannel & managedScanNextChannel) == 0 )
    221                managedScanNextChannel <<= 1;
    222          
    223              managedScanChannelMask = managedScanNextChannel;
    224              managedScanTimesPerChannel = MANAGEDSCAN_TIMES_PRE_CHANNEL;
    225            }
    226            else
    227            {
    228              // Do we need to go to the next channel
    229              if ( managedScanTimesPerChannel == 0 )
    230              {
    231                // Find next active channel
    232                managedScanChannelMask  = managedScanNextChannel;
    233                managedScanTimesPerChannel = MANAGEDSCAN_TIMES_PRE_CHANNEL;
    234              }
    235              else
    236              {
    237                managedScanTimesPerChannel--;
    238          
    239                if ( managedScanTimesPerChannel == 0 )
    240                {
    241                  managedScanNextChannel  <<= 1;
    242                  while( managedScanNextChannel && (runtimeChannel & managedScanNextChannel) == 0 )
    243                    managedScanNextChannel <<= 1;
    244          
    245                  if ( managedScanNextChannel == 0 )
    246                    zdoDiscCounter  = NUM_DISC_ATTEMPTS + 1; // Stop
    247                }
    248              }
    249            }
    250          }
    251          #endif // MANAGED_SCAN
    252          
    253          /*********************************************************************
    254           * @fn      ZDODeviceSetup()
    255           *
    256           * @brief   Call set functions depending on the type of device compiled.
    257           *
    258           * @param   none
    259           *
    260           * @return  none
    261           */
    262          static void ZDODeviceSetup( void )
    263          {
    264            if ( ZG_BUILD_COORDINATOR_TYPE )
    265            {
    266              NLME_CoordinatorInit();
    267            }
    268          
    269          #if defined ( REFLECTOR )
    270            APS_ReflectorInit();
    271          #endif
    272          
    273            if ( ZG_BUILD_JOINING_TYPE )
    274            {
    275              NLME_DeviceJoiningInit();
    276            }
    277          }
    278          
    279          
    280          
    281          
    282          /*********************************************************************
    283           * @fn          ZDO_StartDevice
    284           *
    285           * @brief       This function starts a device in a network. Added distributed network for router devices
    286           *
    287           * @param       logicalType     - Device type to start
    288           *              startMode       - indicates mode of device startup
    289           *              beaconOrder     - indicates time betwen beacons
    290           *              superframeOrder - indicates length of active superframe
    291           *              distributed     - indicates if the network will be formed
    292           *
    293           * @return      none
    294           */

   \                                 In  segment BANKED_CODE, align 1, keep-with-next
    295          void ZDO_StartDevice( byte logicalType, devStartModes_t startMode, byte beaconOrder, byte superframeOrder )
   \                     ZDO_StartDevice:
    296          {
   \   000000                REQUIRE ?V0
   \   000000                REQUIRE ?V1
   \   000000                REQUIRE ?V2
   \   000000                REQUIRE ?V3
   \   000000                REQUIRE ?V4
   \   000000                REQUIRE ?V5
   \   000000   74F2         MOV       A,#-0xe
   \   000002   12....       LCALL     ?BANKED_ENTER_XDATA
   \   000005                ; Saved register size: 14
   \   000005                ; Auto size: 2
   \   000005   74FE         MOV       A,#-0x2
   \   000007   12....       LCALL     ?ALLOC_XSTACK8
   \   00000A   E9           MOV       A,R1
   \   00000B   FF           MOV       R7,A
   \   00000C   8A..         MOV       ?V0,R2
   \   00000E   EB           MOV       A,R3
   \   00000F   FE           MOV       R6,A
   \   000010   8C..         MOV       ?V1,R4
    297            ZStatus_t ret;
    298          #if defined ( ZIGBEE_FREQ_AGILITY )
    299            static uint8 discRetries = 0;
    300          #endif
    301          #if defined ( ZIGBEE_COMMISSIONING )
    302            static uint8 scanCnt = 0;
    303          #endif
    304          
    305            ret = ZUnsupportedMode;
    306          
    307            if ( ZG_BUILD_COORDINATOR_TYPE && logicalType == NODETYPE_COORDINATOR )
   \   000012   E9           MOV       A,R1
   \   000013   7033         JNZ       ??ZDO_StartDevice_0
    308            {
    309              if ( startMode == MODE_HARD )
   \   000015   7402         MOV       A,#0x2
   \   000017   6A           XRL       A,R2
   \   000018   7016         JNZ       ??ZDO_StartDevice_1
    310              {
    311                ZDApp_ChangeState( DEV_COORD_STARTING );
   \   00001A                ; Setup parameters for call to function ZDApp_ChangeState
   \   00001A   7908         MOV       R1,#0x8
   \   00001C   12....       LCALL     `??ZDApp_ChangeState::?relay`; Banked call to: ZDApp_ChangeState
    312                ret = NLME_NetworkFormationRequest( zgConfigPANID, zgApsUseExtendedPANID, runtimeChannel,
    313                                                    zgDefaultStartingScanDuration, beaconOrder,
    314                                                    superframeOrder, false, false, 0 );
   \   00001F                ; Setup parameters for call to function NLME_NetworkFormationRequest
   \   00001F   E4           CLR       A
   \   000020   F5..         MOV       ?V2,A
   \   000022   F5..         MOV       ?V3,A
   \   000024   78..         MOV       R0,#?V2
   \   000026   12....       LCALL     ?PUSH_XSTACK_I_TWO
   \   000029   78..         MOV       R0,#?V2
   \   00002B   12....       LCALL     ?PUSH_XSTACK_I_ONE
   \   00002E   8053         SJMP      ??ZDO_StartDevice_2
    315              }
    316              else if ( startMode == MODE_RESUME )
   \                     ??ZDO_StartDevice_1:
   \   000030   7401         MOV       A,#0x1
   \   000032   6A           XRL       A,R2
   \   000033   6003         JZ        $+5
   \   000035   02....       LJMP      ??ZDO_StartDevice_3 & 0xFFFF
    317              {
    318                // Just start the coordinator
    319                ZDApp_ChangeState( DEV_COORD_STARTING );
   \   000038                ; Setup parameters for call to function ZDApp_ChangeState
   \   000038   7908         MOV       R1,#0x8
   \   00003A   12....       LCALL     `??ZDApp_ChangeState::?relay`; Banked call to: ZDApp_ChangeState
    320                ret = NLME_StartRouterRequest( beaconOrder, beaconOrder, false );
   \   00003D                ; Setup parameters for call to function NLME_StartRouterRequest
   \   00003D   7B00         MOV       R3,#0x0
   \   00003F   EE           MOV       A,R6
   \   000040   FA           MOV       R2,A
   \   000041   F9           MOV       R1,A
   \   000042   12....       LCALL     `??NLME_StartRouterRequest::?relay`; Banked call to: NLME_StartRouterRequest
   \   000045   02....       LJMP      ??ZDO_StartDevice_4 & 0xFFFF
    321              }
    322              else
    323              {
    324          #if defined( LCD_SUPPORTED )
    325                HalLcdWriteScreen( "StartDevice ERR", "MODE unknown" );
    326          #endif
    327              }
    328            }
    329          
    330            if ( ZG_BUILD_JOINING_TYPE && (logicalType == NODETYPE_ROUTER || logicalType == NODETYPE_DEVICE) )
   \                     ??ZDO_StartDevice_0:
   \   000048   7401         MOV       A,#0x1
   \   00004A   6F           XRL       A,R7
   \   00004B   6008         JZ        ??ZDO_StartDevice_5
   \   00004D   7402         MOV       A,#0x2
   \   00004F   6F           XRL       A,R7
   \   000050   6003         JZ        $+5
   \   000052   02....       LJMP      ??ZDO_StartDevice_3 & 0xFFFF
    331            {
    332              if ( (startMode == MODE_JOIN) || (startMode == MODE_REJOIN) )
   \                     ??ZDO_StartDevice_5:
   \   000055   EA           MOV       A,R2
   \   000056   6008         JZ        ??ZDO_StartDevice_6
   \   000058   7403         MOV       A,#0x3
   \   00005A   6A           XRL       A,R2
   \   00005B   6003         JZ        $+5
   \   00005D   02....       LJMP      ??ZDO_StartDevice_7 & 0xFFFF
    333              {
    334                if(APSME_IsDistributedSecurity() && (startMode != MODE_REJOIN))
   \                     ??ZDO_StartDevice_6:
   \   000060                ; Setup parameters for call to function APSME_IsDistributedSecurity
   \   000060   12....       LCALL     `??APSME_IsDistributedSecurity::?relay`; Banked call to: APSME_IsDistributedSecurity
   \   000063   E9           MOV       A,R1
   \   000064   6053         JZ        ??ZDO_StartDevice_8
   \   000066   7403         MOV       A,#0x3
   \   000068   65..         XRL       A,?V0
   \   00006A   604D         JZ        ??ZDO_StartDevice_8
    335                {
    336                        ret = NLME_NetworkFormationRequest( zgConfigPANID, zgApsUseExtendedPANID, runtimeChannel,
    337                                                    zgDefaultStartingScanDuration, beaconOrder,
    338                                                    superframeOrder, false, true, osal_rand() );
   \   00006C                ; Setup parameters for call to function osal_rand
   \   00006C   12....       LCALL     `??osal_rand::?relay`; Banked call to: osal_rand
   \   00006F   8A..         MOV       ?V2,R2
   \   000071   8B..         MOV       ?V3,R3
   \   000073                ; Setup parameters for call to function NLME_NetworkFormationRequest
   \   000073   78..         MOV       R0,#?V2
   \   000075   12....       LCALL     ?PUSH_XSTACK_I_TWO
   \   000078   75..01       MOV       ?V2,#0x1
   \   00007B   78..         MOV       R0,#?V2
   \   00007D   12....       LCALL     ?PUSH_XSTACK_I_ONE
   \   000080   75..00       MOV       ?V2,#0x0
   \                     ??ZDO_StartDevice_2:
   \   000083   78..         MOV       R0,#?V2
   \   000085   12....       LCALL     ?PUSH_XSTACK_I_ONE
   \   000088   E5..         MOV       A,?V1
   \   00008A   F5..         MOV       ?V2,A
   \   00008C   78..         MOV       R0,#?V2
   \   00008E   12....       LCALL     ?PUSH_XSTACK_I_ONE
   \   000091   EE           MOV       A,R6
   \   000092   F5..         MOV       ?V2,A
   \   000094   78..         MOV       R0,#?V2
   \   000096   12....       LCALL     ?PUSH_XSTACK_I_ONE
   \   000099   90....       MOV       DPTR,#runtimeChannel
   \   00009C   12....       LCALL     ?PUSH_XSTACK8_X_FOUR
   \   00009F   90....       MOV       DPTR,#bdbAttributes + 13
   \   0000A2   E0           MOVX      A,@DPTR
   \   0000A3   F9           MOV       R1,A
   \   0000A4   7C..         MOV       R4,#zgApsUseExtendedPANID & 0xff
   \   0000A6   7D..         MOV       R5,#(zgApsUseExtendedPANID >> 8) & 0xff
   \   0000A8   90....       MOV       DPTR,#zgConfigPANID
    339                  
    340                }
   \   0000AB   12....       LCALL     ??Subroutine245_0 & 0xFFFF
   \                     ??CrossCallReturnLabel_430:
   \   0000AE   12....       LCALL     `??NLME_NetworkFormationRequest::?relay`; Banked call to: NLME_NetworkFormationRequest
   \   0000B1   740A         MOV       A,#0xa
   \   0000B3   12....       LCALL     ?DEALLOC_XSTACK8
   \   0000B6   02....       LJMP      ??ZDO_StartDevice_4 & 0xFFFF
    341                else
    342                {
    343                  ZDApp_ChangeState( DEV_NWK_DISC );
   \                     ??ZDO_StartDevice_8:
   \   0000B9                ; Setup parameters for call to function ZDApp_ChangeState
   \   0000B9   7902         MOV       R1,#0x2
   \   0000BB   12....       LCALL     `??ZDApp_ChangeState::?relay`; Banked call to: ZDApp_ChangeState
    344          
    345                #if defined( MANAGED_SCAN )
    346                  ZDOManagedScan_Next();
    347                  ret = NLME_NetworkDiscoveryRequest( managedScanChannelMask, BEACON_ORDER_15_MSEC );
    348                #else
    349                  ret = NLME_NetworkDiscoveryRequest( runtimeChannel, zgDefaultStartingScanDuration );
   \   0000BE                ; Setup parameters for call to function NLME_NetworkDiscoveryRequest
   \   0000BE   90....       MOV       DPTR,#bdbAttributes + 13
   \   0000C1   E0           MOVX      A,@DPTR
   \   0000C2   F9           MOV       R1,A
   \   0000C3   90....       MOV       DPTR,#runtimeChannel
   \   0000C6   12....       LCALL     ?XLOAD_R2345
   \   0000C9   12....       LCALL     `??NLME_NetworkDiscoveryRequest::?relay`; Banked call to: NLME_NetworkDiscoveryRequest
   \   0000CC   E9           MOV       A,R1
   \   0000CD   F8           MOV       R0,A
    350                  #if defined ( ZIGBEE_FREQ_AGILITY )
    351                  if ( !( ZDO_Config_Node_Descriptor.CapabilityFlags & CAPINFO_RCVR_ON_IDLE ) &&
    352                      ( ret == ZSuccess ) && ( ++discRetries == 4 ) )
   \   0000CE   90....       MOV       DPTR,#ZDO_Config_Node_Descriptor + 2
   \   0000D1   E0           MOVX      A,@DPTR
   \   0000D2   A2E3         MOV       C,0xE0 /* A   */.3
   \   0000D4   4010         JC        ??CrossCallReturnLabel_22
   \   0000D6   E9           MOV       A,R1
   \   0000D7   700D         JNZ       ??CrossCallReturnLabel_22
   \   0000D9   90....       MOV       DPTR,#??discRetries
   \   0000DC   E0           MOVX      A,@DPTR
   \   0000DD   04           INC       A
   \   0000DE   F0           MOVX      @DPTR,A
   \   0000DF   6404         XRL       A,#0x4
   \   0000E1   7003         JNZ       ??CrossCallReturnLabel_22
    353                  {
    354                    // For devices with RxOnWhenIdle equals to FALSE, any network channel
    355                    // change will not be recieved. On these devices or routers that have
    356                    // lost the network, an active scan shall be conducted on the Default
    357                    // Channel list using the extended PANID to find the network. If the
    358                    // extended PANID isn't found using the Default Channel list, an scan
    359                    // should be completed using all channels.
    360                    runtimeChannel = MAX_CHANNELS_24GHZ;
   \   0000E3   12....       LCALL     ?Subroutine22 & 0xFFFF
    361                  }
    362                  #endif // ZIGBEE_FREQ_AGILITY
    363                  #if defined ( ZIGBEE_COMMISSIONING )
    364                  if (startMode == MODE_REJOIN && scanCnt++ >= 5 )
   \                     ??CrossCallReturnLabel_22:
   \   0000E6   7403         MOV       A,#0x3
   \   0000E8   65..         XRL       A,?V0
   \   0000EA   7076         JNZ       ??ZDO_StartDevice_9
   \   0000EC   90....       MOV       DPTR,#??scanCnt
   \   0000EF   E0           MOVX      A,@DPTR
   \   0000F0   F9           MOV       R1,A
   \   0000F1   7401         MOV       A,#0x1
   \   0000F3   29           ADD       A,R1
   \   0000F4   F0           MOVX      @DPTR,A
   \   0000F5   E9           MOV       A,R1
   \   0000F6   C3           CLR       C
   \   0000F7   9405         SUBB      A,#0x5
   \   0000F9   4067         JC        ??ZDO_StartDevice_9
    365                  {
    366                    // When ApsUseExtendedPanID is commissioned to a non zero value via
    367                    // application specific means, the device shall conduct an active scan
    368                    // on the Default Channel list and join the PAN with the same
    369                    // ExtendedPanID. If the PAN is not found, an scan should be completed
    370                    // on all channels.
    371                    // When devices rejoin the network and the PAN is not found from
    372                    runtimeChannel = MAX_CHANNELS_24GHZ;
   \   0000FB   12....       LCALL     ?Subroutine22 & 0xFFFF
    373                  }
    374                  #endif // ZIGBEE_COMMISSIONING
    375                #endif
    376                }
    377              }
   \                     ??CrossCallReturnLabel_23:
   \   0000FE   8062         SJMP      ??ZDO_StartDevice_9
    378              else if ( startMode == MODE_RESUME )
   \                     ??ZDO_StartDevice_7:
   \   000100   7401         MOV       A,#0x1
   \   000102   6A           XRL       A,R2
   \   000103   7060         JNZ       ??ZDO_StartDevice_3
    379              {
    380                if ( logicalType == NODETYPE_ROUTER )
   \   000105   7401         MOV       A,#0x1
   \   000107   6F           XRL       A,R7
   \   000108   790A         MOV       R1,#0xa
   \   00010A   702C         JNZ       ??ZDO_StartDevice_10
    381                {
    382                  uint16 panID;
    383                  
    384                  ZDApp_ChangeState( DEV_NWK_ORPHAN );
   \   00010C                ; Setup parameters for call to function ZDApp_ChangeState
   \   00010C   12....       LCALL     `??ZDApp_ChangeState::?relay`; Banked call to: ZDApp_ChangeState
    385                  
    386                  // Stop the rejoin timeout
    387                  osal_stop_timerEx( NWK_TaskID, NWK_REJOIN_TIMEOUT_EVT );
   \   00010F                ; Setup parameters for call to function osal_stop_timerEx
   \   00010F   7A00         MOV       R2,#0x0
   \   000111   7B04         MOV       R3,#0x4
   \   000113   90....       MOV       DPTR,#NWK_TaskID
   \   000116   E0           MOVX      A,@DPTR
   \   000117   F9           MOV       R1,A
   \   000118   12....       LCALL     `??osal_stop_timerEx::?relay`; Banked call to: osal_stop_timerEx
    388                  ZMacGetReq( ZMacPanId, (uint8 *)&( panID ) );
   \   00011B                ; Setup parameters for call to function ZMacGetReq
   \   00011B   AA..         MOV       R2,?XSP + 0
   \   00011D   AB..         MOV       R3,?XSP + 1
   \   00011F   7950         MOV       R1,#0x50
   \   000121   12....       LCALL     ?Subroutine125 & 0xFFFF
    389                  
    390                  _NIB.nwkPanId = panID;
   \                     ??CrossCallReturnLabel_196:
   \   000124   12....       LCALL     ?Subroutine115 & 0xFFFF
   \                     ??CrossCallReturnLabel_180:
   \   000127   E8           MOV       A,R0
   \   000128   12....       LCALL     ??Subroutine277_0 & 0xFFFF
    391                  NLME_JoinConfirm(  _NIB.nwkPanId, ZSuccess );
   \                     ??CrossCallReturnLabel_579:
   \   00012B                ; Setup parameters for call to function NLME_JoinConfirm
   \   00012B   7900         MOV       R1,#0x0
   \   00012D   90....       MOV       DPTR,#_NIB + 33
   \   000130   12....       LCALL     ??Subroutine245_0 & 0xFFFF
   \                     ??CrossCallReturnLabel_431:
   \   000133   12....       LCALL     `??NLME_JoinConfirm::?relay`; Banked call to: NLME_JoinConfirm
    392          
    393                  ret = ZSuccess;
   \   000136   8044         SJMP      ??ZDO_StartDevice_11
    394                }
    395                else
    396                {
    397                  ZDApp_ChangeState( DEV_NWK_ORPHAN );
   \                     ??ZDO_StartDevice_10:
   \   000138                ; Setup parameters for call to function ZDApp_ChangeState
   \   000138   12....       LCALL     `??ZDApp_ChangeState::?relay`; Banked call to: ZDApp_ChangeState
    398                  //set timer for scan and rejoin
    399                  osal_start_timerEx( ZDAppTaskID, ZDO_REJOIN_BACKOFF, zgDefaultRejoinScan );
   \   00013B                ; Setup parameters for call to function osal_start_timerEx
   \   00013B   90....       MOV       DPTR,#zgDefaultRejoinScan
   \   00013E   12....       LCALL     ?PUSH_XSTACK8_X_FOUR
   \   000141   7A00         MOV       R2,#0x0
   \   000143   7B20         MOV       R3,#0x20
   \   000145   90....       MOV       DPTR,#ZDAppTaskID
   \   000148   E0           MOVX      A,@DPTR
   \   000149   F9           MOV       R1,A
   \   00014A   12....       LCALL     `??osal_start_timerEx::?relay`; Banked call to: osal_start_timerEx
   \   00014D   7404         MOV       A,#0x4
   \   00014F   12....       LCALL     ?DEALLOC_XSTACK8
    400                  ret = NLME_OrphanJoinRequest( runtimeChannel,
    401                                                zgDefaultStartingScanDuration );
   \   000152                ; Setup parameters for call to function NLME_OrphanJoinRequest
   \   000152   90....       MOV       DPTR,#bdbAttributes + 13
   \   000155   E0           MOVX      A,@DPTR
   \   000156   F9           MOV       R1,A
   \   000157   90....       MOV       DPTR,#runtimeChannel
   \   00015A   12....       LCALL     ?XLOAD_R2345
   \   00015D   12....       LCALL     `??NLME_OrphanJoinRequest::?relay`; Banked call to: NLME_OrphanJoinRequest
   \                     ??ZDO_StartDevice_4:
   \   000160   E9           MOV       A,R1
   \   000161   F8           MOV       R0,A
    402                }
    403              }
    404              else
    405              {
    406          #if defined( LCD_SUPPORTED )
    407                HalLcdWriteScreen( "StartDevice ERR", "MODE unknown" );
    408          #endif
    409              }
    410            }
    411          
    412            if ( ret != ZSuccess )
   \                     ??ZDO_StartDevice_9:
   \   000162   E8           MOV       A,R0
   \   000163   6017         JZ        ??ZDO_StartDevice_11
    413            {
    414              osal_start_timerEx(ZDAppTaskID, ZDO_NETWORK_INIT, NWK_RETRY_DELAY );
   \                     ??ZDO_StartDevice_3:
   \   000165                ; Setup parameters for call to function osal_start_timerEx
   \   000165   90....       MOV       DPTR,#__Constant_3e8
   \   000168   12....       LCALL     ?PUSH_XSTACK8_X_FOUR
   \   00016B   7A01         MOV       R2,#0x1
   \   00016D   7B00         MOV       R3,#0x0
   \   00016F   90....       MOV       DPTR,#ZDAppTaskID
   \   000172   E0           MOVX      A,@DPTR
   \   000173   F9           MOV       R1,A
   \   000174   12....       LCALL     `??osal_start_timerEx::?relay`; Banked call to: osal_start_timerEx
   \   000177   7404         MOV       A,#0x4
   \   000179   12....       LCALL     ?DEALLOC_XSTACK8
    415            }
    416          }
   \                     ??ZDO_StartDevice_11:
   \   00017C   7402         MOV       A,#0x2
   \   00017E   02....       LJMP      ?Subroutine1 & 0xFFFF

   \                                 In  segment BANKED_CODE, align 1, keep-with-next
   \                     ?Subroutine22:
   \   000000   90....       MOV       DPTR,#runtimeChannel
   \   000003   E4           CLR       A
   \   000004   F0           MOVX      @DPTR,A
   \   000005   A3           INC       DPTR
   \   000006   74F8         MOV       A,#-0x8
   \   000008   F0           MOVX      @DPTR,A
   \   000009   A3           INC       DPTR
   \   00000A   74FF         MOV       A,#-0x1
   \   00000C   F0           MOVX      @DPTR,A
   \   00000D   A3           INC       DPTR
   \   00000E   7407         MOV       A,#0x7
   \   000010   F0           MOVX      @DPTR,A
   \   000011   22           RET

   \                                 In  segment BANKED_CODE, align 1, keep-with-next
   \                     ?Subroutine125:
   \   000000   12....       LCALL     `??ZMacGetReq::?relay`; Banked call to: ZMacGetReq
   \   000003   85..82       MOV       DPL,?XSP + 0
   \   000006   85..83       MOV       DPH,?XSP + 1
   \   000009   22           RET

   \                                 In  segment BANKED_CODE, align 1, keep-with-next
   \                     ?Subroutine115:
   \   000000   12....       LCALL     ??Subroutine278_0 & 0xFFFF
   \                     ??CrossCallReturnLabel_604:
   \   000003   90....       MOV       DPTR,#_NIB + 33
   \   000006   22           RET

   \                                 In  segment BANKED_CODE, align 1, keep-with-next
   \                     ??Subroutine245_0:
   \   000000   12....       LCALL     ??Subroutine268_0 & 0xFFFF
   \                     ??CrossCallReturnLabel_548:
   \   000003   22           RET

   \                                 In  segment BANKED_CODE, align 1, keep-with-next
   \                     ??Subroutine262_0:
   \   000000   E0           MOVX      A,@DPTR
   \   000001   F8           MOV       R0,A
   \   000002   A3           INC       DPTR
   \   000003   E0           MOVX      A,@DPTR
   \   000004   22           RET

   \                                 In  segment BANKED_CODE, align 1, keep-with-next
   \                     ??Subroutine268_0:
   \   000000   E0           MOVX      A,@DPTR
   \   000001   FA           MOV       R2,A
   \   000002   A3           INC       DPTR
   \   000003   E0           MOVX      A,@DPTR
   \   000004   FB           MOV       R3,A
   \   000005   22           RET

   \                                 In  segment BANKED_CODE, align 1, keep-with-next
   \                     ??Subroutine277_0:
   \   000000   F0           MOVX      @DPTR,A
   \   000001   A3           INC       DPTR
   \   000002   E9           MOV       A,R1
   \   000003   F0           MOVX      @DPTR,A
   \   000004   22           RET

   \                                 In  segment BANKED_CODE, align 1, keep-with-next
   \                     ??Subroutine278_0:
   \   000000   12....       LCALL     ??Subroutine262_0 & 0xFFFF
   \                     ??CrossCallReturnLabel_616:
   \   000003   F9           MOV       R1,A
   \   000004   22           RET

   \                                 In  segment BANKED_CODE, align 1, keep-with-next
   \                     ?Subroutine1:
   \   000000   12....       LCALL     ?DEALLOC_XSTACK8
   \   000003                REQUIRE ??Subroutine292_0
   \   000003                ; // Fall through to label ??Subroutine292_0

   \                                 In  segment BANKED_CODE, align 1, keep-with-next
   \                     ??Subroutine292_0:
   \   000000   7F06         MOV       R7,#0x6
   \   000002   02....       LJMP      ?BANKED_LEAVE_XDATA

   \                                 In  segment XDATA_Z, align 1, keep-with-next
   \                     ??discRetries:
   \   000000                DS 1
   \   000001                REQUIRE __INIT_XDATA_Z

   \                                 In  segment XDATA_Z, align 1, keep-with-next
   \                     ??scanCnt:
   \   000000                DS 1
   \   000001                REQUIRE __INIT_XDATA_Z
    417          
    418          /**************************************************************************************************
    419           * @fn          zdoSendStateChangeMsg
    420           *
    421           * @brief       Helper function for ZDO_UpdateNwkStatus.
    422           *
    423           * input parameters
    424           *
    425           * @param       taskId - The OSAL task identifier to which to send the ZDO_STATE_CHANGE_EVT.
    426           * @param       state - The current device state.
    427           *
    428           * output parameters
    429           *
    430           * None.
    431           *
    432           * @return      None.
    433           **************************************************************************************************
    434           */

   \                                 In  segment BANKED_CODE, align 1, keep-with-next
    435          static void zdoSendStateChangeMsg(uint8 state, uint8 taskId)
   \                     zdoSendStateChangeMsg:
    436          {
   \   000000                REQUIRE ?V0
   \   000000                REQUIRE ?V1
   \   000000   74F6         MOV       A,#-0xa
   \   000002   12....       LCALL     ?BANKED_ENTER_XDATA
   \   000005                ; Saved register size: 10
   \   000005                ; Auto size: 0
   \   000005   E9           MOV       A,R1
   \   000006   FF           MOV       R7,A
   \   000007   EA           MOV       A,R2
   \   000008   FE           MOV       R6,A
    437            osal_event_hdr_t *pMsg = (osal_event_hdr_t *)osal_msg_find(taskId, ZDO_STATE_CHANGE);
   \   000009                ; Setup parameters for call to function osal_msg_find
   \   000009   7AD1         MOV       R2,#-0x2f
   \   00000B   F9           MOV       R1,A
   \   00000C   12....       LCALL     `??osal_msg_find::?relay`; Banked call to: osal_msg_find
   \   00000F   8A82         MOV       DPL,R2
   \   000011   8B83         MOV       DPH,R3
    438          
    439            if (NULL == pMsg)
   \   000013   E582         MOV       A,DPL
   \   000015   4583         ORL       A,DPH
   \   000017   702A         JNZ       ??zdoSendStateChangeMsg_0
    440            {
    441              if (NULL == (pMsg = (osal_event_hdr_t *)osal_msg_allocate(sizeof(osal_event_hdr_t))))
   \   000019                ; Setup parameters for call to function osal_msg_allocate
   \   000019   7A02         MOV       R2,#0x2
   \   00001B   7B00         MOV       R3,#0x0
   \   00001D   12....       LCALL     `??osal_msg_allocate::?relay`; Banked call to: osal_msg_allocate
   \   000020   EA           MOV       A,R2
   \   000021   4B           ORL       A,R3
   \   000022   700E         JNZ       ??zdoSendStateChangeMsg_1
    442              {
    443                // Upon failure to notify any EndPoint of the state change, re-set the ZDO event to
    444                // try again later when more Heap may be available.
    445                osal_set_event(ZDAppTaskID, ZDO_STATE_CHANGE_EVT);
   \   000024                ; Setup parameters for call to function osal_set_event
   \   000024   7A10         MOV       R2,#0x10
   \   000026   7B00         MOV       R3,#0x0
   \   000028   90....       MOV       DPTR,#ZDAppTaskID
   \   00002B   E0           MOVX      A,@DPTR
   \   00002C   F9           MOV       R1,A
   \   00002D   12....       LCALL     `??osal_set_event::?relay`; Banked call to: osal_set_event
   \   000030   8014         SJMP      ??zdoSendStateChangeMsg_2
    446              }
    447              else
    448              {
    449                pMsg->event = ZDO_STATE_CHANGE;
   \                     ??zdoSendStateChangeMsg_1:
   \   000032   8A82         MOV       DPL,R2
   \   000034   8B83         MOV       DPH,R3
   \   000036   74D1         MOV       A,#-0x2f
   \   000038   F0           MOVX      @DPTR,A
    450                pMsg->status = state;
   \   000039   EF           MOV       A,R7
   \   00003A   A3           INC       DPTR
   \   00003B   F0           MOVX      @DPTR,A
    451          
    452                (void)osal_msg_send(taskId, (uint8 *)pMsg);
   \   00003C                ; Setup parameters for call to function osal_msg_send
   \   00003C   EE           MOV       A,R6
   \   00003D   F9           MOV       R1,A
   \   00003E   12....       LCALL     `??osal_msg_send::?relay`; Banked call to: osal_msg_send
   \   000041   8003         SJMP      ??zdoSendStateChangeMsg_2
    453              }
    454            }
    455            else
    456            {
    457              // Modify in place the status of an existing ZDO_STATE_CHANGE message to the EndPoint.
    458              pMsg->status = state;
   \                     ??zdoSendStateChangeMsg_0:
   \   000043   EF           MOV       A,R7
   \   000044   A3           INC       DPTR
   \   000045   F0           MOVX      @DPTR,A
    459            }
    460          }
   \                     ??zdoSendStateChangeMsg_2:
   \   000046   02....       LJMP      ??Subroutine225_0 & 0xFFFF

   \                                 In  segment BANKED_CODE, align 1, keep-with-next
   \                     ??Subroutine225_0:
   \   000000   7F02         MOV       R7,#0x2
   \   000002   02....       LJMP      ?BANKED_LEAVE_XDATA
    461          
    462          /**************************************************************************************************
    463           * @fn          ZDO_UpdateNwkStatus
    464           *
    465           * @brief       This function sends a ZDO_STATE_CHANGE message to the task of every EndPoint
    466           *              registered with AF (except, of course, the ZDO_EP). Even if a single task has more
    467           *              than one registered EndPoint, it will only receive one notification per state
    468           *              change. Although the device may go through a sequence of state changes, the
    469           *              Application task may only receive notification of the final, steady-state state
    470           *              because it has the lowest priority and never even runs to receive the intermediate
    471           *              state change notifications.
    472           *
    473           * input parameters
    474           *
    475           * @param       state - The current device state.
    476           *
    477           * output parameters
    478           *
    479           * None.
    480           *
    481           * @return      None.
    482           **************************************************************************************************
    483           */

   \                                 In  segment BANKED_CODE, align 1, keep-with-next
    484          void ZDO_UpdateNwkStatus(devStates_t state)
   \                     ZDO_UpdateNwkStatus:
    485          {
   \   000000                REQUIRE ?V0
   \   000000   74F7         MOV       A,#-0x9
   \   000002   12....       LCALL     ?BANKED_ENTER_XDATA
   \   000005                ; Saved register size: 9
   \   000005                ; Auto size: 0
   \   000005   89..         MOV       ?V0,R1
    486            epList_t *pItem = epList;
   \   000007   90....       MOV       DPTR,#epList
   \   00000A   12....       LCALL     ??Subroutine247_0 & 0xFFFF
    487          
    488          #if defined MT_ZDO_CB_FUNC
    489            if ( zdpExternalStateTaskID == -1 )
   \                     ??CrossCallReturnLabel_446:
   \   00000D   90....       MOV       DPTR,#zdpExternalStateTaskID
   \   000010   E0           MOVX      A,@DPTR
   \   000011   F4           CPL       A
   \   000012   7003         JNZ       ??ZDO_UpdateNwkStatus_0
   \   000014   A3           INC       DPTR
   \   000015   E0           MOVX      A,@DPTR
   \   000016   F4           CPL       A
   \                     ??ZDO_UpdateNwkStatus_0:
   \   000017   7030         JNZ       ??ZDO_UpdateNwkStatus_1
    490            {
    491              zdpExternalStateTaskID = MT_TaskID;
   \   000019   90....       MOV       DPTR,#MT_TaskID
   \   00001C   E0           MOVX      A,@DPTR
   \   00001D   90....       MOV       DPTR,#zdpExternalStateTaskID
   \   000020   F0           MOVX      @DPTR,A
   \   000021   A3           INC       DPTR
   \   000022   E4           CLR       A
   \   000023   F0           MOVX      @DPTR,A
   \   000024   8023         SJMP      ??ZDO_UpdateNwkStatus_1
    492            }
    493          #endif
    494          
    495            while (pItem != NULL)
    496            {
    497              if (pItem->epDesc->endPoint != ZDO_EP)
   \                     ??ZDO_UpdateNwkStatus_2:
   \   000026   8E82         MOV       DPL,R6
   \   000028   8F83         MOV       DPH,R7
   \   00002A   12....       LCALL     ??Subroutine242_0 & 0xFFFF
   \                     ??CrossCallReturnLabel_417:
   \   00002D   600F         JZ        ??ZDO_UpdateNwkStatus_3
    498              {
    499                zdoSendStateChangeMsg(state, *(pItem->epDesc->task_id));
   \   00002F                ; Setup parameters for call to function zdoSendStateChangeMsg
   \   00002F   8E82         MOV       DPL,R6
   \   000031   8F83         MOV       DPH,R7
   \   000033   A3           INC       DPTR
   \   000034   A3           INC       DPTR
   \   000035   12....       LCALL     ?Subroutine63 & 0xFFFF
    500              }
   \                     ??CrossCallReturnLabel_419:
   \   000038   FA           MOV       R2,A
   \   000039   A9..         MOV       R1,?V0
   \   00003B   12....       LCALL     `??zdoSendStateChangeMsg::?relay`; Banked call to: zdoSendStateChangeMsg
    501          
    502              pItem = pItem->nextDesc;
   \                     ??ZDO_UpdateNwkStatus_3:
   \   00003E   8E82         MOV       DPL,R6
   \   000040   8F83         MOV       DPH,R7
   \   000042   12....       LCALL     ??Subroutine238_0 & 0xFFFF
    503            }
   \                     ??CrossCallReturnLabel_385:
   \   000045   E8           MOV       A,R0
   \   000046   FE           MOV       R6,A
   \   000047   E9           MOV       A,R1
   \   000048   FF           MOV       R7,A
   \                     ??ZDO_UpdateNwkStatus_1:
   \   000049   EE           MOV       A,R6
   \   00004A   4F           ORL       A,R7
   \   00004B   70D9         JNZ       ??ZDO_UpdateNwkStatus_2
    504          
    505            if ( zdpExternalStateTaskID != -1 )
   \   00004D   90....       MOV       DPTR,#zdpExternalStateTaskID
   \   000050   E0           MOVX      A,@DPTR
   \   000051   F4           CPL       A
   \   000052   7003         JNZ       ??ZDO_UpdateNwkStatus_4
   \   000054   A3           INC       DPTR
   \   000055   E0           MOVX      A,@DPTR
   \   000056   F4           CPL       A
   \                     ??ZDO_UpdateNwkStatus_4:
   \   000057   600A         JZ        ??ZDO_UpdateNwkStatus_5
    506            {
    507              zdoSendStateChangeMsg( state, zdpExternalStateTaskID );
   \   000059                ; Setup parameters for call to function zdoSendStateChangeMsg
   \   000059   90....       MOV       DPTR,#zdpExternalStateTaskID
   \   00005C   E0           MOVX      A,@DPTR
   \   00005D   FA           MOV       R2,A
   \   00005E   A9..         MOV       R1,?V0
   \   000060   12....       LCALL     `??zdoSendStateChangeMsg::?relay`; Banked call to: zdoSendStateChangeMsg
    508            }
    509          
    510            ZDAppNwkAddr.addr.shortAddr = NLME_GetShortAddr();
   \                     ??ZDO_UpdateNwkStatus_5:
   \   000063                ; Setup parameters for call to function NLME_GetShortAddr
   \   000063   12....       LCALL     `??NLME_GetShortAddr::?relay`; Banked call to: NLME_GetShortAddr
   \   000066   90....       MOV       DPTR,#ZDAppNwkAddr
   \   000069   12....       LCALL     ??Subroutine230_0 & 0xFFFF
    511            (void)NLME_GetExtAddr();  // Load the saveExtAddr pointer.
   \                     ??CrossCallReturnLabel_358:
   \   00006C                ; Setup parameters for call to function NLME_GetExtAddr
   \   00006C   12....       LCALL     `??NLME_GetExtAddr::?relay`; Banked call to: NLME_GetExtAddr
    512          }
   \   00006F                REQUIRE ?Subroutine3
   \   00006F                ; // Fall through to label ?Subroutine3

   \                                 In  segment BANKED_CODE, align 1, keep-with-next
   \                     ?Subroutine3:
   \   000000   7F01         MOV       R7,#0x1
   \   000002   02....       LJMP      ?BANKED_LEAVE_XDATA

   \                                 In  segment BANKED_CODE, align 1, keep-with-next
   \                     ?Subroutine194:
   \   000000   E0           MOVX      A,@DPTR
   \   000001   F8           MOV       R0,A
   \   000002                REQUIRE ??Subroutine227_0
   \   000002                ; // Fall through to label ??Subroutine227_0

   \                                 In  segment BANKED_CODE, align 1, keep-with-next
   \                     ??Subroutine227_0:
   \   000000   A3           INC       DPTR
   \   000001                REQUIRE ??Subroutine228_0
   \   000001                ; // Fall through to label ??Subroutine228_0

   \                                 In  segment BANKED_CODE, align 1, keep-with-next
   \                     ??Subroutine228_0:
   \   000000   E0           MOVX      A,@DPTR
   \   000001   F583         MOV       DPH,A
   \   000003   8882         MOV       DPL,R0
   \   000005   22           RET

   \                                 In  segment BANKED_CODE, align 1, keep-with-next
   \                     ??Subroutine230_0:
   \   000000   EA           MOV       A,R2
   \   000001                REQUIRE ??Subroutine231_0
   \   000001                ; // Fall through to label ??Subroutine231_0

   \                                 In  segment BANKED_CODE, align 1, keep-with-next
   \                     ??Subroutine231_0:
   \   000000   F0           MOVX      @DPTR,A
   \   000001   A3           INC       DPTR
   \   000002   EB           MOV       A,R3
   \   000003   F0           MOVX      @DPTR,A
   \   000004   22           RET

   \                                 In  segment BANKED_CODE, align 1, keep-with-next
   \                     ??Subroutine238_0:
   \   000000   12....       LCALL     ??Subroutine278_0 & 0xFFFF
   \                     ??CrossCallReturnLabel_608:
   \   000003   22           RET

   \                                 In  segment BANKED_CODE, align 1, keep-with-next
   \                     ?Subroutine63:
   \   000000   12....       LCALL     ??Subroutine227_0 & 0xFFFF
   \                     ??CrossCallReturnLabel_422:
   \   000003                REQUIRE ??Subroutine242_0
   \   000003                ; // Fall through to label ??Subroutine242_0

   \                                 In  segment BANKED_CODE, align 1, keep-with-next
   \                     ??Subroutine242_0:
   \   000000   A3           INC       DPTR
   \   000001   A3           INC       DPTR
   \   000002                REQUIRE ??Subroutine243_0
   \   000002                ; // Fall through to label ??Subroutine243_0

   \                                 In  segment BANKED_CODE, align 1, keep-with-next
   \                     ??Subroutine243_0:
   \   000000   12....       LCALL     ?Subroutine194 & 0xFFFF
   \                     ??CrossCallReturnLabel_424:
   \   000003   E0           MOVX      A,@DPTR
   \   000004   22           RET

   \                                 In  segment BANKED_CODE, align 1, keep-with-next
   \                     ??Subroutine247_0:
   \   000000   12....       LCALL     ??Subroutine285_0 & 0xFFFF
   \                     ??CrossCallReturnLabel_685:
   \   000003   FF           MOV       R7,A
   \   000004   22           RET

   \                                 In  segment BANKED_CODE, align 1, keep-with-next
   \                     ??Subroutine285_0:
   \   000000   E0           MOVX      A,@DPTR
   \   000001   FE           MOV       R6,A
   \   000002   A3           INC       DPTR
   \   000003   E0           MOVX      A,@DPTR
   \   000004   22           RET
    513          
    514          #if defined ( REFLECTOR )
    515          /*********************************************************************
    516           * @fn          ZDO_RemoveEndDeviceBind
    517           *
    518           * @brief       Remove the end device bind
    519           *
    520           * @param  none
    521           *
    522           * @return      none
    523           */
    524          static void ZDO_RemoveEndDeviceBind( void )
    525          {
    526            if ( ZDO_EDBind != NULL )
    527            {
    528              // Free the RAM
    529              if ( ZDO_EDBind->inClusters != NULL )
    530              {
    531                osal_mem_free( ZDO_EDBind->inClusters );
    532              }
    533              if ( ZDO_EDBind->outClusters != NULL )
    534              {
    535                osal_mem_free( ZDO_EDBind->outClusters );
    536              }
    537              osal_mem_free( ZDO_EDBind );
    538              ZDO_EDBind = NULL;
    539            }
    540          }
    541          #endif // REFLECTOR
    542          
    543          #if defined ( REFLECTOR )
    544          /*********************************************************************
    545           * @fn          ZDO_SendEDBindRsp
    546           *
    547           * @brief       Send the end device bind response
    548           *
    549           * @param  none
    550           *
    551           * @return      none
    552           */
    553          static void ZDO_SendEDBindRsp( byte TransSeq, zAddrType_t *dstAddr, byte Status, byte secUse )
    554          {
    555            ZDP_EndDeviceBindRsp( TransSeq, dstAddr, Status, secUse );
    556          
    557          #if defined( LCD_SUPPORTED )
    558            HalLcdWriteString( "End Device Bind", HAL_LCD_LINE_1 );
    559            if ( Status == ZDP_SUCCESS )
    560            {
    561              HalLcdWriteString( "Success Sent", HAL_LCD_LINE_2 );
    562            }
    563            else
    564            {
    565              HalLcdWriteString( "Timeout", HAL_LCD_LINE_2 );
    566            }
    567          #endif
    568          
    569          }
    570          #endif // REFLECTOR
    571          
    572          #if ( ZG_BUILD_COORDINATOR_TYPE )
    573          /*********************************************************************
    574           * @fn          ZDO_CompareClusterLists
    575           *
    576           * @brief       Compare one list to another list
    577           *
    578           * @param       numList1 - number of items in list 1
    579           * @param       list1 - first list of cluster IDs
    580           * @param       numList2 - number of items in list 2
    581           * @param       list2 - second list of cluster IDs
    582           * @param       pMatches - buffer to put matches
    583           *
    584           * @return      number of matches
    585           */

   \                                 In  segment BANKED_CODE, align 1, keep-with-next
    586          static byte ZDO_CompareClusterLists( byte numList1, uint16 *list1,
   \                     ZDO_CompareClusterLists:
    587                                    byte numList2, uint16 *list2, uint16 *pMatches )
    588          {
   \   000000                REQUIRE ?V0
   \   000000                REQUIRE ?V1
   \   000000                REQUIRE ?V2
   \   000000                REQUIRE ?V3
   \   000000                REQUIRE ?V4
   \   000000                REQUIRE ?V6
   \   000000                REQUIRE ?V7
   \   000000   74F0         MOV       A,#-0x10
   \   000002   12....       LCALL     ?BANKED_ENTER_XDATA
   \   000005                ; Saved register size: 16
   \   000005                ; Auto size: 0
   \   000005   89..         MOV       ?V3,R1
   \   000007   8C..         MOV       ?V4,R4
    589            byte x, y;
    590            uint16 z;
    591            byte numMatches = 0;
   \   000009   75..00       MOV       ?V1,#0x0
    592          
    593            // Check the first in against the seconds out
    594            for ( x = 0; x < numList1; x++ )
   \   00000C   75..00       MOV       ?V0,#0x0
   \   00000F   7410         MOV       A,#0x10
   \   000011   12....       LCALL     ?XSTACK_DISP0_8
   \   000014   12....       LCALL     ??Subroutine238_0 & 0xFFFF
   \                     ??CrossCallReturnLabel_386:
   \   000017   7412         MOV       A,#0x12
   \   000019   12....       LCALL     ?XSTACK_DISP0_8
   \   00001C   12....       LCALL     ??Subroutine226_0 & 0xFFFF
   \                     ??CrossCallReturnLabel_352:
   \   00001F   8047         SJMP      ??ZDO_CompareClusterLists_0
    595            {
    596              for ( y = 0; y < numList2; y++ )
    597              {
    598                z = list2[y];
   \                     ??ZDO_CompareClusterLists_1:
   \   000021   12....       LCALL     ?Subroutine122 & 0xFFFF
   \                     ??CrossCallReturnLabel_190:
   \   000024   F5..         MOV       ?V6,A
   \   000026   A3           INC       DPTR
   \   000027   E0           MOVX      A,@DPTR
   \   000028   F5..         MOV       ?V7,A
    599                if ( list1[x] == z )
   \   00002A   AE..         MOV       R6,?V0
   \   00002C   EE           MOV       A,R6
   \   00002D   2E           ADD       A,R6
   \   00002E   FE           MOV       R6,A
   \   00002F   E4           CLR       A
   \   000030   33           RLC       A
   \   000031   FF           MOV       R7,A
   \   000032   EA           MOV       A,R2
   \   000033   2E           ADD       A,R6
   \   000034   F582         MOV       DPL,A
   \   000036   EB           MOV       A,R3
   \   000037   12....       LCALL     ??Subroutine252_0 & 0xFFFF
   \                     ??CrossCallReturnLabel_480:
   \   00003A   65..         XRL       A,?V6
   \   00003C   7004         JNZ       ??ZDO_CompareClusterLists_2
   \   00003E   A3           INC       DPTR
   \   00003F   E0           MOVX      A,@DPTR
   \   000040   65..         XRL       A,?V7
   \                     ??ZDO_CompareClusterLists_2:
   \   000042   7019         JNZ       ??ZDO_CompareClusterLists_3
    600                {
    601                  pMatches[numMatches++] = z;
   \   000044   AE..         MOV       R6,?V1
   \   000046   EE           MOV       A,R6
   \   000047   2E           ADD       A,R6
   \   000048   FE           MOV       R6,A
   \   000049   E4           CLR       A
   \   00004A   33           RLC       A
   \   00004B   FF           MOV       R7,A
   \   00004C   EC           MOV       A,R4
   \   00004D   2E           ADD       A,R6
   \   00004E   F582         MOV       DPL,A
   \   000050   ED           MOV       A,R5
   \   000051   3F           ADDC      A,R7
   \   000052   F583         MOV       DPH,A
   \   000054   E5..         MOV       A,?V6
   \   000056   F0           MOVX      @DPTR,A
   \   000057   A3           INC       DPTR
   \   000058   E5..         MOV       A,?V7
   \   00005A   F0           MOVX      @DPTR,A
   \   00005B   05..         INC       ?V1
    602                }
    603              }
   \                     ??ZDO_CompareClusterLists_3:
   \   00005D   05..         INC       ?V2
   \                     ??ZDO_CompareClusterLists_4:
   \   00005F   E5..         MOV       A,?V2
   \   000061   C3           CLR       C
   \   000062   95..         SUBB      A,?V4
   \   000064   40BB         JC        ??ZDO_CompareClusterLists_1
   \   000066   05..         INC       ?V0
   \                     ??ZDO_CompareClusterLists_0:
   \   000068   E5..         MOV       A,?V0
   \   00006A   C3           CLR       C
   \   00006B   95..         SUBB      A,?V3
   \   00006D   5005         JNC       ??ZDO_CompareClusterLists_5
   \   00006F   75..00       MOV       ?V2,#0x0
   \   000072   80EB         SJMP      ??ZDO_CompareClusterLists_4
    604            }
    605          
    606            return ( numMatches );
   \                     ??ZDO_CompareClusterLists_5:
   \   000074   A9..         MOV       R1,?V1
   \   000076   80..         SJMP      ??Subroutine222_0
    607          }

   \                                 In  segment BANKED_CODE, align 1, keep-with-next
   \                     ??Subroutine222_0:
   \   000000   7F08         MOV       R7,#0x8
   \   000002   02....       LJMP      ?BANKED_LEAVE_XDATA

   \                                 In  segment BANKED_CODE, align 1, keep-with-next
   \                     ?Subroutine122:
   \   000000   AE..         MOV       R6,?V2
   \   000002   EE           MOV       A,R6
   \   000003   2E           ADD       A,R6
   \   000004   FE           MOV       R6,A
   \   000005   E4           CLR       A
   \   000006   33           RLC       A
   \   000007   FF           MOV       R7,A
   \   000008   E8           MOV       A,R0
   \   000009   2E           ADD       A,R6
   \   00000A   F582         MOV       DPL,A
   \   00000C   E9           MOV       A,R1
   \   00000D   12....       LCALL     ??Subroutine229_0 & 0xFFFF
   \                     ??CrossCallReturnLabel_493:
   \   000010   22           RET

   \                                 In  segment BANKED_CODE, align 1, keep-with-next
   \                     ??Subroutine226_0:
   \   000000   E0           MOVX      A,@DPTR
   \   000001   FC           MOV       R4,A
   \   000002   A3           INC       DPTR
   \   000003   E0           MOVX      A,@DPTR
   \   000004   FD           MOV       R5,A
   \   000005   22           RET

   \                                 In  segment BANKED_CODE, align 1, keep-with-next
   \                     ??Subroutine229_0:
   \   000000   3F           ADDC      A,R7
   \   000001   F583         MOV       DPH,A
   \   000003   E0           MOVX      A,@DPTR
   \   000004   22           RET

   \                                 In  segment BANKED_CODE, align 1, keep-with-next
   \                     ??Subroutine252_0:
   \   000000   12....       LCALL     ??Subroutine229_0 & 0xFFFF
   \                     ??CrossCallReturnLabel_498:
   \   000003   22           RET
    608          #endif // ZG_BUILD_COORDINATOR_TYPE
    609          
    610          /*********************************************************************
    611           * Utility functions
    612           */
    613          
    614          /*********************************************************************
    615           * @fn          ZDO_CompareByteLists
    616           *
    617           * @brief       Compares two lists for matches.
    618           *
    619           * @param       ACnt  - number of entries in list A
    620           * @param       AList  - List A
    621           * @param       BCnt  - number of entries in list B
    622           * @param       BList  - List B
    623           *
    624           * @return      true if a match is found
    625           */

   \                                 In  segment BANKED_CODE, align 1, keep-with-next
    626          byte ZDO_AnyClusterMatches( byte ACnt, uint16 *AList, byte BCnt, uint16 *BList )
   \                     ZDO_AnyClusterMatches:
    627          {
   \   000000                REQUIRE ?V0
   \   000000                REQUIRE ?V1
   \   000000                REQUIRE ?V2
   \   000000                REQUIRE ?V3
   \   000000   74F4         MOV       A,#-0xc
   \   000002   12....       LCALL     ?BANKED_ENTER_XDATA
   \   000005                ; Saved register size: 12
   \   000005                ; Auto size: 0
   \   000005   89..         MOV       ?V3,R1
    628            byte x, y;
    629          
    630            for ( x = 0; x < ACnt; x++ )
   \   000007   7D00         MOV       R5,#0x0
   \   000009   740C         MOV       A,#0xc
   \   00000B   12....       LCALL     ?XSTACK_DISP0_8
   \   00000E   12....       LCALL     ??Subroutine238_0 & 0xFFFF
   \                     ??CrossCallReturnLabel_387:
   \   000011   8001         SJMP      ??ZDO_AnyClusterMatches_0
   \                     ??ZDO_AnyClusterMatches_1:
   \   000013   0D           INC       R5
   \                     ??ZDO_AnyClusterMatches_0:
   \   000014   ED           MOV       A,R5
   \   000015   C3           CLR       C
   \   000016   95..         SUBB      A,?V3
   \   000018   502E         JNC       ??ZDO_AnyClusterMatches_2
    631            {
    632              for ( y = 0; y < BCnt; y++ )
   \   00001A   75..00       MOV       ?V2,#0x0
   \   00001D   8002         SJMP      ??ZDO_AnyClusterMatches_3
   \                     ??ZDO_AnyClusterMatches_4:
   \   00001F   05..         INC       ?V2
   \                     ??ZDO_AnyClusterMatches_3:
   \   000021   E5..         MOV       A,?V2
   \   000023   C3           CLR       C
   \   000024   9C           SUBB      A,R4
   \   000025   50EC         JNC       ??ZDO_AnyClusterMatches_1
    633              {
    634                if ( AList[x] == BList[y] )
   \   000027   ED           MOV       A,R5
   \   000028   25E0         ADD       A,0xE0 /* A   */
   \   00002A   FE           MOV       R6,A
   \   00002B   E4           CLR       A
   \   00002C   33           RLC       A
   \   00002D   FF           MOV       R7,A
   \   00002E   EA           MOV       A,R2
   \   00002F   2E           ADD       A,R6
   \   000030   F582         MOV       DPL,A
   \   000032   EB           MOV       A,R3
   \   000033   3F           ADDC      A,R7
   \   000034   12....       LCALL     ??Subroutine272_0 & 0xFFFF
   \                     ??CrossCallReturnLabel_567:
   \   000037   12....       LCALL     ?Subroutine122 & 0xFFFF
   \                     ??CrossCallReturnLabel_191:
   \   00003A   65..         XRL       A,?V0
   \   00003C   7004         JNZ       ??ZDO_AnyClusterMatches_5
   \   00003E   A3           INC       DPTR
   \   00003F   E0           MOVX      A,@DPTR
   \   000040   65..         XRL       A,?V1
   \                     ??ZDO_AnyClusterMatches_5:
   \   000042   70DB         JNZ       ??ZDO_AnyClusterMatches_4
    635                {
    636                  return true;
   \   000044   7901         MOV       R1,#0x1
   \   000046   8002         SJMP      ??ZDO_AnyClusterMatches_6
    637                }
    638              }
    639            }
    640          
    641            return false;
   \                     ??ZDO_AnyClusterMatches_2:
   \   000048   7900         MOV       R1,#0x0
   \                     ??ZDO_AnyClusterMatches_6:
   \   00004A   80..         SJMP      ??Subroutine223_0
    642          }

   \                                 In  segment BANKED_CODE, align 1, keep-with-next
   \                     ??Subroutine223_0:
   \   000000   7F04         MOV       R7,#0x4
   \   000002   02....       LJMP      ?BANKED_LEAVE_XDATA

   \                                 In  segment BANKED_CODE, align 1, keep-with-next
   \                     ??Subroutine272_0:
   \   000000   F583         MOV       DPH,A
   \   000002                REQUIRE ??Subroutine273_0
   \   000002                ; // Fall through to label ??Subroutine273_0

   \                                 In  segment BANKED_CODE, align 1, keep-with-next
   \                     ??Subroutine273_0:
   \   000000   12....       LCALL     ?Subroutine193 & 0xFFFF
   \                     ??CrossCallReturnLabel_573:
   \   000003   F5..         MOV       ?V1,A
   \   000005   22           RET

   \                                 In  segment BANKED_CODE, align 1, keep-with-next
   \                     ?Subroutine193:
   \   000000   E0           MOVX      A,@DPTR
   \   000001   F5..         MOV       ?V0,A
   \   000003   A3           INC       DPTR
   \   000004   E0           MOVX      A,@DPTR
   \   000005   22           RET
    643          
    644          /*********************************************************************
    645           * Callback functions from ZDProfile
    646           */
    647          
    648          
    649          /*********************************************************************
    650           * @fn          ZDO_ProcessNodeDescRsp
    651           *
    652           * @brief       This function processes the Node_Desc_rsp and request
    653           *              Update the TC Link key if the TC supports it.
    654           *
    655           * @param       inMsg - incoming message
    656           *
    657           * @return      none
    658           */

   \                                 In  segment BANKED_CODE, align 1, keep-with-next
    659          void ZDO_ProcessNodeDescRsp ( zdoIncomingMsg_t *inMsg )
   \                     ZDO_ProcessNodeDescRsp:
    660          {
   \   000000                ; Saved register size: 0
   \   000000                ; Auto size: 0
    661          }
   \   000000   02....       LJMP      ?BRET
    662          
    663          
    664          
    665          /*********************************************************************
    666           * @fn          ZDO_ProcessNodeDescReq
    667           *
    668           * @brief       This function processes and responds to the
    669           *              Node_Desc_req message.
    670           *
    671           * @param       inMsg - incoming message
    672           *
    673           * @return      none
    674           */

   \                                 In  segment BANKED_CODE, align 1, keep-with-next
    675          void ZDO_ProcessNodeDescReq( zdoIncomingMsg_t *inMsg )
   \                     ZDO_ProcessNodeDescReq:
    676          {
   \   000000                REQUIRE ?V0
   \   000000                REQUIRE ?V1
   \   000000   74F6         MOV       A,#-0xa
   \   000002   12....       LCALL     ?BANKED_ENTER_XDATA
   \   000005                ; Saved register size: 10
   \   000005                ; Auto size: 0
   \   000005   12....       LCALL     ?Subroutine62 & 0xFFFF
    677            uint16 aoi = BUILD_UINT16( inMsg->asdu[0], inMsg->asdu[1] );
    678            NodeDescriptorFormat_t *desc = NULL;
    679          
    680            if ( aoi == ZDAppNwkAddr.addr.shortAddr )
   \                     ??CrossCallReturnLabel_93:
   \   000008   7003         JNZ       ??ZDO_ProcessNodeDescReq_0
   \   00000A   A3           INC       DPTR
   \   00000B   E0           MOVX      A,@DPTR
   \   00000C   6D           XRL       A,R5
   \                     ??ZDO_ProcessNodeDescReq_0:
   \   00000D   7017         JNZ       ??ZDO_ProcessNodeDescReq_1
    681            {
    682              desc = &ZDO_Config_Node_Descriptor;
    683            }
    684          
    685            if ( desc != NULL )
    686            {
    687              ZDP_NodeDescMsg( inMsg, aoi, desc );
   \   00000F                ; Setup parameters for call to function ZDP_NodeDescMsg
   \   00000F   75....       MOV       ?V0,#ZDO_Config_Node_Descriptor & 0xff
   \   000012   75....       MOV       ?V1,#(ZDO_Config_Node_Descriptor >> 8) & 0xff
   \   000015   78..         MOV       R0,#?V0
   \   000017   12....       LCALL     ?PUSH_XSTACK_I_TWO
   \   00001A   EE           MOV       A,R6
   \   00001B   FA           MOV       R2,A
   \   00001C   12....       LCALL     `??ZDP_NodeDescMsg::?relay`; Banked call to: ZDP_NodeDescMsg
   \   00001F   7402         MOV       A,#0x2
   \   000021   12....       LCALL     ?DEALLOC_XSTACK8
   \   000024   801A         SJMP      ??ZDO_ProcessNodeDescReq_2
    688            }
    689            else
    690            {
    691              ZDP_GenericRsp( inMsg->TransSeq, &(inMsg->srcAddr),
    692                        ZDP_INVALID_REQTYPE, aoi, Node_Desc_rsp, inMsg->SecurityUse );
   \                     ??ZDO_ProcessNodeDescReq_1:
   \   000026                ; Setup parameters for call to function ZDP_GenericRsp
   \   000026   75..02       MOV       ?V0,#0x2
   \   000029   75..80       MOV       ?V1,#-0x80
   \   00002C   78..         MOV       R0,#?V0
   \   00002E   12....       LCALL     ?PUSH_XSTACK_I_TWO
   \   000031   8A..         MOV       ?V0,R2
   \   000033   89..         MOV       ?V1,R1
   \   000035   78..         MOV       R0,#?V0
   \   000037   12....       LCALL     ?PUSH_XSTACK_I_TWO
   \   00003A   12....       LCALL     ?Subroutine64 & 0xFFFF
    693            }
   \                     ??CrossCallReturnLabel_95:
   \   00003D   12....       LCALL     ?DEALLOC_XSTACK8
    694          }
   \                     ??ZDO_ProcessNodeDescReq_2:
   \   000040   80..         SJMP      ??Subroutine225_0

   \                                 In  segment BANKED_CODE, align 1, keep-with-next
   \                     ?Subroutine64:
   \   000000   EE           MOV       A,R6
   \   000001   240E         ADD       A,#0xe
   \   000003   12....       LCALL     ?Subroutine197 & 0xFFFF
   \                     ??CrossCallReturnLabel_494:
   \   000006   FD           MOV       R5,A
   \   000007   7C80         MOV       R4,#-0x80
   \   000009   12....       LCALL     ?Subroutine196 & 0xFFFF
   \                     ??CrossCallReturnLabel_312:
   \   00000C   12....       LCALL     `??ZDP_GenericRsp::?relay`; Banked call to: ZDP_GenericRsp
   \   00000F   7404         MOV       A,#0x4
   \   000011   22           RET

   \                                 In  segment BANKED_CODE, align 1, keep-with-next
   \                     ?Subroutine62:
   \   000000   EA           MOV       A,R2
   \   000001   FE           MOV       R6,A
   \   000002   EB           MOV       A,R3
   \   000003   FF           MOV       R7,A
   \   000004   12....       LCALL     ?Subroutine183 & 0xFFFF
   \                     ??CrossCallReturnLabel_300:
   \   000007   FC           MOV       R4,A
   \   000008   E4           CLR       A
   \   000009   39           ADDC      A,R1
   \   00000A   FD           MOV       R5,A
   \   00000B   90....       MOV       DPTR,#ZDAppNwkAddr
   \   00000E   E0           MOVX      A,@DPTR
   \   00000F   6C           XRL       A,R4
   \   000010   22           RET

   \                                 In  segment BANKED_CODE, align 1, keep-with-next
   \                     ?Subroutine197:
   \   000000   F582         MOV       DPL,A
   \   000002   E4           CLR       A
   \   000003                REQUIRE ??Subroutine229_0
   \   000003                ; // Fall through to label ??Subroutine229_0

   \                                 In  segment BANKED_CODE, align 1, keep-with-next
   \                     ?Subroutine218:
   \   000000   240F         ADD       A,#0xf
   \   000002   F582         MOV       DPL,A
   \   000004   E4           CLR       A
   \   000005   22           RET

   \                                 In  segment BANKED_CODE, align 1, keep-with-next
   \                     ?Subroutine219:
   \   000000   2413         ADD       A,#0x13
   \   000002   F582         MOV       DPL,A
   \   000004   E4           CLR       A
   \   000005   3F           ADDC      A,R7
   \   000006   F583         MOV       DPH,A
   \   000008   22           RET

   \                                 In  segment BANKED_CODE, align 1, keep-with-next
   \                     ?Subroutine196:
   \   000000   EE           MOV       A,R6
   \   000001   2402         ADD       A,#0x2
   \   000003   FA           MOV       R2,A
   \   000004   E4           CLR       A
   \   000005   3F           ADDC      A,R7
   \   000006   FB           MOV       R3,A
   \   000007   EE           MOV       A,R6
   \   000008   12....       LCALL     ?Subroutine218 & 0xFFFF
   \                     ??CrossCallReturnLabel_349:
   \   00000B   3F           ADDC      A,R7
   \   00000C   F583         MOV       DPH,A
   \   00000E   E0           MOVX      A,@DPTR
   \   00000F   F9           MOV       R1,A
   \   000010   22           RET

   \                                 In  segment BANKED_CODE, align 1, keep-with-next
   \                     ?Subroutine183:
   \   000000   EA           MOV       A,R2
   \   000001   12....       LCALL     ?Subroutine219 & 0xFFFF
   \                     ??CrossCallReturnLabel_454:
   \   000004   12....       LCALL     ??Subroutine262_0 & 0xFFFF
   \                     ??CrossCallReturnLabel_612:
   \   000007   8882         MOV       DPL,R0
   \   000009   F583         MOV       DPH,A
   \   00000B   12....       LCALL     ?Subroutine214 & 0xFFFF
   \                     ??CrossCallReturnLabel_345:
   \   00000E   22           RET

   \                                 In  segment BANKED_CODE, align 1, keep-with-next
   \                     ?Subroutine214:
   \   000000   E0           MOVX      A,@DPTR
   \   000001   FA           MOV       R2,A
   \   000002   A3           INC       DPTR
   \   000003   E0           MOVX      A,@DPTR
   \   000004   F8           MOV       R0,A
   \   000005   E4           CLR       A
   \   000006   C8           XCH       A,R0
   \   000007   F9           MOV       R1,A
   \   000008   EA           MOV       A,R2
   \   000009   28           ADD       A,R0
   \   00000A   22           RET
    695          
    696          /*********************************************************************
    697           * @fn          ZDO_ProcessPowerDescReq
    698           *
    699           * @brief       This function processes and responds to the
    700           *              Node_Power_req message.
    701           *
    702           * @param       inMsg  - incoming request
    703           *
    704           * @return      none
    705           */

   \                                 In  segment BANKED_CODE, align 1, keep-with-next
    706          void ZDO_ProcessPowerDescReq( zdoIncomingMsg_t *inMsg )
   \                     ZDO_ProcessPowerDescReq:
    707          {
   \   000000                REQUIRE ?V0
   \   000000                REQUIRE ?V1
   \   000000   74F6         MOV       A,#-0xa
   \   000002   12....       LCALL     ?BANKED_ENTER_XDATA
   \   000005                ; Saved register size: 10
   \   000005                ; Auto size: 0
   \   000005   12....       LCALL     ?Subroutine62 & 0xFFFF
    708            uint16 aoi = BUILD_UINT16( inMsg->asdu[0], inMsg->asdu[1] );
    709            NodePowerDescriptorFormat_t *desc = NULL;
    710          
    711            if ( aoi == ZDAppNwkAddr.addr.shortAddr )
   \                     ??CrossCallReturnLabel_94:
   \   000008   7003         JNZ       ??ZDO_ProcessPowerDescReq_0
   \   00000A   A3           INC       DPTR
   \   00000B   E0           MOVX      A,@DPTR
   \   00000C   6D           XRL       A,R5
   \                     ??ZDO_ProcessPowerDescReq_0:
   \   00000D   7017         JNZ       ??ZDO_ProcessPowerDescReq_1
    712            {
    713              desc = &ZDO_Config_Power_Descriptor;
    714            }
    715          
    716            if ( desc != NULL )
    717            {
    718              ZDP_PowerDescMsg( inMsg, aoi, desc );
   \   00000F                ; Setup parameters for call to function ZDP_PowerDescMsg
   \   00000F   75....       MOV       ?V0,#ZDO_Config_Power_Descriptor & 0xff
   \   000012   75....       MOV       ?V1,#(ZDO_Config_Power_Descriptor >> 8) & 0xff
   \   000015   78..         MOV       R0,#?V0
   \   000017   12....       LCALL     ?PUSH_XSTACK_I_TWO
   \   00001A   EE           MOV       A,R6
   \   00001B   FA           MOV       R2,A
   \   00001C   12....       LCALL     `??ZDP_PowerDescMsg::?relay`; Banked call to: ZDP_PowerDescMsg
   \   00001F   7402         MOV       A,#0x2
   \   000021   12....       LCALL     ?DEALLOC_XSTACK8
   \   000024   801A         SJMP      ??ZDO_ProcessPowerDescReq_2
    719            }
    720            else
    721            {
    722              ZDP_GenericRsp( inMsg->TransSeq, &(inMsg->srcAddr),
    723                        ZDP_INVALID_REQTYPE, aoi, Power_Desc_rsp, inMsg->SecurityUse );
   \                     ??ZDO_ProcessPowerDescReq_1:
   \   000026                ; Setup parameters for call to function ZDP_GenericRsp
   \   000026   75..03       MOV       ?V0,#0x3
   \   000029   75..80       MOV       ?V1,#-0x80
   \   00002C   78..         MOV       R0,#?V0
   \   00002E   12....       LCALL     ?PUSH_XSTACK_I_TWO
   \   000031   8A..         MOV       ?V0,R2
   \   000033   89..         MOV       ?V1,R1
   \   000035   78..         MOV       R0,#?V0
   \   000037   12....       LCALL     ?PUSH_XSTACK_I_TWO
   \   00003A   12....       LCALL     ?Subroutine64 & 0xFFFF
    724            }
   \                     ??CrossCallReturnLabel_96:
   \   00003D   12....       LCALL     ?DEALLOC_XSTACK8
    725          }
   \                     ??ZDO_ProcessPowerDescReq_2:
   \   000040   80..         SJMP      ??Subroutine225_0
    726          
    727          /*********************************************************************
    728           * @fn          ZDO_ProcessSimpleDescReq
    729           *
    730           * @brief       This function processes and responds to the
    731           *              Simple_Desc_req message.
    732           *
    733           * @param       inMsg - incoming message (request)
    734           *
    735           * @return      none
    736           */

   \                                 In  segment BANKED_CODE, align 1, keep-with-next
   \                     ?Subroutine2:
   \   000000   7402         MOV       A,#0x2
   \   000002                REQUIRE ??Subroutine224_0
   \   000002                ; // Fall through to label ??Subroutine224_0

   \                                 In  segment BANKED_CODE, align 1, keep-with-next
   \                     ??Subroutine224_0:
   \   000000   12....       LCALL     ?DEALLOC_XSTACK8
   \   000003                REQUIRE ??Subroutine225_0
   \   000003                ; // Fall through to label ??Subroutine225_0

   \                                 In  segment BANKED_CODE, align 1, keep-with-next
    737          void ZDO_ProcessSimpleDescReq( zdoIncomingMsg_t *inMsg )
   \                     ZDO_ProcessSimpleDescReq:
    738          {
   \   000000                REQUIRE ?V0
   \   000000                REQUIRE ?V1
   \   000000   74F6         MOV       A,#-0xa
   \   000002   12....       LCALL     ?BANKED_ENTER_XDATA
   \   000005                ; Saved register size: 10
   \   000005                ; Auto size: 2
   \   000005   74FE         MOV       A,#-0x2
   \   000007   12....       LCALL     ?ALLOC_XSTACK8
   \   00000A   8A..         MOV       ?V0,R2
   \   00000C   8B..         MOV       ?V1,R3
    739            SimpleDescriptionFormat_t *sDesc = NULL;
   \   00000E   85..82       MOV       DPL,?XSP + 0
   \   000011   85..83       MOV       DPH,?XSP + 1
   \   000014   E4           CLR       A
   \   000015   F0           MOVX      @DPTR,A
   \   000016   A3           INC       DPTR
   \   000017   F0           MOVX      @DPTR,A
    740            uint16 aoi = BUILD_UINT16( inMsg->asdu[0], inMsg->asdu[1] );
   \   000018   12....       LCALL     ??Subroutine237_0 & 0xFFFF
   \                     ??CrossCallReturnLabel_384:
   \   00001B   12....       LCALL     ?Subroutine89 & 0xFFFF
   \                     ??CrossCallReturnLabel_142:
   \   00001E   FB           MOV       R3,A
   \   00001F   EC           MOV       A,R4
   \   000020   FA           MOV       R2,A
    741            byte endPoint = inMsg->asdu[2];
   \   000021   8882         MOV       DPL,R0
   \   000023   8983         MOV       DPH,R1
   \   000025   A3           INC       DPTR
   \   000026   A3           INC       DPTR
   \   000027   E0           MOVX      A,@DPTR
   \   000028   F9           MOV       R1,A
    742            byte free = false;
   \   000029   7F00         MOV       R7,#0x0
    743            byte stat = ZDP_SUCCESS;
   \   00002B   7E00         MOV       R6,#0x0
    744          
    745            if ( (endPoint == ZDO_EP) || (endPoint > MAX_ENDPOINTS) )
   \   00002D   6005         JZ        ??ZDO_ProcessSimpleDescReq_0
   \   00002F   74FF         MOV       A,#-0x1
   \   000031   69           XRL       A,R1
   \   000032   7004         JNZ       ??ZDO_ProcessSimpleDescReq_1
    746            {
    747              stat = ZDP_INVALID_EP;
   \                     ??ZDO_ProcessSimpleDescReq_0:
   \   000034   7E82         MOV       R6,#-0x7e
   \   000036   8045         SJMP      ??ZDO_ProcessSimpleDescReq_2
    748            }
    749            else if ( aoi == ZDAppNwkAddr.addr.shortAddr )
   \                     ??ZDO_ProcessSimpleDescReq_1:
   \   000038   90....       MOV       DPTR,#ZDAppNwkAddr
   \   00003B   E0           MOVX      A,@DPTR
   \   00003C   6A           XRL       A,R2
   \   00003D   7003         JNZ       ??ZDO_ProcessSimpleDescReq_3
   \   00003F   A3           INC       DPTR
   \   000040   E0           MOVX      A,@DPTR
   \   000041   6B           XRL       A,R3
   \                     ??ZDO_ProcessSimpleDescReq_3:
   \   000042   701A         JNZ       ??ZDO_ProcessSimpleDescReq_4
    750            {
    751              free = afFindSimpleDesc( &sDesc, endPoint );
   \   000044                ; Setup parameters for call to function afFindSimpleDesc
   \   000044   AA..         MOV       R2,?XSP + 0
   \   000046   AB..         MOV       R3,?XSP + 1
   \   000048   12....       LCALL     `??afFindSimpleDesc::?relay`; Banked call to: afFindSimpleDesc
   \   00004B   E9           MOV       A,R1
   \   00004C   FA           MOV       R2,A
    752              if ( sDesc == NULL )
   \   00004D   85..82       MOV       DPL,?XSP + 0
   \   000050   85..83       MOV       DPH,?XSP + 1
   \   000053   12....       LCALL     ??Subroutine250_0 & 0xFFFF
   \                     ??CrossCallReturnLabel_456:
   \   000056   7002         JNZ       ??ZDO_ProcessSimpleDescReq_5
    753              {
    754                stat = ZDP_NOT_ACTIVE;
   \   000058   7E83         MOV       R6,#-0x7d
   \                     ??ZDO_ProcessSimpleDescReq_5:
   \   00005A   EA           MOV       A,R2
   \   00005B   FF           MOV       R7,A
   \   00005C   801F         SJMP      ??ZDO_ProcessSimpleDescReq_2
    755              }
    756            }
    757            else
    758            {
    759              if ( ZSTACK_ROUTER_BUILD )
   \                     ??ZDO_ProcessSimpleDescReq_4:
   \   00005E   90....       MOV       DPTR,#zgDeviceLogicalType
   \   000061   E0           MOVX      A,@DPTR
   \   000062   6004         JZ        ??ZDO_ProcessSimpleDescReq_6
   \   000064   6401         XRL       A,#0x1
   \   000066   700E         JNZ       ??ZDO_ProcessSimpleDescReq_7
    760              {
    761                //If child found, then no descriptor
    762                if(AssocIsChild(aoi))
   \                     ??ZDO_ProcessSimpleDescReq_6:
   \   000068                ; Setup parameters for call to function AssocIsChild
   \   000068   12....       LCALL     `??AssocIsChild::?relay`; Banked call to: AssocIsChild
   \   00006B   E9           MOV       A,R1
   \   00006C   6004         JZ        ??ZDO_ProcessSimpleDescReq_8
    763                {
    764                  stat = ZDP_NO_DESCRIPTOR;
   \   00006E   7E89         MOV       R6,#-0x77
   \   000070   800B         SJMP      ??ZDO_ProcessSimpleDescReq_2
    765                }
    766                //Otherwise no device found
    767                else
    768                {
    769                  stat = ZDP_DEVICE_NOT_FOUND;
   \                     ??ZDO_ProcessSimpleDescReq_8:
   \   000072   7E81         MOV       R6,#-0x7f
   \   000074   8007         SJMP      ??ZDO_ProcessSimpleDescReq_2
    770                }
    771              }
    772              else if ( ZSTACK_END_DEVICE_BUILD )
   \                     ??ZDO_ProcessSimpleDescReq_7:
   \   000076   E0           MOVX      A,@DPTR
   \   000077   6402         XRL       A,#0x2
   \   000079   7002         JNZ       ??ZDO_ProcessSimpleDescReq_2
    773              {
    774                stat = ZDP_INVALID_REQTYPE;
   \   00007B   7E80         MOV       R6,#-0x80
    775              }
    776            }
    777          
    778            ZDP_SimpleDescMsg( inMsg, stat, sDesc );
   \                     ??ZDO_ProcessSimpleDescReq_2:
   \   00007D                ; Setup parameters for call to function ZDP_SimpleDescMsg
   \   00007D   12....       LCALL     ?Subroutine108 & 0xFFFF
   \                     ??CrossCallReturnLabel_354:
   \   000080   EE           MOV       A,R6
   \   000081   F9           MOV       R1,A
   \   000082   AA..         MOV       R2,?V0
   \   000084   AB..         MOV       R3,?V1
   \   000086   12....       LCALL     `??ZDP_SimpleDescMsg::?relay`; Banked call to: ZDP_SimpleDescMsg
    779          
    780            if ( free && sDesc )
   \   000089   EF           MOV       A,R7
   \   00008A   6014         JZ        ??CrossCallReturnLabel_531
   \   00008C   85..82       MOV       DPL,?XSP + 0
   \   00008F   85..83       MOV       DPH,?XSP + 1
   \   000092   12....       LCALL     ??Subroutine250_0 & 0xFFFF
   \                     ??CrossCallReturnLabel_457:
   \   000095   6009         JZ        ??CrossCallReturnLabel_531
    781            {
    782              osal_mem_free( sDesc );
   \   000097                ; Setup parameters for call to function osal_mem_free
   \   000097   85..82       MOV       DPL,?XSP + 0
   \   00009A   85..83       MOV       DPH,?XSP + 1
   \   00009D   12....       LCALL     ??Subroutine264_0 & 0xFFFF
    783            }
    784          }
   \                     ??CrossCallReturnLabel_531:
   \   0000A0   02....       LJMP      ?Subroutine2 & 0xFFFF

   \                                 In  segment BANKED_CODE, align 1, keep-with-next
   \                     ?Subroutine108:
   \   000000   85..82       MOV       DPL,?XSP + 0
   \   000003   85..83       MOV       DPH,?XSP + 1
   \   000006                REQUIRE ??Subroutine226_0
   \   000006                ; // Fall through to label ??Subroutine226_0

   \                                 In  segment BANKED_CODE, align 1, keep-with-next
   \                     ??Subroutine237_0:
   \   000000   12....       LCALL     ?Subroutine220 & 0xFFFF
   \                     ??CrossCallReturnLabel_694:
   \   000003   35..         ADDC      A,?V1
   \   000005   22           RET

   \                                 In  segment BANKED_CODE, align 1, keep-with-next
   \                     ??Subroutine250_0:
   \   000000   12....       LCALL     ??Subroutine278_0 & 0xFFFF
   \                     ??CrossCallReturnLabel_609:
   \   000003   E8           MOV       A,R0
   \   000004   49           ORL       A,R1
   \   000005   22           RET

   \                                 In  segment BANKED_CODE, align 1, keep-with-next
   \                     ?Subroutine89:
   \   000000   12....       LCALL     ?Subroutine191 & 0xFFFF
   \                     ??CrossCallReturnLabel_310:
   \   000003   FC           MOV       R4,A
   \   000004   A3           INC       DPTR
   \   000005   E0           MOVX      A,@DPTR
   \   000006   22           RET

   \                                 In  segment BANKED_CODE, align 1, keep-with-next
   \                     ??Subroutine264_0:
   \   000000   12....       LCALL     ??Subroutine268_0 & 0xFFFF
   \                     ??CrossCallReturnLabel_551:
   \   000003   12....       LCALL     `??osal_mem_free::?relay`; Banked call to: osal_mem_free
   \   000006   22           RET

   \                                 In  segment BANKED_CODE, align 1, keep-with-next
   \                     ?Subroutine191:
   \   000000   F583         MOV       DPH,A
   \   000002   12....       LCALL     ??Subroutine262_0 & 0xFFFF
   \                     ??CrossCallReturnLabel_613:
   \   000005   F9           MOV       R1,A
   \   000006   8882         MOV       DPL,R0
   \   000008   F583         MOV       DPH,A
   \   00000A   E0           MOVX      A,@DPTR
   \   00000B   22           RET

   \                                 In  segment BANKED_CODE, align 1, keep-with-next
   \                     ?Subroutine220:
   \   000000   EA           MOV       A,R2
   \   000001                REQUIRE ??Subroutine287_0
   \   000001                ; // Fall through to label ??Subroutine287_0

   \                                 In  segment BANKED_CODE, align 1, keep-with-next
   \                     ??Subroutine287_0:
   \   000000   2413         ADD       A,#0x13
   \   000002   F582         MOV       DPL,A
   \   000004   E4           CLR       A
   \   000005   22           RET
    785          
    786          /*********************************************************************
    787           * @fn          ZDO_ProcessSimpleDescRsp
    788           *
    789           * @brief       This function processes and responds to the
    790           *              Simple_Desc_rsp message.
    791           *
    792           * @param       inMsg - incoming message (request)
    793           *
    794           * @return      none
    795           */

   \                                 In  segment BANKED_CODE, align 1, keep-with-next
    796          void ZDO_ProcessSimpleDescRsp( zdoIncomingMsg_t *inMsg )
   \                     ZDO_ProcessSimpleDescRsp:
    797          {
   \   000000                ; Saved register size: 0
   \   000000                ; Auto size: 0
    798          
    799          }
   \   000000   02....       LJMP      ?BRET
    800          
    801          /*********************************************************************
    802           * @fn          ZDO_ProcessActiveEPReq
    803           *
    804           * @brief       This function processes and responds to the
    805           *              Active_EP_req message.
    806           *
    807           * @param       inMsg  - incoming message (request)
    808           *
    809           * @return      none
    810           */

   \                                 In  segment BANKED_CODE, align 1, keep-with-next
    811          void ZDO_ProcessActiveEPReq( zdoIncomingMsg_t *inMsg )
   \                     ZDO_ProcessActiveEPReq:
    812          {
   \   000000                REQUIRE ?V0
   \   000000                REQUIRE ?V1
   \   000000                REQUIRE ?V2
   \   000000                REQUIRE ?V3
   \   000000                REQUIRE ?V4
   \   000000                REQUIRE ?V5
   \   000000   74F2         MOV       A,#-0xe
   \   000002   12....       LCALL     ?BANKED_ENTER_XDATA
   \   000005                ; Saved register size: 14
   \   000005                ; Auto size: 0
   \   000005   EA           MOV       A,R2
   \   000006   FE           MOV       R6,A
   \   000007   EB           MOV       A,R3
   \   000008   FF           MOV       R7,A
    813            byte cnt = 0;
   \   000009   75..00       MOV       ?V0,#0x0
    814            uint16 aoi;
    815            byte stat = ZDP_SUCCESS;
   \   00000C   75..00       MOV       ?V1,#0x0
    816          
    817            aoi = BUILD_UINT16( inMsg->asdu[0], inMsg->asdu[1] );
   \   00000F   12....       LCALL     ?Subroutine75 & 0xFFFF
   \                     ??CrossCallReturnLabel_119:
   \   000012   F5..         MOV       ?V2,A
   \   000014   E4           CLR       A
   \   000015   39           ADDC      A,R1
   \   000016   F5..         MOV       ?V3,A
    818          
    819            if ( aoi == NLME_GetShortAddr() )
   \   000018                ; Setup parameters for call to function NLME_GetShortAddr
   \   000018   12....       LCALL     `??NLME_GetShortAddr::?relay`; Banked call to: NLME_GetShortAddr
   \   00001B   EA           MOV       A,R2
   \   00001C   65..         XRL       A,?V2
   \   00001E   7003         JNZ       ??ZDO_ProcessActiveEPReq_0
   \   000020   EB           MOV       A,R3
   \   000021   65..         XRL       A,?V3
   \                     ??ZDO_ProcessActiveEPReq_0:
   \   000023   7012         JNZ       ??ZDO_ProcessActiveEPReq_1
    820            {
    821              cnt = afNumEndPoints() - 1;  // -1 for ZDO endpoint descriptor
   \   000025                ; Setup parameters for call to function afNumEndPoints
   \   000025   12....       LCALL     `??afNumEndPoints::?relay`; Banked call to: afNumEndPoints
   \   000028   E9           MOV       A,R1
   \   000029   14           DEC       A
   \   00002A   F5..         MOV       ?V0,A
    822              afEndPoints( (uint8 *)ZDOBuildBuf, true );
   \   00002C                ; Setup parameters for call to function afEndPoints
   \   00002C   7901         MOV       R1,#0x1
   \   00002E   7A..         MOV       R2,#ZDOBuildBuf & 0xff
   \   000030   7B..         MOV       R3,#(ZDOBuildBuf >> 8) & 0xff
   \   000032   12....       LCALL     `??afEndPoints::?relay`; Banked call to: afEndPoints
   \   000035   8003         SJMP      ??ZDO_ProcessActiveEPReq_2
    823            }
    824            else
    825            {
    826              if(ZG_BUILD_ENDDEVICE_TYPE)
    827              {
    828                stat = ZDP_INVALID_REQTYPE;
   \                     ??ZDO_ProcessActiveEPReq_1:
   \   000037   75..80       MOV       ?V1,#-0x80
    829              }
    830              else
    831              {
    832                stat = ZDP_DEVICE_NOT_FOUND;
    833              }
    834            }
    835          
    836            ZDP_ActiveEPRsp( inMsg->TransSeq, &(inMsg->srcAddr), stat,
    837                            aoi, cnt, (uint8 *)ZDOBuildBuf, inMsg->SecurityUse );
   \                     ??ZDO_ProcessActiveEPReq_2:
   \   00003A                ; Setup parameters for call to function ZDP_EPRsp
   \   00003A   12....       LCALL     ?Subroutine131 & 0xFFFF
   \                     ??CrossCallReturnLabel_490:
   \   00003D   F5..         MOV       ?V4,A
   \   00003F   78..         MOV       R0,#?V4
   \   000041   12....       LCALL     ?PUSH_XSTACK_I_ONE
   \   000044   75....       MOV       ?V4,#ZDOBuildBuf & 0xff
   \   000047   75....       MOV       ?V5,#(ZDOBuildBuf >> 8) & 0xff
   \   00004A   78..         MOV       R0,#?V4
   \   00004C   12....       LCALL     ?PUSH_XSTACK_I_TWO
   \   00004F   78..         MOV       R0,#?V0
   \   000051   12....       LCALL     ?PUSH_XSTACK_I_ONE
   \   000054   78..         MOV       R0,#?V2
   \   000056   12....       LCALL     ?PUSH_XSTACK_I_TWO
   \   000059   E5..         MOV       A,?V1
   \   00005B   F5..         MOV       ?V0,A
   \   00005D   78..         MOV       R0,#?V0
   \   00005F   12....       LCALL     ?PUSH_XSTACK_I_ONE
   \   000062   12....       LCALL     ?Subroutine199 & 0xFFFF
   \                     ??CrossCallReturnLabel_428:
   \   000065   12....       LCALL     ??Subroutine251_0 & 0xFFFF
   \                     ??CrossCallReturnLabel_481:
   \   000068   F9           MOV       R1,A
   \   000069   7A05         MOV       R2,#0x5
   \   00006B   7B80         MOV       R3,#-0x80
   \   00006D   12....       LCALL     `??ZDP_EPRsp::?relay`; Banked call to: ZDP_EPRsp
   \   000070   7407         MOV       A,#0x7
   \   000072   02....       LJMP      ?Subroutine1 & 0xFFFF
    838          }

   \                                 In  segment BANKED_CODE, align 1, keep-with-next
   \                     ?Subroutine199:
   \   000000   EE           MOV       A,R6
   \   000001   2402         ADD       A,#0x2
   \   000003   FC           MOV       R4,A
   \   000004   E4           CLR       A
   \   000005   3F           ADDC      A,R7
   \   000006   FD           MOV       R5,A
   \   000007   EE           MOV       A,R6
   \   000008   240F         ADD       A,#0xf
   \   00000A   22           RET

   \                                 In  segment BANKED_CODE, align 1, keep-with-next
   \                     ?Subroutine75:
   \   000000   12....       LCALL     ?Subroutine183 & 0xFFFF
   \                     ??CrossCallReturnLabel_301:
   \   000003   22           RET

   \                                 In  segment BANKED_CODE, align 1, keep-with-next
   \                     ?Subroutine131:
   \   000000   EE           MOV       A,R6
   \   000001   240E         ADD       A,#0xe
   \   000003                REQUIRE ??Subroutine251_0
   \   000003                ; // Fall through to label ??Subroutine251_0

   \                                 In  segment BANKED_CODE, align 1, keep-with-next
   \                     ??Subroutine251_0:
   \   000000   F582         MOV       DPL,A
   \   000002   E4           CLR       A
   \   000003                REQUIRE ??Subroutine252_0
   \   000003                ; // Fall through to label ??Subroutine252_0
    839          
    840          /*********************************************************************
    841           * @fn          ZDO_ConvertOTAClusters
    842           *
    843           * @brief       This function will convert the over-the-air cluster list
    844           *              format to an internal format.
    845           *
    846           * @param       inMsg  - incoming message (request)
    847           *
    848           * @return      pointer to incremented inBuf
    849           */

   \                                 In  segment BANKED_CODE, align 1, keep-with-next
    850          uint8 *ZDO_ConvertOTAClusters( uint8 cnt, uint8 *inBuf, uint16 *outList )
   \                     ZDO_ConvertOTAClusters:
    851          {
   \   000000                REQUIRE ?V0
   \   000000                REQUIRE ?V1
   \   000000   74F6         MOV       A,#-0xa
   \   000002   12....       LCALL     ?BANKED_ENTER_XDATA
   \   000005                ; Saved register size: 10
   \   000005                ; Auto size: 0
   \   000005   E9           MOV       A,R1
   \   000006   FF           MOV       R7,A
    852            uint8 x;
    853          
    854            for ( x = 0; x < cnt; x++ )
   \   000007   7E00         MOV       R6,#0x0
   \   000009   8030         SJMP      ??ZDO_ConvertOTAClusters_0
    855            {
    856              // convert ota format to internal
    857              outList[x] = BUILD_UINT16( inBuf[0], inBuf[1] );
   \                     ??ZDO_ConvertOTAClusters_1:
   \   00000B   8A82         MOV       DPL,R2
   \   00000D   8B83         MOV       DPH,R3
   \   00000F   12....       LCALL     ?Subroutine193 & 0xFFFF
   \                     ??CrossCallReturnLabel_570:
   \   000012   F8           MOV       R0,A
   \   000013   E4           CLR       A
   \   000014   C8           XCH       A,R0
   \   000015   F9           MOV       R1,A
   \   000016   E5..         MOV       A,?V0
   \   000018   28           ADD       A,R0
   \   000019   E4           CLR       A
   \   00001A   39           ADDC      A,R1
   \   00001B   F5..         MOV       ?V1,A
   \   00001D   EE           MOV       A,R6
   \   00001E   25E0         ADD       A,0xE0 /* A   */
   \   000020   F8           MOV       R0,A
   \   000021   E4           CLR       A
   \   000022   33           RLC       A
   \   000023   F9           MOV       R1,A
   \   000024   EC           MOV       A,R4
   \   000025   28           ADD       A,R0
   \   000026   F582         MOV       DPL,A
   \   000028   ED           MOV       A,R5
   \   000029   39           ADDC      A,R1
   \   00002A   F583         MOV       DPH,A
   \   00002C   E5..         MOV       A,?V0
   \   00002E   F0           MOVX      @DPTR,A
   \   00002F   A3           INC       DPTR
   \   000030   E5..         MOV       A,?V1
   \   000032   F0           MOVX      @DPTR,A
    858              inBuf += sizeof( uint16 );
   \   000033   EA           MOV       A,R2
   \   000034   2402         ADD       A,#0x2
   \   000036   FA           MOV       R2,A
   \   000037   5001         JNC       ??ZDO_ConvertOTAClusters_2
   \   000039   0B           INC       R3
    859            }
   \                     ??ZDO_ConvertOTAClusters_2:
   \   00003A   0E           INC       R6
   \                     ??ZDO_ConvertOTAClusters_0:
   \   00003B   EE           MOV       A,R6
   \   00003C   C3           CLR       C
   \   00003D   9F           SUBB      A,R7
   \   00003E   40CB         JC        ??ZDO_ConvertOTAClusters_1
    860            return ( inBuf );
   \   000040   02....       LJMP      ??Subroutine225_0 & 0xFFFF
    861          }
    862          
    863          /*********************************************************************
    864           * @fn          ZDO_ProcessMatchDescReq
    865           *
    866           * @brief       This function processes and responds to the
    867           *              Match_Desc_req message.
    868           *
    869           * @param       inMsg  - incoming message (request)
    870           *
    871           * @return      none
    872           */

   \                                 In  segment BANKED_CODE, align 1, keep-with-next
    873          void ZDO_ProcessMatchDescReq( zdoIncomingMsg_t *inMsg )
   \                     ZDO_ProcessMatchDescReq:
    874          {
   \   000000                REQUIRE ?V0
   \   000000                REQUIRE ?V1
   \   000000                REQUIRE ?V2
   \   000000                REQUIRE ?V3
   \   000000                REQUIRE ?V4
   \   000000                REQUIRE ?V5
   \   000000                REQUIRE ?V6
   \   000000                REQUIRE ?V7
   \   000000                REQUIRE ?V8
   \   000000                REQUIRE ?V9
   \   000000                REQUIRE ?V10
   \   000000                REQUIRE ?V11
   \   000000                REQUIRE ?V12
   \   000000                REQUIRE ?V13
   \   000000                REQUIRE ?V14
   \   000000                REQUIRE ?V15
   \   000000   74E8         MOV       A,#-0x18
   \   000002   12....       LCALL     ?BANKED_ENTER_XDATA
   \   000005                ; Saved register size: 24
   \   000005                ; Auto size: 2
   \   000005   74FE         MOV       A,#-0x2
   \   000007   12....       LCALL     ?ALLOC_XSTACK8
   \   00000A   8A..         MOV       ?V8,R2
   \   00000C   8B..         MOV       ?V9,R3
    875            uint8 epCnt = 0;
   \   00000E   75..00       MOV       ?V7,#0x0
    876            uint8 numInClusters;
    877            uint16 *inClusters = NULL;
   \   000011   85..82       MOV       DPL,?XSP + 0
   \   000014   85..83       MOV       DPH,?XSP + 1
   \   000017   E4           CLR       A
   \   000018   F0           MOVX      @DPTR,A
   \   000019   A3           INC       DPTR
   \   00001A   F0           MOVX      @DPTR,A
    878            uint8 numOutClusters;
    879            uint16 *outClusters = NULL;
   \   00001B   F5..         MOV       ?V14,A
   \   00001D   F5..         MOV       ?V15,A
    880            epList_t *epDesc;
    881            SimpleDescriptionFormat_t *sDesc = NULL;
    882            uint8 allocated;
    883            uint8 *msg;
    884            uint16 aoi;
    885            uint16 profileID;
    886          
    887            // Parse the incoming message
    888            msg = inMsg->asdu;
   \   00001F   12....       LCALL     ?Subroutine144 & 0xFFFF
   \                     ??CrossCallReturnLabel_404:
   \   000022   35..         ADDC      A,?V9
   \   000024   12....       LCALL     ?Subroutine105 & 0xFFFF
    889            aoi = BUILD_UINT16( msg[0], msg[1] );
   \                     ??CrossCallReturnLabel_172:
   \   000027   12....       LCALL     ?Subroutine68 & 0xFFFF
    890            profileID = BUILD_UINT16( msg[2], msg[3] );
   \                     ??CrossCallReturnLabel_102:
   \   00002A   FA           MOV       R2,A
   \   00002B   8E82         MOV       DPL,R6
   \   00002D   8F83         MOV       DPH,R7
   \   00002F   A3           INC       DPTR
   \   000030   A3           INC       DPTR
   \   000031   A3           INC       DPTR
   \   000032   E0           MOVX      A,@DPTR
   \   000033   F9           MOV       R1,A
   \   000034   EA           MOV       A,R2
   \   000035   F5..         MOV       ?V0,A
   \   000037   E4           CLR       A
   \   000038   39           ADDC      A,R1
   \   000039   F5..         MOV       ?V1,A
    891            msg += 4;
    892          
    893            if ( ADDR_BCAST_NOT_ME == NLME_IsAddressBroadcast(aoi) )
   \   00003B                ; Setup parameters for call to function NLME_IsAddressBroadcast
   \   00003B   AA..         MOV       R2,?V2
   \   00003D   AB..         MOV       R3,?V3
   \   00003F   12....       LCALL     `??NLME_IsAddressBroadcast::?relay`; Banked call to: NLME_IsAddressBroadcast
   \   000042   E9           MOV       A,R1
   \   000043   6401         XRL       A,#0x1
   \   000045   702B         JNZ       ??ZDO_ProcessMatchDescReq_0
    894            {
    895              ZDP_MatchDescRsp( inMsg->TransSeq, &(inMsg->srcAddr), ZDP_INVALID_REQTYPE,
    896                                    aoi, 0, NULL, inMsg->SecurityUse );
   \   000047                ; Setup parameters for call to function ZDP_EPRsp
   \   000047   12....       LCALL     ?Subroutine78 & 0xFFFF
   \                     ??CrossCallReturnLabel_556:
   \   00004A   12....       LCALL     ?PUSH_XSTACK_I_ONE
   \   00004D   E4           CLR       A
   \   00004E   F5..         MOV       ?V0,A
   \   000050   F5..         MOV       ?V1,A
   \   000052   78..         MOV       R0,#?V0
   \   000054   12....       LCALL     ?PUSH_XSTACK_I_TWO
   \   000057   78..         MOV       R0,#?V0
   \   000059   12....       LCALL     ?PUSH_XSTACK_I_ONE
   \   00005C   78..         MOV       R0,#?V2
   \   00005E   12....       LCALL     ?PUSH_XSTACK_I_TWO
   \   000061   75..80       MOV       ?V0,#-0x80
   \   000064   78..         MOV       R0,#?V0
   \   000066   12....       LCALL     ?PUSH_XSTACK_I_ONE
   \   000069   12....       LCALL     ?Subroutine71 & 0xFFFF
   \                     ??CrossCallReturnLabel_110:
   \   00006C   12....       LCALL     ?DEALLOC_XSTACK8
    897              return;
   \   00006F   02....       LJMP      ??ZDO_ProcessMatchDescReq_1 & 0xFFFF
    898            }
    899            else if ( (ADDR_NOT_BCAST == NLME_IsAddressBroadcast(aoi)) && (aoi != ZDAppNwkAddr.addr.shortAddr) )
   \                     ??ZDO_ProcessMatchDescReq_0:
   \   000072                ; Setup parameters for call to function NLME_IsAddressBroadcast
   \   000072   AA..         MOV       R2,?V2
   \   000074   AB..         MOV       R3,?V3
   \   000076   12....       LCALL     `??NLME_IsAddressBroadcast::?relay`; Banked call to: NLME_IsAddressBroadcast
   \   000079   E9           MOV       A,R1
   \   00007A   7041         JNZ       ??ZDO_ProcessMatchDescReq_2
   \   00007C   90....       MOV       DPTR,#ZDAppNwkAddr
   \   00007F   E0           MOVX      A,@DPTR
   \   000080   65..         XRL       A,?V2
   \   000082   7004         JNZ       ??ZDO_ProcessMatchDescReq_3
   \   000084   A3           INC       DPTR
   \   000085   E0           MOVX      A,@DPTR
   \   000086   65..         XRL       A,?V3
   \                     ??ZDO_ProcessMatchDescReq_3:
   \   000088   6033         JZ        ??ZDO_ProcessMatchDescReq_2
    900            {
    901          #if (ZG_BUILD_ENDDEVICE_TYPE)
    902              if(ZG_DEVICE_ENDDEVICE_TYPE)
   \   00008A   90....       MOV       DPTR,#zgDeviceLogicalType
   \   00008D   E0           MOVX      A,@DPTR
   \   00008E   6402         XRL       A,#0x2
   \   000090   7028         JNZ       ??ZDO_ProcessMatchDescReq_4
    903              {    
    904              ZDP_MatchDescRsp( inMsg->TransSeq, &(inMsg->srcAddr), ZDP_INVALID_REQTYPE,
    905                                       aoi, 0, NULL, inMsg->SecurityUse );
   \   000092                ; Setup parameters for call to function ZDP_EPRsp
   \   000092   12....       LCALL     ?Subroutine78 & 0xFFFF
    906              }
   \                     ??CrossCallReturnLabel_557:
   \   000095   12....       LCALL     ?PUSH_XSTACK_I_ONE
   \   000098   E4           CLR       A
   \   000099   F5..         MOV       ?V0,A
   \   00009B   F5..         MOV       ?V1,A
   \   00009D   78..         MOV       R0,#?V0
   \   00009F   12....       LCALL     ?PUSH_XSTACK_I_TWO
   \   0000A2   78..         MOV       R0,#?V0
   \   0000A4   12....       LCALL     ?PUSH_XSTACK_I_ONE
   \   0000A7   78..         MOV       R0,#?V2
   \   0000A9   12....       LCALL     ?PUSH_XSTACK_I_TWO
   \   0000AC   75..80       MOV       ?V0,#-0x80
   \   0000AF   78..         MOV       R0,#?V0
   \   0000B1   12....       LCALL     ?PUSH_XSTACK_I_ONE
   \   0000B4   12....       LCALL     ?Subroutine71 & 0xFFFF
   \                     ??CrossCallReturnLabel_111:
   \   0000B7   12....       LCALL     ?DEALLOC_XSTACK8
    907          #else 
    908              if (ZG_DEVICE_RTR_TYPE)
    909              {
    910              ZDP_MatchDescRsp( inMsg->TransSeq, &(inMsg->srcAddr), ZDP_DEVICE_NOT_FOUND,
    911                                       aoi, 0, NULL, inMsg->SecurityUse );
    912              }
    913          #endif
    914              return;
   \                     ??ZDO_ProcessMatchDescReq_4:
   \   0000BA   02....       LJMP      ??ZDO_ProcessMatchDescReq_1 & 0xFFFF
    915            }
    916          
    917            if ((numInClusters = *msg++) &&
    918                (inClusters = (uint16*)osal_mem_alloc( numInClusters * sizeof( uint16 ) )))
   \                     ??ZDO_ProcessMatchDescReq_2:
   \   0000BD   8E82         MOV       DPL,R6
   \   0000BF   8F83         MOV       DPH,R7
   \   0000C1   A3           INC       DPTR
   \   0000C2   A3           INC       DPTR
   \   0000C3   A3           INC       DPTR
   \   0000C4   A3           INC       DPTR
   \   0000C5   E0           MOVX      A,@DPTR
   \   0000C6   F5..         MOV       ?V3,A
   \   0000C8   EE           MOV       A,R6
   \   0000C9   2405         ADD       A,#0x5
   \   0000CB   FE           MOV       R6,A
   \   0000CC   5001         JNC       ??ZDO_ProcessMatchDescReq_5
   \   0000CE   0F           INC       R7
   \                     ??ZDO_ProcessMatchDescReq_5:
   \   0000CF   E5..         MOV       A,?V3
   \   0000D1   602A         JZ        ??ZDO_ProcessMatchDescReq_6
   \   0000D3                ; Setup parameters for call to function osal_mem_alloc
   \   0000D3   12....       LCALL     ?Subroutine139 & 0xFFFF
   \                     ??CrossCallReturnLabel_215:
   \   0000D6   85..82       MOV       DPL,?XSP + 0
   \   0000D9   85..83       MOV       DPH,?XSP + 1
   \   0000DC   EA           MOV       A,R2
   \   0000DD   F0           MOVX      @DPTR,A
   \   0000DE   A3           INC       DPTR
   \   0000DF   EB           MOV       A,R3
   \   0000E0   12....       LCALL     ?Subroutine25 & 0xFFFF
   \                     ??CrossCallReturnLabel_29:
   \   0000E3   E8           MOV       A,R0
   \   0000E4   49           ORL       A,R1
   \   0000E5   6016         JZ        ??ZDO_ProcessMatchDescReq_6
    919            {
    920              msg = ZDO_ConvertOTAClusters( numInClusters, msg, inClusters );
   \   0000E7                ; Setup parameters for call to function ZDO_ConvertOTAClusters
   \   0000E7   12....       LCALL     ?Subroutine108 & 0xFFFF
    921            }
   \                     ??CrossCallReturnLabel_355:
   \   0000EA   EE           MOV       A,R6
   \   0000EB   FA           MOV       R2,A
   \   0000EC   EF           MOV       A,R7
   \   0000ED   FB           MOV       R3,A
   \   0000EE   A9..         MOV       R1,?V3
   \   0000F0   12....       LCALL     `??ZDO_ConvertOTAClusters::?relay`; Banked call to: ZDO_ConvertOTAClusters
   \   0000F3   8A..         MOV       ?V4,R2
   \   0000F5   8B..         MOV       ?V5,R3
   \   0000F7   AE..         MOV       R6,?V4
   \   0000F9   AF..         MOV       R7,?V5
   \   0000FB   8003         SJMP      ??ZDO_ProcessMatchDescReq_7
    922            else
    923            {
    924              numInClusters = 0;
   \                     ??ZDO_ProcessMatchDescReq_6:
   \   0000FD   75..00       MOV       ?V3,#0x0
    925            }
    926          
    927            if ((numOutClusters = *msg++) &&
    928                (outClusters = (uint16 *)osal_mem_alloc( numOutClusters * sizeof( uint16 ) )))
   \                     ??ZDO_ProcessMatchDescReq_7:
   \   000100   12....       LCALL     ?Subroutine120 & 0xFFFF
   \                     ??CrossCallReturnLabel_186:
   \   000103   601A         JZ        ??ZDO_ProcessMatchDescReq_8
   \   000105                ; Setup parameters for call to function osal_mem_alloc
   \   000105   12....       LCALL     ?Subroutine139 & 0xFFFF
   \                     ??CrossCallReturnLabel_216:
   \   000108   8A..         MOV       ?V14,R2
   \   00010A   8B..         MOV       ?V15,R3
   \   00010C   EA           MOV       A,R2
   \   00010D   4B           ORL       A,R3
   \   00010E   600F         JZ        ??ZDO_ProcessMatchDescReq_8
    929            {
    930              msg = ZDO_ConvertOTAClusters( numOutClusters, msg, outClusters );
   \   000110                ; Setup parameters for call to function ZDO_ConvertOTAClusters
   \   000110   AC..         MOV       R4,?V14
   \   000112   AD..         MOV       R5,?V15
   \   000114   EE           MOV       A,R6
   \   000115   FA           MOV       R2,A
   \   000116   EF           MOV       A,R7
   \   000117   FB           MOV       R3,A
   \   000118   A9..         MOV       R1,?V2
   \   00011A   12....       LCALL     `??ZDO_ConvertOTAClusters::?relay`; Banked call to: ZDO_ConvertOTAClusters
   \   00011D   8003         SJMP      ??ZDO_ProcessMatchDescReq_9
    931            }
    932            else
    933            {
    934              numOutClusters = 0;
   \                     ??ZDO_ProcessMatchDescReq_8:
   \   00011F   75..00       MOV       ?V2,#0x0
    935            }
    936          
    937            // First count the number of endpoints that match.
    938            epDesc = epList;
   \                     ??ZDO_ProcessMatchDescReq_9:
   \   000122   90....       MOV       DPTR,#epList
   \   000125   8050         SJMP      ??ZDO_ProcessMatchDescReq_10
    939            while ( epDesc )
    940            {
    941              // Don't search endpoint 0 and check if response is allowed
    942              if ( epDesc->epDesc->endPoint != ZDO_EP && (epDesc->flags&eEP_AllowMatch) )
    943              {
    944                if ( epDesc->pfnDescCB )
    945                {
    946                  sDesc = (SimpleDescriptionFormat_t *)epDesc->pfnDescCB( AF_DESCRIPTOR_SIMPLE, epDesc->epDesc->endPoint );
    947                  allocated = TRUE;
    948                }
    949                else
    950                {
    951                  sDesc = epDesc->epDesc->simpleDesc;
    952                  allocated = FALSE;
    953                }
    954          
    955                // Allow specific ProfileId or Wildcard ProfileID
    956                if ( sDesc && ( ( sDesc->AppProfId == profileID ) || ( profileID == ZDO_WILDCARD_PROFILE_ID ) ) )
    957                {
    958                  uint8 *uint8Buf = (uint8 *)ZDOBuildBuf;
    959          
    960                  // Are there matching input clusters?
    961                  if ((ZDO_AnyClusterMatches( numInClusters, inClusters,
    962                             sDesc->AppNumInClusters, sDesc->pAppInClusterList )) ||
    963                      // Are there matching output clusters?
    964                      (ZDO_AnyClusterMatches( numOutClusters, outClusters,
    965                             sDesc->AppNumOutClusters, sDesc->pAppOutClusterList )))
    966                  {
    967                    // Notify the endpoint of the match.
    968                    uint8 bufLen = sizeof( ZDO_MatchDescRspSent_t ) + (numOutClusters + numInClusters) * sizeof(uint16);
    969                    ZDO_MatchDescRspSent_t *pRspSent = (ZDO_MatchDescRspSent_t *) osal_msg_allocate( bufLen );
    970          
    971                    if (pRspSent)
    972                    {
    973                      pRspSent->hdr.event = ZDO_MATCH_DESC_RSP_SENT;
    974                      pRspSent->nwkAddr = inMsg->srcAddr.addr.shortAddr;
    975                      pRspSent->numInClusters = numInClusters;
    976                      pRspSent->numOutClusters = numOutClusters;
    977          
    978                      if (numInClusters)
    979                      {
    980                        pRspSent->pInClusters = (uint16*) (pRspSent + 1);
    981                        osal_memcpy(pRspSent->pInClusters, inClusters, numInClusters * sizeof(uint16));
    982                      }
    983                      else
    984                      {
    985                        pRspSent->pInClusters = NULL;
    986                      }
    987          
    988                      if (numOutClusters)
    989                      {
    990                        pRspSent->pOutClusters = (uint16*)(pRspSent + 1) + numInClusters;
    991                        osal_memcpy(pRspSent->pOutClusters, outClusters, numOutClusters * sizeof(uint16));
    992                      }
    993                      else
    994                      {
    995                        pRspSent->pOutClusters = NULL;
   \                     ??ZDO_ProcessMatchDescReq_11:
   \   000127   8E82         MOV       DPL,R6
   \   000129   8F83         MOV       DPH,R7
   \   00012B   A3           INC       DPTR
   \   00012C   A3           INC       DPTR
   \   00012D   A3           INC       DPTR
   \   00012E   A3           INC       DPTR
   \   00012F   A3           INC       DPTR
   \   000130   A3           INC       DPTR
   \   000131   A3           INC       DPTR
   \   000132   A3           INC       DPTR
   \   000133   E4           CLR       A
   \   000134   F0           MOVX      @DPTR,A
   \   000135   A3           INC       DPTR
   \   000136   F0           MOVX      @DPTR,A
    996                      }
    997          
    998                      osal_msg_send( *epDesc->epDesc->task_id, (uint8 *)pRspSent );
   \                     ??ZDO_ProcessMatchDescReq_12:
   \   000137                ; Setup parameters for call to function osal_msg_send
   \   000137   EE           MOV       A,R6
   \   000138   FA           MOV       R2,A
   \   000139   EF           MOV       A,R7
   \   00013A   FB           MOV       R3,A
   \   00013B   85..82       MOV       DPL,?V12
   \   00013E   85..83       MOV       DPH,?V13
   \   000141   A3           INC       DPTR
   \   000142   A3           INC       DPTR
   \   000143   E0           MOVX      A,@DPTR
   \   000144   F8           MOV       R0,A
   \   000145   12....       LCALL     ?Subroutine63 & 0xFFFF
   \                     ??CrossCallReturnLabel_420:
   \   000148   F9           MOV       R1,A
   \   000149   12....       LCALL     `??osal_msg_send::?relay`; Banked call to: osal_msg_send
    999                    }
   1000          
   1001                    uint8Buf[epCnt++] = sDesc->EndPoint;
   \                     ??ZDO_ProcessMatchDescReq_13:
   \   00014C   85..82       MOV       DPL,?V10
   \   00014F   85..83       MOV       DPH,?V11
   \   000152   E0           MOVX      A,@DPTR
   \   000153   C0E0         PUSH      A
   \   000155   A8..         MOV       R0,?V7
   \   000157   74..         MOV       A,#ZDOBuildBuf & 0xff
   \   000159   28           ADD       A,R0
   \   00015A   F582         MOV       DPL,A
   \   00015C   E4           CLR       A
   \   00015D   34..         ADDC      A,#(ZDOBuildBuf >> 8) & 0xff
   \   00015F   F583         MOV       DPH,A
   \   000161   D0E0         POP       A
   \   000163   F0           MOVX      @DPTR,A
   \   000164   05..         INC       ?V7
   1002                  }
   1003                }
   1004          
   1005                if ( allocated )
   \                     ??ZDO_ProcessMatchDescReq_14:
   \   000166   A2..         MOV       C,?VB.0
   \   000168   5007         JNC       ??ZDO_ProcessMatchDescReq_15
   1006                {
   1007                  osal_mem_free( sDesc );
   \   00016A                ; Setup parameters for call to function osal_mem_free
   \   00016A   AA..         MOV       R2,?V10
   \   00016C   AB..         MOV       R3,?V11
   \   00016E   12....       LCALL     `??osal_mem_free::?relay`; Banked call to: osal_mem_free
   1008                }
   1009              }
   1010              epDesc = epDesc->nextDesc;
   \                     ??ZDO_ProcessMatchDescReq_15:
   \   000171   85..82       MOV       DPL,?V12
   \   000174   85..83       MOV       DPH,?V13
   \                     ??ZDO_ProcessMatchDescReq_10:
   \   000177   E0           MOVX      A,@DPTR
   \   000178   F5..         MOV       ?V12,A
   \   00017A   A3           INC       DPTR
   \   00017B   E0           MOVX      A,@DPTR
   \   00017C   F5..         MOV       ?V13,A
   \   00017E   E5..         MOV       A,?V12
   \   000180   45..         ORL       A,?V13
   \   000182   7003         JNZ       $+5
   \   000184   02....       LJMP      ??ZDO_ProcessMatchDescReq_16 & 0xFFFF
   \   000187   85..82       MOV       DPL,?V12
   \   00018A   85..83       MOV       DPH,?V13
   \   00018D   12....       LCALL     ??Subroutine242_0 & 0xFFFF
   \                     ??CrossCallReturnLabel_418:
   \   000190   60DF         JZ        ??ZDO_ProcessMatchDescReq_15
   \   000192   85..82       MOV       DPL,?V12
   \   000195   85..83       MOV       DPH,?V13
   \   000198   A3           INC       DPTR
   \   000199   A3           INC       DPTR
   \   00019A   A3           INC       DPTR
   \   00019B   A3           INC       DPTR
   \   00019C   A3           INC       DPTR
   \   00019D   A3           INC       DPTR
   \   00019E   A3           INC       DPTR
   \   00019F   A3           INC       DPTR
   \   0001A0   E0           MOVX      A,@DPTR
   \   0001A1   A2E0         MOV       C,0xE0 /* A   */.0
   \   0001A3   50CC         JNC       ??ZDO_ProcessMatchDescReq_15
   \   0001A5   85..82       MOV       DPL,?V12
   \   0001A8   85..83       MOV       DPH,?V13
   \   0001AB   A3           INC       DPTR
   \   0001AC   A3           INC       DPTR
   \   0001AD   A3           INC       DPTR
   \   0001AE   A3           INC       DPTR
   \   0001AF   12....       LCALL     ??Subroutine250_0 & 0xFFFF
   \                     ??CrossCallReturnLabel_458:
   \   0001B2   85..82       MOV       DPL,?V12
   \   0001B5   85..83       MOV       DPH,?V13
   \   0001B8   A3           INC       DPTR
   \   0001B9   A3           INC       DPTR
   \   0001BA   601E         JZ        ??ZDO_ProcessMatchDescReq_17
   \   0001BC                ; Setup parameters for indirect call
   \   0001BC   12....       LCALL     ??Subroutine243_0 & 0xFFFF
   \                     ??CrossCallReturnLabel_412:
   \   0001BF   FA           MOV       R2,A
   \   0001C0   7901         MOV       R1,#0x1
   \   0001C2   85..82       MOV       DPL,?V12
   \   0001C5   85..83       MOV       DPH,?V13
   \   0001C8   A3           INC       DPTR
   \   0001C9   A3           INC       DPTR
   \   0001CA   A3           INC       DPTR
   \   0001CB   A3           INC       DPTR
   \   0001CC   12....       LCALL     ?Subroutine119 & 0xFFFF
   \                     ??CrossCallReturnLabel_184:
   \   0001CF   12....       LCALL     ?CALL_IND
   \   0001D2   8A..         MOV       ?V10,R2
   \   0001D4   8B..         MOV       ?V11,R3
   \   0001D6   D2..         SETB      ?VB.0
   \   0001D8   8010         SJMP      ??ZDO_ProcessMatchDescReq_18
   \                     ??ZDO_ProcessMatchDescReq_17:
   \   0001DA   12....       LCALL     ?Subroutine119 & 0xFFFF
   \                     ??CrossCallReturnLabel_185:
   \   0001DD   A3           INC       DPTR
   \   0001DE   A3           INC       DPTR
   \   0001DF   A3           INC       DPTR
   \   0001E0   A3           INC       DPTR
   \   0001E1   E0           MOVX      A,@DPTR
   \   0001E2   F5..         MOV       ?V10,A
   \   0001E4   A3           INC       DPTR
   \   0001E5   E0           MOVX      A,@DPTR
   \   0001E6   F5..         MOV       ?V11,A
   \   0001E8   C2..         CLR       ?VB.0
   \                     ??ZDO_ProcessMatchDescReq_18:
   \   0001EA   E5..         MOV       A,?V10
   \   0001EC   45..         ORL       A,?V11
   \   0001EE   7003         JNZ       $+5
   \   0001F0   02....       LJMP      ??ZDO_ProcessMatchDescReq_14 & 0xFFFF
   \   0001F3   85..82       MOV       DPL,?V10
   \   0001F6   85..83       MOV       DPH,?V11
   \   0001F9   A3           INC       DPTR
   \   0001FA   E0           MOVX      A,@DPTR
   \   0001FB   65..         XRL       A,?V0
   \   0001FD   7004         JNZ       ??ZDO_ProcessMatchDescReq_19
   \   0001FF   A3           INC       DPTR
   \   000200   E0           MOVX      A,@DPTR
   \   000201   65..         XRL       A,?V1
   \                     ??ZDO_ProcessMatchDescReq_19:
   \   000203   600F         JZ        ??ZDO_ProcessMatchDescReq_20
   \   000205   74FF         MOV       A,#-0x1
   \   000207   65..         XRL       A,?V0
   \   000209   7004         JNZ       ??ZDO_ProcessMatchDescReq_21
   \   00020B   74FF         MOV       A,#-0x1
   \   00020D   65..         XRL       A,?V1
   \                     ??ZDO_ProcessMatchDescReq_21:
   \   00020F   6003         JZ        $+5
   \   000211   02....       LJMP      ??ZDO_ProcessMatchDescReq_14 & 0xFFFF
   \                     ??ZDO_ProcessMatchDescReq_20:
   \   000214                ; Setup parameters for call to function ZDO_AnyClusterMatches
   \   000214   85..82       MOV       DPL,?V10
   \   000217   85..83       MOV       DPH,?V11
   \   00021A   A3           INC       DPTR
   \   00021B   A3           INC       DPTR
   \   00021C   A3           INC       DPTR
   \   00021D   A3           INC       DPTR
   \   00021E   A3           INC       DPTR
   \   00021F   A3           INC       DPTR
   \   000220   A3           INC       DPTR
   \   000221   12....       LCALL     ?PUSH_XSTACK8_X_TWO
   \   000224   85..82       MOV       DPL,?V10
   \   000227   85..83       MOV       DPH,?V11
   \   00022A   A3           INC       DPTR
   \   00022B   A3           INC       DPTR
   \   00022C   A3           INC       DPTR
   \   00022D   A3           INC       DPTR
   \   00022E   A3           INC       DPTR
   \   00022F   A3           INC       DPTR
   \   000230   E0           MOVX      A,@DPTR
   \   000231   FC           MOV       R4,A
   \   000232   7402         MOV       A,#0x2
   \   000234   12....       LCALL     ?XSTACK_DISP0_8
   \   000237   12....       LCALL     ??Subroutine245_0 & 0xFFFF
   \                     ??CrossCallReturnLabel_432:
   \   00023A   A9..         MOV       R1,?V3
   \   00023C   12....       LCALL     `??ZDO_AnyClusterMatches::?relay`; Banked call to: ZDO_AnyClusterMatches
   \   00023F   7402         MOV       A,#0x2
   \   000241   12....       LCALL     ?DEALLOC_XSTACK8
   \   000244   E9           MOV       A,R1
   \   000245   7038         JNZ       ??ZDO_ProcessMatchDescReq_22
   \   000247                ; Setup parameters for call to function ZDO_AnyClusterMatches
   \   000247   85..82       MOV       DPL,?V10
   \   00024A   85..83       MOV       DPH,?V11
   \   00024D   A3           INC       DPTR
   \   00024E   A3           INC       DPTR
   \   00024F   A3           INC       DPTR
   \   000250   A3           INC       DPTR
   \   000251   A3           INC       DPTR
   \   000252   A3           INC       DPTR
   \   000253   A3           INC       DPTR
   \   000254   A3           INC       DPTR
   \   000255   A3           INC       DPTR
   \   000256   A3           INC       DPTR
   \   000257   12....       LCALL     ?PUSH_XSTACK8_X_TWO
   \   00025A   85..82       MOV       DPL,?V10
   \   00025D   85..83       MOV       DPH,?V11
   \   000260   A3           INC       DPTR
   \   000261   A3           INC       DPTR
   \   000262   A3           INC       DPTR
   \   000263   A3           INC       DPTR
   \   000264   A3           INC       DPTR
   \   000265   A3           INC       DPTR
   \   000266   A3           INC       DPTR
   \   000267   A3           INC       DPTR
   \   000268   A3           INC       DPTR
   \   000269   E0           MOVX      A,@DPTR
   \   00026A   FC           MOV       R4,A
   \   00026B   AA..         MOV       R2,?V14
   \   00026D   AB..         MOV       R3,?V15
   \   00026F   A9..         MOV       R1,?V2
   \   000271   12....       LCALL     `??ZDO_AnyClusterMatches::?relay`; Banked call to: ZDO_AnyClusterMatches
   \   000274   7402         MOV       A,#0x2
   \   000276   12....       LCALL     ?DEALLOC_XSTACK8
   \   000279   E9           MOV       A,R1
   \   00027A   7003         JNZ       $+5
   \   00027C   02....       LJMP      ??ZDO_ProcessMatchDescReq_14 & 0xFFFF
   \                     ??ZDO_ProcessMatchDescReq_22:
   \   00027F                ; Setup parameters for call to function osal_msg_allocate
   \   00027F   E5..         MOV       A,?V2
   \   000281   25..         ADD       A,?V3
   \   000283   C3           CLR       C
   \   000284   33           RLC       A
   \   000285   240A         ADD       A,#0xa
   \   000287   FA           MOV       R2,A
   \   000288   7B00         MOV       R3,#0x0
   \   00028A   12....       LCALL     `??osal_msg_allocate::?relay`; Banked call to: osal_msg_allocate
   \   00028D   8A..         MOV       ?V4,R2
   \   00028F   8B..         MOV       ?V5,R3
   \   000291   AE..         MOV       R6,?V4
   \   000293   AF..         MOV       R7,?V5
   \   000295   EA           MOV       A,R2
   \   000296   4F           ORL       A,R7
   \   000297   7003         JNZ       $+5
   \   000299   02....       LJMP      ??ZDO_ProcessMatchDescReq_13 & 0xFFFF
   \   00029C   8A82         MOV       DPL,R2
   \   00029E   8B83         MOV       DPH,R3
   \   0002A0   74D2         MOV       A,#-0x2e
   \   0002A2   12....       LCALL     ?Subroutine21 & 0xFFFF
   \                     ??CrossCallReturnLabel_20:
   \   0002A5   8A82         MOV       DPL,R2
   \   0002A7   8B83         MOV       DPH,R3
   \   0002A9   A3           INC       DPTR
   \   0002AA   A3           INC       DPTR
   \   0002AB   12....       LCALL     ?Subroutine41 & 0xFFFF
   \                     ??CrossCallReturnLabel_62:
   \   0002AE   A3           INC       DPTR
   \   0002AF   A3           INC       DPTR
   \   0002B0   A3           INC       DPTR
   \   0002B1   E5..         MOV       A,?V3
   \   0002B3   12....       LCALL     ?Subroutine18 & 0xFFFF
   \                     ??CrossCallReturnLabel_15:
   \   0002B6   E5..         MOV       A,?V3
   \   0002B8   6033         JZ        ??ZDO_ProcessMatchDescReq_23
   \   0002BA   EA           MOV       A,R2
   \   0002BB   240A         ADD       A,#0xa
   \   0002BD   FA           MOV       R2,A
   \   0002BE   E4           CLR       A
   \   0002BF   3F           ADDC      A,R7
   \   0002C0   FB           MOV       R3,A
   \   0002C1   8E82         MOV       DPL,R6
   \   0002C3   8F83         MOV       DPH,R7
   \   0002C5   12....       LCALL     ?Subroutine47 & 0xFFFF
   \                     ??CrossCallReturnLabel_362:
   \   0002C8                ; Setup parameters for call to function osal_memcpy
   \   0002C8   85..82       MOV       DPL,?XSP + 0
   \   0002CB   85..83       MOV       DPH,?XSP + 1
   \   0002CE   E0           MOVX      A,@DPTR
   \   0002CF   F5..         MOV       ?V4,A
   \   0002D1   A3           INC       DPTR
   \   0002D2   E0           MOVX      A,@DPTR
   \   0002D3   F5..         MOV       ?V5,A
   \   0002D5   75..00       MOV       ?V6,#0x0
   \   0002D8   78..         MOV       R0,#?V4
   \   0002DA   12....       LCALL     ?PUSH_XSTACK_I_THREE
   \   0002DD   AC..         MOV       R4,?V3
   \   0002DF   EC           MOV       A,R4
   \   0002E0   2C           ADD       A,R4
   \   0002E1   FC           MOV       R4,A
   \   0002E2   E4           CLR       A
   \   0002E3   33           RLC       A
   \   0002E4   FD           MOV       R5,A
   \   0002E5   12....       LCALL     ??Subroutine296_0 & 0xFFFF
   \                     ??CrossCallReturnLabel_722:
   \   0002E8   12....       LCALL     ?DEALLOC_XSTACK8
   \   0002EB   800D         SJMP      ??ZDO_ProcessMatchDescReq_24
   \                     ??ZDO_ProcessMatchDescReq_23:
   \   0002ED   8A82         MOV       DPL,R2
   \   0002EF   8B83         MOV       DPH,R3
   \   0002F1   A3           INC       DPTR
   \   0002F2   A3           INC       DPTR
   \   0002F3   A3           INC       DPTR
   \   0002F4   A3           INC       DPTR
   \   0002F5   A3           INC       DPTR
   \   0002F6   E4           CLR       A
   \   0002F7   F0           MOVX      @DPTR,A
   \   0002F8   A3           INC       DPTR
   \   0002F9   F0           MOVX      @DPTR,A
   \                     ??ZDO_ProcessMatchDescReq_24:
   \   0002FA   E5..         MOV       A,?V2
   \   0002FC   7003         JNZ       $+5
   \   0002FE   02....       LJMP      ??ZDO_ProcessMatchDescReq_11 & 0xFFFF
   \   000301   A8..         MOV       R0,?V3
   \   000303   E8           MOV       A,R0
   \   000304   28           ADD       A,R0
   \   000305   F8           MOV       R0,A
   \   000306   E4           CLR       A
   \   000307   33           RLC       A
   \   000308   F9           MOV       R1,A
   \   000309   EE           MOV       A,R6
   \   00030A   28           ADD       A,R0
   \   00030B   F8           MOV       R0,A
   \   00030C   EF           MOV       A,R7
   \   00030D   39           ADDC      A,R1
   \   00030E   F9           MOV       R1,A
   \   00030F   E8           MOV       A,R0
   \   000310   240A         ADD       A,#0xa
   \   000312   FA           MOV       R2,A
   \   000313   E4           CLR       A
   \   000314   39           ADDC      A,R1
   \   000315   FB           MOV       R3,A
   \   000316   8E82         MOV       DPL,R6
   \   000318   8F83         MOV       DPH,R7
   \   00031A   A3           INC       DPTR
   \   00031B   A3           INC       DPTR
   \   00031C   A3           INC       DPTR
   \   00031D   12....       LCALL     ?Subroutine47 & 0xFFFF
   \                     ??CrossCallReturnLabel_363:
   \   000320                ; Setup parameters for call to function osal_memcpy
   \   000320   85....       MOV       ?V4,?V14
   \   000323   85....       MOV       ?V5,?V15
   \   000326   75..00       MOV       ?V6,#0x0
   \   000329   78..         MOV       R0,#?V4
   \   00032B   12....       LCALL     ?PUSH_XSTACK_I_THREE
   \   00032E   AC..         MOV       R4,?V2
   \   000330   EC           MOV       A,R4
   \   000331   2C           ADD       A,R4
   \   000332   FC           MOV       R4,A
   \   000333   E4           CLR       A
   \   000334   33           RLC       A
   \   000335   FD           MOV       R5,A
   \   000336   12....       LCALL     ??Subroutine296_0 & 0xFFFF
   1011            }
   \                     ??CrossCallReturnLabel_723:
   \   000339   12....       LCALL     ?DEALLOC_XSTACK8
   \   00033C   02....       LJMP      ??ZDO_ProcessMatchDescReq_12 & 0xFFFF
   1012          
   1013            if ( epCnt )
   \                     ??ZDO_ProcessMatchDescReq_16:
   \   00033F   E5..         MOV       A,?V7
   \   000341   6025         JZ        ??ZDO_ProcessMatchDescReq_25
   1014            {
   1015              // Send the message if at least one match found.
   1016              if ( ZSuccess == ZDP_MatchDescRsp( inMsg->TransSeq, &(inMsg->srcAddr), ZDP_SUCCESS,
   1017                        ZDAppNwkAddr.addr.shortAddr, epCnt, (uint8 *)ZDOBuildBuf, inMsg->SecurityUse ) )
   \   000343                ; Setup parameters for call to function ZDP_EPRsp
   \   000343   12....       LCALL     ?Subroutine78 & 0xFFFF
   1018              {
   1019          #if defined( LCD_SUPPORTED )
   1020                HalLcdWriteScreen( "Match Desc Req", "Rsp Sent" );
   1021          #endif
   1022              }
   1023            }
   \                     ??CrossCallReturnLabel_558:
   \   000346   12....       LCALL     ?PUSH_XSTACK_I_ONE
   \   000349   75....       MOV       ?V0,#ZDOBuildBuf & 0xff
   \   00034C   75....       MOV       ?V1,#(ZDOBuildBuf >> 8) & 0xff
   \   00034F   78..         MOV       R0,#?V0
   \   000351   12....       LCALL     ?PUSH_XSTACK_I_TWO
   \   000354   E5..         MOV       A,?V7
   \   000356   F5..         MOV       ?V0,A
   \   000358   78..         MOV       R0,#?V0
   \   00035A   12....       LCALL     ?PUSH_XSTACK_I_ONE
   \   00035D   90....       MOV       DPTR,#ZDAppNwkAddr
   \   000360   12....       LCALL     ?PUSH_XSTACK8_X_TWO
   \   000363   75..00       MOV       ?V0,#0x0
   \   000366   802D         SJMP      ??ZDO_ProcessMatchDescReq_26
   1024            else
   1025            {
   1026              if (!inMsg->wasBroadcast)
   \                     ??ZDO_ProcessMatchDescReq_25:
   \   000368   E5..         MOV       A,?V8
   \   00036A   240B         ADD       A,#0xb
   \   00036C   F582         MOV       DPL,A
   \   00036E   E4           CLR       A
   \   00036F   35..         ADDC      A,?V9
   \   000371   F583         MOV       DPH,A
   \   000373   E0           MOVX      A,@DPTR
   \   000374   702A         JNZ       ??ZDO_ProcessMatchDescReq_27
   1027              {
   1028                // send response message with match length = 0
   1029                ZDP_MatchDescRsp( inMsg->TransSeq, &(inMsg->srcAddr), ZDP_SUCCESS,
   1030                                  ZDAppNwkAddr.addr.shortAddr, 0, (uint8 *)ZDOBuildBuf, inMsg->SecurityUse );
   \   000376                ; Setup parameters for call to function ZDP_EPRsp
   \   000376   12....       LCALL     ?Subroutine78 & 0xFFFF
   1031          #if defined( LCD_SUPPORTED )
   1032                HalLcdWriteScreen( "Match Desc Req", "Rsp Non Matched" );
   1033          #endif
   1034              }
   1035              else
   1036              {
   1037                // no response mesage for broadcast message
   1038          #if defined( LCD_SUPPORTED )
   1039                HalLcdWriteScreen( "Match Desc Req", "Non Matched" );
   1040          #endif
   1041              }
   1042            }
   \                     ??CrossCallReturnLabel_559:
   \   000379   12....       LCALL     ?PUSH_XSTACK_I_ONE
   \   00037C   75....       MOV       ?V0,#ZDOBuildBuf & 0xff
   \   00037F   75....       MOV       ?V1,#(ZDOBuildBuf >> 8) & 0xff
   \   000382   78..         MOV       R0,#?V0
   \   000384   12....       LCALL     ?PUSH_XSTACK_I_TWO
   \   000387   75..00       MOV       ?V0,#0x0
   \   00038A   78..         MOV       R0,#?V0
   \   00038C   12....       LCALL     ?PUSH_XSTACK_I_ONE
   \   00038F   90....       MOV       DPTR,#ZDAppNwkAddr
   \   000392   12....       LCALL     ?PUSH_XSTACK8_X_TWO
   \                     ??ZDO_ProcessMatchDescReq_26:
   \   000395   78..         MOV       R0,#?V0
   \   000397   12....       LCALL     ?PUSH_XSTACK_I_ONE
   \   00039A   12....       LCALL     ?Subroutine71 & 0xFFFF
   \                     ??CrossCallReturnLabel_112:
   \   00039D   12....       LCALL     ?DEALLOC_XSTACK8
   1043          
   1044            if ( inClusters != NULL )
   \                     ??ZDO_ProcessMatchDescReq_27:
   \   0003A0   85..82       MOV       DPL,?XSP + 0
   \   0003A3   85..83       MOV       DPH,?XSP + 1
   \   0003A6   12....       LCALL     ??Subroutine250_0 & 0xFFFF
   \                     ??CrossCallReturnLabel_459:
   \   0003A9   6009         JZ        ??CrossCallReturnLabel_532
   1045            {
   1046              osal_mem_free( inClusters );
   \   0003AB                ; Setup parameters for call to function osal_mem_free
   \   0003AB   85..82       MOV       DPL,?XSP + 0
   \   0003AE   85..83       MOV       DPH,?XSP + 1
   \   0003B1   12....       LCALL     ??Subroutine264_0 & 0xFFFF
   1047            }
   1048          
   1049            if ( outClusters != NULL )
   \                     ??CrossCallReturnLabel_532:
   \   0003B4   E5..         MOV       A,?V14
   \   0003B6   45..         ORL       A,?V15
   \   0003B8   6007         JZ        ??ZDO_ProcessMatchDescReq_1
   1050            {
   1051              osal_mem_free( outClusters );
   \   0003BA                ; Setup parameters for call to function osal_mem_free
   \   0003BA   AA..         MOV       R2,?V14
   \   0003BC   AB..         MOV       R3,?V15
   \   0003BE   12....       LCALL     `??osal_mem_free::?relay`; Banked call to: osal_mem_free
   1052            }
   1053          }
   \                     ??ZDO_ProcessMatchDescReq_1:
   \   0003C1   7402         MOV       A,#0x2
   \   0003C3   12....       LCALL     ?DEALLOC_XSTACK8
   \   0003C6   7F10         MOV       R7,#0x10
   \   0003C8   02....       LJMP      ?BANKED_LEAVE_XDATA

   \                                 In  segment BANKED_CODE, align 1, keep-with-next
   \                     ?Subroutine119:
   \   000000   12....       LCALL     ?Subroutine194 & 0xFFFF
   \                     ??CrossCallReturnLabel_423:
   \   000003   22           RET

   \                                 In  segment BANKED_CODE, align 1, keep-with-next
   \                     ?Subroutine71:
   \   000000   E5..         MOV       A,?V8
   \   000002   2402         ADD       A,#0x2
   \   000004   FC           MOV       R4,A
   \   000005   E4           CLR       A
   \   000006   35..         ADDC      A,?V9
   \   000008   FD           MOV       R5,A
   \   000009   E5..         MOV       A,?V8
   \   00000B   12....       LCALL     ?Subroutine218 & 0xFFFF
   \                     ??CrossCallReturnLabel_346:
   \   00000E   35..         ADDC      A,?V9
   \   000010   F583         MOV       DPH,A
   \   000012   E0           MOVX      A,@DPTR
   \   000013   F9           MOV       R1,A
   \   000014   7A06         MOV       R2,#0x6
   \   000016   7B80         MOV       R3,#-0x80
   \   000018   12....       LCALL     `??ZDP_EPRsp::?relay`; Banked call to: ZDP_EPRsp
   \   00001B   7407         MOV       A,#0x7
   \   00001D   22           RET

   \                                 In  segment BANKED_CODE, align 1, keep-with-next
   \                     ?Subroutine47:
   \   000000   A3           INC       DPTR
   \   000001   A3           INC       DPTR
   \   000002   A3           INC       DPTR
   \   000003   A3           INC       DPTR
   \   000004   A3           INC       DPTR
   \   000005                REQUIRE ??Subroutine230_0
   \   000005                ; // Fall through to label ??Subroutine230_0

   \                                 In  segment BANKED_CODE, align 1, keep-with-next
   \                     ?Subroutine144:
   \   000000   EA           MOV       A,R2
   \   000001                REQUIRE ??Subroutine240_0
   \   000001                ; // Fall through to label ??Subroutine240_0

   \                                 In  segment BANKED_CODE, align 1, keep-with-next
   \                     ??Subroutine240_0:
   \   000000   12....       LCALL     ??Subroutine287_0 & 0xFFFF
   \                     ??CrossCallReturnLabel_695:
   \   000003   22           RET

   \                                 In  segment BANKED_CODE, align 1, keep-with-next
   \                     ?Subroutine25:
   \   000000   F0           MOVX      @DPTR,A
   \   000001   85..82       MOV       DPL,?XSP + 0
   \   000004   85..83       MOV       DPH,?XSP + 1
   \   000007   12....       LCALL     ??Subroutine278_0 & 0xFFFF
   \                     ??CrossCallReturnLabel_602:
   \   00000A   22           RET

   \                                 In  segment BANKED_CODE, align 1, keep-with-next
   \                     ?Subroutine21:
   \   000000   F0           MOVX      @DPTR,A
   \   000001   85..82       MOV       DPL,?V8
   \   000004   85..83       MOV       DPH,?V9
   \   000007   A3           INC       DPTR
   \   000008   12....       LCALL     ?Subroutine192 & 0xFFFF
   \                     ??CrossCallReturnLabel_606:
   \   00000B   22           RET

   \                                 In  segment BANKED_CODE, align 1, keep-with-next
   \                     ?Subroutine41:
   \   000000   E8           MOV       A,R0
   \   000001   F0           MOVX      @DPTR,A
   \   000002   A3           INC       DPTR
   \   000003   E9           MOV       A,R1
   \   000004   12....       LCALL     ?Subroutine171 & 0xFFFF
   \                     ??CrossCallReturnLabel_675:
   \   000007   22           RET

   \                                 In  segment BANKED_CODE, align 1, keep-with-next
   \                     ?Subroutine78:
   \   000000   E5..         MOV       A,?V8
   \   000002   240E         ADD       A,#0xe
   \   000004   F582         MOV       DPL,A
   \   000006   E4           CLR       A
   \   000007   35..         ADDC      A,?V9
   \   000009                REQUIRE ??Subroutine269_0
   \   000009                ; // Fall through to label ??Subroutine269_0

   \                                 In  segment BANKED_CODE, align 1, keep-with-next
   \                     ??Subroutine269_0:
   \   000000   F583         MOV       DPH,A
   \   000002                REQUIRE ??Subroutine270_0
   \   000002                ; // Fall through to label ??Subroutine270_0

   \                                 In  segment BANKED_CODE, align 1, keep-with-next
   \                     ??Subroutine270_0:
   \   000000   E0           MOVX      A,@DPTR
   \   000001   F5..         MOV       ?V0,A
   \   000003   78..         MOV       R0,#?V0
   \   000005   22           RET

   \                                 In  segment BANKED_CODE, align 1, keep-with-next
   \                     ?Subroutine192:
   \   000000   A3           INC       DPTR
   \   000001                REQUIRE ??Subroutine278_0
   \   000001                ; // Fall through to label ??Subroutine278_0

   \                                 In  segment BANKED_CODE, align 1, keep-with-next
   \                     ?Subroutine105:
   \   000000   12....       LCALL     ?Subroutine195 & 0xFFFF
   \                     ??CrossCallReturnLabel_684:
   \   000003   FF           MOV       R7,A
   \   000004   8E82         MOV       DPL,R6
   \   000006   F583         MOV       DPH,A
   \   000008   22           RET

   \                                 In  segment BANKED_CODE, align 1, keep-with-next
   \                     ?Subroutine171:
   \   000000   F0           MOVX      @DPTR,A
   \   000001                ; Setup parameters for call to function ZDP_SendData
   \   000001   8A82         MOV       DPL,R2
   \   000003   8B83         MOV       DPH,R3
   \   000005   A3           INC       DPTR
   \   000006   22           RET

   \                                 In  segment BANKED_CODE, align 1, keep-with-next
   \                     ?Subroutine195:
   \   000000   F583         MOV       DPH,A
   \   000002                REQUIRE ??Subroutine285_0
   \   000002                ; // Fall through to label ??Subroutine285_0

   \                                 In  segment BANKED_CODE, align 1, keep-with-next
   \                     ?Subroutine169:
   \   000000   F0           MOVX      @DPTR,A
   \   000001   8A82         MOV       DPL,R2
   \   000003   8B83         MOV       DPH,R3
   \   000005   A3           INC       DPTR
   \   000006   A3           INC       DPTR
   \   000007   A3           INC       DPTR
   \   000008   22           RET

   \                                 In  segment BANKED_CODE, align 1, keep-with-next
   \                     ?Subroutine139:
   \   000000   12....       LCALL     ?Subroutine198 & 0xFFFF
   \                     ??CrossCallReturnLabel_315:
   \   000003   22           RET

   \                                 In  segment BANKED_CODE, align 1, keep-with-next
   \                     ?Subroutine198:
   \   000000   25E0         ADD       A,0xE0 /* A   */
   \   000002   FA           MOV       R2,A
   \   000003   E4           CLR       A
   \   000004   33           RLC       A
   \   000005   FB           MOV       R3,A
   \   000006   12....       LCALL     `??osal_mem_alloc::?relay`; Banked call to: osal_mem_alloc
   \   000009   22           RET

   \                                 In  segment BANKED_CODE, align 1, keep-with-next
   \                     ?Subroutine120:
   \   000000   8E82         MOV       DPL,R6
   \   000002   8F83         MOV       DPH,R7
   \   000004   E0           MOVX      A,@DPTR
   \   000005   F5..         MOV       ?V2,A
   \   000007   A3           INC       DPTR
   \   000008   AE82         MOV       R6,DPL
   \   00000A   AF83         MOV       R7,DPH
   \   00000C   22           RET

   \                                 In  segment BANKED_CODE, align 1, keep-with-next
   \                     ??Subroutine296_0:
   \   000000   12....       LCALL     `??osal_memcpy::?relay`; Banked call to: osal_memcpy
   \   000003   7403         MOV       A,#0x3
   \   000005   22           RET

   \                                 In  segment BANKED_CODE, align 1, keep-with-next
   \                     ?Subroutine68:
   \   000000   12....       LCALL     ?Subroutine214 & 0xFFFF
   \                     ??CrossCallReturnLabel_344:
   \   000003   F5..         MOV       ?V2,A
   \   000005   E4           CLR       A
   \   000006   39           ADDC      A,R1
   \   000007   F5..         MOV       ?V3,A
   \   000009   8E82         MOV       DPL,R6
   \   00000B   8F83         MOV       DPH,R7
   \   00000D   A3           INC       DPTR
   \   00000E   A3           INC       DPTR
   \   00000F   E0           MOVX      A,@DPTR
   \   000010   22           RET

   \                                 In  segment BANKED_CODE, align 1, keep-with-next
   \                     ?Subroutine18:
   \   000000   12....       LCALL     ?Subroutine169 & 0xFFFF
   \                     ??CrossCallReturnLabel_276:
   \   000003   A3           INC       DPTR
   \   000004   A3           INC       DPTR
   \   000005   A3           INC       DPTR
   \   000006   A3           INC       DPTR
   \   000007   E5..         MOV       A,?V2
   \   000009   F0           MOVX      @DPTR,A
   \   00000A   22           RET
   1054          
   1055          #if defined ( REFLECTOR )
   1056          /*********************************************************************
   1057           * @fn      ZDO_ProcessBindUnbindReq()
   1058           *
   1059           * @brief   Called to process a Bind or Unbind Request message.
   1060           *
   1061           * @param   inMsg  - incoming message (request)
   1062           * @param   pReq - place to put parsed information
   1063           *
   1064           * @return  none
   1065           */

   \                                 In  segment BANKED_CODE, align 1, keep-with-next
   \                     ?Subroutine5:
   \   000000   12....       LCALL     ?DEALLOC_XSTACK8
   \   000003                REQUIRE ??Subroutine223_0
   \   000003                ; // Fall through to label ??Subroutine223_0

   \                                 In  segment BANKED_CODE, align 1, keep-with-next
   1066          void ZDO_ProcessBindUnbindReq( zdoIncomingMsg_t *inMsg, ZDO_BindUnbindReq_t *pReq )
   \                     ZDO_ProcessBindUnbindReq:
   1067          {
   \   000000                REQUIRE ?V0
   \   000000                REQUIRE ?V1
   \   000000                REQUIRE ?V2
   \   000000                REQUIRE ?V3
   \   000000   74F4         MOV       A,#-0xc
   \   000002   12....       LCALL     ?BANKED_ENTER_XDATA
   \   000005                ; Saved register size: 12
   \   000005                ; Auto size: 12
   \   000005   74F4         MOV       A,#-0xc
   \   000007   12....       LCALL     ?ALLOC_XSTACK8
   \   00000A   8A..         MOV       ?V0,R2
   \   00000C   8B..         MOV       ?V1,R3
   \   00000E   EC           MOV       A,R4
   \   00000F   FE           MOV       R6,A
   \   000010   ED           MOV       A,R5
   \   000011   FF           MOV       R7,A
   1068            zAddrType_t SourceAddr;       // Binding Source addres
   1069            byte bindStat;
   1070          
   1071            SourceAddr.addrMode = Addr64Bit;
   \   000012   740B         MOV       A,#0xb
   \   000014   12....       LCALL     ?XSTACK_DISP0_8
   \   000017   7403         MOV       A,#0x3
   \   000019   F0           MOVX      @DPTR,A
   1072            osal_cpyExtAddr( SourceAddr.addr.extAddr, pReq->srcAddress );
   \   00001A                ; Setup parameters for call to function sAddrExtCpy
   \   00001A   12....       LCALL     ?XSTACK_DISP101_8
   \   00001D   12....       LCALL     `??sAddrExtCpy::?relay`; Banked call to: sAddrExtCpy
   1073          
   1074            // If the local device is not the primary binding cache
   1075            // check the src address of the bind request.
   1076            // If it is not the local device's extended address
   1077            // discard the request.
   1078            if ( !osal_ExtAddrEqual( SourceAddr.addr.extAddr, NLME_GetExtAddr()) ||
   1079                  (pReq->dstAddress.addrMode != Addr64Bit &&
   1080                   pReq->dstAddress.addrMode != AddrGroup) )
   \   000020                ; Setup parameters for call to function NLME_GetExtAddr
   \   000020   12....       LCALL     ?Subroutine124 & 0xFFFF
   \                     ??CrossCallReturnLabel_194:
   \   000023                ; Setup parameters for call to function sAddrExtCmp
   \   000023   7403         MOV       A,#0x3
   \   000025   12....       LCALL     ?XSTACK_DISP101_8
   \   000028   12....       LCALL     `??sAddrExtCmp::?relay`; Banked call to: sAddrExtCmp
   \   00002B   E9           MOV       A,R1
   \   00002C   600A         JZ        ??ZDO_ProcessBindUnbindReq_0
   \   00002E   12....       LCALL     ?Subroutine130 & 0xFFFF
   \                     ??CrossCallReturnLabel_205:
   \   000031   6010         JZ        ??ZDO_ProcessBindUnbindReq_1
   \   000033   E0           MOVX      A,@DPTR
   \   000034   6401         XRL       A,#0x1
   \   000036   600B         JZ        ??ZDO_ProcessBindUnbindReq_1
   1081            {
   1082              bindStat = ZDP_NOT_SUPPORTED;
   \                     ??ZDO_ProcessBindUnbindReq_0:
   \   000038   85..82       MOV       DPL,?XSP + 0
   \   00003B   85..83       MOV       DPH,?XSP + 1
   \   00003E   7484         MOV       A,#-0x7c
   \   000040   02....       LJMP      ??ZDO_ProcessBindUnbindReq_2 & 0xFFFF
   1083            }
   1084            else
   1085            {
   1086              // Check source & destination endpoints
   1087              if ( (pReq->srcEndpoint == 0 || pReq->srcEndpoint > MAX_ENDPOINTS)
   1088                  || (( pReq->dstAddress.addrMode == Addr64Bit ) &&
   1089                      (pReq->dstEndpoint == 0 || pReq->dstEndpoint > MAX_ENDPOINTS)) )
   \                     ??ZDO_ProcessBindUnbindReq_1:
   \   000043   8E82         MOV       DPL,R6
   \   000045   8F83         MOV       DPH,R7
   \   000047   A3           INC       DPTR
   \   000048   A3           INC       DPTR
   \   000049   A3           INC       DPTR
   \   00004A   A3           INC       DPTR
   \   00004B   A3           INC       DPTR
   \   00004C   A3           INC       DPTR
   \   00004D   A3           INC       DPTR
   \   00004E   A3           INC       DPTR
   \   00004F   E0           MOVX      A,@DPTR
   \   000050   6013         JZ        ??ZDO_ProcessBindUnbindReq_3
   \   000052   F4           CPL       A
   \   000053   6010         JZ        ??ZDO_ProcessBindUnbindReq_3
   \   000055   12....       LCALL     ?Subroutine130 & 0xFFFF
   \                     ??CrossCallReturnLabel_206:
   \   000058   7016         JNZ       ??ZDO_ProcessBindUnbindReq_4
   \   00005A   EE           MOV       A,R6
   \   00005B   2414         ADD       A,#0x14
   \   00005D   12....       LCALL     ??Subroutine251_0 & 0xFFFF
   \                     ??CrossCallReturnLabel_482:
   \   000060   6003         JZ        ??ZDO_ProcessBindUnbindReq_3
   \   000062   F4           CPL       A
   \   000063   700B         JNZ       ??ZDO_ProcessBindUnbindReq_4
   1090              {
   1091                bindStat = ZDP_INVALID_EP;
   \                     ??ZDO_ProcessBindUnbindReq_3:
   \   000065   85..82       MOV       DPL,?XSP + 0
   \   000068   85..83       MOV       DPH,?XSP + 1
   \   00006B   7482         MOV       A,#-0x7e
   \   00006D   02....       LJMP      ??ZDO_ProcessBindUnbindReq_2 & 0xFFFF
   1092              }
   1093              else
   1094              {
   1095                if ( inMsg->clusterID == Bind_req )
   \                     ??ZDO_ProcessBindUnbindReq_4:
   \   000070   12....       LCALL     ?Subroutine150 & 0xFFFF
   \                     ??CrossCallReturnLabel_637:
   \   000073   E0           MOVX      A,@DPTR
   \   000074   6421         XRL       A,#0x21
   \   000076   7002         JNZ       ??ZDO_ProcessBindUnbindReq_5
   \   000078   A3           INC       DPTR
   \   000079   E0           MOVX      A,@DPTR
   \                     ??ZDO_ProcessBindUnbindReq_5:
   \   00007A   7055         JNZ       ??ZDO_ProcessBindUnbindReq_6
   1096                {
   1097                  // Assume the table is full
   1098                  bindStat = ZDP_TABLE_FULL;
   \   00007C   85..82       MOV       DPL,?XSP + 0
   \   00007F   85..83       MOV       DPH,?XSP + 1
   \   000082   748C         MOV       A,#-0x74
   \   000084   12....       LCALL     ?Subroutine33 & 0xFFFF
   1099          
   1100          #if defined( APP_TP ) || defined( APP_TP2 )
   1101                  // For ZigBee Conformance Testing
   1102                  if ( bindNumOfEntries() < gNWK_MAX_BINDING_ENTRIES )
   1103          #endif
   1104                  {
   1105          #if defined ( ZDP_BIND_VALIDATION )
   1106                    uint16 nwkAddr;
   1107          
   1108                    // Verifies that a valid NWK address exists for the device
   1109                    // before creating a Binding entry. If NWK address does not
   1110                    // exist the request is sent out and the BindReq is saved, to
   1111                    // create the Bind Entry once the NwkAddrRsp is received
   1112                    if ( ( pReq->dstAddress.addrMode == Addr64Bit ) &&
   1113                         ( APSME_LookupNwkAddr( pReq->dstAddress.addr.extAddr, &nwkAddr ) == FALSE ) )
   1114                    {
   1115                      // find an empty bind slot in the pending Bind Req list
   1116                      ZDO_PendingBindReq_t *pPendingBind;
   1117          
   1118                      if ( ( pPendingBind = ZDApp_GetEmptyPendingBindReq() ) != NULL )
   1119                      {
   1120                        // copy the received request into the empty slot and all required info
   1121                        osal_memcpy( &(pPendingBind->bindReq), pReq, sizeof( ZDO_BindUnbindReq_t ) );
   1122          
   1123                        pPendingBind->srcAddr = inMsg->srcAddr;
   1124                        pPendingBind->securityUse = inMsg->SecurityUse;
   1125                        pPendingBind->transSeq = inMsg->TransSeq;
   1126                        pPendingBind->age = MAX_TIME_ADDR_REQ;
   1127          
   1128                        // create an entry in Address Manager
   1129                        ( void )bindAddrIndexGet( &(pReq->dstAddress) );
   1130          
   1131                        ZDP_NwkAddrReq( pReq->dstAddress.addr.extAddr, ZDP_ADDR_REQTYPE_SINGLE, 0, 0 );
   1132          
   1133                        osal_start_timerEx( ZDAppTaskID, ZDO_PENDING_BIND_REQ_EVT,
   1134                                            AGE_OUT_PEND_BIND_REQ_DELAY );
   1135                        return;
   1136                      }
   1137                    }
   1138                    // Add Bind entry
   1139                    else if ( APSME_BindRequest( pReq->srcEndpoint, pReq->clusterID,
   1140                                                 &(pReq->dstAddress), pReq->dstEndpoint ) == ZSuccess )
   1141                    {
   1142                      // valid entry
   1143                      bindStat = ZDP_SUCCESS;
   1144          
   1145                      // Notify to save info into NV
   1146                      ZDApp_NVUpdate();
   1147                    }
   1148          #else // ZDP_BIND_VALIDATION  is not Defined
   1149                    // Create binding entry first independently of existance of  valid NWK addres
   1150                    // if NWK address does not exist a request is sent out
   1151                    if ( APSME_BindRequest( pReq->srcEndpoint, pReq->clusterID,
   1152                                   &(pReq->dstAddress), pReq->dstEndpoint ) == ZSuccess )
   \                     ??CrossCallReturnLabel_44:
   \   000087   E0           MOVX      A,@DPTR
   \   000088   F5..         MOV       ?V2,A
   \   00008A   78..         MOV       R0,#?V2
   \   00008C   12....       LCALL     ?PUSH_XSTACK_I_ONE
   \   00008F   12....       LCALL     ?Subroutine72 & 0xFFFF
   \                     ??CrossCallReturnLabel_113:
   \   000092   12....       LCALL     `??APSME_BindRequest::?relay`; Banked call to: APSME_BindRequest
   \   000095   7401         MOV       A,#0x1
   \   000097   12....       LCALL     ?DEALLOC_XSTACK8
   \   00009A   E9           MOV       A,R1
   \   00009B   705F         JNZ       ??ZDO_ProcessBindUnbindReq_7
   1153                    {
   1154                      uint16 nwkAddr;
   1155          
   1156                      // valid entry
   1157                      bindStat = ZDP_SUCCESS;
   \   00009D   85..82       MOV       DPL,?XSP + 0
   \   0000A0   85..83       MOV       DPH,?XSP + 1
   \   0000A3   E4           CLR       A
   \   0000A4   F0           MOVX      @DPTR,A
   1158          
   1159                      // Notify to save info into NV
   1160                      ZDApp_NVUpdate();
   \   0000A5                ; Setup parameters for call to function ZDApp_NVUpdate
   \   0000A5   12....       LCALL     `??ZDApp_NVUpdate::?relay`; Banked call to: ZDApp_NVUpdate
   1161          
   1162                      // Check for the destination address
   1163                      if ( pReq->dstAddress.addrMode == Addr64Bit )
   \   0000A8   12....       LCALL     ?Subroutine130 & 0xFFFF
   \                     ??CrossCallReturnLabel_207:
   \   0000AB   704F         JNZ       ??ZDO_ProcessBindUnbindReq_7
   1164                      {
   1165                        if ( APSME_LookupNwkAddr( pReq->dstAddress.addr.extAddr, &nwkAddr ) == FALSE )
   \   0000AD                ; Setup parameters for call to function APSME_LookupNwkAddr
   \   0000AD   7401         MOV       A,#0x1
   \   0000AF   12....       LCALL     ?XSTACK_DISP102_8
   \   0000B2   EE           MOV       A,R6
   \   0000B3   240B         ADD       A,#0xb
   \   0000B5   FA           MOV       R2,A
   \   0000B6   E4           CLR       A
   \   0000B7   3F           ADDC      A,R7
   \   0000B8   FB           MOV       R3,A
   \   0000B9   12....       LCALL     `??APSME_LookupNwkAddr::?relay`; Banked call to: APSME_LookupNwkAddr
   \   0000BC   E9           MOV       A,R1
   \   0000BD   703D         JNZ       ??ZDO_ProcessBindUnbindReq_7
   1166                        {
   1167                          ZDP_NwkAddrReq( pReq->dstAddress.addr.extAddr, ZDP_ADDR_REQTYPE_SINGLE, 0, 0 );
   \   0000BF                ; Setup parameters for call to function ZDP_NwkAddrReq
   \   0000BF   7D00         MOV       R5,#0x0
   \   0000C1   7C00         MOV       R4,#0x0
   \   0000C3   7900         MOV       R1,#0x0
   \   0000C5   EE           MOV       A,R6
   \   0000C6   240B         ADD       A,#0xb
   \   0000C8   FA           MOV       R2,A
   \   0000C9   E4           CLR       A
   \   0000CA   3F           ADDC      A,R7
   \   0000CB   FB           MOV       R3,A
   \   0000CC   12....       LCALL     `??ZDP_NwkAddrReq::?relay`; Banked call to: ZDP_NwkAddrReq
   \   0000CF   802B         SJMP      ??ZDO_ProcessBindUnbindReq_7
   1168                        }
   1169                      }
   1170                    }
   1171          #endif
   1172                  }
   1173                }
   1174                else // Unbind_req
   1175                {
   1176                  if ( APSME_UnBindRequest( pReq->srcEndpoint, pReq->clusterID,
   1177                                 &(pReq->dstAddress), pReq->dstEndpoint ) == ZSuccess )
   \                     ??ZDO_ProcessBindUnbindReq_6:
   \   0000D1                ; Setup parameters for call to function APSME_UnBindRequest
   \   0000D1   EE           MOV       A,R6
   \   0000D2   2414         ADD       A,#0x14
   \   0000D4   12....       LCALL     ??Subroutine251_0 & 0xFFFF
   \                     ??CrossCallReturnLabel_483:
   \   0000D7   F5..         MOV       ?V2,A
   \   0000D9   78..         MOV       R0,#?V2
   \   0000DB   12....       LCALL     ?PUSH_XSTACK_I_ONE
   \   0000DE   12....       LCALL     ?Subroutine72 & 0xFFFF
   \                     ??CrossCallReturnLabel_114:
   \   0000E1   12....       LCALL     `??APSME_UnBindRequest::?relay`; Banked call to: APSME_UnBindRequest
   \   0000E4   7401         MOV       A,#0x1
   \   0000E6   12....       LCALL     ?DEALLOC_XSTACK8
   \   0000E9   E9           MOV       A,R1
   \   0000EA   85..82       MOV       DPL,?XSP + 0
   \   0000ED   85..83       MOV       DPH,?XSP + 1
   \   0000F0   7007         JNZ       ??ZDO_ProcessBindUnbindReq_8
   1178                  {
   1179                    bindStat = ZDP_SUCCESS;
   \   0000F2   E4           CLR       A
   \   0000F3   F0           MOVX      @DPTR,A
   1180          
   1181                    // Notify to save info into NV
   1182                    ZDApp_NVUpdate();
   \   0000F4                ; Setup parameters for call to function ZDApp_NVUpdate
   \   0000F4   12....       LCALL     `??ZDApp_NVUpdate::?relay`; Banked call to: ZDApp_NVUpdate
   \   0000F7   8003         SJMP      ??ZDO_ProcessBindUnbindReq_7
   1183                  }
   1184                  else
   1185                    bindStat = ZDP_NO_ENTRY;
   \                     ??ZDO_ProcessBindUnbindReq_8:
   \   0000F9   7488         MOV       A,#-0x78
   \                     ??ZDO_ProcessBindUnbindReq_2:
   \   0000FB   F0           MOVX      @DPTR,A
   1186                }
   1187              }
   1188            }
   1189          
   1190            // Send back a response message
   1191            ZDP_SendData( &(inMsg->TransSeq), &(inMsg->srcAddr),
   1192                         (inMsg->clusterID | ZDO_RESPONSE_BIT), 1, &bindStat,
   1193                         inMsg->SecurityUse );
   \                     ??ZDO_ProcessBindUnbindReq_7:
   \   0000FC                ; Setup parameters for call to function ZDP_SendData
   \   0000FC   12....       LCALL     ?Subroutine147 & 0xFFFF
   \                     ??CrossCallReturnLabel_229:
   \   0000FF   F5..         MOV       ?V2,A
   \   000101   78..         MOV       R0,#?V2
   \   000103   12....       LCALL     ?PUSH_XSTACK_I_ONE
   \   000106   7401         MOV       A,#0x1
   \   000108   12....       LCALL     ?XSTACK_DISP100_8
   \   00010B   88..         MOV       ?V2,R0
   \   00010D   89..         MOV       ?V3,R1
   \   00010F   78..         MOV       R0,#?V2
   \   000111   12....       LCALL     ?PUSH_XSTACK_I_TWO
   \   000114   E5..         MOV       A,?V0
   \   000116   240C         ADD       A,#0xc
   \   000118   F582         MOV       DPL,A
   \   00011A   E4           CLR       A
   \   00011B   35..         ADDC      A,?V1
   \   00011D   12....       LCALL     ?Subroutine110 & 0xFFFF
   \                     ??CrossCallReturnLabel_400:
   \   000120   4480         ORL       A,#0x80
   \   000122   F5..         MOV       ?V3,A
   \   000124   78..         MOV       R0,#?V2
   \   000126   12....       LCALL     ?PUSH_XSTACK_I_TWO
   \   000129   12....       LCALL     ?Subroutine145 & 0xFFFF
   \                     ??CrossCallReturnLabel_225:
   \   00012C   12....       LCALL     ?DEALLOC_XSTACK8
   1194          }
   \   00012F   740C         MOV       A,#0xc
   \   000131   02....       LJMP      ?Subroutine5 & 0xFFFF

   \                                 In  segment BANKED_CODE, align 1, keep-with-next
   \                     ?Subroutine130:
   \   000000   EE           MOV       A,R6
   \   000001   2413         ADD       A,#0x13
   \   000003   12....       LCALL     ?Subroutine197 & 0xFFFF
   \                     ??CrossCallReturnLabel_497:
   \   000006   6403         XRL       A,#0x3
   \   000008   22           RET

   \                                 In  segment BANKED_CODE, align 1, keep-with-next
   \                     ?Subroutine72:
   \   000000   EE           MOV       A,R6
   \   000001   240B         ADD       A,#0xb
   \   000003   FC           MOV       R4,A
   \   000004   E4           CLR       A
   \   000005   3F           ADDC      A,R7
   \   000006   FD           MOV       R5,A
   \   000007   8E82         MOV       DPL,R6
   \   000009   8F83         MOV       DPH,R7
   \   00000B   A3           INC       DPTR
   \   00000C   A3           INC       DPTR
   \   00000D   A3           INC       DPTR
   \   00000E   A3           INC       DPTR
   \   00000F   A3           INC       DPTR
   \   000010   A3           INC       DPTR
   \   000011   A3           INC       DPTR
   \   000012   A3           INC       DPTR
   \   000013   A3           INC       DPTR
   \   000014   12....       LCALL     ??Subroutine268_0 & 0xFFFF
   \                     ??CrossCallReturnLabel_545:
   \   000017   8E82         MOV       DPL,R6
   \   000019   8F83         MOV       DPH,R7
   \   00001B   A3           INC       DPTR
   \   00001C   A3           INC       DPTR
   \   00001D   A3           INC       DPTR
   \   00001E   A3           INC       DPTR
   \   00001F   A3           INC       DPTR
   \   000020   A3           INC       DPTR
   \   000021   A3           INC       DPTR
   \   000022   A3           INC       DPTR
   \   000023   E0           MOVX      A,@DPTR
   \   000024   F9           MOV       R1,A
   \   000025   22           RET

   \                                 In  segment BANKED_CODE, align 1, keep-with-next
   \                     ?Subroutine110:
   \   000000   F583         MOV       DPH,A
   \   000002                REQUIRE ??Subroutine239_0
   \   000002                ; // Fall through to label ??Subroutine239_0

   \                                 In  segment BANKED_CODE, align 1, keep-with-next
   \                     ??Subroutine239_0:
   \   000000   E0           MOVX      A,@DPTR
   \   000001   F5..         MOV       ?V2,A
   \   000003   A3           INC       DPTR
   \   000004   E0           MOVX      A,@DPTR
   \   000005   22           RET

   \                                 In  segment BANKED_CODE, align 1, keep-with-next
   \                     ?Subroutine33:
   \   000000   F0           MOVX      @DPTR,A
   \   000001                ; Setup parameters for call to function APSME_BindRequest
   \   000001   EE           MOV       A,R6
   \   000002   12....       LCALL     ?Subroutine204 & 0xFFFF
   \                     ??CrossCallReturnLabel_621:
   \   000005   22           RET

   \                                 In  segment BANKED_CODE, align 1, keep-with-next
   \                     ?Subroutine145:
   \   000000   7901         MOV       R1,#0x1
   \   000002   E5..         MOV       A,?V0
   \   000004   2402         ADD       A,#0x2
   \   000006   FC           MOV       R4,A
   \   000007   E4           CLR       A
   \   000008   35..         ADDC      A,?V1
   \   00000A   FD           MOV       R5,A
   \   00000B   E5..         MOV       A,?V0
   \   00000D   240F         ADD       A,#0xf
   \   00000F   FA           MOV       R2,A
   \   000010   E4           CLR       A
   \   000011   35..         ADDC      A,?V1
   \   000013   12....       LCALL     ?Subroutine208 & 0xFFFF
   \                     ??CrossCallReturnLabel_443:
   \   000016   22           RET

   \                                 In  segment BANKED_CODE, align 1, keep-with-next
   \                     ?Subroutine208:
   \   000000   FB           MOV       R3,A
   \   000001                REQUIRE ??Subroutine246_0
   \   000001                ; // Fall through to label ??Subroutine246_0

   \                                 In  segment BANKED_CODE, align 1, keep-with-next
   \                     ??Subroutine246_0:
   \   000000   12....       LCALL     `??ZDP_SendData::?relay`; Banked call to: ZDP_SendData
   \   000003   7405         MOV       A,#0x5
   \   000005   22           RET

   \                                 In  segment BANKED_CODE, align 1, keep-with-next
   \                     ?Subroutine124:
   \   000000   12....       LCALL     `??NLME_GetExtAddr::?relay`; Banked call to: NLME_GetExtAddr
   \   000003   8A..         MOV       ?V2,R2
   \   000005   8B..         MOV       ?V3,R3
   \   000007   AC..         MOV       R4,?V2
   \   000009   AD..         MOV       R5,?V3
   \   00000B   22           RET

   \                                 In  segment BANKED_CODE, align 1, keep-with-next
   \                     ?Subroutine147:
   \   000000   E5..         MOV       A,?V0
   \   000002   240E         ADD       A,#0xe
   \   000004   F582         MOV       DPL,A
   \   000006   E4           CLR       A
   \   000007   35..         ADDC      A,?V1
   \   000009   F583         MOV       DPH,A
   \   00000B   E0           MOVX      A,@DPTR
   \   00000C   22           RET

   \                                 In  segment BANKED_CODE, align 1, keep-with-next
   \                     ?Subroutine204:
   \   000000   2414         ADD       A,#0x14
   \   000002   F582         MOV       DPL,A
   \   000004   E4           CLR       A
   \   000005   3F           ADDC      A,R7
   \   000006   F583         MOV       DPH,A
   \   000008   22           RET

   \                                 In  segment BANKED_CODE, align 1, keep-with-next
   \                     ?Subroutine150:
   \   000000   E5..         MOV       A,?V0
   \   000002   240C         ADD       A,#0xc
   \   000004                REQUIRE ??Subroutine280_0
   \   000004                ; // Fall through to label ??Subroutine280_0

   \                                 In  segment BANKED_CODE, align 1, keep-with-next
   \                     ??Subroutine280_0:
   \   000000   F582         MOV       DPL,A
   \   000002   E4           CLR       A
   \   000003                REQUIRE ??Subroutine281_0
   \   000003                ; // Fall through to label ??Subroutine281_0

   \                                 In  segment BANKED_CODE, align 1, keep-with-next
   \                     ??Subroutine281_0:
   \   000000   35..         ADDC      A,?V1
   \   000002   F583         MOV       DPH,A
   \   000004   22           RET
   1195          #endif // REFLECTOR
   1196          
   1197          /*********************************************************************
   1198           * @fn      ZDO_UpdateAddrManager
   1199           *
   1200           * @brief   Update the Address Manager.
   1201           *
   1202           * @param   nwkAddr - network address
   1203           * @param   extAddr - extended address
   1204           *
   1205           * @return  none
   1206           */

   \                                 In  segment BANKED_CODE, align 1, keep-with-next
   1207          void ZDO_UpdateAddrManager( uint16 nwkAddr, uint8 *extAddr )
   \                     ZDO_UpdateAddrManager:
   1208          {
   \   000000   C082         PUSH      DPL
   \   000002   C083         PUSH      DPH
   \   000004                ; Saved register size: 2
   \   000004                ; Auto size: 13
   \   000004   74F3         MOV       A,#-0xd
   \   000006   12....       LCALL     ?ALLOC_XSTACK8
   1209            AddrMgrEntry_t addrEntry;
   1210          
   1211            // Update the address manager
   1212            addrEntry.user = ADDRMGR_USER_DEFAULT;
   \   000009   85..82       MOV       DPL,?XSP + 0
   \   00000C   85..83       MOV       DPH,?XSP + 1
   \   00000F   E4           CLR       A
   \   000010   F0           MOVX      @DPTR,A
   1213            addrEntry.nwkAddr = nwkAddr;
   \   000011   04           INC       A
   \   000012   12....       LCALL     ?XSTACK_DISP0_8
   \   000015   12....       LCALL     ??Subroutine230_0 & 0xFFFF
   1214            AddrMgrExtAddrSet( addrEntry.extAddr, extAddr );
   \                     ??CrossCallReturnLabel_359:
   \   000018                ; Setup parameters for call to function AddrMgrExtAddrSet
   \   000018   7403         MOV       A,#0x3
   \   00001A   12....       LCALL     ?XSTACK_DISP0_8
   \   00001D   AA82         MOV       R2,DPL
   \   00001F   AB83         MOV       R3,DPH
   \   000021   12....       LCALL     `??AddrMgrExtAddrSet::?relay`; Banked call to: AddrMgrExtAddrSet
   1215            AddrMgrEntryUpdate( &addrEntry );
   \   000024                ; Setup parameters for call to function AddrMgrEntryUpdate
   \   000024   AA..         MOV       R2,?XSP + 0
   \   000026   AB..         MOV       R3,?XSP + 1
   \   000028   12....       LCALL     `??AddrMgrEntryUpdate::?relay`; Banked call to: AddrMgrEntryUpdate
   1216          }
   \   00002B   740D         MOV       A,#0xd
   \   00002D   12....       LCALL     ?DEALLOC_XSTACK8
   \   000030   02....       LJMP      ?Subroutine0 & 0xFFFF
   1217          
   1218          /*********************************************************************
   1219           * @fn      ZDO_ProcessServerDiscReq
   1220           *
   1221           * @brief   Process the Server_Discovery_req message.
   1222           *
   1223           * @param   inMsg  - incoming message (request)
   1224           *
   1225           * @return  none
   1226           */

   \                                 In  segment BANKED_CODE, align 1, keep-with-next
   1227          void ZDO_ProcessServerDiscReq( zdoIncomingMsg_t *inMsg )
   \                     ZDO_ProcessServerDiscReq:
   1228          {
   \   000000                REQUIRE ?V0
   \   000000                REQUIRE ?V1
   \   000000   74F6         MOV       A,#-0xa
   \   000002   12....       LCALL     ?BANKED_ENTER_XDATA
   \   000005                ; Saved register size: 10
   \   000005                ; Auto size: 0
   \   000005   EA           MOV       A,R2
   \   000006   FE           MOV       R6,A
   \   000007   EB           MOV       A,R3
   \   000008   FF           MOV       R7,A
   1229            uint16 serverMask = BUILD_UINT16( inMsg->asdu[0], inMsg->asdu[1] );
   1230            uint16 matchMask = serverMask & ZDO_Config_Node_Descriptor.ServerMask;
   \   000009   EA           MOV       A,R2
   \   00000A   2413         ADD       A,#0x13
   \   00000C   12....       LCALL     ??Subroutine251_0 & 0xFFFF
   \                     ??CrossCallReturnLabel_484:
   \   00000F   F8           MOV       R0,A
   \   000010   A3           INC       DPTR
   \   000011   E0           MOVX      A,@DPTR
   \   000012   12....       LCALL     ?Subroutine107 & 0xFFFF
   \                     ??CrossCallReturnLabel_365:
   \   000015   F8           MOV       R0,A
   \   000016   90....       MOV       DPTR,#ZDO_Config_Node_Descriptor + 8
   \   000019   E0           MOVX      A,@DPTR
   \   00001A   58           ANL       A,R0
   \   00001B   F5..         MOV       ?V0,A
   \   00001D   A3           INC       DPTR
   \   00001E   E0           MOVX      A,@DPTR
   \   00001F   59           ANL       A,R1
   \   000020   F5..         MOV       ?V1,A
   1231          
   1232            if ( matchMask )
   \   000022   E5..         MOV       A,?V0
   \   000024   45..         ORL       A,?V1
   \   000026   601C         JZ        ??ZDO_ProcessServerDiscReq_0
   1233            {
   1234              ZDP_ServerDiscRsp( inMsg->TransSeq, &(inMsg->srcAddr), ZSUCCESS,
   1235                          ZDAppNwkAddr.addr.shortAddr, matchMask, inMsg->SecurityUse );
   \   000028                ; Setup parameters for call to function ZDP_ServerDiscRsp
   \   000028   78..         MOV       R0,#?V0
   \   00002A   12....       LCALL     ?PUSH_XSTACK_I_TWO
   \   00002D   90....       MOV       DPTR,#ZDAppNwkAddr
   \   000030   12....       LCALL     ?PUSH_XSTACK8_X_TWO
   \   000033   12....       LCALL     ?Subroutine131 & 0xFFFF
   1236            }
   \                     ??CrossCallReturnLabel_491:
   \   000036   FD           MOV       R5,A
   \   000037   7C00         MOV       R4,#0x0
   \   000039   12....       LCALL     ?Subroutine127 & 0xFFFF
   \                     ??CrossCallReturnLabel_198:
   \   00003C   12....       LCALL     `??ZDP_ServerDiscRsp::?relay`; Banked call to: ZDP_ServerDiscRsp
   \   00003F   7404         MOV       A,#0x4
   \   000041   12....       LCALL     ?DEALLOC_XSTACK8
   1237          }
   \                     ??ZDO_ProcessServerDiscReq_0:
   \   000044   02....       LJMP      ??Subroutine225_0 & 0xFFFF

   \                                 In  segment BANKED_CODE, align 1, keep-with-next
   \                     ?Subroutine107:
   \   000000   8882         MOV       DPL,R0
   \   000002   F583         MOV       DPH,A
   \   000004                REQUIRE ??Subroutine232_0
   \   000004                ; // Fall through to label ??Subroutine232_0

   \                                 In  segment BANKED_CODE, align 1, keep-with-next
   \                     ??Subroutine232_0:
   \   000000   12....       LCALL     ?Subroutine189 & 0xFFFF
   \                     ??CrossCallReturnLabel_370:
   \   000003   22           RET

   \                                 In  segment BANKED_CODE, align 1, keep-with-next
   \                     ?Subroutine189:
   \   000000   E0           MOVX      A,@DPTR
   \   000001   FA           MOV       R2,A
   \   000002   A3           INC       DPTR
   \   000003   E0           MOVX      A,@DPTR
   \   000004   F9           MOV       R1,A
   \   000005   EA           MOV       A,R2
   \   000006   22           RET

   \                                 In  segment BANKED_CODE, align 1, keep-with-next
   \                     ?Subroutine127:
   \   000000   12....       LCALL     ?Subroutine196 & 0xFFFF
   \                     ??CrossCallReturnLabel_313:
   \   000003   22           RET
   1238          
   1239          /*********************************************************************
   1240           * Call Back Functions from APS  - API
   1241           */
   1242          
   1243          /*********************************************************************
   1244           * @fn          ZDO_EndDeviceTimeoutCB
   1245           *
   1246           * @brief       This function handles the binding timer for the End
   1247           *              Device Bind command.
   1248           *
   1249           * @param       none
   1250           *
   1251           * @return      none
   1252           */

   \                                 In  segment BANKED_CODE, align 1, keep-with-next
   1253          void ZDO_EndDeviceTimeoutCB( void )
   \                     ZDO_EndDeviceTimeoutCB:
   1254          {
   \   000000                REQUIRE ?V0
   \   000000                REQUIRE ?V1
   \   000000   74F6         MOV       A,#-0xa
   \   000002   12....       LCALL     ?BANKED_ENTER_XDATA
   \   000005                ; Saved register size: 10
   \   000005                ; Auto size: 2
   \   000005   74FE         MOV       A,#-0x2
   \   000007   12....       LCALL     ?ALLOC_XSTACK8
   1255          #if defined ( REFLECTOR )
   1256            byte stat;
   1257            if ( ZDO_EDBind )
   \   00000A   90....       MOV       DPTR,#ZDO_EDBind
   \   00000D   12....       LCALL     ??Subroutine250_0 & 0xFFFF
   \                     ??CrossCallReturnLabel_460:
   \   000010   7003         JNZ       $+5
   \   000012   02....       LJMP      ??ZDO_EndDeviceTimeoutCB_0 & 0xFFFF
   1258            {
   1259              stat = ZDO_EDBind->status;
   1260          
   1261              // Send the response message to the first sent
   1262              ZDO_SendEDBindRsp( ZDO_EDBind->SrcTransSeq, &(ZDO_EDBind->SrcAddr),
   1263                                  stat, ZDO_EDBind->SecurityUse );
   \   000015   E8           MOV       A,R0
   \   000016   2415         ADD       A,#0x15
   \   000018   F582         MOV       DPL,A
   \   00001A   E4           CLR       A
   \   00001B   39           ADDC      A,R1
   \   00001C   F583         MOV       DPH,A
   \   00001E   E0           MOVX      A,@DPTR
   \   00001F   F8           MOV       R0,A
   \   000020   90....       MOV       DPTR,#ZDO_EDBind
   \   000023   E0           MOVX      A,@DPTR
   \   000024   F9           MOV       R1,A
   \   000025   A3           INC       DPTR
   \   000026   E0           MOVX      A,@DPTR
   \   000027   C9           XCH       A,R1
   \   000028   2416         ADD       A,#0x16
   \   00002A   F582         MOV       DPL,A
   \   00002C   E4           CLR       A
   \   00002D   39           ADDC      A,R1
   \   00002E   F583         MOV       DPH,A
   \   000030   E0           MOVX      A,@DPTR
   \   000031   C0E0         PUSH      A
   \   000033   7401         MOV       A,#0x1
   \   000035   12....       LCALL     ?XSTACK_DISP0_8
   \   000038   D0E0         POP       A
   \   00003A   F0           MOVX      @DPTR,A
   \   00003B   90....       MOV       DPTR,#ZDO_EDBind
   \   00003E   E0           MOVX      A,@DPTR
   \   00003F   F9           MOV       R1,A
   \   000040   A3           INC       DPTR
   \   000041   E0           MOVX      A,@DPTR
   \   000042   F583         MOV       DPH,A
   \   000044   8982         MOV       DPL,R1
   \   000046   E0           MOVX      A,@DPTR
   \   000047   85..82       MOV       DPL,?XSP + 0
   \   00004A   85..83       MOV       DPH,?XSP + 1
   \   00004D   F0           MOVX      @DPTR,A
   \   00004E                ; Setup parameters for call to function ZDP_SendData
   \   00004E   E8           MOV       A,R0
   \   00004F   F5..         MOV       ?V0,A
   \   000051   78..         MOV       R0,#?V0
   \   000053   12....       LCALL     ?PUSH_XSTACK_I_ONE
   \   000056   7402         MOV       A,#0x2
   \   000058   12....       LCALL     ?XSTACK_DISP100_8
   \   00005B   88..         MOV       ?V0,R0
   \   00005D   89..         MOV       ?V1,R1
   \   00005F   78..         MOV       R0,#?V0
   \   000061   12....       LCALL     ?PUSH_XSTACK_I_TWO
   \   000064   75..20       MOV       ?V0,#0x20
   \   000067   75..80       MOV       ?V1,#-0x80
   \   00006A   78..         MOV       R0,#?V0
   \   00006C   12....       LCALL     ?PUSH_XSTACK_I_TWO
   \   00006F   7901         MOV       R1,#0x1
   \   000071   90....       MOV       DPTR,#ZDO_EDBind
   \   000074   E0           MOVX      A,@DPTR
   \   000075   29           ADD       A,R1
   \   000076   FC           MOV       R4,A
   \   000077   A3           INC       DPTR
   \   000078   E0           MOVX      A,@DPTR
   \   000079   3400         ADDC      A,#0x0
   \   00007B   FD           MOV       R5,A
   \   00007C   7405         MOV       A,#0x5
   \   00007E   12....       LCALL     ?XSTACK_DISP101_8
   \   000081   12....       LCALL     ?Subroutine157 & 0xFFFF
   \                     ??CrossCallReturnLabel_244:
   \   000084   12....       LCALL     ?DEALLOC_XSTACK8
   1264          
   1265              ZDO_RemoveEndDeviceBind();
   \   000087   90....       MOV       DPTR,#ZDO_EDBind
   \   00008A   12....       LCALL     ??Subroutine250_0 & 0xFFFF
   1266            }
   \                     ??CrossCallReturnLabel_461:
   \   00008D   603C         JZ        ??ZDO_EndDeviceTimeoutCB_0
   \   00008F   E8           MOV       A,R0
   \   000090   2410         ADD       A,#0x10
   \   000092   F582         MOV       DPL,A
   \   000094   E4           CLR       A
   \   000095   39           ADDC      A,R1
   \   000096   12....       LCALL     ??Subroutine249_0 & 0xFFFF
   \                     ??CrossCallReturnLabel_469:
   \   000099   600B         JZ        ??CrossCallReturnLabel_535
   \   00009B                ; Setup parameters for call to function osal_mem_free
   \   00009B   90....       MOV       DPTR,#ZDO_EDBind
   \   00009E   12....       LCALL     ??Subroutine282_0 & 0xFFFF
   \                     ??CrossCallReturnLabel_640:
   \   0000A1   2410         ADD       A,#0x10
   \   0000A3   12....       LCALL     ?Subroutine58 & 0xFFFF
   \                     ??CrossCallReturnLabel_535:
   \   0000A6   90....       MOV       DPTR,#ZDO_EDBind
   \   0000A9   12....       LCALL     ??Subroutine282_0 & 0xFFFF
   \                     ??CrossCallReturnLabel_641:
   \   0000AC   2413         ADD       A,#0x13
   \   0000AE   12....       LCALL     ?Subroutine57 & 0xFFFF
   \                     ??CrossCallReturnLabel_474:
   \   0000B1   600B         JZ        ??CrossCallReturnLabel_536
   \   0000B3                ; Setup parameters for call to function osal_mem_free
   \   0000B3   90....       MOV       DPTR,#ZDO_EDBind
   \   0000B6   12....       LCALL     ??Subroutine282_0 & 0xFFFF
   \                     ??CrossCallReturnLabel_642:
   \   0000B9   2413         ADD       A,#0x13
   \   0000BB   12....       LCALL     ?Subroutine58 & 0xFFFF
   \                     ??CrossCallReturnLabel_536:
   \   0000BE                ; Setup parameters for call to function osal_mem_free
   \   0000BE   90....       MOV       DPTR,#ZDO_EDBind
   \   0000C1   12....       LCALL     ??Subroutine264_0 & 0xFFFF
   \                     ??CrossCallReturnLabel_534:
   \   0000C4   90....       MOV       DPTR,#ZDO_EDBind
   \   0000C7   E4           CLR       A
   \   0000C8   F0           MOVX      @DPTR,A
   \   0000C9   A3           INC       DPTR
   \   0000CA   F0           MOVX      @DPTR,A
   1267          #endif  // REFLECTOR
   1268          }
   \                     ??ZDO_EndDeviceTimeoutCB_0:
   \   0000CB   02....       LJMP      ?Subroutine2 & 0xFFFF

   \                                 In  segment BANKED_CODE, align 1, keep-with-next
   \                     ?Subroutine57:
   \   000000   F582         MOV       DPL,A
   \   000002   E4           CLR       A
   \   000003   38           ADDC      A,R0
   \   000004                REQUIRE ??Subroutine249_0
   \   000004                ; // Fall through to label ??Subroutine249_0

   \                                 In  segment BANKED_CODE, align 1, keep-with-next
   \                     ??Subroutine249_0:
   \   000000   F583         MOV       DPH,A
   \   000002                REQUIRE ??Subroutine250_0
   \   000002                ; // Fall through to label ??Subroutine250_0

   \                                 In  segment BANKED_CODE, align 1, keep-with-next
   \                     ??Subroutine255_0:
   \   000000   12....       LCALL     ?Subroutine215 & 0xFFFF
   \                     ??CrossCallReturnLabel_666:
   \   000003   22           RET

   \                                 In  segment BANKED_CODE, align 1, keep-with-next
   \                     ?Subroutine215:
   \   000000   E0           MOVX      A,@DPTR
   \   000001   F8           MOV       R0,A
   \   000002   A3           INC       DPTR
   \   000003   E0           MOVX      A,@DPTR
   \   000004   C8           XCH       A,R0
   \   000005   22           RET

   \                                 In  segment BANKED_CODE, align 1, keep-with-next
   \                     ?Subroutine58:
   \   000000   F582         MOV       DPL,A
   \   000002   E4           CLR       A
   \   000003   38           ADDC      A,R0
   \   000004                REQUIRE ??Subroutine263_0
   \   000004                ; // Fall through to label ??Subroutine263_0

   \                                 In  segment BANKED_CODE, align 1, keep-with-next
   \                     ??Subroutine263_0:
   \   000000   F583         MOV       DPH,A
   \   000002                REQUIRE ??Subroutine264_0
   \   000002                ; // Fall through to label ??Subroutine264_0

   \                                 In  segment BANKED_CODE, align 1, keep-with-next
   \                     ??Subroutine282_0:
   \   000000   12....       LCALL     ??Subroutine255_0 & 0xFFFF
   \                     ??CrossCallReturnLabel_662:
   \   000003   22           RET
   1269          
   1270          /*********************************************************************
   1271           * Optional Management Messages
   1272           */
   1273          
   1274          /*********************************************************************
   1275           * @fn          ZDO_ProcessMgmtLqiReq
   1276           *
   1277           * @brief       This function handles parsing the incoming Management
   1278           *              LQI request and generate the response.
   1279           *
   1280           *   Note:      This function will limit the number of items returned
   1281           *              to ZDO_MAX_LQI_ITEMS items.
   1282           *
   1283           * @param       inMsg - incoming message (request)
   1284           *
   1285           * @return      none
   1286           */

   \                                 In  segment BANKED_CODE, align 1, keep-with-next
   1287          void ZDO_ProcessMgmtLqiReq( zdoIncomingMsg_t *inMsg )
   \                     ZDO_ProcessMgmtLqiReq:
   1288          {
   \   000000                REQUIRE ?V0
   \   000000                REQUIRE ?V1
   \   000000                REQUIRE ?V2
   \   000000                REQUIRE ?V3
   \   000000                REQUIRE ?V4
   \   000000                REQUIRE ?V5
   \   000000                REQUIRE ?V6
   \   000000                REQUIRE ?V8
   \   000000                REQUIRE ?V9
   \   000000                REQUIRE ?V10
   \   000000                REQUIRE ?V11
   \   000000                REQUIRE ?V12
   \   000000                REQUIRE ?V13
   \   000000   74EA         MOV       A,#-0x16
   \   000002   12....       LCALL     ?BANKED_ENTER_XDATA
   \   000005                ; Saved register size: 22
   \   000005                ; Auto size: 37
   \   000005   74DB         MOV       A,#-0x25
   \   000007   12....       LCALL     ?ALLOC_XSTACK8
   \   00000A   8A..         MOV       ?V12,R2
   \   00000C   8B..         MOV       ?V13,R3
   1289            byte x;
   1290            byte index;
   1291            byte numItems;
   1292            byte maxItems;
   1293            ZDP_MgmtLqiItem_t* table = NULL;
   \   00000E   75..00       MOV       ?V10,#0x0
   \   000011   75..00       MOV       ?V11,#0x0
   1294            ZDP_MgmtLqiItem_t* item;
   1295            neighborEntry_t    entry;
   1296            byte aItems = 0;
   \   000014   75..00       MOV       ?V2,#0x0
   1297            associated_devices_t *aDevice;
   1298            AddrMgrEntry_t  nwkEntry;
   1299            uint8 StartIndex = inMsg->asdu[0];
   \   000017   12....       LCALL     ?Subroutine144 & 0xFFFF
   \                     ??CrossCallReturnLabel_405:
   \   00001A   35..         ADDC      A,?V13
   \   00001C   F583         MOV       DPH,A
   \   00001E   12....       LCALL     ??Subroutine243_0 & 0xFFFF
   \                     ??CrossCallReturnLabel_413:
   \   000021   F5..         MOV       ?V6,A
   1300          
   1301            // Get the number of neighbor items
   1302            NLME_GetRequest( nwkNumNeighborTableEntries, 0, &maxItems );
   \   000023                ; Setup parameters for call to function NLME_GetRequest
   \   000023   AC..         MOV       R4,?XSP + 0
   \   000025   AD..         MOV       R5,?XSP + 1
   \   000027   7A00         MOV       R2,#0x0
   \   000029   7B00         MOV       R3,#0x0
   \   00002B   799C         MOV       R1,#-0x64
   \   00002D   12....       LCALL     `??NLME_GetRequest::?relay`; Banked call to: NLME_GetRequest
   1303          
   1304            //Routing devices uses assoc table, end devices don't
   1305            if ( ZG_DEVICE_RTR_TYPE )
   \   000030   90....       MOV       DPTR,#zgDeviceLogicalType
   \   000033   E0           MOVX      A,@DPTR
   \   000034   6004         JZ        ??ZDO_ProcessMgmtLqiReq_0
   \   000036   6401         XRL       A,#0x1
   \   000038   7014         JNZ       ??ZDO_ProcessMgmtLqiReq_1
   1306            {
   1307              // Get the number of associated items
   1308              aItems = (uint8)AssocCount( PARENT, CHILD_FFD_RX_IDLE );
   \                     ??ZDO_ProcessMgmtLqiReq_0:
   \   00003A                ; Setup parameters for call to function AssocCount
   \   00003A   7A04         MOV       R2,#0x4
   \   00003C   7900         MOV       R1,#0x0
   \   00003E   12....       LCALL     `??AssocCount::?relay`; Banked call to: AssocCount
   \   000041   EA           MOV       A,R2
   \   000042   F5..         MOV       ?V2,A
   1309              // Total number of items
   1310              maxItems += aItems;
   \   000044   85..82       MOV       DPL,?XSP + 0
   \   000047   85..83       MOV       DPH,?XSP + 1
   \   00004A   E0           MOVX      A,@DPTR
   \   00004B   2A           ADD       A,R2
   \   00004C   8008         SJMP      ??ZDO_ProcessMgmtLqiReq_2
   1311            }
   1312            else
   1313            {
   1314              maxItems = 1;
   \                     ??ZDO_ProcessMgmtLqiReq_1:
   \   00004E   85..82       MOV       DPL,?XSP + 0
   \   000051   85..83       MOV       DPH,?XSP + 1
   \   000054   7401         MOV       A,#0x1
   \                     ??ZDO_ProcessMgmtLqiReq_2:
   \   000056   F0           MOVX      @DPTR,A
   1315            }
   1316          
   1317            // Start with the supplied index
   1318            if ( maxItems > StartIndex )
   \   000057   E0           MOVX      A,@DPTR
   \   000058   F8           MOV       R0,A
   \   000059   E5..         MOV       A,?V6
   \   00005B   C3           CLR       C
   \   00005C   98           SUBB      A,R0
   \   00005D   4003         JC        $+5
   \   00005F   02....       LJMP      ??ZDO_ProcessMgmtLqiReq_3 & 0xFFFF
   1319            {
   1320              numItems = maxItems - StartIndex;
   \   000062   E0           MOVX      A,@DPTR
   \   000063   C3           CLR       C
   \   000064   95..         SUBB      A,?V6
   \   000066   F5..         MOV       ?V1,A
   1321          
   1322              // limit the size of the list
   1323              if ( numItems > ZDO_MAX_LQI_ITEMS )
   \   000068   C3           CLR       C
   \   000069   9404         SUBB      A,#0x4
   \   00006B   4003         JC        ??ZDO_ProcessMgmtLqiReq_4
   1324              {
   1325                numItems = ZDO_MAX_LQI_ITEMS;
   \   00006D   75..03       MOV       ?V1,#0x3
   1326              }
   1327              
   1328              // Allocate the memory to build the table
   1329              table = (ZDP_MgmtLqiItem_t*)osal_mem_alloc( (short)
   1330                        ( numItems * sizeof( ZDP_MgmtLqiItem_t ) ) );
   \                     ??ZDO_ProcessMgmtLqiReq_4:
   \   000070                ; Setup parameters for call to function osal_mem_alloc
   \   000070   E5..         MOV       A,?V1
   \   000072   75..1A       MOV       ?B,#0x1a
   \   000075   A4           MUL       AB
   \   000076   FA           MOV       R2,A
   \   000077   AB..         MOV       R3,?B
   \   000079   12....       LCALL     `??osal_mem_alloc::?relay`; Banked call to: osal_mem_alloc
   \   00007C   8A..         MOV       ?V10,R2
   \   00007E   8B..         MOV       ?V11,R3
   1331          
   1332              if ( table != NULL )
   \   000080   EA           MOV       A,R2
   \   000081   4B           ORL       A,R3
   \   000082   7003         JNZ       $+5
   \   000084   02....       LJMP      ??ZDO_ProcessMgmtLqiReq_5 & 0xFFFF
   1333              {
   1334                x = 0;
   \   000087   75..00       MOV       ?V3,#0x0
   1335                item = table;
   \   00008A   AE..         MOV       R6,?V10
   \   00008C   AF..         MOV       R7,?V11
   1336                index = StartIndex;
   \   00008E   85....       MOV       ?V0,?V6
   \   000091   02....       LJMP      ??ZDO_ProcessMgmtLqiReq_6 & 0xFFFF
   1337          
   1338                // Loop through associated items and build list
   1339                for ( ; x < numItems; x++ )
   1340                {
   1341                  if ( index < aItems )
   1342                  {
   1343                    // get next associated device
   1344                    aDevice = AssocFindDevice( index++ );
   1345          
   1346                    // set basic fields
   1347                    item->panID   = _NIB.nwkPanId;
   1348                    osal_cpyExtAddr( item->extPanID, _NIB.extendedPANID );
   1349                    item->nwkAddr = aDevice->shortAddr;
   1350                    item->permit  = ZDP_MGMT_BOOL_UNKNOWN;
   1351                    item->depth   = 0xFF;
   1352                    item->lqi     = aDevice->linkInfo.rxLqi;
   1353          
   1354                    // set extented address
   1355                    nwkEntry.user    = ADDRMGR_USER_DEFAULT;
   1356                    nwkEntry.nwkAddr = aDevice->shortAddr;
   1357          
   1358                    if ( AddrMgrEntryLookupNwk( &nwkEntry ) == TRUE )
   1359                    {
   1360                      osal_cpyExtAddr( item->extAddr, nwkEntry.extAddr );
   1361                    }
   1362                    else
   1363                    {
   1364                      osal_memset( item->extAddr, 0xFF, Z_EXTADDR_LEN );
   \                     ??ZDO_ProcessMgmtLqiReq_7:
   \   000094                ; Setup parameters for call to function osal_memset
   \   000094   7C08         MOV       R4,#0x8
   \   000096   7D00         MOV       R5,#0x0
   \   000098   79FF         MOV       R1,#-0x1
   \   00009A   EE           MOV       A,R6
   \   00009B   240A         ADD       A,#0xa
   \   00009D   FA           MOV       R2,A
   \   00009E   E4           CLR       A
   \   00009F   3F           ADDC      A,R7
   \   0000A0   FB           MOV       R3,A
   \   0000A1   12....       LCALL     `??osal_memset::?relay`; Banked call to: osal_memset
   1365                    }
   1366          
   1367                    // use association info to set other fields
   1368                    if ( aDevice->nodeRelation == PARENT )
   \                     ??ZDO_ProcessMgmtLqiReq_8:
   \   0000A4   85..82       MOV       DPL,?V4
   \   0000A7   85..83       MOV       DPH,?V5
   \   0000AA   A3           INC       DPTR
   \   0000AB   A3           INC       DPTR
   \   0000AC   A3           INC       DPTR
   \   0000AD   A3           INC       DPTR
   \   0000AE   E0           MOVX      A,@DPTR
   \   0000AF   702D         JNZ       ??ZDO_ProcessMgmtLqiReq_9
   1369                    {
   1370                      if (  aDevice->shortAddr == 0 )
   \   0000B1   85..82       MOV       DPL,?V4
   \   0000B4   85..83       MOV       DPH,?V5
   \   0000B7   12....       LCALL     ??Subroutine250_0 & 0xFFFF
   \                     ??CrossCallReturnLabel_462:
   \   0000BA   7009         JNZ       ??ZDO_ProcessMgmtLqiReq_10
   1371                      {
   1372                        item->devType = ZDP_MGMT_DT_COORD;
   \   0000BC   12....       LCALL     ?Subroutine134 & 0xFFFF
   1373                        item->depth = 0;
   1374                      }
   \                     ??CrossCallReturnLabel_563:
   \   0000BF   12....       LCALL     ?Subroutine34 & 0xFFFF
   \                     ??CrossCallReturnLabel_46:
   \   0000C2   E4           CLR       A
   \   0000C3   8010         SJMP      ??ZDO_ProcessMgmtLqiReq_11
   1375                      else
   1376                      {
   1377                        item->devType = ZDP_MGMT_DT_ROUTER;
   \                     ??ZDO_ProcessMgmtLqiReq_10:
   \   0000C5   12....       LCALL     ?Subroutine132 & 0xFFFF
   \                     ??CrossCallReturnLabel_380:
   \   0000C8   F0           MOVX      @DPTR,A
   1378                        item->depth = _NIB.nodeDepth - 1;
   \   0000C9   90....       MOV       DPTR,#_NIB + 52
   \   0000CC   E0           MOVX      A,@DPTR
   \   0000CD   14           DEC       A
   \   0000CE   C0E0         PUSH      A
   \   0000D0   12....       LCALL     ?Subroutine162 & 0xFFFF
   1379                      }
   \                     ??CrossCallReturnLabel_260:
   \   0000D3   D0E0         POP       A
   \                     ??ZDO_ProcessMgmtLqiReq_11:
   \   0000D5   F0           MOVX      @DPTR,A
   1380          
   1381                      item->rxOnIdle = ZDP_MGMT_BOOL_UNKNOWN;
   \   0000D6   12....       LCALL     ?Subroutine158 & 0xFFFF
   1382                      item->relation = ZDP_MGMT_REL_PARENT;
   1383                    }
   \                     ??CrossCallReturnLabel_248:
   \   0000D9   12....       LCALL     ?Subroutine30 & 0xFFFF
   \                     ??CrossCallReturnLabel_38:
   \   0000DC   8032         SJMP      ??ZDO_ProcessMgmtLqiReq_12
   1384                    else
   1385                    {
   1386                      // If not parent, then it's a child
   1387                      item->depth = _NIB.nodeDepth + 1;
   \                     ??ZDO_ProcessMgmtLqiReq_9:
   \   0000DE   90....       MOV       DPTR,#_NIB + 52
   \   0000E1   E0           MOVX      A,@DPTR
   \   0000E2   04           INC       A
   \   0000E3   C0E0         PUSH      A
   \   0000E5   12....       LCALL     ?Subroutine162 & 0xFFFF
   \                     ??CrossCallReturnLabel_261:
   \   0000E8   D0E0         POP       A
   \   0000EA   12....       LCALL     ?Subroutine13 & 0xFFFF
   1388          
   1389                      if ( aDevice->nodeRelation < CHILD_FFD )
   \                     ??CrossCallReturnLabel_6:
   \   0000ED   C3           CLR       C
   \   0000EE   9403         SUBB      A,#0x3
   \   0000F0   EE           MOV       A,R6
   \   0000F1   4003         JC        $+5
   \   0000F3   02....       LJMP      ??ZDO_ProcessMgmtLqiReq_13 & 0xFFFF
   1390                      {
   1391                        item->devType = ZDP_MGMT_DT_ENDDEV;
   \   0000F6   12....       LCALL     ??Subroutine279_0 & 0xFFFF
   1392          
   1393                        if ( aDevice->nodeRelation == CHILD_RFD )
   1394                        {
   1395                          item->rxOnIdle = FALSE;
   1396                        }
   1397                        else
   1398                        {
   1399                          item->rxOnIdle = TRUE;
   1400                        }
   1401                      }
   \                     ??CrossCallReturnLabel_617:
   \   0000F9   7402         MOV       A,#0x2
   \   0000FB   12....       LCALL     ?Subroutine13 & 0xFFFF
   \                     ??CrossCallReturnLabel_7:
   \   0000FE   6401         XRL       A,#0x1
   \   000100   7003         JNZ       $+5
   \   000102   02....       LJMP      ??ZDO_ProcessMgmtLqiReq_14 & 0xFFFF
   1402                      else
   1403                      {
   1404                        item->devType = ZDP_MGMT_DT_ROUTER;
   1405          
   1406                        if ( aDevice->nodeRelation == CHILD_FFD )
   1407                        {
   1408                          item->rxOnIdle = FALSE;
   1409                        }
   1410                        else
   1411                        {
   1412                          item->rxOnIdle = TRUE;
   \                     ??ZDO_ProcessMgmtLqiReq_15:
   \   000105   EE           MOV       A,R6
   \   000106   2415         ADD       A,#0x15
   \   000108   12....       LCALL     ??Subroutine236_0 & 0xFFFF
   1413                        }
   \                     ??CrossCallReturnLabel_378:
   \   00010B   12....       LCALL     ?Subroutine35 & 0xFFFF
   1414                      }
   1415          
   1416                      item->relation = ZDP_MGMT_REL_CHILD;
   \                     ??CrossCallReturnLabel_48:
   \   00010E   7401         MOV       A,#0x1
   \                     ??ZDO_ProcessMgmtLqiReq_12:
   \   000110   F0           MOVX      @DPTR,A
   1417                    }
   1418          
   1419                    item++;
   \   000111   EE           MOV       A,R6
   \   000112   241A         ADD       A,#0x1a
   \   000114   FE           MOV       R6,A
   \   000115   5001         JNC       ??ZDO_ProcessMgmtLqiReq_16
   \   000117   0F           INC       R7
   \                     ??ZDO_ProcessMgmtLqiReq_16:
   \   000118   05..         INC       ?V3
   \                     ??ZDO_ProcessMgmtLqiReq_6:
   \   00011A   E5..         MOV       A,?V3
   \   00011C   C3           CLR       C
   \   00011D   95..         SUBB      A,?V1
   \   00011F   4003         JC        $+5
   \   000121   02....       LJMP      ??ZDO_ProcessMgmtLqiReq_17 & 0xFFFF
   \   000124   E5..         MOV       A,?V0
   \   000126   C3           CLR       C
   \   000127   95..         SUBB      A,?V2
   \   000129   4003         JC        $+5
   \   00012B   02....       LJMP      ??ZDO_ProcessMgmtLqiReq_18 & 0xFFFF
   \   00012E                ; Setup parameters for call to function AssocFindDevice
   \   00012E   AA..         MOV       R2,?V0
   \   000130   7B00         MOV       R3,#0x0
   \   000132   12....       LCALL     `??AssocFindDevice::?relay`; Banked call to: AssocFindDevice
   \   000135   8A..         MOV       ?V4,R2
   \   000137   8B..         MOV       ?V5,R3
   \   000139   05..         INC       ?V0
   \   00013B   90....       MOV       DPTR,#_NIB + 33
   \   00013E   12....       LCALL     ?Subroutine14 & 0xFFFF
   \                     ??CrossCallReturnLabel_9:
   \   000141   85..82       MOV       DPL,?V4
   \   000144   85..83       MOV       DPH,?V5
   \   000147   12....       LCALL     ?Subroutine82 & 0xFFFF
   \                     ??CrossCallReturnLabel_131:
   \   00014A   F0           MOVX      @DPTR,A
   \   00014B   A3           INC       DPTR
   \   00014C   E9           MOV       A,R1
   \   00014D   12....       LCALL     ?Subroutine23 & 0xFFFF
   \                     ??CrossCallReturnLabel_24:
   \   000150   12....       LCALL     ?Subroutine162 & 0xFFFF
   \                     ??CrossCallReturnLabel_262:
   \   000153   74FF         MOV       A,#-0x1
   \   000155   12....       LCALL     ?Subroutine172 & 0xFFFF
   \                     ??CrossCallReturnLabel_277:
   \   000158   A3           INC       DPTR
   \   000159   A3           INC       DPTR
   \   00015A   A3           INC       DPTR
   \   00015B   A3           INC       DPTR
   \   00015C   A3           INC       DPTR
   \   00015D   A3           INC       DPTR
   \   00015E   E0           MOVX      A,@DPTR
   \   00015F   C0E0         PUSH      A
   \   000161   12....       LCALL     ?Subroutine166 & 0xFFFF
   \                     ??CrossCallReturnLabel_268:
   \   000164   D0E0         POP       A
   \   000166   F0           MOVX      @DPTR,A
   \   000167   7401         MOV       A,#0x1
   \   000169   12....       LCALL     ?XSTACK_DISP0_8
   \   00016C   E4           CLR       A
   \   00016D   F0           MOVX      @DPTR,A
   \   00016E   85..82       MOV       DPL,?V4
   \   000171   85..83       MOV       DPH,?V5
   \   000174   12....       LCALL     ??Subroutine238_0 & 0xFFFF
   \                     ??CrossCallReturnLabel_388:
   \   000177   7402         MOV       A,#0x2
   \   000179   12....       LCALL     ?XSTACK_DISP0_8
   \   00017C   E8           MOV       A,R0
   \   00017D   12....       LCALL     ??Subroutine277_0 & 0xFFFF
   \                     ??CrossCallReturnLabel_580:
   \   000180                ; Setup parameters for call to function AddrMgrEntryLookupNwk
   \   000180   7401         MOV       A,#0x1
   \   000182   12....       LCALL     ?XSTACK_DISP101_8
   \   000185   12....       LCALL     `??AddrMgrEntryLookupNwk::?relay`; Banked call to: AddrMgrEntryLookupNwk
   \   000188   E9           MOV       A,R1
   \   000189   6401         XRL       A,#0x1
   \   00018B   6003         JZ        $+5
   \   00018D   02....       LJMP      ??ZDO_ProcessMgmtLqiReq_7 & 0xFFFF
   \   000190                ; Setup parameters for call to function sAddrExtCpy
   \   000190   7404         MOV       A,#0x4
   \   000192   12....       LCALL     ?XSTACK_DISP0_8
   \   000195   12....       LCALL     ?Subroutine135 & 0xFFFF
   \                     ??CrossCallReturnLabel_375:
   \   000198   02....       LJMP      ??ZDO_ProcessMgmtLqiReq_8 & 0xFFFF
   \                     ??ZDO_ProcessMgmtLqiReq_13:
   \   00019B   12....       LCALL     ??Subroutine235_0 & 0xFFFF
   \                     ??CrossCallReturnLabel_379:
   \   00019E   12....       LCALL     ?Subroutine13 & 0xFFFF
   \                     ??CrossCallReturnLabel_8:
   \   0001A1   6403         XRL       A,#0x3
   \   0001A3   6003         JZ        $+5
   \   0001A5   02....       LJMP      ??ZDO_ProcessMgmtLqiReq_15 & 0xFFFF
   \                     ??ZDO_ProcessMgmtLqiReq_14:
   \   0001A8   EE           MOV       A,R6
   \   0001A9   2415         ADD       A,#0x15
   \   0001AB   12....       LCALL     ??Subroutine271_0 & 0xFFFF
   1420                  }
   \                     ??CrossCallReturnLabel_560:
   \   0001AE   02....       LJMP      ??CrossCallReturnLabel_378 & 0xFFFF
   1421                  else
   1422                  {
   1423                    if ( StartIndex <= aItems )
   \                     ??ZDO_ProcessMgmtLqiReq_18:
   \   0001B1   E5..         MOV       A,?V2
   \   0001B3   C3           CLR       C
   \   0001B4   95..         SUBB      A,?V6
   \   0001B6   4005         JC        ??ZDO_ProcessMgmtLqiReq_19
   1424                      // Start with 1st neighbor
   1425                      index = 0;
   \   0001B8   75..00       MOV       ?V0,#0x0
   \   0001BB   8051         SJMP      ??ZDO_ProcessMgmtLqiReq_20
   1426                    else
   1427                      // Start with >1st neighbor
   1428                      index = StartIndex - aItems;
   \                     ??ZDO_ProcessMgmtLqiReq_19:
   \   0001BD   E5..         MOV       A,?V6
   \   0001BF   C3           CLR       C
   \   0001C0   95..         SUBB      A,?V2
   \   0001C2   F5..         MOV       ?V0,A
   \   0001C4   8048         SJMP      ??ZDO_ProcessMgmtLqiReq_20
   1429                    break;
   1430                  }
   1431                }
   1432          
   1433                // Loop through neighbor items and finish list
   1434                for ( ; x < numItems; x++ )
   1435                {
   1436                  // Add next neighbor table item
   1437                  NLME_GetRequest( nwkNeighborTable, index++, &entry );
   1438          
   1439                  // set ZDP_MgmtLqiItem_t fields
   1440                  item->panID    = entry.panId;
   1441                  osal_cpyExtAddr( item->extPanID, _NIB.extendedPANID );
   1442                  osal_cpyExtAddr( item->extAddr, entry.neighborExtAddr);
   1443                  item->nwkAddr  = entry.neighborAddress;
   1444          
   1445                  if ( ZG_DEVICE_RTR_TYPE )
   1446                  {
   1447                    item->rxOnIdle = ZDP_MGMT_BOOL_UNKNOWN;
   1448                    item->relation = ZDP_MGMT_REL_UNKNOWN;
   1449                    item->depth    = 0xFF;
   1450                  }
   1451                  else
   1452                  {
   1453                    //end devices knows this for sure
   1454                    item->rxOnIdle = ZDP_MGMT_BOOL_RECEIVER_ON;
   \                     ??ZDO_ProcessMgmtLqiReq_21:
   \   0001C6   EE           MOV       A,R6
   \   0001C7   2415         ADD       A,#0x15
   \   0001C9   12....       LCALL     ??Subroutine271_0 & 0xFFFF
   \                     ??CrossCallReturnLabel_561:
   \   0001CC   12....       LCALL     ?Subroutine30 & 0xFFFF
   1455                    item->relation = ZDP_MGMT_REL_PARENT;
   \                     ??CrossCallReturnLabel_39:
   \   0001CF   F0           MOVX      @DPTR,A
   1456                    item->depth = _NIB.nodeDepth - 1;
   \   0001D0   90....       MOV       DPTR,#_NIB + 52
   \   0001D3   E0           MOVX      A,@DPTR
   \   0001D4   14           DEC       A
   \   0001D5   C0E0         PUSH      A
   \   0001D7   12....       LCALL     ?Subroutine162 & 0xFFFF
   1457                  }
   \                     ??CrossCallReturnLabel_263:
   \   0001DA   D0E0         POP       A
   \                     ??ZDO_ProcessMgmtLqiReq_22:
   \   0001DC   12....       LCALL     ?Subroutine23 & 0xFFFF
   1458                  item->permit   = ZDP_MGMT_BOOL_UNKNOWN;
   1459                  item->lqi      = entry.linkInfo.rxLqi;
   \                     ??CrossCallReturnLabel_25:
   \   0001DF   741D         MOV       A,#0x1d
   \   0001E1   12....       LCALL     ?XSTACK_DISP0_8
   \   0001E4   E0           MOVX      A,@DPTR
   \   0001E5   C0E0         PUSH      A
   \   0001E7   12....       LCALL     ?Subroutine166 & 0xFFFF
   \                     ??CrossCallReturnLabel_269:
   \   0001EA   D0E0         POP       A
   \   0001EC   F0           MOVX      @DPTR,A
   1460          
   1461                  if ( item->nwkAddr == 0 )
   \   0001ED   12....       LCALL     ?Subroutine163 & 0xFFFF
   \                     ??CrossCallReturnLabel_372:
   \   0001F0   12....       LCALL     ??Subroutine249_0 & 0xFFFF
   \                     ??CrossCallReturnLabel_470:
   \   0001F3   7005         JNZ       ??ZDO_ProcessMgmtLqiReq_23
   1462                  {
   1463                    item->devType = ZDP_MGMT_DT_COORD;
   \   0001F5   12....       LCALL     ?Subroutine134 & 0xFFFF
   1464                  }
   \                     ??CrossCallReturnLabel_564:
   \   0001F8   8003         SJMP      ??CrossCallReturnLabel_381
   1465                  else
   1466                  {
   1467                    item->devType = ZDP_MGMT_DT_ROUTER;
   \                     ??ZDO_ProcessMgmtLqiReq_23:
   \   0001FA   12....       LCALL     ?Subroutine132 & 0xFFFF
   1468                  }
   \                     ??CrossCallReturnLabel_381:
   \   0001FD   F0           MOVX      @DPTR,A
   1469          
   1470                  item++;
   \   0001FE   EE           MOV       A,R6
   \   0001FF   241A         ADD       A,#0x1a
   \   000201   FE           MOV       R6,A
   \   000202   5001         JNC       ??ZDO_ProcessMgmtLqiReq_24
   \   000204   0F           INC       R7
   \                     ??ZDO_ProcessMgmtLqiReq_24:
   \   000205   05..         INC       ?V3
   \                     ??ZDO_ProcessMgmtLqiReq_17:
   \   000207   E5..         MOV       A,?V3
   \   000209   C3           CLR       C
   \   00020A   95..         SUBB      A,?V1
   \   00020C   5047         JNC       ??ZDO_ProcessMgmtLqiReq_5
   \                     ??ZDO_ProcessMgmtLqiReq_20:
   \   00020E                ; Setup parameters for call to function NLME_GetRequest
   \   00020E   740E         MOV       A,#0xe
   \   000210   12....       LCALL     ?XSTACK_DISP102_8
   \   000213   AA..         MOV       R2,?V0
   \   000215   7B00         MOV       R3,#0x0
   \   000217   7987         MOV       R1,#-0x79
   \   000219   12....       LCALL     `??NLME_GetRequest::?relay`; Banked call to: NLME_GetRequest
   \   00021C   05..         INC       ?V0
   \   00021E   7418         MOV       A,#0x18
   \   000220   12....       LCALL     ?XSTACK_DISP0_8
   \   000223   12....       LCALL     ?Subroutine14 & 0xFFFF
   \                     ??CrossCallReturnLabel_10:
   \   000226                ; Setup parameters for call to function sAddrExtCpy
   \   000226   7410         MOV       A,#0x10
   \   000228   12....       LCALL     ?XSTACK_DISP0_8
   \   00022B   12....       LCALL     ?Subroutine135 & 0xFFFF
   \                     ??CrossCallReturnLabel_376:
   \   00022E   740E         MOV       A,#0xe
   \   000230   12....       LCALL     ?XSTACK_DISP0_8
   \   000233   12....       LCALL     ?Subroutine82 & 0xFFFF
   \                     ??CrossCallReturnLabel_132:
   \   000236   12....       LCALL     ??Subroutine277_0 & 0xFFFF
   \                     ??CrossCallReturnLabel_581:
   \   000239   90....       MOV       DPTR,#zgDeviceLogicalType
   \   00023C   E0           MOVX      A,@DPTR
   \   00023D   6004         JZ        ??ZDO_ProcessMgmtLqiReq_25
   \   00023F   6401         XRL       A,#0x1
   \   000241   7083         JNZ       ??ZDO_ProcessMgmtLqiReq_21
   \                     ??ZDO_ProcessMgmtLqiReq_25:
   \   000243   12....       LCALL     ?Subroutine158 & 0xFFFF
   1471                }
   1472              }
   1473            }
   \                     ??CrossCallReturnLabel_249:
   \   000246   12....       LCALL     ?Subroutine35 & 0xFFFF
   \                     ??CrossCallReturnLabel_49:
   \   000249   7403         MOV       A,#0x3
   \   00024B   12....       LCALL     ?Subroutine34 & 0xFFFF
   \                     ??CrossCallReturnLabel_47:
   \   00024E   74FF         MOV       A,#-0x1
   \   000250   808A         SJMP      ??ZDO_ProcessMgmtLqiReq_22
   1474            else
   1475            {
   1476              numItems = 0;
   \                     ??ZDO_ProcessMgmtLqiReq_3:
   \   000252   75..00       MOV       ?V1,#0x0
   1477            }
   1478          
   1479            // Send response
   1480            ZDP_MgmtLqiRsp( inMsg->TransSeq, &(inMsg->srcAddr), ZSuccess, maxItems,
   1481                            StartIndex, numItems, table, false );
   \                     ??ZDO_ProcessMgmtLqiReq_5:
   \   000255                ; Setup parameters for call to function ZDP_MgmtLqiRsp
   \   000255   75..00       MOV       ?V2,#0x0
   \   000258   78..         MOV       R0,#?V2
   \   00025A   12....       LCALL     ?PUSH_XSTACK_I_ONE
   \   00025D   78..         MOV       R0,#?V10
   \   00025F   12....       LCALL     ?PUSH_XSTACK_I_TWO
   \   000262   78..         MOV       R0,#?V1
   \   000264   12....       LCALL     ?PUSH_XSTACK_I_ONE
   \   000267   E5..         MOV       A,?V6
   \   000269   F5..         MOV       ?V1,A
   \   00026B   78..         MOV       R0,#?V1
   \   00026D   12....       LCALL     ?PUSH_XSTACK_I_ONE
   \   000270   7405         MOV       A,#0x5
   \   000272   12....       LCALL     ?XSTACK_DISP0_8
   \   000275   E0           MOVX      A,@DPTR
   \   000276   FD           MOV       R5,A
   \   000277   7C00         MOV       R4,#0x0
   \   000279   E5..         MOV       A,?V12
   \   00027B   12....       LCALL     ?Subroutine200 & 0xFFFF
   \                     ??CrossCallReturnLabel_317:
   \   00027E   35..         ADDC      A,?V13
   \   000280   FB           MOV       R3,A
   \   000281   E5..         MOV       A,?V12
   \   000283   12....       LCALL     ?Subroutine151 & 0xFFFF
   \                     ??CrossCallReturnLabel_233:
   \   000286   35..         ADDC      A,?V13
   \   000288   F583         MOV       DPH,A
   \   00028A   E0           MOVX      A,@DPTR
   \   00028B   F9           MOV       R1,A
   \   00028C   12....       LCALL     `??ZDP_MgmtLqiRsp::?relay`; Banked call to: ZDP_MgmtLqiRsp
   \   00028F   7405         MOV       A,#0x5
   \   000291   12....       LCALL     ?DEALLOC_XSTACK8
   1482          
   1483            if ( table )
   \   000294   E5..         MOV       A,?V10
   \   000296   45..         ORL       A,?V11
   \   000298   6007         JZ        ??ZDO_ProcessMgmtLqiReq_26
   1484            {
   1485              osal_mem_free( table );
   \   00029A                ; Setup parameters for call to function osal_mem_free
   \   00029A   AA..         MOV       R2,?V10
   \   00029C   AB..         MOV       R3,?V11
   \   00029E   12....       LCALL     `??osal_mem_free::?relay`; Banked call to: osal_mem_free
   1486            }
   1487          }
   \                     ??ZDO_ProcessMgmtLqiReq_26:
   \   0002A1   7425         MOV       A,#0x25
   \   0002A3   12....       LCALL     ?DEALLOC_XSTACK8
   \   0002A6                REQUIRE ?Subroutine6
   \   0002A6                ; // Fall through to label ?Subroutine6

   \                                 In  segment BANKED_CODE, align 1, keep-with-next
   \                     ?Subroutine6:
   \   000000   7F0E         MOV       R7,#0xe
   \   000002   02....       LJMP      ?BANKED_LEAVE_XDATA

   \                                 In  segment BANKED_CODE, align 1, keep-with-next
   \                     ?Subroutine166:
   \   000000   EE           MOV       A,R6
   \   000001   2419         ADD       A,#0x19
   \   000003   F582         MOV       DPL,A
   \   000005   E4           CLR       A
   \   000006   3F           ADDC      A,R7
   \   000007   F583         MOV       DPH,A
   \   000009   22           RET

   \                                 In  segment BANKED_CODE, align 1, keep-with-next
   \                     ?Subroutine163:
   \   000000   EE           MOV       A,R6
   \   000001                REQUIRE ??Subroutine233_0
   \   000001                ; // Fall through to label ??Subroutine233_0

   \                                 In  segment BANKED_CODE, align 1, keep-with-next
   \                     ??Subroutine233_0:
   \   000000   2412         ADD       A,#0x12
   \   000002   F582         MOV       DPL,A
   \   000004   E4           CLR       A
   \   000005   3F           ADDC      A,R7
   \   000006   22           RET

   \                                 In  segment BANKED_CODE, align 1, keep-with-next
   \                     ?Subroutine162:
   \   000000   12....       LCALL     ?Subroutine210 & 0xFFFF
   \                     ??CrossCallReturnLabel_336:
   \   000003   22           RET

   \                                 In  segment BANKED_CODE, align 1, keep-with-next
   \                     ?Subroutine158:
   \   000000   12....       LCALL     ?Subroutine205 & 0xFFFF
   \                     ??CrossCallReturnLabel_332:
   \   000003   7402         MOV       A,#0x2
   \   000005   22           RET

   \                                 In  segment BANKED_CODE, align 1, keep-with-next
   \                     ?Subroutine135:
   \   000000   AC82         MOV       R4,DPL
   \   000002   AD83         MOV       R5,DPH
   \   000004   EE           MOV       A,R6
   \   000005   240A         ADD       A,#0xa
   \   000007                REQUIRE ??Subroutine234_0
   \   000007                ; // Fall through to label ??Subroutine234_0

   \                                 In  segment BANKED_CODE, align 1, keep-with-next
   \                     ??Subroutine234_0:
   \   000000   FA           MOV       R2,A
   \   000001   E4           CLR       A
   \   000002   3F           ADDC      A,R7
   \   000003   FB           MOV       R3,A
   \   000004   12....       LCALL     `??sAddrExtCpy::?relay`; Banked call to: sAddrExtCpy
   \   000007   22           RET

   \                                 In  segment BANKED_CODE, align 1, keep-with-next
   \                     ?Subroutine132:
   \   000000   EE           MOV       A,R6
   \   000001                REQUIRE ??Subroutine235_0
   \   000001                ; // Fall through to label ??Subroutine235_0

   \                                 In  segment BANKED_CODE, align 1, keep-with-next
   \                     ??Subroutine235_0:
   \   000000   2414         ADD       A,#0x14
   \   000002                REQUIRE ??Subroutine236_0
   \   000002                ; // Fall through to label ??Subroutine236_0

   \                                 In  segment BANKED_CODE, align 1, keep-with-next
   \                     ??Subroutine236_0:
   \   000000   F582         MOV       DPL,A
   \   000002   E4           CLR       A
   \   000003   3F           ADDC      A,R7
   \   000004   F583         MOV       DPH,A
   \   000006   7401         MOV       A,#0x1
   \   000008   22           RET

   \                                 In  segment BANKED_CODE, align 1, keep-with-next
   \                     ?Subroutine82:
   \   000000   12....       LCALL     ??Subroutine278_0 & 0xFFFF
   \                     ??CrossCallReturnLabel_603:
   \   000003   12....       LCALL     ?Subroutine209 & 0xFFFF
   \                     ??CrossCallReturnLabel_334:
   \   000006   E8           MOV       A,R0
   \   000007   22           RET

   \                                 In  segment BANKED_CODE, align 1, keep-with-next
   \                     ?Subroutine35:
   \   000000   12....       LCALL     ?Subroutine175 & 0xFFFF
   \                     ??CrossCallReturnLabel_283:
   \   000003   22           RET

   \                                 In  segment BANKED_CODE, align 1, keep-with-next
   \                     ?Subroutine175:
   \   000000   F0           MOVX      @DPTR,A
   \   000001   EE           MOV       A,R6
   \   000002   2416         ADD       A,#0x16
   \   000004   F582         MOV       DPL,A
   \   000006   E4           CLR       A
   \   000007   3F           ADDC      A,R7
   \   000008   F583         MOV       DPH,A
   \   00000A   22           RET

   \                                 In  segment BANKED_CODE, align 1, keep-with-next
   \                     ?Subroutine34:
   \   000000   F0           MOVX      @DPTR,A
   \   000001   12....       LCALL     ?Subroutine210 & 0xFFFF
   \                     ??CrossCallReturnLabel_335:
   \   000004   22           RET

   \                                 In  segment BANKED_CODE, align 1, keep-with-next
   \                     ?Subroutine210:
   \   000000   EE           MOV       A,R6
   \   000001   2418         ADD       A,#0x18
   \   000003   F582         MOV       DPL,A
   \   000005   E4           CLR       A
   \   000006   3F           ADDC      A,R7
   \   000007   F583         MOV       DPH,A
   \   000009   22           RET

   \                                 In  segment BANKED_CODE, align 1, keep-with-next
   \                     ?Subroutine30:
   \   000000   12....       LCALL     ?Subroutine175 & 0xFFFF
   \                     ??CrossCallReturnLabel_284:
   \   000003   E4           CLR       A
   \   000004   22           RET

   \                                 In  segment BANKED_CODE, align 1, keep-with-next
   \                     ?Subroutine23:
   \   000000   F0           MOVX      @DPTR,A
   \   000001   EE           MOV       A,R6
   \   000002   2417         ADD       A,#0x17
   \   000004   F582         MOV       DPL,A
   \   000006   E4           CLR       A
   \   000007   3F           ADDC      A,R7
   \   000008   F583         MOV       DPH,A
   \   00000A   7402         MOV       A,#0x2
   \   00000C   F0           MOVX      @DPTR,A
   \   00000D   22           RET

   \                                 In  segment BANKED_CODE, align 1, keep-with-next
   \                     ?Subroutine14:
   \   000000   12....       LCALL     ??Subroutine278_0 & 0xFFFF
   \                     ??CrossCallReturnLabel_601:
   \   000003   8E82         MOV       DPL,R6
   \   000005   8F83         MOV       DPH,R7
   \   000007   E8           MOV       A,R0
   \   000008   F0           MOVX      @DPTR,A
   \   000009   A3           INC       DPTR
   \   00000A   E9           MOV       A,R1
   \   00000B   F0           MOVX      @DPTR,A
   \   00000C                ; Setup parameters for call to function sAddrExtCpy
   \   00000C                ; Setup parameters for call to function sAddrExtCpy
   \   00000C   7C..         MOV       R4,#(_NIB + 53) & 0xff
   \   00000E   7D..         MOV       R5,#((_NIB + 53) >> 8) & 0xff
   \   000010   EE           MOV       A,R6
   \   000011   12....       LCALL     ?Subroutine200 & 0xFFFF
   \                     ??CrossCallReturnLabel_322:
   \   000014   3F           ADDC      A,R7
   \   000015   FB           MOV       R3,A
   \   000016   12....       LCALL     `??sAddrExtCpy::?relay`; Banked call to: sAddrExtCpy
   \   000019   22           RET

   \                                 In  segment BANKED_CODE, align 1, keep-with-next
   \                     ?Subroutine13:
   \   000000   12....       LCALL     ?Subroutine172 & 0xFFFF
   \                     ??CrossCallReturnLabel_278:
   \   000003   E0           MOVX      A,@DPTR
   \   000004   22           RET

   \                                 In  segment BANKED_CODE, align 1, keep-with-next
   \                     ?Subroutine172:
   \   000000   F0           MOVX      @DPTR,A
   \   000001   85..82       MOV       DPL,?V4
   \   000004   85..83       MOV       DPH,?V5
   \   000007   A3           INC       DPTR
   \   000008   A3           INC       DPTR
   \   000009   A3           INC       DPTR
   \   00000A   A3           INC       DPTR
   \   00000B   22           RET

   \                                 In  segment BANKED_CODE, align 1, keep-with-next
   \                     ?Subroutine200:
   \   000000   2402         ADD       A,#0x2
   \   000002   FA           MOV       R2,A
   \   000003   E4           CLR       A
   \   000004   22           RET

   \                                 In  segment BANKED_CODE, align 1, keep-with-next
   \                     ?Subroutine151:
   \   000000   12....       LCALL     ?Subroutine218 & 0xFFFF
   \                     ??CrossCallReturnLabel_348:
   \   000003   22           RET

   \                                 In  segment BANKED_CODE, align 1, keep-with-next
   \                     ?Subroutine134:
   \   000000   EE           MOV       A,R6
   \   000001   2414         ADD       A,#0x14
   \   000003                REQUIRE ??Subroutine271_0
   \   000003                ; // Fall through to label ??Subroutine271_0

   \                                 In  segment BANKED_CODE, align 1, keep-with-next
   \                     ??Subroutine271_0:
   \   000000   F582         MOV       DPL,A
   \   000002   E4           CLR       A
   \   000003   3F           ADDC      A,R7
   \   000004   F583         MOV       DPH,A
   \   000006   E4           CLR       A
   \   000007   22           RET

   \                                 In  segment BANKED_CODE, align 1, keep-with-next
   \                     ?Subroutine209:
   \   000000   EE           MOV       A,R6
   \   000001   2412         ADD       A,#0x12
   \   000003   F582         MOV       DPL,A
   \   000005   E4           CLR       A
   \   000006   3F           ADDC      A,R7
   \   000007   F583         MOV       DPH,A
   \   000009   22           RET

   \                                 In  segment BANKED_CODE, align 1, keep-with-next
   \                     ?Subroutine205:
   \   000000   EE           MOV       A,R6
   \   000001   2415         ADD       A,#0x15
   \   000003   F582         MOV       DPL,A
   \   000005   E4           CLR       A
   \   000006   3F           ADDC      A,R7
   \   000007   F583         MOV       DPH,A
   \   000009   22           RET

   \                                 In  segment BANKED_CODE, align 1, keep-with-next
   \                     ??Subroutine279_0:
   \   000000   12....       LCALL     ?Subroutine204 & 0xFFFF
   \                     ??CrossCallReturnLabel_622:
   \   000003   22           RET
   1488          
   1489          /*********************************************************************
   1490           * @fn          ZDO_ProcessMgmtNwkDiscReq
   1491           *
   1492           * @brief       This function handles parsing the incoming Management
   1493           *              Network Discover request and starts the request.
   1494           *
   1495           * @param       inMsg - incoming message (request)
   1496           *
   1497           * @return      none
   1498           */

   \                                 In  segment BANKED_CODE, align 1, keep-with-next
   1499          void ZDO_ProcessMgmtNwkDiscReq( zdoIncomingMsg_t *inMsg )
   \                     ZDO_ProcessMgmtNwkDiscReq:
   1500          {
   \   000000                REQUIRE ?V0
   \   000000                REQUIRE ?V1
   \   000000   74F6         MOV       A,#-0xa
   \   000002   12....       LCALL     ?BANKED_ENTER_XDATA
   \   000005                ; Saved register size: 10
   \   000005                ; Auto size: 7
   \   000005   74F9         MOV       A,#-0x7
   \   000007   12....       LCALL     ?ALLOC_XSTACK8
   \   00000A   12....       LCALL     ?Subroutine141 & 0xFFFF
   1501            NLME_ScanFields_t scan;
   1502            uint8             index;
   1503            uint8             *msg;
   1504          
   1505            msg = inMsg->asdu;
   \                     ??CrossCallReturnLabel_382:
   \   00000D   12....       LCALL     ?Subroutine69 & 0xFFFF
   1506            scan.channels = osal_build_uint32( msg, 4 );
   \                     ??CrossCallReturnLabel_104:
   \   000010   85..82       MOV       DPL,?XSP + 0
   \   000013   85..83       MOV       DPH,?XSP + 1
   \   000016   12....       LCALL     ?XSTORE_R0123
   1507            msg += 4;
   1508            scan.duration = *msg++;
   \   000019   8E82         MOV       DPL,R6
   \   00001B   8F83         MOV       DPH,R7
   \   00001D   A3           INC       DPTR
   \   00001E   A3           INC       DPTR
   \   00001F   A3           INC       DPTR
   \   000020   A3           INC       DPTR
   \   000021   E0           MOVX      A,@DPTR
   \   000022   C0E0         PUSH      A
   \   000024   7404         MOV       A,#0x4
   \   000026   12....       LCALL     ?XSTACK_DISP0_8
   \   000029   D0E0         POP       A
   \   00002B   12....       LCALL     ?Subroutine31 & 0xFFFF
   1509            index         = *msg;
   \                     ??CrossCallReturnLabel_40:
   \   00002E   F8           MOV       R0,A
   1510            scan.scanType = ZMAC_ACTIVE_SCAN;
   \   00002F   7405         MOV       A,#0x5
   \   000031   12....       LCALL     ?XSTACK_DISP0_8
   \   000034   7401         MOV       A,#0x1
   \   000036   F0           MOVX      @DPTR,A
   1511            scan.scanApp  = NLME_DISC_SCAN;
   \   000037   7406         MOV       A,#0x6
   \   000039   12....       LCALL     ?XSTACK_DISP0_8
   \   00003C   7401         MOV       A,#0x1
   \   00003E   F0           MOVX      @DPTR,A
   1512          
   1513            // Save off the information to be used for the response
   1514            zdappMgmtNwkDiscReqInProgress          = true;
   \   00003F   90....       MOV       DPTR,#zdappMgmtNwkDiscReqInProgress
   \   000042   F0           MOVX      @DPTR,A
   1515            zdappMgmtNwkDiscRspAddr.addrMode       = Addr16Bit;
   \   000043   90....       MOV       DPTR,#zdappMgmtNwkDiscRspAddr + 8
   \   000046   04           INC       A
   \   000047   12....       LCALL     ?Subroutine36 & 0xFFFF
   1516            zdappMgmtNwkDiscRspAddr.addr.shortAddr = inMsg->srcAddr.addr.shortAddr;
   \                     ??CrossCallReturnLabel_50:
   \   00004A   FA           MOV       R2,A
   \   00004B   A3           INC       DPTR
   \   00004C   E0           MOVX      A,@DPTR
   \   00004D   FB           MOV       R3,A
   \   00004E   90....       MOV       DPTR,#zdappMgmtNwkDiscRspAddr
   \   000051   12....       LCALL     ??Subroutine230_0 & 0xFFFF
   1517            zdappMgmtNwkDiscStartIndex             = index;
   \                     ??CrossCallReturnLabel_360:
   \   000054   E8           MOV       A,R0
   \   000055   90....       MOV       DPTR,#zdappMgmtNwkDiscStartIndex
   \   000058   F0           MOVX      @DPTR,A
   1518            zdappMgmtNwkDiscRspTransSeq            = inMsg->TransSeq;
   \   000059   12....       LCALL     ?Subroutine149 & 0xFFFF
   \                     ??CrossCallReturnLabel_231:
   \   00005C   E0           MOVX      A,@DPTR
   \   00005D   90....       MOV       DPTR,#zdappMgmtNwkDiscRspTransSeq
   \   000060   F0           MOVX      @DPTR,A
   1519          
   1520            if ( NLME_NwkDiscReq2( &scan ) != ZSuccess )
   \   000061                ; Setup parameters for call to function NLME_NwkDiscReq2
   \   000061   AA..         MOV       R2,?XSP + 0
   \   000063   AB..         MOV       R3,?XSP + 1
   \   000065   12....       LCALL     `??NLME_NwkDiscReq2::?relay`; Banked call to: NLME_NwkDiscReq2
   \   000068   E9           MOV       A,R1
   \   000069   6003         JZ        ??ZDO_ProcessMgmtNwkDiscReq_0
   1521            {
   1522              NLME_NwkDiscTerm();
   \   00006B                ; Setup parameters for call to function NLME_NwkDiscTerm
   \   00006B   12....       LCALL     `??NLME_NwkDiscTerm::?relay`; Banked call to: NLME_NwkDiscTerm
   1523          
   1524              // zdappMgmtNwkDiscReqInProgress will be reset in the confirm callback
   1525            }
   1526          }
   \                     ??ZDO_ProcessMgmtNwkDiscReq_0:
   \   00006E   7407         MOV       A,#0x7
   \   000070   02....       LJMP      ??Subroutine224_0 & 0xFFFF

   \                                 In  segment BANKED_CODE, align 1, keep-with-next
   \                     ?Subroutine141:
   \   000000   8A..         MOV       ?V0,R2
   \   000002   8B..         MOV       ?V1,R3
   \   000004                REQUIRE ??Subroutine237_0
   \   000004                ; // Fall through to label ??Subroutine237_0

   \                                 In  segment BANKED_CODE, align 1, keep-with-next
   \                     ?Subroutine36:
   \   000000   12....       LCALL     ?Subroutine181 & 0xFFFF
   \                     ??CrossCallReturnLabel_298:
   \   000003   A3           INC       DPTR
   \   000004   E0           MOVX      A,@DPTR
   \   000005   22           RET

   \                                 In  segment BANKED_CODE, align 1, keep-with-next
   \                     ?Subroutine181:
   \   000000   F0           MOVX      @DPTR,A
   \   000001                ; Setup parameters for call to function osal_memcpy
   \   000001   85..82       MOV       DPL,?V0
   \   000004   85..83       MOV       DPH,?V1
   \   000007   A3           INC       DPTR
   \   000008   22           RET

   \                                 In  segment BANKED_CODE, align 1, keep-with-next
   \                     ?Subroutine31:
   \   000000   12....       LCALL     ?Subroutine177 & 0xFFFF
   \                     ??CrossCallReturnLabel_288:
   \   000003   A3           INC       DPTR
   \   000004   E0           MOVX      A,@DPTR
   \   000005   22           RET

   \                                 In  segment BANKED_CODE, align 1, keep-with-next
   \                     ?Subroutine177:
   \   000000   12....       LCALL     ?Subroutine212 & 0xFFFF
   \                     ??CrossCallReturnLabel_339:
   \   000003   A3           INC       DPTR
   \   000004   A3           INC       DPTR
   \   000005   A3           INC       DPTR
   \   000006   22           RET

   \                                 In  segment BANKED_CODE, align 1, keep-with-next
   \                     ?Subroutine149:
   \   000000   E5..         MOV       A,?V0
   \   000002   12....       LCALL     ?Subroutine218 & 0xFFFF
   \                     ??CrossCallReturnLabel_347:
   \   000005   35..         ADDC      A,?V1
   \   000007   F583         MOV       DPH,A
   \   000009   22           RET

   \                                 In  segment BANKED_CODE, align 1, keep-with-next
   \                     ?Subroutine212:
   \   000000   F0           MOVX      @DPTR,A
   \   000001                ; Setup parameters for call to function ZDP_SendData
   \   000001   8E82         MOV       DPL,R6
   \   000003   8F83         MOV       DPH,R7
   \   000005   A3           INC       DPTR
   \   000006   22           RET

   \                                 In  segment BANKED_CODE, align 1, keep-with-next
   \                     ?Subroutine69:
   \   000000   12....       LCALL     ?Subroutine195 & 0xFFFF
   \                     ??CrossCallReturnLabel_682:
   \   000003   FF           MOV       R7,A
   \   000004                ; Setup parameters for call to function osal_build_uint32
   \   000004                ; Setup parameters for call to function osal_build_uint32
   \   000004   7904         MOV       R1,#0x4
   \   000006   EE           MOV       A,R6
   \   000007   FA           MOV       R2,A
   \   000008   EF           MOV       A,R7
   \   000009   FB           MOV       R3,A
   \   00000A   12....       LCALL     `??osal_build_uint32::?relay`; Banked call to: osal_build_uint32
   \   00000D   EA           MOV       A,R2
   \   00000E   F8           MOV       R0,A
   \   00000F   EB           MOV       A,R3
   \   000010   F9           MOV       R1,A
   \   000011   EC           MOV       A,R4
   \   000012   FA           MOV       R2,A
   \   000013   ED           MOV       A,R5
   \   000014   FB           MOV       R3,A
   \   000015   22           RET
   1527          
   1528          #if defined ( ZDO_MGMT_NWKDISC_RESPONSE )
   1529          /*********************************************************************
   1530           * @fn          ZDO_FinishProcessingMgmtNwkDiscReq
   1531           *
   1532           * @brief       This function finishes the processing of the Management
   1533           *              Network Discover Request and generates the response.
   1534           *
   1535           *   Note:      This function will limit the number of items returned
   1536           *              to ZDO_MAX_NWKDISC_ITEMS items.
   1537           *
   1538           * @param       ResultCountSrcAddr - source of the request
   1539           * @param       msg - pointer to incoming message
   1540           * @param       SecurityUse -
   1541           *
   1542           * @return      none
   1543           */

   \                                 In  segment BANKED_CODE, align 1, keep-with-next
   1544          void ZDO_FinishProcessingMgmtNwkDiscReq( void )
   \                     ZDO_FinishProcessingMgmtNwkDiscReq:
   1545          {
   \   000000                REQUIRE ?V0
   \   000000                REQUIRE ?V1
   \   000000                REQUIRE ?V2
   \   000000                REQUIRE ?V3
   \   000000                REQUIRE ?V4
   \   000000                REQUIRE ?V5
   \   000000   74F2         MOV       A,#-0xe
   \   000002   12....       LCALL     ?BANKED_ENTER_XDATA
   \   000005                ; Saved register size: 14
   \   000005                ; Auto size: 1
   \   000005   74FF         MOV       A,#-0x1
   \   000007   12....       LCALL     ?ALLOC_XSTACK8
   1546            byte count, i, ResultCount = 0;
   \   00000A   75..00       MOV       ?V0,#0x0
   1547            networkDesc_t *newDesc = NULL, *pList, *NetworkList;
   \   00000D   7E00         MOV       R6,#0x0
   \   00000F   7F00         MOV       R7,#0x0
   1548          
   1549            NetworkList = nwk_getNwkDescList();
   \   000011                ; Setup parameters for call to function nwk_getNwkDescList
   \   000011   12....       LCALL     `??nwk_getNwkDescList::?relay`; Banked call to: nwk_getNwkDescList
   \   000014   8A..         MOV       ?V2,R2
   \   000016   8B..         MOV       ?V3,R3
   1550          
   1551            // Count the number of nwk descriptors in the list
   1552            pList = nwk_getNwkDescList();
   \   000018                ; Setup parameters for call to function nwk_getNwkDescList
   \   000018   12....       LCALL     ?Subroutine164 & 0xFFFF
   \                     ??CrossCallReturnLabel_264:
   \   00001B   8005         SJMP      ??CrossCallReturnLabel_397
   1553            while (pList)
   1554            {
   1555              ResultCount++;
   \                     ??ZDO_FinishProcessingMgmtNwkDiscReq_0:
   \   00001D   05..         INC       ?V0
   1556              pList = pList->nextDesc;
   \   00001F   12....       LCALL     ?Subroutine117 & 0xFFFF
   1557            }
   \                     ??CrossCallReturnLabel_397:
   \   000022   E8           MOV       A,R0
   \   000023   49           ORL       A,R1
   \   000024   70F7         JNZ       ??ZDO_FinishProcessingMgmtNwkDiscReq_0
   1558          
   1559            if ( ZSTACK_ROUTER_BUILD )
   \   000026   90....       MOV       DPTR,#zgDeviceLogicalType
   \   000029   E0           MOVX      A,@DPTR
   \   00002A   6007         JZ        ??ZDO_FinishProcessingMgmtNwkDiscReq_1
   \   00002C   6401         XRL       A,#0x1
   \   00002E   6003         JZ        $+5
   \   000030   02....       LJMP      ??ZDO_FinishProcessingMgmtNwkDiscReq_2 & 0xFFFF
   1560            {
   1561              // Look for my PanID.
   1562              pList = nwk_getNwkDescList();
   \                     ??ZDO_FinishProcessingMgmtNwkDiscReq_1:
   \   000033                ; Setup parameters for call to function nwk_getNwkDescList
   \   000033   12....       LCALL     ?Subroutine164 & 0xFFFF
   \                     ??CrossCallReturnLabel_265:
   \   000036   8003         SJMP      ??CrossCallReturnLabel_398
   1563              while ( pList )
   1564              {
   1565                if ( pList->panId == _NIB.nwkPanId )
   1566                {
   1567                  break;
   1568                }
   1569          
   1570          
   1571                if ( !pList->nextDesc )
   1572                {
   1573                  break;
   1574                }
   1575                pList = pList->nextDesc;
   \                     ??ZDO_FinishProcessingMgmtNwkDiscReq_3:
   \   000038   12....       LCALL     ?Subroutine117 & 0xFFFF
   \                     ??CrossCallReturnLabel_398:
   \   00003B   E8           MOV       A,R0
   \   00003C   49           ORL       A,R1
   \   00003D   602D         JZ        ??ZDO_FinishProcessingMgmtNwkDiscReq_4
   \   00003F   8882         MOV       DPL,R0
   \   000041   8983         MOV       DPH,R1
   \   000043   12....       LCALL     ??Subroutine245_0 & 0xFFFF
   \                     ??CrossCallReturnLabel_433:
   \   000046   90....       MOV       DPTR,#_NIB + 33
   \   000049   E0           MOVX      A,@DPTR
   \   00004A   6A           XRL       A,R2
   \   00004B   7003         JNZ       ??ZDO_FinishProcessingMgmtNwkDiscReq_5
   \   00004D   A3           INC       DPTR
   \   00004E   E0           MOVX      A,@DPTR
   \   00004F   6B           XRL       A,R3
   \                     ??ZDO_FinishProcessingMgmtNwkDiscReq_5:
   \   000050   600A         JZ        ??ZDO_FinishProcessingMgmtNwkDiscReq_6
   \   000052   12....       LCALL     ?Subroutine203 & 0xFFFF
   1576              }
   \                     ??CrossCallReturnLabel_329:
   \   000055   12....       LCALL     ??Subroutine245_0 & 0xFFFF
   \                     ??CrossCallReturnLabel_434:
   \   000058   EA           MOV       A,R2
   \   000059   4B           ORL       A,R3
   \   00005A   70DC         JNZ       ??ZDO_FinishProcessingMgmtNwkDiscReq_3
   \                     ??ZDO_FinishProcessingMgmtNwkDiscReq_6:
   \   00005C   8882         MOV       DPL,R0
   \   00005E   8983         MOV       DPH,R1
   \   000060   12....       LCALL     ?Subroutine115 & 0xFFFF
   \                     ??CrossCallReturnLabel_181:
   \   000063   E0           MOVX      A,@DPTR
   \   000064   68           XRL       A,R0
   \   000065   7003         JNZ       ??ZDO_FinishProcessingMgmtNwkDiscReq_7
   \   000067   A3           INC       DPTR
   \   000068   E0           MOVX      A,@DPTR
   \   000069   69           XRL       A,R1
   \                     ??ZDO_FinishProcessingMgmtNwkDiscReq_7:
   \   00006A   607C         JZ        ??ZDO_FinishProcessingMgmtNwkDiscReq_2
   1577          
   1578          
   1579              // If my Pan not present (query to a star network ZC or an isolated ZR?),
   1580              // prepend it.
   1581              if ( !pList || (pList->panId != _NIB.nwkPanId) )
   1582              {
   1583                newDesc = (networkDesc_t *)osal_mem_alloc( sizeof( networkDesc_t ) );
   \                     ??ZDO_FinishProcessingMgmtNwkDiscReq_4:
   \   00006C                ; Setup parameters for call to function osal_mem_alloc
   \   00006C   7A16         MOV       R2,#0x16
   \   00006E   7B00         MOV       R3,#0x0
   \   000070   12....       LCALL     ??Subroutine286_0 & 0xFFFF
   1584                if ( newDesc )
   \                     ??CrossCallReturnLabel_688:
   \   000073   6073         JZ        ??ZDO_FinishProcessingMgmtNwkDiscReq_2
   1585                {
   1586                  byte pJoin;
   1587          
   1588                  newDesc->panId = _NIB.nwkPanId;
   \   000075   90....       MOV       DPTR,#_NIB + 33
   \   000078   12....       LCALL     ??Subroutine238_0 & 0xFFFF
   \                     ??CrossCallReturnLabel_389:
   \   00007B   8A82         MOV       DPL,R2
   \   00007D   8B83         MOV       DPH,R3
   \   00007F   E8           MOV       A,R0
   \   000080   12....       LCALL     ??Subroutine277_0 & 0xFFFF
   1589                  newDesc->logicalChannel = _NIB.nwkLogicalChannel;
   \                     ??CrossCallReturnLabel_582:
   \   000083   90....       MOV       DPTR,#_NIB + 22
   \   000086   12....       LCALL     ??Subroutine253_0 & 0xFFFF
   \                     ??CrossCallReturnLabel_499:
   \   000089   F0           MOVX      @DPTR,A
   1590                  newDesc->version = NLME_GetProtocolVersion();
   \   00008A                ; Setup parameters for call to function NLME_GetProtocolVersion
   \   00008A   12....       LCALL     `??NLME_GetProtocolVersion::?relay`; Banked call to: NLME_GetProtocolVersion
   \   00008D   E9           MOV       A,R1
   \   00008E   8E82         MOV       DPL,R6
   \   000090   8F83         MOV       DPH,R7
   \   000092   A3           INC       DPTR
   \   000093   A3           INC       DPTR
   \   000094   A3           INC       DPTR
   \   000095   A3           INC       DPTR
   \   000096   A3           INC       DPTR
   \   000097   F0           MOVX      @DPTR,A
   1591                  newDesc->stackProfile = zgStackProfile;
   \   000098   90....       MOV       DPTR,#zgStackProfile
   \   00009B   E0           MOVX      A,@DPTR
   \   00009C   8E82         MOV       DPL,R6
   \   00009E   8F83         MOV       DPH,R7
   \   0000A0   A3           INC       DPTR
   \   0000A1   A3           INC       DPTR
   \   0000A2   A3           INC       DPTR
   \   0000A3   A3           INC       DPTR
   \   0000A4   A3           INC       DPTR
   \   0000A5   A3           INC       DPTR
   \   0000A6   F0           MOVX      @DPTR,A
   1592          
   1593                  //Extended PanID
   1594                  osal_cpyExtAddr( newDesc->extendedPANID, _NIB.extendedPANID);
   \   0000A7                ; Setup parameters for call to function sAddrExtCpy
   \   0000A7   7C..         MOV       R4,#(_NIB + 53) & 0xff
   \   0000A9   7D..         MOV       R5,#((_NIB + 53) >> 8) & 0xff
   \   0000AB   EE           MOV       A,R6
   \   0000AC   240B         ADD       A,#0xb
   \   0000AE   12....       LCALL     ??Subroutine234_0 & 0xFFFF
   1595          
   1596                  ZMacGetReq( ZMacAssociationPermit, &pJoin );
   \                     ??CrossCallReturnLabel_377:
   \   0000B1                ; Setup parameters for call to function ZMacGetReq
   \   0000B1   AA..         MOV       R2,?XSP + 0
   \   0000B3   AB..         MOV       R3,?XSP + 1
   \   0000B5   7941         MOV       R1,#0x41
   \   0000B7   12....       LCALL     ?Subroutine125 & 0xFFFF
   1597                  newDesc->chosenRouter = ((pJoin) ? ZDAppNwkAddr.addr.shortAddr :
   1598                                                     INVALID_NODE_ADDR);
   \                     ??CrossCallReturnLabel_197:
   \   0000BA   E0           MOVX      A,@DPTR
   \   0000BB   6008         JZ        ??ZDO_FinishProcessingMgmtNwkDiscReq_8
   \   0000BD   90....       MOV       DPTR,#ZDAppNwkAddr
   \   0000C0   12....       LCALL     ??Subroutine238_0 & 0xFFFF
   \                     ??CrossCallReturnLabel_390:
   \   0000C3   8004         SJMP      ??ZDO_FinishProcessingMgmtNwkDiscReq_9
   \                     ??ZDO_FinishProcessingMgmtNwkDiscReq_8:
   \   0000C5   78FE         MOV       R0,#-0x2
   \   0000C7   79FF         MOV       R1,#-0x1
   \                     ??ZDO_FinishProcessingMgmtNwkDiscReq_9:
   \   0000C9   8E82         MOV       DPL,R6
   \   0000CB   8F83         MOV       DPH,R7
   \   0000CD   A3           INC       DPTR
   \   0000CE   A3           INC       DPTR
   \   0000CF   A3           INC       DPTR
   \   0000D0   A3           INC       DPTR
   \   0000D1   A3           INC       DPTR
   \   0000D2   A3           INC       DPTR
   \   0000D3   A3           INC       DPTR
   \   0000D4   E8           MOV       A,R0
   \   0000D5   F0           MOVX      @DPTR,A
   \   0000D6   A3           INC       DPTR
   \   0000D7   E9           MOV       A,R1
   \   0000D8   12....       LCALL     ?Subroutine33 & 0xFFFF
   1599          
   1600                  newDesc->nextDesc = NetworkList;
   \                     ??CrossCallReturnLabel_45:
   \   0000DB   E5..         MOV       A,?V2
   \   0000DD   F0           MOVX      @DPTR,A
   \   0000DE   A3           INC       DPTR
   \   0000DF   E5..         MOV       A,?V3
   \   0000E1   F0           MOVX      @DPTR,A
   1601                  NetworkList = newDesc;
   \   0000E2   8E..         MOV       ?V2,R6
   \   0000E4   8F..         MOV       ?V3,R7
   1602                  ResultCount++;
   \   0000E6   05..         INC       ?V0
   1603                }
   1604              }
   1605            }
   1606          
   1607            // Calc the count and apply a max count.
   1608            if ( zdappMgmtNwkDiscStartIndex > ResultCount )
   \                     ??ZDO_FinishProcessingMgmtNwkDiscReq_2:
   \   0000E8   90....       MOV       DPTR,#zdappMgmtNwkDiscStartIndex
   \   0000EB   E0           MOVX      A,@DPTR
   \   0000EC   F8           MOV       R0,A
   \   0000ED   E5..         MOV       A,?V0
   \   0000EF   C3           CLR       C
   \   0000F0   98           SUBB      A,R0
   \   0000F1   5004         JNC       ??ZDO_FinishProcessingMgmtNwkDiscReq_10
   1609            {
   1610              count = 0;
   \   0000F3   7900         MOV       R1,#0x0
   \   0000F5   8029         SJMP      ??ZDO_FinishProcessingMgmtNwkDiscReq_11
   1611            }
   1612            else
   1613            {
   1614              count = ResultCount - zdappMgmtNwkDiscStartIndex;
   \                     ??ZDO_FinishProcessingMgmtNwkDiscReq_10:
   \   0000F7   E5..         MOV       A,?V0
   \   0000F9   C3           CLR       C
   \   0000FA   98           SUBB      A,R0
   \   0000FB   F9           MOV       R1,A
   1615              if ( count > ZDO_MAX_NWKDISC_ITEMS )
   \   0000FC   C3           CLR       C
   \   0000FD   9406         SUBB      A,#0x6
   \   0000FF   4002         JC        ??ZDO_FinishProcessingMgmtNwkDiscReq_12
   1616              {
   1617                count = ZDO_MAX_NWKDISC_ITEMS;
   \   000101   7905         MOV       R1,#0x5
   1618              }
   1619          
   1620              // Move the list pointer up to the start index.
   1621              for ( i = 0; i < zdappMgmtNwkDiscStartIndex; i++ )
   \                     ??ZDO_FinishProcessingMgmtNwkDiscReq_12:
   \   000103   7800         MOV       R0,#0x0
   \   000105   800F         SJMP      ??ZDO_FinishProcessingMgmtNwkDiscReq_13
   1622              {
   1623                NetworkList = NetworkList->nextDesc;
   \                     ??ZDO_FinishProcessingMgmtNwkDiscReq_14:
   \   000107   E5..         MOV       A,?V2
   \   000109   2414         ADD       A,#0x14
   \   00010B   F582         MOV       DPL,A
   \   00010D   E4           CLR       A
   \   00010E   35..         ADDC      A,?V3
   \   000110   12....       LCALL     ?Subroutine110 & 0xFFFF
   1624              }
   \                     ??CrossCallReturnLabel_401:
   \   000113   F5..         MOV       ?V3,A
   \   000115   08           INC       R0
   \                     ??ZDO_FinishProcessingMgmtNwkDiscReq_13:
   \   000116   90....       MOV       DPTR,#zdappMgmtNwkDiscStartIndex
   \   000119   E0           MOVX      A,@DPTR
   \   00011A   FA           MOV       R2,A
   \   00011B   E8           MOV       A,R0
   \   00011C   C3           CLR       C
   \   00011D   9A           SUBB      A,R2
   \   00011E   40E7         JC        ??ZDO_FinishProcessingMgmtNwkDiscReq_14
   1625            }
   1626          
   1627            ZDP_MgmtNwkDiscRsp( zdappMgmtNwkDiscRspTransSeq,
   1628                               &zdappMgmtNwkDiscRspAddr, ZSuccess, ResultCount,
   1629                                zdappMgmtNwkDiscStartIndex,
   1630                                count,
   1631                                NetworkList,
   1632                                false );
   \                     ??ZDO_FinishProcessingMgmtNwkDiscReq_11:
   \   000120                ; Setup parameters for call to function ZDP_MgmtNwkDiscRsp
   \   000120   75..00       MOV       ?V1,#0x0
   \   000123   78..         MOV       R0,#?V1
   \   000125   12....       LCALL     ?PUSH_XSTACK_I_ONE
   \   000128   78..         MOV       R0,#?V2
   \   00012A   12....       LCALL     ?PUSH_XSTACK_I_TWO
   \   00012D   E9           MOV       A,R1
   \   00012E   F5..         MOV       ?V1,A
   \   000130   78..         MOV       R0,#?V1
   \   000132   12....       LCALL     ?PUSH_XSTACK_I_ONE
   \   000135   90....       MOV       DPTR,#zdappMgmtNwkDiscStartIndex
   \   000138   E0           MOVX      A,@DPTR
   \   000139   F5..         MOV       ?V1,A
   \   00013B   78..         MOV       R0,#?V1
   \   00013D   12....       LCALL     ?PUSH_XSTACK_I_ONE
   \   000140   AD..         MOV       R5,?V0
   \   000142   7C00         MOV       R4,#0x0
   \   000144   7A..         MOV       R2,#zdappMgmtNwkDiscRspAddr & 0xff
   \   000146   7B..         MOV       R3,#(zdappMgmtNwkDiscRspAddr >> 8) & 0xff
   \   000148   90....       MOV       DPTR,#zdappMgmtNwkDiscRspTransSeq
   \   00014B   E0           MOVX      A,@DPTR
   \   00014C   F9           MOV       R1,A
   \   00014D   12....       LCALL     `??ZDP_MgmtNwkDiscRsp::?relay`; Banked call to: ZDP_MgmtNwkDiscRsp
   \   000150   7405         MOV       A,#0x5
   \   000152   12....       LCALL     ?DEALLOC_XSTACK8
   1633          
   1634            if ( ZSTACK_ROUTER_BUILD )
   \   000155   90....       MOV       DPTR,#zgDeviceLogicalType
   \   000158   E0           MOVX      A,@DPTR
   \   000159   6004         JZ        ??ZDO_FinishProcessingMgmtNwkDiscReq_15
   \   00015B   6401         XRL       A,#0x1
   \   00015D   700B         JNZ       ??ZDO_FinishProcessingMgmtNwkDiscReq_16
   1635            {
   1636              if ( newDesc != NULL )
   \                     ??ZDO_FinishProcessingMgmtNwkDiscReq_15:
   \   00015F   EE           MOV       A,R6
   \   000160   4F           ORL       A,R7
   \   000161   6007         JZ        ??ZDO_FinishProcessingMgmtNwkDiscReq_16
   1637              {
   1638                osal_mem_free( newDesc );
   \   000163                ; Setup parameters for call to function osal_mem_free
   \   000163   EE           MOV       A,R6
   \   000164   FA           MOV       R2,A
   \   000165   EF           MOV       A,R7
   \   000166   FB           MOV       R3,A
   \   000167   12....       LCALL     `??osal_mem_free::?relay`; Banked call to: osal_mem_free
   1639              }
   1640            }
   1641          
   1642            NLME_NwkDiscTerm();
   \                     ??ZDO_FinishProcessingMgmtNwkDiscReq_16:
   \   00016A                ; Setup parameters for call to function NLME_NwkDiscTerm
   \   00016A   12....       LCALL     `??NLME_NwkDiscTerm::?relay`; Banked call to: NLME_NwkDiscTerm
   1643          }
   \   00016D   7401         MOV       A,#0x1
   \   00016F   02....       LJMP      ?Subroutine1 & 0xFFFF

   \                                 In  segment BANKED_CODE, align 1, keep-with-next
   \                     ?Subroutine164:
   \   000000   12....       LCALL     `??nwk_getNwkDescList::?relay`; Banked call to: nwk_getNwkDescList
   \   000003   8A..         MOV       ?V4,R2
   \   000005   8B..         MOV       ?V5,R3
   \   000007   A8..         MOV       R0,?V4
   \   000009   A9..         MOV       R1,?V5
   \   00000B   22           RET

   \                                 In  segment BANKED_CODE, align 1, keep-with-next
   \                     ?Subroutine117:
   \   000000   12....       LCALL     ?Subroutine203 & 0xFFFF
   \                     ??CrossCallReturnLabel_330:
   \   000003                REQUIRE ??Subroutine238_0
   \   000003                ; // Fall through to label ??Subroutine238_0

   \                                 In  segment BANKED_CODE, align 1, keep-with-next
   \                     ?Subroutine203:
   \   000000   E8           MOV       A,R0
   \   000001   2414         ADD       A,#0x14
   \   000003   F582         MOV       DPL,A
   \   000005   E4           CLR       A
   \   000006   39           ADDC      A,R1
   \   000007   F583         MOV       DPH,A
   \   000009   22           RET

   \                                 In  segment BANKED_CODE, align 1, keep-with-next
   \                     ??Subroutine253_0:
   \   000000   12....       LCALL     ?Subroutine216 & 0xFFFF
   \                     ??CrossCallReturnLabel_717:
   \   000003   A3           INC       DPTR
   \   000004   A3           INC       DPTR
   \   000005   22           RET

   \                                 In  segment BANKED_CODE, align 1, keep-with-next
   \                     ??Subroutine286_0:
   \   000000   12....       LCALL     ?Subroutine207 & 0xFFFF
   \                     ??CrossCallReturnLabel_691:
   \   000003   AE..         MOV       R6,?V4
   \   000005   AF..         MOV       R7,?V5
   \   000007   EA           MOV       A,R2
   \   000008   4F           ORL       A,R7
   \   000009   22           RET

   \                                 In  segment BANKED_CODE, align 1, keep-with-next
   \                     ?Subroutine207:
   \   000000   12....       LCALL     `??osal_mem_alloc::?relay`; Banked call to: osal_mem_alloc
   \   000003   8A..         MOV       ?V4,R2
   \   000005   8B..         MOV       ?V5,R3
   \   000007   22           RET

   \                                 In  segment BANKED_CODE, align 1, keep-with-next
   \                     ?Subroutine216:
   \   000000   E0           MOVX      A,@DPTR
   \   000001   8A82         MOV       DPL,R2
   \   000003   8B83         MOV       DPH,R3
   \   000005   22           RET
   1644          #endif
   1645          
   1646          /*********************************************************************
   1647           * @fn          ZDO_ProcessMgmtRtgReq
   1648           *
   1649           * @brief       This function finishes the processing of the Management
   1650           *              Routing Request and generates the response.
   1651           *
   1652           *   Note:      This function will limit the number of items returned
   1653           *              to ZDO_MAX_RTG_ITEMS items.
   1654           *
   1655           * @param       inMsg - incoming message (request)
   1656           *
   1657           * @return      none
   1658           */

   \                                 In  segment BANKED_CODE, align 1, keep-with-next
   1659          void ZDO_ProcessMgmtRtgReq( zdoIncomingMsg_t *inMsg )
   \                     ZDO_ProcessMgmtRtgReq:
   1660          {
   \   000000                REQUIRE ?V0
   \   000000                REQUIRE ?V1
   \   000000                REQUIRE ?V2
   \   000000                REQUIRE ?V3
   \   000000                REQUIRE ?V4
   \   000000                REQUIRE ?V6
   \   000000                REQUIRE ?V7
   \   000000   74F0         MOV       A,#-0x10
   \   000002   12....       LCALL     ?BANKED_ENTER_XDATA
   \   000005                ; Saved register size: 16
   \   000005                ; Auto size: 1
   \   000005   74FF         MOV       A,#-0x1
   \   000007   12....       LCALL     ?ALLOC_XSTACK8
   \   00000A   8A..         MOV       ?V2,R2
   \   00000C   8B..         MOV       ?V3,R3
   1661            byte x;
   1662            byte maxNumItems;
   1663            byte numItems = 0;
   \   00000E   7E00         MOV       R6,#0x0
   1664            uint8 *pBuf = NULL;
   \   000010   8E..         MOV       ?V6,R6
   \   000012   8E..         MOV       ?V7,R6
   1665            rtgItem_t *pList;
   1666            uint8 StartIndex = inMsg->asdu[0];
   \   000014   12....       LCALL     ?Subroutine144 & 0xFFFF
   \                     ??CrossCallReturnLabel_406:
   \   000017   35..         ADDC      A,?V3
   \   000019   F583         MOV       DPH,A
   \   00001B   12....       LCALL     ??Subroutine243_0 & 0xFFFF
   \                     ??CrossCallReturnLabel_414:
   \   00001E   FF           MOV       R7,A
   1667          
   1668            // Get the number of table items
   1669            NLME_GetRequest( nwkNumRoutingTableEntries, 0, &maxNumItems );
   \   00001F                ; Setup parameters for call to function NLME_GetRequest
   \   00001F   AC..         MOV       R4,?XSP + 0
   \   000021   AD..         MOV       R5,?XSP + 1
   \   000023   7A00         MOV       R2,#0x0
   \   000025   7B00         MOV       R3,#0x0
   \   000027   799D         MOV       R1,#-0x63
   \   000029   12....       LCALL     `??NLME_GetRequest::?relay`; Banked call to: NLME_GetRequest
   1670          
   1671            if ( maxNumItems > StartIndex )
   \   00002C   85..82       MOV       DPL,?XSP + 0
   \   00002F   85..83       MOV       DPH,?XSP + 1
   \   000032   E0           MOVX      A,@DPTR
   \   000033   F8           MOV       R0,A
   \   000034   EF           MOV       A,R7
   \   000035   C3           CLR       C
   \   000036   98           SUBB      A,R0
   \   000037   4003         JC        $+5
   \   000039   02....       LJMP      ??ZDO_ProcessMgmtRtgReq_0 & 0xFFFF
   1672            {
   1673              numItems = maxNumItems - StartIndex;    // Start at the passed in index
   \   00003C   E0           MOVX      A,@DPTR
   \   00003D   C3           CLR       C
   \   00003E   9F           SUBB      A,R7
   \   00003F   FE           MOV       R6,A
   1674          
   1675              // limit the size of the list
   1676              if ( numItems > ZDO_MAX_RTG_ITEMS )
   \   000040   C3           CLR       C
   \   000041   940B         SUBB      A,#0xb
   \   000043   4002         JC        ??ZDO_ProcessMgmtRtgReq_1
   1677              {
   1678                numItems = ZDO_MAX_RTG_ITEMS;
   \   000045   7E0A         MOV       R6,#0xa
   1679              }
   1680          
   1681              // Allocate the memory to build the table
   1682              pBuf = osal_mem_alloc( (short)(sizeof( rtgItem_t ) * numItems) );
   \                     ??ZDO_ProcessMgmtRtgReq_1:
   \   000047                ; Setup parameters for call to function osal_mem_alloc
   \   000047   EE           MOV       A,R6
   \   000048   75..07       MOV       ?B,#0x7
   \   00004B   A4           MUL       AB
   \   00004C   FA           MOV       R2,A
   \   00004D   AB..         MOV       R3,?B
   \   00004F   12....       LCALL     ??Subroutine241_0 & 0xFFFF
   \                     ??CrossCallReturnLabel_411:
   \   000052   8A..         MOV       ?V6,R2
   \   000054   8B..         MOV       ?V7,R3
   1683          
   1684              if ( pBuf != NULL )
   \   000056   EA           MOV       A,R2
   \   000057   4B           ORL       A,R3
   \   000058   6079         JZ        ??ZDO_ProcessMgmtRtgReq_2
   1685              {
   1686                // Convert buffer to list
   1687                pList = (rtgItem_t *)pBuf;
   1688          
   1689                // Loop through items and build list
   1690                for ( x = 0; x < numItems; x++ )
   \   00005A   75..00       MOV       ?V4,#0x0
   \   00005D   801A         SJMP      ??ZDO_ProcessMgmtRtgReq_3
   1691                {
   1692                  NLME_GetRequest( nwkRoutingTable, (uint16)(x + StartIndex), (void*)pList );
   1693          
   1694                  // Remap the status to the RoutingTableList Record Format defined in the ZigBee spec
   1695                  switch( pList->status )
   1696                  {
   1697                    case RT_ACTIVE:
   1698                      pList->status = ZDO_MGMT_RTG_ENTRY_ACTIVE;
   1699                      break;
   1700          
   1701                    case RT_DISC:
   1702                      pList->status = ZDO_MGMT_RTG_ENTRY_DISCOVERY_UNDERWAY;
   1703                      break;
   1704          
   1705                    case RT_LINK_FAIL:
   1706                      pList->status = ZDO_MGMT_RTG_ENTRY_DISCOVERY_FAILED;
   1707                      break;
   1708          
   1709                    case RT_INIT:
   1710                    case RT_REPAIR:
   1711                    default:
   1712                      pList->status = ZDO_MGMT_RTG_ENTRY_INACTIVE;
   \                     ??ZDO_ProcessMgmtRtgReq_4:
   \   00005F   85..82       MOV       DPL,?V0
   \   000062   85..83       MOV       DPH,?V1
   \   000065   A3           INC       DPTR
   \   000066   A3           INC       DPTR
   \   000067   A3           INC       DPTR
   \   000068   A3           INC       DPTR
   \   000069   A3           INC       DPTR
   \   00006A   7403         MOV       A,#0x3
   \                     ??ZDO_ProcessMgmtRtgReq_5:
   \   00006C   F0           MOVX      @DPTR,A
   1713                      break;
   1714                  }
   1715          
   1716                  // Increment pointer to next record
   1717                  pList++;
   \   00006D   E5..         MOV       A,?V0
   \   00006F   2407         ADD       A,#0x7
   \   000071   F5..         MOV       ?V0,A
   \   000073   5002         JNC       ??ZDO_ProcessMgmtRtgReq_6
   \   000075   05..         INC       ?V1
   \                     ??ZDO_ProcessMgmtRtgReq_6:
   \   000077   05..         INC       ?V4
   \                     ??ZDO_ProcessMgmtRtgReq_3:
   \   000079   E5..         MOV       A,?V4
   \   00007B   C3           CLR       C
   \   00007C   9E           SUBB      A,R6
   \   00007D   5056         JNC       ??ZDO_ProcessMgmtRtgReq_0
   \   00007F                ; Setup parameters for call to function NLME_GetRequest
   \   00007F   AC..         MOV       R4,?V0
   \   000081   AD..         MOV       R5,?V1
   \   000083   E5..         MOV       A,?V4
   \   000085   2F           ADD       A,R7
   \   000086   FA           MOV       R2,A
   \   000087   E4           CLR       A
   \   000088   3400         ADDC      A,#0x0
   \   00008A   FB           MOV       R3,A
   \   00008B   798B         MOV       R1,#-0x75
   \   00008D   12....       LCALL     `??NLME_GetRequest::?relay`; Banked call to: NLME_GetRequest
   \   000090   85..82       MOV       DPL,?V0
   \   000093   85..83       MOV       DPH,?V1
   \   000096   A3           INC       DPTR
   \   000097   A3           INC       DPTR
   \   000098   A3           INC       DPTR
   \   000099   A3           INC       DPTR
   \   00009A   A3           INC       DPTR
   \   00009B   E0           MOVX      A,@DPTR
   \   00009C   14           DEC       A
   \   00009D   6008         JZ        ??ZDO_ProcessMgmtRtgReq_7
   \   00009F   14           DEC       A
   \   0000A0   6013         JZ        ??ZDO_ProcessMgmtRtgReq_8
   \   0000A2   14           DEC       A
   \   0000A3   601F         JZ        ??ZDO_ProcessMgmtRtgReq_9
   \   0000A5   80B8         SJMP      ??ZDO_ProcessMgmtRtgReq_4
   \                     ??ZDO_ProcessMgmtRtgReq_7:
   \   0000A7   85..82       MOV       DPL,?V0
   \   0000AA   85..83       MOV       DPH,?V1
   \   0000AD   A3           INC       DPTR
   \   0000AE   A3           INC       DPTR
   \   0000AF   A3           INC       DPTR
   \   0000B0   A3           INC       DPTR
   \   0000B1   A3           INC       DPTR
   \   0000B2   E4           CLR       A
   \   0000B3   80B7         SJMP      ??ZDO_ProcessMgmtRtgReq_5
   \                     ??ZDO_ProcessMgmtRtgReq_8:
   \   0000B5   85..82       MOV       DPL,?V0
   \   0000B8   85..83       MOV       DPH,?V1
   \   0000BB   A3           INC       DPTR
   \   0000BC   A3           INC       DPTR
   \   0000BD   A3           INC       DPTR
   \   0000BE   A3           INC       DPTR
   \   0000BF   A3           INC       DPTR
   \   0000C0   7401         MOV       A,#0x1
   \   0000C2   80A8         SJMP      ??ZDO_ProcessMgmtRtgReq_5
   \                     ??ZDO_ProcessMgmtRtgReq_9:
   \   0000C4   85..82       MOV       DPL,?V0
   \   0000C7   85..83       MOV       DPH,?V1
   \   0000CA   A3           INC       DPTR
   \   0000CB   A3           INC       DPTR
   \   0000CC   A3           INC       DPTR
   \   0000CD   A3           INC       DPTR
   \   0000CE   A3           INC       DPTR
   \   0000CF   7402         MOV       A,#0x2
   \   0000D1   8099         SJMP      ??ZDO_ProcessMgmtRtgReq_5
   1718                }
   1719              }
   1720              else
   1721              {
   1722                numItems = 0;
   \                     ??ZDO_ProcessMgmtRtgReq_2:
   \   0000D3   7E00         MOV       R6,#0x0
   1723              }
   1724            }
   1725          
   1726            // Send response
   1727            ZDP_MgmtRtgRsp( inMsg->TransSeq, &(inMsg->srcAddr), ZSuccess, maxNumItems, StartIndex, numItems,
   1728                                  (rtgItem_t *)pBuf, false );
   \                     ??ZDO_ProcessMgmtRtgReq_0:
   \   0000D5                ; Setup parameters for call to function ZDP_MgmtRtgRsp
   \   0000D5   75..00       MOV       ?V0,#0x0
   \   0000D8   78..         MOV       R0,#?V0
   \   0000DA   12....       LCALL     ?PUSH_XSTACK_I_ONE
   \   0000DD   78..         MOV       R0,#?V6
   \   0000DF   12....       LCALL     ?PUSH_XSTACK_I_TWO
   \   0000E2   EE           MOV       A,R6
   \   0000E3   F5..         MOV       ?V0,A
   \   0000E5   78..         MOV       R0,#?V0
   \   0000E7   12....       LCALL     ?PUSH_XSTACK_I_ONE
   \   0000EA   EF           MOV       A,R7
   \   0000EB   F5..         MOV       ?V0,A
   \   0000ED   78..         MOV       R0,#?V0
   \   0000EF   12....       LCALL     ?PUSH_XSTACK_I_ONE
   \   0000F2   7405         MOV       A,#0x5
   \   0000F4   12....       LCALL     ?XSTACK_DISP0_8
   \   0000F7   E0           MOVX      A,@DPTR
   \   0000F8   FD           MOV       R5,A
   \   0000F9   7C00         MOV       R4,#0x0
   \   0000FB   E5..         MOV       A,?V2
   \   0000FD   12....       LCALL     ?Subroutine200 & 0xFFFF
   \                     ??CrossCallReturnLabel_318:
   \   000100   35..         ADDC      A,?V3
   \   000102   FB           MOV       R3,A
   \   000103   E5..         MOV       A,?V2
   \   000105   12....       LCALL     ?Subroutine151 & 0xFFFF
   \                     ??CrossCallReturnLabel_234:
   \   000108   35..         ADDC      A,?V3
   \   00010A   F583         MOV       DPH,A
   \   00010C   E0           MOVX      A,@DPTR
   \   00010D   F9           MOV       R1,A
   \   00010E   12....       LCALL     `??ZDP_MgmtRtgRsp::?relay`; Banked call to: ZDP_MgmtRtgRsp
   \   000111   7405         MOV       A,#0x5
   \   000113   12....       LCALL     ?DEALLOC_XSTACK8
   1729          
   1730            if ( pBuf != NULL )
   \   000116   E5..         MOV       A,?V6
   \   000118   45..         ORL       A,?V7
   \   00011A   6007         JZ        ??ZDO_ProcessMgmtRtgReq_10
   1731            {
   1732              osal_mem_free( pBuf );
   \   00011C                ; Setup parameters for call to function osal_mem_free
   \   00011C   AA..         MOV       R2,?V6
   \   00011E   AB..         MOV       R3,?V7
   \   000120   12....       LCALL     `??osal_mem_free::?relay`; Banked call to: osal_mem_free
   1733            }
   1734          }
   \                     ??ZDO_ProcessMgmtRtgReq_10:
   \   000123   7401         MOV       A,#0x1
   \   000125   12....       LCALL     ?DEALLOC_XSTACK8
   \   000128   02....       LJMP      ??Subroutine222_0 & 0xFFFF

   \                                 In  segment BANKED_CODE, align 1, keep-with-next
   \                     ??Subroutine241_0:
   \   000000   12....       LCALL     `??osal_mem_alloc::?relay`; Banked call to: osal_mem_alloc
   \   000003   8A..         MOV       ?V0,R2
   \   000005   8B..         MOV       ?V1,R3
   \   000007   22           RET
   1735          
   1736          /*********************************************************************
   1737           * @fn          ZDO_ProcessMgmtBindReq
   1738           *
   1739           * @brief       This function finishes the processing of the Management
   1740           *              Bind Request and generates the response.
   1741           *
   1742           *   Note:      This function will limit the number of items returned
   1743           *              to ZDO_MAX_BIND_ITEMS items.
   1744           *
   1745           * @param       inMsg - incoming message (request)
   1746           *
   1747           * @return      none
   1748           */

   \                                 In  segment BANKED_CODE, align 1, keep-with-next
   1749          void ZDO_ProcessMgmtBindReq( zdoIncomingMsg_t *inMsg )
   \                     ZDO_ProcessMgmtBindReq:
   1750          {
   \   000000                REQUIRE ?V0
   \   000000                REQUIRE ?V1
   \   000000                REQUIRE ?V2
   \   000000                REQUIRE ?V3
   \   000000                REQUIRE ?V4
   \   000000                REQUIRE ?V5
   \   000000                REQUIRE ?V6
   \   000000                REQUIRE ?V8
   \   000000                REQUIRE ?V9
   \   000000   74EE         MOV       A,#-0x12
   \   000002   12....       LCALL     ?BANKED_ENTER_XDATA
   \   000005                ; Saved register size: 18
   \   000005                ; Auto size: 2
   \   000005   74FE         MOV       A,#-0x2
   \   000007   12....       LCALL     ?ALLOC_XSTACK8
   \   00000A   8A..         MOV       ?V4,R2
   \   00000C   8B..         MOV       ?V5,R3
   1751          #if defined ( REFLECTOR )
   1752            byte x;
   1753            uint16 maxNumItems;
   1754            uint16 numItems;
   1755            uint8 *pBuf = NULL;
   \   00000E   75..00       MOV       ?V8,#0x0
   \   000011   75..00       MOV       ?V9,#0x0
   1756            apsBindingItem_t *pList;
   1757            uint8 StartIndex = inMsg->asdu[0];
   \   000014   12....       LCALL     ?Subroutine144 & 0xFFFF
   \                     ??CrossCallReturnLabel_407:
   \   000017   35..         ADDC      A,?V5
   \   000019   F583         MOV       DPH,A
   \   00001B   12....       LCALL     ??Subroutine243_0 & 0xFFFF
   \                     ??CrossCallReturnLabel_415:
   \   00001E   F5..         MOV       ?V2,A
   1758            uint8 status;
   1759          
   1760            // Get the number of table items
   1761            APSME_GetRequest( apsNumBindingTableEntries, 0, (byte*)(&maxNumItems) );
   \   000020                ; Setup parameters for call to function APSME_GetRequest
   \   000020   AC..         MOV       R4,?XSP + 0
   \   000022   AD..         MOV       R5,?XSP + 1
   \   000024   7A00         MOV       R2,#0x0
   \   000026   7B00         MOV       R3,#0x0
   \   000028   79A3         MOV       R1,#-0x5d
   \   00002A   12....       LCALL     `??APSME_GetRequest::?relay`; Banked call to: APSME_GetRequest
   1762          
   1763            if ( maxNumItems > StartIndex )
   \   00002D   85..82       MOV       DPL,?XSP + 0
   \   000030   85..83       MOV       DPH,?XSP + 1
   \   000033   12....       LCALL     ??Subroutine238_0 & 0xFFFF
   \                     ??CrossCallReturnLabel_391:
   \   000036   C3           CLR       C
   \   000037   E5..         MOV       A,?V2
   \   000039   98           SUBB      A,R0
   \   00003A   E4           CLR       A
   \   00003B   99           SUBB      A,R1
   \   00003C   5020         JNC       ??ZDO_ProcessMgmtBindReq_0
   1764            {
   1765              numItems = maxNumItems - StartIndex;    // Start at the passed in index
   \   00003E   85..82       MOV       DPL,?XSP + 0
   \   000041   85..83       MOV       DPH,?XSP + 1
   \   000044   A8..         MOV       R0,?V2
   \   000046   E0           MOVX      A,@DPTR
   \   000047   C3           CLR       C
   \   000048   98           SUBB      A,R0
   \   000049   FE           MOV       R6,A
   \   00004A   A3           INC       DPTR
   \   00004B   E0           MOVX      A,@DPTR
   \   00004C   9400         SUBB      A,#0x0
   \   00004E   FF           MOV       R7,A
   1766            }
   1767            else
   1768            {
   1769              numItems = 0;
   1770            }
   1771          
   1772            // limit the size of the list
   1773            if ( numItems > ZDO_MAX_BIND_ITEMS )
   \   00004F   C3           CLR       C
   \   000050   EE           MOV       A,R6
   \   000051   9404         SUBB      A,#0x4
   \   000053   EF           MOV       A,R7
   \   000054   9400         SUBB      A,#0x0
   \   000056   4061         JC        ??ZDO_ProcessMgmtBindReq_1
   1774            {
   1775              numItems = ZDO_MAX_BIND_ITEMS;
   \   000058   7E03         MOV       R6,#0x3
   \   00005A   7F00         MOV       R7,#0x0
   \   00005C   805F         SJMP      ??ZDO_ProcessMgmtBindReq_2
   1776            }
   \                     ??ZDO_ProcessMgmtBindReq_0:
   \   00005E   7E00         MOV       R6,#0x0
   1777          
   1778            // Allocate the memory to build the table
   1779            if ( numItems )
   1780            {
   1781              pBuf = osal_mem_alloc( sizeof( apsBindingItem_t ) * numItems );
   1782              
   1783              if(pBuf != NULL)
   1784              {
   1785              
   1786                status = ZSuccess;
   1787          
   1788                // Convert buffer to list
   1789                pList = (apsBindingItem_t *)pBuf;
   1790          
   1791                // Loop through items and build list
   1792                for ( x = 0; x < numItems; x++ )
   1793                {
   1794                  APSME_GetRequest( apsBindingTable, (x + StartIndex), (void*)pList );
   1795                  pList++;
   1796                }
   1797              }
   1798              else
   1799              {
   1800                //No memory to allocate response, respond unsupported attribute
   1801                status = ZApsUnsupportedAttrib;
   1802                numItems = 0;
   1803              }
   1804            }
   1805            else
   1806            {
   1807              status = ZSuccess;
   \                     ??ZDO_ProcessMgmtBindReq_3:
   \   000060   75..00       MOV       ?V3,#0x0
   \                     ??ZDO_ProcessMgmtBindReq_4:
   \   000063   EE           MOV       A,R6
   \   000064   F9           MOV       R1,A
   1808            }
   1809          
   1810            // Send response
   1811            ZDP_MgmtBindRsp( inMsg->TransSeq, &(inMsg->srcAddr), status, (byte)maxNumItems, StartIndex,
   1812                             (byte)numItems, (apsBindingItem_t *)pBuf, false );
   \                     ??ZDO_ProcessMgmtBindReq_5:
   \   000065                ; Setup parameters for call to function ZDP_MgmtBindRsp
   \   000065   75..00       MOV       ?V0,#0x0
   \   000068   78..         MOV       R0,#?V0
   \   00006A   12....       LCALL     ?PUSH_XSTACK_I_ONE
   \   00006D   78..         MOV       R0,#?V8
   \   00006F   12....       LCALL     ?PUSH_XSTACK_I_TWO
   \   000072   E9           MOV       A,R1
   \   000073   F5..         MOV       ?V0,A
   \   000075   78..         MOV       R0,#?V0
   \   000077   12....       LCALL     ?PUSH_XSTACK_I_ONE
   \   00007A   E5..         MOV       A,?V2
   \   00007C   F5..         MOV       ?V0,A
   \   00007E   78..         MOV       R0,#?V0
   \   000080   12....       LCALL     ?PUSH_XSTACK_I_ONE
   \   000083   7405         MOV       A,#0x5
   \   000085   12....       LCALL     ?XSTACK_DISP0_8
   \   000088   E0           MOVX      A,@DPTR
   \   000089   FD           MOV       R5,A
   \   00008A   AC..         MOV       R4,?V3
   \   00008C   E5..         MOV       A,?V4
   \   00008E   12....       LCALL     ?Subroutine200 & 0xFFFF
   \                     ??CrossCallReturnLabel_319:
   \   000091   35..         ADDC      A,?V5
   \   000093   FB           MOV       R3,A
   \   000094   E5..         MOV       A,?V4
   \   000096   12....       LCALL     ?Subroutine151 & 0xFFFF
   \                     ??CrossCallReturnLabel_235:
   \   000099   35..         ADDC      A,?V5
   \   00009B   F583         MOV       DPH,A
   \   00009D   E0           MOVX      A,@DPTR
   \   00009E   F9           MOV       R1,A
   \   00009F   12....       LCALL     `??ZDP_MgmtBindRsp::?relay`; Banked call to: ZDP_MgmtBindRsp
   \   0000A2   7405         MOV       A,#0x5
   \   0000A4   12....       LCALL     ?DEALLOC_XSTACK8
   1813          
   1814            if ( pBuf )
   \   0000A7   E5..         MOV       A,?V8
   \   0000A9   45..         ORL       A,?V9
   \   0000AB   6007         JZ        ??ZDO_ProcessMgmtBindReq_6
   1815            {
   1816              osal_mem_free( pBuf );
   \   0000AD                ; Setup parameters for call to function osal_mem_free
   \   0000AD   AA..         MOV       R2,?V8
   \   0000AF   AB..         MOV       R3,?V9
   \   0000B1   12....       LCALL     `??osal_mem_free::?relay`; Banked call to: osal_mem_free
   1817            }
   1818          #else
   1819            (void)inMsg;
   1820          #endif
   1821          }
   \                     ??ZDO_ProcessMgmtBindReq_6:
   \   0000B4   7402         MOV       A,#0x2
   \   0000B6   02....       LJMP      ?Subroutine7 & 0xFFFF
   \                     ??ZDO_ProcessMgmtBindReq_1:
   \   0000B9   EE           MOV       A,R6
   \   0000BA   4F           ORL       A,R7
   \   0000BB   60A3         JZ        ??ZDO_ProcessMgmtBindReq_3
   \                     ??ZDO_ProcessMgmtBindReq_2:
   \   0000BD                ; Setup parameters for call to function osal_mem_alloc
   \   0000BD   EE           MOV       A,R6
   \   0000BE   FA           MOV       R2,A
   \   0000BF   EF           MOV       A,R7
   \   0000C0   FB           MOV       R3,A
   \   0000C1   EA           MOV       A,R2
   \   0000C2   75..15       MOV       ?B,#0x15
   \   0000C5   A4           MUL       AB
   \   0000C6   FA           MOV       R2,A
   \   0000C7   A8..         MOV       R0,?B
   \   0000C9   75..15       MOV       ?B,#0x15
   \   0000CC   EB           MOV       A,R3
   \   0000CD   A4           MUL       AB
   \   0000CE   28           ADD       A,R0
   \   0000CF   12....       LCALL     ?Subroutine206 & 0xFFFF
   \                     ??CrossCallReturnLabel_409:
   \   0000D2   8A..         MOV       ?V8,R2
   \   0000D4   8B..         MOV       ?V9,R3
   \   0000D6   EA           MOV       A,R2
   \   0000D7   4B           ORL       A,R3
   \   0000D8   6032         JZ        ??ZDO_ProcessMgmtBindReq_7
   \   0000DA   75..00       MOV       ?V3,#0x0
   \   0000DD   75..00       MOV       ?V6,#0x0
   \                     ??ZDO_ProcessMgmtBindReq_8:
   \   0000E0   C3           CLR       C
   \   0000E1   E5..         MOV       A,?V6
   \   0000E3   9E           SUBB      A,R6
   \   0000E4   E4           CLR       A
   \   0000E5   9F           SUBB      A,R7
   \   0000E6   4003         JC        $+5
   \   0000E8   02....       LJMP      ??ZDO_ProcessMgmtBindReq_4 & 0xFFFF
   \   0000EB                ; Setup parameters for call to function APSME_GetRequest
   \   0000EB   AC..         MOV       R4,?V0
   \   0000ED   AD..         MOV       R5,?V1
   \   0000EF   A8..         MOV       R0,?V2
   \   0000F1   E5..         MOV       A,?V6
   \   0000F3   28           ADD       A,R0
   \   0000F4   FA           MOV       R2,A
   \   0000F5   E4           CLR       A
   \   0000F6   3400         ADDC      A,#0x0
   \   0000F8   FB           MOV       R3,A
   \   0000F9   79A2         MOV       R1,#-0x5e
   \   0000FB   12....       LCALL     `??APSME_GetRequest::?relay`; Banked call to: APSME_GetRequest
   \   0000FE   E5..         MOV       A,?V0
   \   000100   2415         ADD       A,#0x15
   \   000102   F5..         MOV       ?V0,A
   \   000104   5002         JNC       ??ZDO_ProcessMgmtBindReq_9
   \   000106   05..         INC       ?V1
   \                     ??ZDO_ProcessMgmtBindReq_9:
   \   000108   05..         INC       ?V6
   \   00010A   80D4         SJMP      ??ZDO_ProcessMgmtBindReq_8
   \                     ??ZDO_ProcessMgmtBindReq_7:
   \   00010C   75..B5       MOV       ?V3,#-0x4b
   \   00010F   7900         MOV       R1,#0x0
   \   000111   02....       LJMP      ??ZDO_ProcessMgmtBindReq_5 & 0xFFFF

   \                                 In  segment BANKED_CODE, align 1, keep-with-next
   \                     ?Subroutine206:
   \   000000   FB           MOV       R3,A
   \   000001                REQUIRE ??Subroutine241_0
   \   000001                ; // Fall through to label ??Subroutine241_0

   \                                 In  segment BANKED_CODE, align 1, keep-with-next
   \                     ?Subroutine7:
   \   000000   12....       LCALL     ?DEALLOC_XSTACK8
   \   000003                REQUIRE ??Subroutine293_0
   \   000003                ; // Fall through to label ??Subroutine293_0

   \                                 In  segment BANKED_CODE, align 1, keep-with-next
   \                     ??Subroutine293_0:
   \   000000   7F0A         MOV       R7,#0xa
   \   000002   02....       LJMP      ?BANKED_LEAVE_XDATA
   1822          
   1823          /*********************************************************************
   1824           * @fn          ZDO_ProcessMgmtDirectJoinReq
   1825           *
   1826           * @brief       This function finishes the processing of the Management
   1827           *              Direct Join Request and generates the response.
   1828           *
   1829           * @param       inMsg - incoming message (request)
   1830           *
   1831           * @return      none
   1832           */

   \                                 In  segment BANKED_CODE, align 1, keep-with-next
   1833          void ZDO_ProcessMgmtDirectJoinReq( zdoIncomingMsg_t *inMsg )
   \                     ZDO_ProcessMgmtDirectJoinReq:
   1834          {
   \   000000                REQUIRE ?V0
   \   000000                REQUIRE ?V1
   \   000000   74F6         MOV       A,#-0xa
   \   000002   12....       LCALL     ?BANKED_ENTER_XDATA
   \   000005                ; Saved register size: 10
   \   000005                ; Auto size: 1
   \   000005   74FF         MOV       A,#-0x1
   \   000007   12....       LCALL     ?ALLOC_XSTACK8
   \   00000A   EA           MOV       A,R2
   \   00000B   FE           MOV       R6,A
   \   00000C   EB           MOV       A,R3
   \   00000D   FF           MOV       R7,A
   1835            uint8 *deviceAddr;
   1836            uint8 capInfo;
   1837            uint8 stat;
   1838          
   1839            // Parse the message
   1840            deviceAddr = inMsg->asdu;
   1841            capInfo = inMsg->asdu[Z_EXTADDR_LEN];
   1842          
   1843            stat = (byte) NLME_DirectJoinRequest( deviceAddr, capInfo );
   \   00000E   12....       LCALL     ?Subroutine137 & 0xFFFF
   \                     ??CrossCallReturnLabel_451:
   \   000011   12....       LCALL     ??Subroutine245_0 & 0xFFFF
   \                     ??CrossCallReturnLabel_435:
   \   000014                ; Setup parameters for call to function NLME_DirectJoinRequest
   \   000014   8A82         MOV       DPL,R2
   \   000016   F583         MOV       DPH,A
   \   000018   A3           INC       DPTR
   \   000019   A3           INC       DPTR
   \   00001A   A3           INC       DPTR
   \   00001B   A3           INC       DPTR
   \   00001C   A3           INC       DPTR
   \   00001D   A3           INC       DPTR
   \   00001E   A3           INC       DPTR
   \   00001F   A3           INC       DPTR
   \   000020   E0           MOVX      A,@DPTR
   \   000021   F9           MOV       R1,A
   \   000022   12....       LCALL     `??NLME_DirectJoinRequest::?relay`; Banked call to: NLME_DirectJoinRequest
   \   000025   E9           MOV       A,R1
   \   000026   85..82       MOV       DPL,?XSP + 0
   \   000029   85..83       MOV       DPH,?XSP + 1
   \   00002C   F0           MOVX      @DPTR,A
   1844          
   1845            ZDP_MgmtDirectJoinRsp( inMsg->TransSeq, &(inMsg->srcAddr), stat, false );
   \   00002D                ; Setup parameters for call to function ZDP_SendData
   \   00002D   75..00       MOV       ?V0,#0x0
   \   000030   78..         MOV       R0,#?V0
   \   000032   12....       LCALL     ?PUSH_XSTACK_I_ONE
   \   000035   7401         MOV       A,#0x1
   \   000037   12....       LCALL     ?XSTACK_DISP100_8
   \   00003A   88..         MOV       ?V0,R0
   \   00003C   89..         MOV       ?V1,R1
   \   00003E   78..         MOV       R0,#?V0
   \   000040   12....       LCALL     ?PUSH_XSTACK_I_TWO
   \   000043   75..35       MOV       ?V0,#0x35
   \   000046   75..80       MOV       ?V1,#-0x80
   \   000049   78..         MOV       R0,#?V0
   \   00004B   12....       LCALL     ?PUSH_XSTACK_I_TWO
   \   00004E   12....       LCALL     ?Subroutine126 & 0xFFFF
   \                     ??CrossCallReturnLabel_425:
   \   000051   12....       LCALL     ?DEALLOC_XSTACK8
   1846          }
   \   000054                REQUIRE ?Subroutine9
   \   000054                ; // Fall through to label ?Subroutine9

   \                                 In  segment BANKED_CODE, align 1, keep-with-next
   \                     ?Subroutine9:
   \   000000   7401         MOV       A,#0x1
   \   000002   02....       LJMP      ??Subroutine224_0 & 0xFFFF

   \                                 In  segment BANKED_CODE, align 1, keep-with-next
   \                     ?Subroutine126:
   \   000000   7901         MOV       R1,#0x1
   \   000002                REQUIRE ??Subroutine244_0
   \   000002                ; // Fall through to label ??Subroutine244_0

   \                                 In  segment BANKED_CODE, align 1, keep-with-next
   \                     ??Subroutine244_0:
   \   000000   12....       LCALL     ?Subroutine199 & 0xFFFF
   \                     ??CrossCallReturnLabel_429:
   \   000003   FA           MOV       R2,A
   \   000004   E4           CLR       A
   \   000005   3F           ADDC      A,R7
   \   000006   12....       LCALL     ?Subroutine208 & 0xFFFF
   \                     ??CrossCallReturnLabel_442:
   \   000009   22           RET

   \                                 In  segment BANKED_CODE, align 1, keep-with-next
   \                     ?Subroutine137:
   \   000000   EA           MOV       A,R2
   \   000001                REQUIRE ??Subroutine248_0
   \   000001                ; // Fall through to label ??Subroutine248_0

   \                                 In  segment BANKED_CODE, align 1, keep-with-next
   \                     ??Subroutine248_0:
   \   000000   12....       LCALL     ?Subroutine219 & 0xFFFF
   \                     ??CrossCallReturnLabel_455:
   \   000003   22           RET
   1847          
   1848          /*********************************************************************
   1849           * @fn          ZDO_ProcessMgmtLeaveReq
   1850           *
   1851           * @brief       This function processes a Management Leave Request
   1852           *              and generates the response.
   1853           *
   1854           * @param       inMsg - incoming message (request)
   1855           *
   1856           * @return      none
   1857           */

   \                                 In  segment BANKED_CODE, align 1, keep-with-next
   1858          void ZDO_ProcessMgmtLeaveReq( zdoIncomingMsg_t *inMsg )
   \                     ZDO_ProcessMgmtLeaveReq:
   1859          {
   \   000000                REQUIRE ?V0
   \   000000                REQUIRE ?V1
   \   000000                REQUIRE ?V2
   \   000000                REQUIRE ?V3
   \   000000   74F4         MOV       A,#-0xc
   \   000002   12....       LCALL     ?BANKED_ENTER_XDATA
   \   000005                ; Saved register size: 12
   \   000005                ; Auto size: 6
   \   000005   74FA         MOV       A,#-0x6
   \   000007   12....       LCALL     ?ALLOC_XSTACK8
   \   00000A   12....       LCALL     ?Subroutine141 & 0xFFFF
   1860            NLME_LeaveReq_t req;
   1861            ZStatus_t       status;
   1862            uint8           option;
   1863            uint8 *msg = inMsg->asdu;
   \                     ??CrossCallReturnLabel_383:
   \   00000D   12....       LCALL     ?Subroutine106 & 0xFFFF
   1864            
   1865            if ( ( AddrMgrExtAddrValid( msg ) == FALSE                 ) ||
   1866                 ( osal_ExtAddrEqual( msg, NLME_GetExtAddr() ) == TRUE )    )
   \                     ??CrossCallReturnLabel_448:
   \   000010                ; Setup parameters for call to function AddrMgrExtAddrValid
   \   000010   EE           MOV       A,R6
   \   000011   FA           MOV       R2,A
   \   000012   EF           MOV       A,R7
   \   000013   FB           MOV       R3,A
   \   000014   12....       LCALL     `??AddrMgrExtAddrValid::?relay`; Banked call to: AddrMgrExtAddrValid
   \   000017   E9           MOV       A,R1
   \   000018   600F         JZ        ??ZDO_ProcessMgmtLeaveReq_0
   \   00001A                ; Setup parameters for call to function NLME_GetExtAddr
   \   00001A   12....       LCALL     ?Subroutine124 & 0xFFFF
   \                     ??CrossCallReturnLabel_195:
   \   00001D                ; Setup parameters for call to function sAddrExtCmp
   \   00001D   EE           MOV       A,R6
   \   00001E   FA           MOV       R2,A
   \   00001F   EF           MOV       A,R7
   \   000020   FB           MOV       R3,A
   \   000021   12....       LCALL     `??sAddrExtCmp::?relay`; Banked call to: sAddrExtCmp
   \   000024   E9           MOV       A,R1
   \   000025   6401         XRL       A,#0x1
   \   000027   7013         JNZ       ??ZDO_ProcessMgmtLeaveReq_1
   1867            {
   1868              if ( ( ZG_BUILD_COORDINATOR_TYPE ) && ( ZG_DEVICE_COORDINATOR_TYPE ) )
   \                     ??ZDO_ProcessMgmtLeaveReq_0:
   \   000029   90....       MOV       DPTR,#zgDeviceLogicalType
   \   00002C   E0           MOVX      A,@DPTR
   \   00002D   7003         JNZ       $+5
   \   00002F   02....       LJMP      ??ZDO_ProcessMgmtLeaveReq_2 & 0xFFFF
   1869              {
   1870                // Coordinator shall drop the leave request for itself
   1871                // section 3.6.1.10.3.1 R21
   1872                return;
   1873              }
   1874              else
   1875              {
   1876                // Remove this device
   1877                req.extAddr = NULL;
   \   000032   7401         MOV       A,#0x1
   \   000034   12....       LCALL     ?XSTACK_DISP0_8
   \   000037   E4           CLR       A
   \   000038   F0           MOVX      @DPTR,A
   \   000039   A3           INC       DPTR
   \   00003A   8009         SJMP      ??ZDO_ProcessMgmtLeaveReq_3
   1878              }
   1879            }
   1880            else
   1881            {
   1882              // Remove child device
   1883              req.extAddr = msg;
   \                     ??ZDO_ProcessMgmtLeaveReq_1:
   \   00003C   7401         MOV       A,#0x1
   \   00003E   12....       LCALL     ?XSTACK_DISP0_8
   \   000041   EE           MOV       A,R6
   \   000042   F0           MOVX      @DPTR,A
   \   000043   A3           INC       DPTR
   \   000044   EF           MOV       A,R7
   \                     ??ZDO_ProcessMgmtLeaveReq_3:
   \   000045   F0           MOVX      @DPTR,A
   1884            }
   1885            if ( ( ZG_BUILD_ENDDEVICE_TYPE ) && ( ZG_DEVICE_ENDDEVICE_TYPE ) )
   \   000046   90....       MOV       DPTR,#zgDeviceLogicalType
   \   000049   E0           MOVX      A,@DPTR
   \   00004A   6402         XRL       A,#0x2
   \   00004C   7017         JNZ       ??ZDO_ProcessMgmtLeaveReq_4
   1886            {
   1887              //Only the parent device can request to leave, otherwise silently discard the frame
   1888              if(inMsg->srcAddr.addr.shortAddr != _NIB.nwkCoordAddress)
   \   00004E   85..82       MOV       DPL,?V0
   \   000051   85..83       MOV       DPH,?V1
   \   000054   A3           INC       DPTR
   \   000055   A3           INC       DPTR
   \   000056   12....       LCALL     ?Subroutine116 & 0xFFFF
   \                     ??CrossCallReturnLabel_182:
   \   000059   E0           MOVX      A,@DPTR
   \   00005A   68           XRL       A,R0
   \   00005B   7003         JNZ       ??ZDO_ProcessMgmtLeaveReq_5
   \   00005D   A3           INC       DPTR
   \   00005E   E0           MOVX      A,@DPTR
   \   00005F   69           XRL       A,R1
   \                     ??ZDO_ProcessMgmtLeaveReq_5:
   \   000060   6003         JZ        $+5
   \   000062   02....       LJMP      ??ZDO_ProcessMgmtLeaveReq_2 & 0xFFFF
   1889              {
   1890                return;
   1891              }
   1892            }
   1893          
   1894            option = msg[Z_EXTADDR_LEN];
   \                     ??ZDO_ProcessMgmtLeaveReq_4:
   \   000065   8E82         MOV       DPL,R6
   \   000067   8F83         MOV       DPH,R7
   \   000069   A3           INC       DPTR
   \   00006A   A3           INC       DPTR
   \   00006B   A3           INC       DPTR
   \   00006C   A3           INC       DPTR
   \   00006D   A3           INC       DPTR
   \   00006E   A3           INC       DPTR
   \   00006F   A3           INC       DPTR
   \   000070   A3           INC       DPTR
   \   000071   E0           MOVX      A,@DPTR
   \   000072   FE           MOV       R6,A
   1895            if ( option & ZDP_MGMT_LEAVE_REQ_RC )
   \   000073   A2E6         MOV       C,0xE0 /* A   */.6
   \   000075   5008         JNC       ??ZDO_ProcessMgmtLeaveReq_6
   1896            {
   1897              req.removeChildren = TRUE;
   \   000077   7403         MOV       A,#0x3
   \   000079   12....       LCALL     ?XSTACK_DISP0_8
   \   00007C   7401         MOV       A,#0x1
   \   00007E   F0           MOVX      @DPTR,A
   1898            }
   1899          
   1900            if ( option & ZDP_MGMT_LEAVE_REQ_REJOIN )
   \                     ??ZDO_ProcessMgmtLeaveReq_6:
   \   00007F   EE           MOV       A,R6
   \   000080   A2E7         MOV       C,0xE0 /* A   */.7
   \   000082   5008         JNC       ??ZDO_ProcessMgmtLeaveReq_7
   1901            {
   1902               req.rejoin = TRUE;
   \   000084   7404         MOV       A,#0x4
   \   000086   12....       LCALL     ?XSTACK_DISP0_8
   \   000089   7401         MOV       A,#0x1
   \   00008B   F0           MOVX      @DPTR,A
   1903            }
   1904          
   1905            req.silent = FALSE;
   \                     ??ZDO_ProcessMgmtLeaveReq_7:
   \   00008C   7405         MOV       A,#0x5
   \   00008E   12....       LCALL     ?XSTACK_DISP0_8
   \   000091   E4           CLR       A
   \   000092   12....       LCALL     ?Subroutine48 & 0xFFFF
   1906            
   1907            //According to R21 spec sec2.4.3.3.5.2 Mgmt leave rsp must contain the status response from the nwk leave processing. 
   1908            //Latest discussion in Zigbee indicates that mgmt leave rsp due to an OTA command must have status=success (9/12/16)
   1909            status = ZSuccess;
   \                     ??CrossCallReturnLabel_69:
   \   000095   F0           MOVX      @DPTR,A
   1910            
   1911            ZDP_MgmtLeaveRsp( inMsg->TransSeq, &(inMsg->srcAddr), status, FALSE );
   \   000096                ; Setup parameters for call to function ZDP_SendData
   \   000096   F5..         MOV       ?V2,A
   \   000098   78..         MOV       R0,#?V2
   \   00009A   12....       LCALL     ?PUSH_XSTACK_I_ONE
   \   00009D   7401         MOV       A,#0x1
   \   00009F   12....       LCALL     ?XSTACK_DISP100_8
   \   0000A2   88..         MOV       ?V2,R0
   \   0000A4   89..         MOV       ?V3,R1
   \   0000A6   78..         MOV       R0,#?V2
   \   0000A8   12....       LCALL     ?PUSH_XSTACK_I_TWO
   \   0000AB   75..34       MOV       ?V2,#0x34
   \   0000AE   75..80       MOV       ?V3,#-0x80
   \   0000B1   78..         MOV       R0,#?V2
   \   0000B3   12....       LCALL     ?PUSH_XSTACK_I_TWO
   \   0000B6   12....       LCALL     ?Subroutine145 & 0xFFFF
   \                     ??CrossCallReturnLabel_226:
   \   0000B9   12....       LCALL     ?DEALLOC_XSTACK8
   1912            
   1913            if ( ZG_BUILD_ENDDEVICE_TYPE )
   1914            {
   1915              // Stop polling and get ready to reset
   1916              NLME_SetPollRate( 0 );
   \   0000BC                ; Setup parameters for call to function NLME_SetPollRate
   \   0000BC   90....       MOV       DPTR,#__Constant_0
   \   0000BF   12....       LCALL     ?XLOAD_R2345
   \   0000C2   12....       LCALL     `??NLME_SetPollRate::?relay`; Banked call to: NLME_SetPollRate
   1917              NLME_SetResponseRate(0);
   \   0000C5                ; Setup parameters for call to function NLME_SetResponseRate
   \   0000C5   7A00         MOV       R2,#0x0
   \   0000C7   7B00         MOV       R3,#0x0
   \   0000C9   12....       LCALL     `??NLME_SetResponseRate::?relay`; Banked call to: NLME_SetResponseRate
   1918              NLME_SetQueuedPollRate(0);
   \   0000CC                ; Setup parameters for call to function NLME_SetQueuedPollRate
   \   0000CC   7A00         MOV       R2,#0x0
   \   0000CE   7B00         MOV       R3,#0x0
   \   0000D0   12....       LCALL     `??NLME_SetQueuedPollRate::?relay`; Banked call to: NLME_SetQueuedPollRate
   1919            }
   1920            
   1921            NLME_LeaveReq(&req);
   \   0000D3                ; Setup parameters for call to function NLME_LeaveReq
   \   0000D3   7401         MOV       A,#0x1
   \   0000D5   12....       LCALL     ?XSTACK_DISP101_8
   \   0000D8   12....       LCALL     `??NLME_LeaveReq::?relay`; Banked call to: NLME_LeaveReq
   1922            
   1923            if (! (option & ZDP_MGMT_LEAVE_REQ_REJOIN) )
   \   0000DB   EE           MOV       A,R6
   \   0000DC   A2E7         MOV       C,0xE0 /* A   */.7
   \   0000DE   400D         JC        ??ZDO_ProcessMgmtLeaveReq_2
   1924            {
   1925              if(req.extAddr == NULL)
   \   0000E0   7401         MOV       A,#0x1
   \   0000E2   12....       LCALL     ?XSTACK_DISP0_8
   \   0000E5   12....       LCALL     ??Subroutine250_0 & 0xFFFF
   \                     ??CrossCallReturnLabel_463:
   \   0000E8   7003         JNZ       ??ZDO_ProcessMgmtLeaveReq_2
   1926              {
   1927                bdb_setFN();
   \   0000EA                ; Setup parameters for call to function bdb_setFN
   \   0000EA   12....       LCALL     `??bdb_setFN::?relay`; Banked call to: bdb_setFN
   1928              }
   1929            }
   1930          }
   \                     ??ZDO_ProcessMgmtLeaveReq_2:
   \   0000ED   7406         MOV       A,#0x6
   \   0000EF   02....       LJMP      ?Subroutine5 & 0xFFFF

   \                                 In  segment BANKED_CODE, align 1, keep-with-next
   \                     ?Subroutine106:
   \   000000   F583         MOV       DPH,A
   \   000002                REQUIRE ??Subroutine247_0
   \   000002                ; // Fall through to label ??Subroutine247_0

   \                                 In  segment BANKED_CODE, align 1, keep-with-next
   \                     ?Subroutine48:
   \   000000   F0           MOVX      @DPTR,A
   \   000001   85..82       MOV       DPL,?XSP + 0
   \   000004   85..83       MOV       DPH,?XSP + 1
   \   000007   22           RET

   \                                 In  segment BANKED_CODE, align 1, keep-with-next
   \                     ?Subroutine116:
   \   000000   12....       LCALL     ??Subroutine278_0 & 0xFFFF
   \                     ??CrossCallReturnLabel_605:
   \   000003   90....       MOV       DPTR,#_NIB + 23
   \   000006   22           RET
   1931          
   1932          
   1933          /*********************************************************************
   1934           * @fn          ZDO_ProcessMgmtPermitJoinReq
   1935           *
   1936           * @brief       This function processes a Management Permit Join Request
   1937           *              and generates the response.
   1938           *
   1939           * @param       inMsg - incoming message (request)
   1940           *
   1941           * @return      none
   1942           */

   \                                 In  segment BANKED_CODE, align 1, keep-with-next
   1943          void ZDO_ProcessMgmtPermitJoinReq( zdoIncomingMsg_t *inMsg )
   \                     ZDO_ProcessMgmtPermitJoinReq:
   1944          {
   \   000000                REQUIRE ?V0
   \   000000                REQUIRE ?V1
   \   000000   74F6         MOV       A,#-0xa
   \   000002   12....       LCALL     ?BANKED_ENTER_XDATA
   \   000005                ; Saved register size: 10
   \   000005                ; Auto size: 1
   \   000005   74FF         MOV       A,#-0x1
   \   000007   12....       LCALL     ?ALLOC_XSTACK8
   \   00000A   EA           MOV       A,R2
   \   00000B   FE           MOV       R6,A
   \   00000C   EB           MOV       A,R3
   \   00000D   FF           MOV       R7,A
   1945            uint8 stat;
   1946            uint8 duration;
   1947          #if (ZG_BUILD_COORDINATOR_TYPE)
   1948            if(ZG_DEVICE_COORDINATOR_TYPE)
   \   00000E   90....       MOV       DPTR,#zgDeviceLogicalType
   \   000011   E0           MOVX      A,@DPTR
   \   000012   7011         JNZ       ??ZDO_ProcessMgmtPermitJoinReq_0
   1949            {
   1950              //If zgAllowRemoteTCPolicyChange is set to FALSE, the request from other 
   1951              //devices cannot affect the  Trust Center policies
   1952              if((zgAllowRemoteTCPolicyChange == 0) && (inMsg->srcAddr.addr.shortAddr!= 0x0000))
   \   000014   90....       MOV       DPTR,#zgAllowRemoteTCPolicyChange
   \   000017   E0           MOVX      A,@DPTR
   \   000018   700B         JNZ       ??ZDO_ProcessMgmtPermitJoinReq_0
   \   00001A   8A82         MOV       DPL,R2
   \   00001C   8B83         MOV       DPH,R3
   \   00001E   A3           INC       DPTR
   \   00001F   A3           INC       DPTR
   \   000020   12....       LCALL     ??Subroutine250_0 & 0xFFFF
   \                     ??CrossCallReturnLabel_464:
   \   000023   7063         JNZ       ??ZDO_ProcessMgmtPermitJoinReq_1
   1953              {
   1954                return;
   1955              }
   1956            }
   1957          #endif
   1958            
   1959            duration = inMsg->asdu[ZDP_MGMT_PERMIT_JOIN_REQ_DURATION];
   \                     ??ZDO_ProcessMgmtPermitJoinReq_0:
   \   000025   12....       LCALL     ?Subroutine137 & 0xFFFF
   \                     ??CrossCallReturnLabel_452:
   \   000028   12....       LCALL     ??Subroutine243_0 & 0xFFFF
   \                     ??CrossCallReturnLabel_416:
   \   00002B   F5..         MOV       ?V0,A
   1960            // Per R21 Spec this field is not longer relevant 2.4.3.3.7.2 (Mgmt_Permit_Joining_req Effect on Receipt)
   1961            //tcsig    = inMsg->asdu[ZDP_MGMT_PERMIT_JOIN_REQ_TC_SIG];
   1962          
   1963            // Per R21 Spec this duration cannot last forever 2.4.3.3.7.2 (Mgmt_Permit_Joining_req Effect on Receipt)
   1964            if(duration == 0xFF)
   \   00002D   74FF         MOV       A,#-0x1
   \   00002F   65..         XRL       A,?V0
   \   000031   7003         JNZ       ??ZDO_ProcessMgmtPermitJoinReq_2
   1965            {
   1966              duration = 0xFE;
   \   000033   75..FE       MOV       ?V0,#-0x2
   1967            }
   1968            
   1969            // Set the network layer permit join duration
   1970            stat = (byte) NLME_PermitJoiningRequest( duration );
   \                     ??ZDO_ProcessMgmtPermitJoinReq_2:
   \   000036                ; Setup parameters for call to function NLME_PermitJoiningRequest
   \   000036   A9..         MOV       R1,?V0
   \   000038   12....       LCALL     `??NLME_PermitJoiningRequest::?relay`; Banked call to: NLME_PermitJoiningRequest
   \   00003B   E9           MOV       A,R1
   \   00003C   85..82       MOV       DPL,?XSP + 0
   \   00003F   85..83       MOV       DPH,?XSP + 1
   \   000042   F0           MOVX      @DPTR,A
   1971          
   1972            //Handle the permit joining if running a distributed network
   1973            if(APSME_IsDistributedSecurity())
   \   000043                ; Setup parameters for call to function APSME_IsDistributedSecurity
   \   000043   12....       LCALL     `??APSME_IsDistributedSecurity::?relay`; Banked call to: APSME_IsDistributedSecurity
   \   000046   E9           MOV       A,R1
   \   000047   6005         JZ        ??ZDO_ProcessMgmtPermitJoinReq_3
   1974            {
   1975              ZDSecMgrPermitJoining( duration );
   \   000049                ; Setup parameters for call to function ZDSecMgrPermitJoining
   \   000049   A9..         MOV       R1,?V0
   \   00004B   12....       LCALL     `??ZDSecMgrPermitJoining::?relay`; Banked call to: ZDSecMgrPermitJoining
   1976            }
   1977            
   1978            // Handle the Trust Center Significance
   1979            if ( ZG_SECURE_ENABLED && ZG_BUILD_COORDINATOR_TYPE && ZG_DEVICE_COORDINATOR_TYPE )
   \                     ??ZDO_ProcessMgmtPermitJoinReq_3:
   \   00004E   90....       MOV       DPTR,#zgDeviceLogicalType
   \   000051   E0           MOVX      A,@DPTR
   \   000052   7005         JNZ       ??ZDO_ProcessMgmtPermitJoinReq_4
   1980            {
   1981              ZDSecMgrPermitJoining( duration );
   \   000054                ; Setup parameters for call to function ZDSecMgrPermitJoining
   \   000054   A9..         MOV       R1,?V0
   \   000056   12....       LCALL     `??ZDSecMgrPermitJoining::?relay`; Banked call to: ZDSecMgrPermitJoining
   1982            }
   1983          
   1984            // Send a response if unicast
   1985            if ( !inMsg->wasBroadcast )
   \                     ??ZDO_ProcessMgmtPermitJoinReq_4:
   \   000059   EE           MOV       A,R6
   \   00005A   240B         ADD       A,#0xb
   \   00005C   12....       LCALL     ??Subroutine251_0 & 0xFFFF
   \                     ??CrossCallReturnLabel_485:
   \   00005F   7027         JNZ       ??ZDO_ProcessMgmtPermitJoinReq_1
   1986            {
   1987              ZDP_MgmtPermitJoinRsp( inMsg->TransSeq, &(inMsg->srcAddr), stat, false );
   \   000061                ; Setup parameters for call to function ZDP_SendData
   \   000061   75..00       MOV       ?V0,#0x0
   \   000064   78..         MOV       R0,#?V0
   \   000066   12....       LCALL     ?PUSH_XSTACK_I_ONE
   \   000069   7401         MOV       A,#0x1
   \   00006B   12....       LCALL     ?XSTACK_DISP100_8
   \   00006E   88..         MOV       ?V0,R0
   \   000070   89..         MOV       ?V1,R1
   \   000072   78..         MOV       R0,#?V0
   \   000074   12....       LCALL     ?PUSH_XSTACK_I_TWO
   \   000077   75..36       MOV       ?V0,#0x36
   \   00007A   75..80       MOV       ?V1,#-0x80
   \   00007D   78..         MOV       R0,#?V0
   \   00007F   12....       LCALL     ?PUSH_XSTACK_I_TWO
   \   000082   12....       LCALL     ?Subroutine126 & 0xFFFF
   1988            }
   \                     ??CrossCallReturnLabel_426:
   \   000085   12....       LCALL     ?DEALLOC_XSTACK8
   1989          }
   \                     ??ZDO_ProcessMgmtPermitJoinReq_1:
   \   000088   02....       LJMP      ?Subroutine9 & 0xFFFF
   1990          
   1991          /*
   1992           * This function stub allows the next higher layer to be notified of
   1993           * a permit joining timeout.
   1994           */
   1995          /*********************************************************************
   1996           * @fn          ZDO_ProcessMgmtPermitJoinTimeout
   1997           *
   1998           * @brief       This function stub allows the next higher layer to be
   1999           *              notified of a permit joining timeout. Currently, this
   2000           *              directly bypasses the APS layer.
   2001           *
   2002           * @param       none
   2003           *
   2004           * @return      none
   2005           */

   \                                 In  segment BANKED_CODE, align 1, keep-with-next
   2006          void ZDO_ProcessMgmtPermitJoinTimeout( void )
   \                     NLME_PermitJoiningTimeout:
   2007          {
   \   000000   C082         PUSH      DPL
   \   000002   C083         PUSH      DPH
   \   000004                ; Saved register size: 2
   \   000004                ; Auto size: 0
   2008            #if defined( ZDO_MGMT_PERMIT_JOIN_RESPONSE )
   2009            // Currently, only the ZDSecMgr needs to be notified
   2010            if ( ZG_SECURE_ENABLED && ZG_BUILD_COORDINATOR_TYPE && ZG_DEVICE_COORDINATOR_TYPE )
   \   000004   90....       MOV       DPTR,#zgDeviceLogicalType
   \   000007   E0           MOVX      A,@DPTR
   \   000008   7003         JNZ       ??NLME_PermitJoiningTimeout_0
   2011            {
   2012              ZDSecMgrPermitJoiningTimeout();
   \   00000A                ; Setup parameters for call to function ZDSecMgrPermitJoiningTimeout
   \   00000A   12....       LCALL     `??ZDSecMgrPermitJoiningTimeout::?relay`; Banked call to: ZDSecMgrPermitJoiningTimeout
   2013            }
   2014            #endif
   2015          }
   \                     ??NLME_PermitJoiningTimeout_0:
   \   00000D                REQUIRE ?Subroutine0
   \   00000D                ; // Fall through to label ?Subroutine0
   2016          
   2017          /*********************************************************************
   2018           * @fn          ZDO_ProcessUserDescReq
   2019           *
   2020           * @brief       This function finishes the processing of the User
   2021           *              Descriptor Request and generates the response.
   2022           *
   2023           * @param       inMsg - incoming message (request)
   2024           *
   2025           * @return      none
   2026           */

   \                                 In  segment BANKED_CODE, align 1, keep-with-next
   2027          void ZDO_ProcessUserDescReq( zdoIncomingMsg_t *inMsg )
   \                     ZDO_ProcessUserDescReq:
   2028          {
   \   000000                REQUIRE ?V0
   \   000000                REQUIRE ?V1
   \   000000                REQUIRE ?V2
   \   000000                REQUIRE ?V3
   \   000000   74F4         MOV       A,#-0xc
   \   000002   12....       LCALL     ?BANKED_ENTER_XDATA
   \   000005                ; Saved register size: 12
   \   000005                ; Auto size: 17
   \   000005   74EF         MOV       A,#-0x11
   \   000007   12....       LCALL     ?ALLOC_XSTACK8
   \   00000A   EA           MOV       A,R2
   \   00000B   FE           MOV       R6,A
   \   00000C   EB           MOV       A,R3
   \   00000D   FF           MOV       R7,A
   2029            uint16 aoi = BUILD_UINT16( inMsg->asdu[0], inMsg->asdu[1] );
   \   00000E   12....       LCALL     ?Subroutine75 & 0xFFFF
   \                     ??CrossCallReturnLabel_120:
   \   000011   F5..         MOV       ?V0,A
   \   000013   E4           CLR       A
   \   000014   39           ADDC      A,R1
   \   000015   F5..         MOV       ?V1,A
   2030            UserDescriptorFormat_t userDesc;
   2031          
   2032            if ( (aoi == ZDAppNwkAddr.addr.shortAddr) && (ZSUCCESS == osal_nv_read(
   2033                       ZCD_NV_USERDESC, 0, sizeof(UserDescriptorFormat_t), &userDesc )) )
   \   000017   90....       MOV       DPTR,#ZDAppNwkAddr
   \   00001A   E0           MOVX      A,@DPTR
   \   00001B   6A           XRL       A,R2
   \   00001C   7003         JNZ       ??ZDO_ProcessUserDescReq_0
   \   00001E   A3           INC       DPTR
   \   00001F   E0           MOVX      A,@DPTR
   \   000020   69           XRL       A,R1
   \                     ??ZDO_ProcessUserDescReq_0:
   \   000021   7052         JNZ       ??ZDO_ProcessUserDescReq_1
   \   000023                ; Setup parameters for call to function osal_nv_read
   \   000023   A8..         MOV       R0,?XSP + 0
   \   000025   A9..         MOV       R1,?XSP + 1
   \   000027   88..         MOV       ?V2,R0
   \   000029   89..         MOV       ?V3,R1
   \   00002B   78..         MOV       R0,#?V2
   \   00002D   12....       LCALL     ?PUSH_XSTACK_I_TWO
   \   000030   75..11       MOV       ?V2,#0x11
   \   000033   75..00       MOV       ?V3,#0x0
   \   000036   78..         MOV       R0,#?V2
   \   000038   12....       LCALL     ?PUSH_XSTACK_I_TWO
   \   00003B   7C00         MOV       R4,#0x0
   \   00003D   7D00         MOV       R5,#0x0
   \   00003F   7A81         MOV       R2,#-0x7f
   \   000041   7B00         MOV       R3,#0x0
   \   000043   12....       LCALL     `??osal_nv_read::?relay`; Banked call to: osal_nv_read
   \   000046   7404         MOV       A,#0x4
   \   000048   12....       LCALL     ?DEALLOC_XSTACK8
   \   00004B   E9           MOV       A,R1
   \   00004C   7027         JNZ       ??ZDO_ProcessUserDescReq_1
   2034            {
   2035              ZDP_UserDescRsp( inMsg->TransSeq, &(inMsg->srcAddr), aoi, &userDesc, false );
   \   00004E                ; Setup parameters for call to function ZDP_UserDescRsp
   \   00004E   75..00       MOV       ?V2,#0x0
   \   000051   78..         MOV       R0,#?V2
   \   000053   12....       LCALL     ?PUSH_XSTACK_I_ONE
   \   000056   7401         MOV       A,#0x1
   \   000058   12....       LCALL     ?XSTACK_DISP100_8
   \   00005B   88..         MOV       ?V2,R0
   \   00005D   89..         MOV       ?V3,R1
   \   00005F   78..         MOV       R0,#?V2
   \   000061   12....       LCALL     ?PUSH_XSTACK_I_TWO
   \   000064   AC..         MOV       R4,?V0
   \   000066   AD..         MOV       R5,?V1
   \   000068   12....       LCALL     ?Subroutine127 & 0xFFFF
   2036            }
   \                     ??CrossCallReturnLabel_199:
   \   00006B   12....       LCALL     `??ZDP_UserDescRsp::?relay`; Banked call to: ZDP_UserDescRsp
   \   00006E   7403         MOV       A,#0x3
   \   000070   12....       LCALL     ?DEALLOC_XSTACK8
   \   000073   8021         SJMP      ??ZDO_ProcessUserDescReq_2
   2037            else
   2038            {
   2039              ZDP_GenericRsp(inMsg->TransSeq, &(inMsg->srcAddr),
   2040                     ZDP_NOT_SUPPORTED, aoi, User_Desc_rsp, inMsg->SecurityUse );
   \                     ??ZDO_ProcessUserDescReq_1:
   \   000075                ; Setup parameters for call to function ZDP_GenericRsp
   \   000075   75..11       MOV       ?V2,#0x11
   \   000078   75..80       MOV       ?V3,#-0x80
   \   00007B   78..         MOV       R0,#?V2
   \   00007D   12....       LCALL     ?PUSH_XSTACK_I_TWO
   \   000080   78..         MOV       R0,#?V0
   \   000082   12....       LCALL     ?PUSH_XSTACK_I_TWO
   \   000085   12....       LCALL     ?Subroutine131 & 0xFFFF
   2041            }
   \                     ??CrossCallReturnLabel_492:
   \   000088   FD           MOV       R5,A
   \   000089   7C84         MOV       R4,#-0x7c
   \   00008B   12....       LCALL     ?Subroutine127 & 0xFFFF
   \                     ??CrossCallReturnLabel_200:
   \   00008E   12....       LCALL     `??ZDP_GenericRsp::?relay`; Banked call to: ZDP_GenericRsp
   \   000091   7404         MOV       A,#0x4
   \   000093   12....       LCALL     ?DEALLOC_XSTACK8
   2042          }
   \                     ??ZDO_ProcessUserDescReq_2:
   \   000096   7411         MOV       A,#0x11
   \   000098   02....       LJMP      ?Subroutine5 & 0xFFFF
   2043          
   2044          /*********************************************************************
   2045           * @fn          ZDO_ProcessUserDescSet
   2046           *
   2047           * @brief       This function finishes the processing of the User
   2048           *              Descriptor Set and generates the response.
   2049           *
   2050           * @param       inMsg - incoming message (request)
   2051           *
   2052           * @return      none
   2053           */

   \                                 In  segment BANKED_CODE, align 1, keep-with-next
   2054          void ZDO_ProcessUserDescSet( zdoIncomingMsg_t *inMsg )
   \                     ZDO_ProcessUserDescSet:
   2055          {
   \   000000                REQUIRE ?V0
   \   000000                REQUIRE ?V1
   \   000000                REQUIRE ?V2
   \   000000                REQUIRE ?V3
   \   000000                REQUIRE ?V4
   \   000000                REQUIRE ?V5
   \   000000                REQUIRE ?V6
   \   000000   74F1         MOV       A,#-0xf
   \   000002   12....       LCALL     ?BANKED_ENTER_XDATA
   \   000005                ; Saved register size: 15
   \   000005                ; Auto size: 21
   \   000005   74EB         MOV       A,#-0x15
   \   000007   12....       LCALL     ?ALLOC_XSTACK8
   \   00000A   EA           MOV       A,R2
   \   00000B   FE           MOV       R6,A
   \   00000C   EB           MOV       A,R3
   \   00000D   FF           MOV       R7,A
   2056            uint8 *msg;
   2057            uint16 aoi;
   2058            UserDescriptorFormat_t userDesc;
   2059            uint8 outMsg[3];
   2060            uint8 status;
   2061          
   2062            msg = inMsg->asdu;
   \   00000E   12....       LCALL     ?Subroutine144 & 0xFFFF
   \                     ??CrossCallReturnLabel_408:
   \   000011   3F           ADDC      A,R7
   \   000012   12....       LCALL     ?Subroutine89 & 0xFFFF
   2063            aoi = BUILD_UINT16( msg[0], msg[1] );
   \                     ??CrossCallReturnLabel_141:
   \   000015   FA           MOV       R2,A
   \   000016   E4           CLR       A
   \   000017   CA           XCH       A,R2
   \   000018   FB           MOV       R3,A
   \   000019   EC           MOV       A,R4
   \   00001A   2A           ADD       A,R2
   \   00001B   F5..         MOV       ?V0,A
   2064          
   2065            if ( aoi == ZDAppNwkAddr.addr.shortAddr )
   \   00001D   90....       MOV       DPTR,#ZDAppNwkAddr
   \   000020   E0           MOVX      A,@DPTR
   \   000021   6C           XRL       A,R4
   \   000022   7003         JNZ       ??ZDO_ProcessUserDescSet_0
   \   000024   A3           INC       DPTR
   \   000025   E0           MOVX      A,@DPTR
   \   000026   6B           XRL       A,R3
   \                     ??ZDO_ProcessUserDescSet_0:
   \   000027   6003         JZ        $+5
   \   000029   02....       LJMP      ??ZDO_ProcessUserDescSet_1 & 0xFFFF
   2066            {
   2067              userDesc.len = (msg[2] < AF_MAX_USER_DESCRIPTOR_LEN) ? msg[2] : AF_MAX_USER_DESCRIPTOR_LEN;
   \   00002C   8882         MOV       DPL,R0
   \   00002E   8983         MOV       DPH,R1
   \   000030   A3           INC       DPTR
   \   000031   A3           INC       DPTR
   \   000032   E0           MOVX      A,@DPTR
   \   000033   9410         SUBB      A,#0x10
   \   000035   500F         JNC       ??ZDO_ProcessUserDescSet_2
   \   000037   8882         MOV       DPL,R0
   \   000039   8983         MOV       DPH,R1
   \   00003B   A3           INC       DPTR
   \   00003C   A3           INC       DPTR
   \   00003D   E0           MOVX      A,@DPTR
   \   00003E   85..82       MOV       DPL,?XSP + 0
   \   000041   85..83       MOV       DPH,?XSP + 1
   \   000044   8008         SJMP      ??ZDO_ProcessUserDescSet_3
   \                     ??ZDO_ProcessUserDescSet_2:
   \   000046   85..82       MOV       DPL,?XSP + 0
   \   000049   85..83       MOV       DPH,?XSP + 1
   \   00004C   7410         MOV       A,#0x10
   \                     ??ZDO_ProcessUserDescSet_3:
   \   00004E   F0           MOVX      @DPTR,A
   \   00004F   E0           MOVX      A,@DPTR
   \   000050   C0E0         PUSH      A
   \   000052   7404         MOV       A,#0x4
   \   000054   12....       LCALL     ?XSTACK_DISP0_8
   \   000057   D0E0         POP       A
   \   000059   12....       LCALL     ?Subroutine39 & 0xFFFF
   2068              msg ++;  // increment one for the length field
   2069          
   2070              osal_memcpy( userDesc.desc, &msg[2], userDesc.len );
   \                     ??CrossCallReturnLabel_57:
   \   00005C   A982         MOV       R1,DPL
   \   00005E   AA83         MOV       R2,DPH
   \   000060   89..         MOV       ?V4,R1
   \   000062   8A..         MOV       ?V5,R2
   \   000064   75..00       MOV       ?V6,#0x0
   \   000067   78..         MOV       R0,#?V4
   \   000069   12....       LCALL     ?PUSH_XSTACK_I_THREE
   \   00006C   7407         MOV       A,#0x7
   \   00006E   12....       LCALL     ?XSTACK_DISP0_8
   \   000071   E0           MOVX      A,@DPTR
   \   000072   FC           MOV       R4,A
   \   000073   7D00         MOV       R5,#0x0
   \   000075   7408         MOV       A,#0x8
   \   000077   12....       LCALL     ?XSTACK_DISP0_8
   \   00007A   AA82         MOV       R2,DPL
   \   00007C   AB83         MOV       R3,DPH
   \   00007E   12....       LCALL     ??Subroutine296_0 & 0xFFFF
   \                     ??CrossCallReturnLabel_724:
   \   000081   12....       LCALL     ?DEALLOC_XSTACK8
   2071              osal_nv_write( ZCD_NV_USERDESC, 0, sizeof(UserDescriptorFormat_t), &userDesc );
   \   000084                ; Setup parameters for call to function osal_nv_write
   \   000084   7404         MOV       A,#0x4
   \   000086   12....       LCALL     ?XSTACK_DISP100_8
   \   000089   88..         MOV       ?V2,R0
   \   00008B   89..         MOV       ?V3,R1
   \   00008D   78..         MOV       R0,#?V2
   \   00008F   12....       LCALL     ?PUSH_XSTACK_I_TWO
   \   000092   75..11       MOV       ?V2,#0x11
   \   000095   75..00       MOV       ?V3,#0x0
   \   000098   78..         MOV       R0,#?V2
   \   00009A   12....       LCALL     ?PUSH_XSTACK_I_TWO
   \   00009D   7C00         MOV       R4,#0x0
   \   00009F   7D00         MOV       R5,#0x0
   \   0000A1   7A81         MOV       R2,#-0x7f
   \   0000A3   7B00         MOV       R3,#0x0
   \   0000A5   12....       LCALL     `??osal_nv_write::?relay`; Banked call to: osal_nv_write
   \   0000A8   7404         MOV       A,#0x4
   \   0000AA   12....       LCALL     ?DEALLOC_XSTACK8
   2072              if ( userDesc.len != 0 )
   \   0000AD   7404         MOV       A,#0x4
   \   0000AF   12....       LCALL     ?XSTACK_DISP0_8
   \   0000B2   E0           MOVX      A,@DPTR
   \   0000B3   90....       MOV       DPTR,#ZDO_Config_Node_Descriptor
   \   0000B6   6005         JZ        ??ZDO_ProcessUserDescSet_4
   2073              {
   2074                ZDO_Config_Node_Descriptor.UserDescAvail = TRUE;
   \   0000B8   E0           MOVX      A,@DPTR
   \   0000B9   D2E4         SETB      0xE0 /* A   */.4
   \   0000BB   8003         SJMP      ??ZDO_ProcessUserDescSet_5
   2075              }
   2076              else
   2077              {
   2078                ZDO_Config_Node_Descriptor.UserDescAvail = FALSE;
   \                     ??ZDO_ProcessUserDescSet_4:
   \   0000BD   E0           MOVX      A,@DPTR
   \   0000BE   C2E4         CLR       0xE0 /* A   */.4
   2079              }
   2080          
   2081              status = ZDP_SUCCESS;
   2082            }
   \                     ??ZDO_ProcessUserDescSet_5:
   \   0000C0   12....       LCALL     ?Subroutine48 & 0xFFFF
   \                     ??CrossCallReturnLabel_70:
   \   0000C3   E4           CLR       A
   \   0000C4   8008         SJMP      ??ZDO_ProcessUserDescSet_6
   2083            else
   2084            {
   2085              status =  ZDP_NOT_SUPPORTED;
   \                     ??ZDO_ProcessUserDescSet_1:
   \   0000C6   85..82       MOV       DPL,?XSP + 0
   \   0000C9   85..83       MOV       DPH,?XSP + 1
   \   0000CC   7484         MOV       A,#-0x7c
   \                     ??ZDO_ProcessUserDescSet_6:
   \   0000CE   F0           MOVX      @DPTR,A
   2086            }
   2087          
   2088            outMsg[0] = status;
   \   0000CF   E0           MOVX      A,@DPTR
   \   0000D0   C0E0         PUSH      A
   \   0000D2   7401         MOV       A,#0x1
   \   0000D4   12....       LCALL     ?XSTACK_DISP0_8
   \   0000D7   D0E0         POP       A
   \   0000D9   F0           MOVX      @DPTR,A
   2089            outMsg[1] = LO_UINT16( aoi );
   \   0000DA   7402         MOV       A,#0x2
   \   0000DC   12....       LCALL     ?XSTACK_DISP0_8
   \   0000DF   E5..         MOV       A,?V0
   \   0000E1   F0           MOVX      @DPTR,A
   2090            outMsg[2] = LO_UINT16( aoi );
   \   0000E2   7403         MOV       A,#0x3
   \   0000E4   12....       LCALL     ?XSTACK_DISP0_8
   \   0000E7   E5..         MOV       A,?V0
   \   0000E9   F0           MOVX      @DPTR,A
   2091          
   2092            ZDP_SendData( &(inMsg->TransSeq), &(inMsg->srcAddr), User_Desc_conf, 3, outMsg,
   2093                         inMsg->SecurityUse );
   \   0000EA                ; Setup parameters for call to function ZDP_SendData
   \   0000EA   12....       LCALL     ?Subroutine148 & 0xFFFF
   \                     ??CrossCallReturnLabel_709:
   \   0000ED   3F           ADDC      A,R7
   \   0000EE   12....       LCALL     ??Subroutine269_0 & 0xFFFF
   \                     ??CrossCallReturnLabel_554:
   \   0000F1   12....       LCALL     ?PUSH_XSTACK_I_ONE
   \   0000F4   7402         MOV       A,#0x2
   \   0000F6   12....       LCALL     ?XSTACK_DISP100_8
   \   0000F9   88..         MOV       ?V0,R0
   \   0000FB   89..         MOV       ?V1,R1
   \   0000FD   78..         MOV       R0,#?V0
   \   0000FF   12....       LCALL     ?PUSH_XSTACK_I_TWO
   \   000102   75..14       MOV       ?V0,#0x14
   \   000105   75..80       MOV       ?V1,#-0x80
   \   000108   78..         MOV       R0,#?V0
   \   00010A   12....       LCALL     ?PUSH_XSTACK_I_TWO
   \   00010D   7903         MOV       R1,#0x3
   \   00010F   12....       LCALL     ??Subroutine244_0 & 0xFFFF
   \                     ??CrossCallReturnLabel_427:
   \   000112   12....       LCALL     ?DEALLOC_XSTACK8
   2094          }
   \   000115   7415         MOV       A,#0x15
   \   000117   02....       LJMP      ?Subroutine8 & 0xFFFF

   \                                 In  segment BANKED_CODE, align 1, keep-with-next
   \                     ?Subroutine39:
   \   000000   12....       LCALL     ?Subroutine179 & 0xFFFF
   \                     ??CrossCallReturnLabel_292:
   \   000003   22           RET

   \                                 In  segment BANKED_CODE, align 1, keep-with-next
   \                     ?Subroutine179:
   \   000000   12....       LCALL     ?Subroutine213 & 0xFFFF
   \                     ??CrossCallReturnLabel_342:
   \   000003   22           RET

   \                                 In  segment BANKED_CODE, align 1, keep-with-next
   \                     ?Subroutine213:
   \   000000   F0           MOVX      @DPTR,A
   \   000001                ; Setup parameters for call to function osal_memcpy
   \   000001   8882         MOV       DPL,R0
   \   000003   8983         MOV       DPH,R1
   \   000005   A3           INC       DPTR
   \   000006   A3           INC       DPTR
   \   000007   A3           INC       DPTR
   \   000008   22           RET

   \                                 In  segment BANKED_CODE, align 1, keep-with-next
   \                     ?Subroutine8:
   \   000000   12....       LCALL     ?DEALLOC_XSTACK8
   \   000003                REQUIRE ??Subroutine288_0
   \   000003                ; // Fall through to label ??Subroutine288_0

   \                                 In  segment BANKED_CODE, align 1, keep-with-next
   \                     ??Subroutine288_0:
   \   000000   7F07         MOV       R7,#0x7
   \   000002   02....       LJMP      ?BANKED_LEAVE_XDATA

   \                                 In  segment BANKED_CODE, align 1, keep-with-next
   \                     ?Subroutine148:
   \   000000   EE           MOV       A,R6
   \   000001                REQUIRE ??Subroutine291_0
   \   000001                ; // Fall through to label ??Subroutine291_0

   \                                 In  segment BANKED_CODE, align 1, keep-with-next
   \                     ??Subroutine291_0:
   \   000000   240E         ADD       A,#0xe
   \   000002   F582         MOV       DPL,A
   \   000004   E4           CLR       A
   \   000005   22           RET
   2095          
   2096          /*********************************************************************
   2097           * @fn          ZDO_ProcessDeviceAnnce
   2098           *
   2099           * @brief       This function processes a device annouce message.
   2100           *
   2101           * @param       inMsg - incoming message
   2102           *
   2103           * @return      none
   2104           */

   \                                 In  segment BANKED_CODE, align 1, keep-with-next
   \                     ?Subroutine104:
   \   000000   85..82       MOV       DPL,?XSP + 0
   \   000003   85..83       MOV       DPH,?XSP + 1
   \   000006                REQUIRE ??Subroutine245_0
   \   000006                ; // Fall through to label ??Subroutine245_0

   \                                 In  segment BANKED_CODE, align 1, keep-with-next
   2105          void ZDO_ProcessDeviceAnnce( zdoIncomingMsg_t *inMsg )
   \                     ZDO_ProcessDeviceAnnce:
   2106          {
   \   000000                REQUIRE ?V0
   \   000000                REQUIRE ?V1
   \   000000   74F6         MOV       A,#-0xa
   \   000002   12....       LCALL     ?BANKED_ENTER_XDATA
   \   000005                ; Saved register size: 10
   \   000005                ; Auto size: 32
   \   000005   74E0         MOV       A,#-0x20
   \   000007   12....       LCALL     ?ALLOC_XSTACK8
   \   00000A   EA           MOV       A,R2
   \   00000B   FE           MOV       R6,A
   \   00000C   EB           MOV       A,R3
   \   00000D   FF           MOV       R7,A
   2107            ZDO_DeviceAnnce_t Annce;
   2108            AddrMgrEntry_t addrEntry;
   2109            uint8 parentExt[Z_EXTADDR_LEN];
   2110          #if !defined (DISABLE_GREENPOWER_BASIC_PROXY) && (ZG_BUILD_RTR_TYPE)
   2111            uint8 invalidIEEE[Z_EXTADDR_LEN] = {0xFF, 0xFF, 0xFF, 0xFF, 0xFF, 0xFF, 0xFF, 0xFF};
   2112          #endif
   2113          
   2114            if ( (_NIB.nwkState != NWK_ROUTER) && (_NIB.nwkState != NWK_ENDDEVICE) )
   \   00000E   90....       MOV       DPTR,#_NIB + 35
   \   000011   E0           MOVX      A,@DPTR
   \   000012   6408         XRL       A,#0x8
   \   000014   6008         JZ        ??ZDO_ProcessDeviceAnnce_0
   \   000016   E0           MOVX      A,@DPTR
   \   000017   6404         XRL       A,#0x4
   \   000019   6003         JZ        $+5
   \   00001B   02....       LJMP      ??ZDO_ProcessDeviceAnnce_1 & 0xFFFF
   2115            {
   2116              // we arent stable, ignore the message
   2117              return;
   2118            }
   2119            
   2120            // Parse incoming message
   2121            ZDO_ParseDeviceAnnce( inMsg, &Annce );
   \                     ??ZDO_ProcessDeviceAnnce_0:
   \   00001E                ; Setup parameters for call to function ZDO_ParseDeviceAnnce
   \   00001E   AC..         MOV       R4,?XSP + 0
   \   000020   AD..         MOV       R5,?XSP + 1
   \   000022   12....       LCALL     `??ZDO_ParseDeviceAnnce::?relay`; Banked call to: ZDO_ParseDeviceAnnce
   2122          
   2123            if ( ZSTACK_END_DEVICE_BUILD )
   \   000025   90....       MOV       DPTR,#zgDeviceLogicalType
   \   000028   E0           MOVX      A,@DPTR
   \   000029   6402         XRL       A,#0x2
   \   00002B   7027         JNZ       ??ZDO_ProcessDeviceAnnce_2
   2124            {
   2125              // Make sure the message didn't come from myself - end device only
   2126              if ( osal_ExtAddrEqual( NLME_GetExtAddr(), Annce.extAddr ) && Annce.nwkAddr == NLME_GetShortAddr() )
   \   00002D                ; Setup parameters for call to function NLME_GetExtAddr
   \   00002D   12....       LCALL     `??NLME_GetExtAddr::?relay`; Banked call to: NLME_GetExtAddr
   \   000030                ; Setup parameters for call to function sAddrExtCmp
   \   000030   7402         MOV       A,#0x2
   \   000032   12....       LCALL     ?XSTACK_DISP0_8
   \   000035   AC82         MOV       R4,DPL
   \   000037   AD83         MOV       R5,DPH
   \   000039   12....       LCALL     `??sAddrExtCmp::?relay`; Banked call to: sAddrExtCmp
   \   00003C   E9           MOV       A,R1
   \   00003D   6015         JZ        ??ZDO_ProcessDeviceAnnce_2
   \   00003F                ; Setup parameters for call to function NLME_GetShortAddr
   \   00003F   12....       LCALL     ?Subroutine123 & 0xFFFF
   \                     ??CrossCallReturnLabel_192:
   \   000042   85..82       MOV       DPL,?XSP + 0
   \   000045   85..83       MOV       DPH,?XSP + 1
   \   000048   E0           MOVX      A,@DPTR
   \   000049   68           XRL       A,R0
   \   00004A   7003         JNZ       ??ZDO_ProcessDeviceAnnce_3
   \   00004C   A3           INC       DPTR
   \   00004D   E0           MOVX      A,@DPTR
   \   00004E   69           XRL       A,R1
   \                     ??ZDO_ProcessDeviceAnnce_3:
   \   00004F   7003         JNZ       $+5
   \   000051   02....       LJMP      ??ZDO_ProcessDeviceAnnce_1 & 0xFFFF
   2127              {
   2128                return;
   2129              }
   2130            }
   2131          
   2132          #if defined ( ZIGBEEPRO )
   2133            // Clean up the neighbor table
   2134            nwkNeighborRemoveAllStranded();
   \                     ??ZDO_ProcessDeviceAnnce_2:
   \   000054                ; Setup parameters for call to function nwkNeighborRemoveAllStranded
   \   000054   12....       LCALL     `??nwkNeighborRemoveAllStranded::?relay`; Banked call to: nwkNeighborRemoveAllStranded
   2135          
   2136            // If address conflict is detected, no need to update the address manager
   2137            if ( NLME_CheckNewAddrSet( Annce.nwkAddr, Annce.extAddr )== ZFailure )
   \   000057                ; Setup parameters for call to function NLME_CheckNewAddrSet
   \   000057   7402         MOV       A,#0x2
   \   000059   12....       LCALL     ?XSTACK_DISP0_8
   \   00005C   AC82         MOV       R4,DPL
   \   00005E   AD83         MOV       R5,DPH
   \   000060   12....       LCALL     ?Subroutine104 & 0xFFFF
   \                     ??CrossCallReturnLabel_438:
   \   000063   12....       LCALL     `??NLME_CheckNewAddrSet::?relay`; Banked call to: NLME_CheckNewAddrSet
   \   000066   E9           MOV       A,R1
   \   000067   6401         XRL       A,#0x1
   \   000069   7003         JNZ       $+5
   \   00006B   02....       LJMP      ??ZDO_ProcessDeviceAnnce_1 & 0xFFFF
   2138            {
   2139              return;
   2140            }
   2141          
   2142            // Check for parent's address
   2143            NLME_GetCoordExtAddr( parentExt );
   \   00006E                ; Setup parameters for call to function NLME_GetCoordExtAddr
   \   00006E   7418         MOV       A,#0x18
   \   000070   12....       LCALL     ?XSTACK_DISP101_8
   \   000073   12....       LCALL     `??NLME_GetCoordExtAddr::?relay`; Banked call to: NLME_GetCoordExtAddr
   2144            if ( osal_ExtAddrEqual( parentExt, Annce.extAddr ) )
   \   000076                ; Setup parameters for call to function sAddrExtCmp
   \   000076   7402         MOV       A,#0x2
   \   000078   12....       LCALL     ?XSTACK_DISP0_8
   \   00007B   AC82         MOV       R4,DPL
   \   00007D   AD83         MOV       R5,DPH
   \   00007F   7418         MOV       A,#0x18
   \   000081   12....       LCALL     ?XSTACK_DISP101_8
   \   000084   12....       LCALL     `??sAddrExtCmp::?relay`; Banked call to: sAddrExtCmp
   \   000087   E9           MOV       A,R1
   \   000088   6030         JZ        ??ZDO_ProcessDeviceAnnce_4
   2145            {
   2146              if ( Annce.nwkAddr != NLME_GetCoordShortAddr() )
   \   00008A                ; Setup parameters for call to function NLME_GetCoordShortAddr
   \   00008A   12....       LCALL     `??NLME_GetCoordShortAddr::?relay`; Banked call to: NLME_GetCoordShortAddr
   \   00008D   8A..         MOV       ?V0,R2
   \   00008F   8B..         MOV       ?V1,R3
   \   000091   A8..         MOV       R0,?V0
   \   000093   A9..         MOV       R1,?V1
   \   000095   85..82       MOV       DPL,?XSP + 0
   \   000098   85..83       MOV       DPH,?XSP + 1
   \   00009B   E0           MOVX      A,@DPTR
   \   00009C   68           XRL       A,R0
   \   00009D   7003         JNZ       ??ZDO_ProcessDeviceAnnce_5
   \   00009F   A3           INC       DPTR
   \   0000A0   E0           MOVX      A,@DPTR
   \   0000A1   69           XRL       A,R1
   \                     ??ZDO_ProcessDeviceAnnce_5:
   \   0000A2   6016         JZ        ??ZDO_ProcessDeviceAnnce_4
   2147              {
   2148                // Set the Parent's MAC's new short address
   2149                _NIB.nwkCoordAddress = Annce.nwkAddr;
   \   0000A4   85..82       MOV       DPL,?XSP + 0
   \   0000A7   85..83       MOV       DPH,?XSP + 1
   \   0000AA   12....       LCALL     ?Subroutine116 & 0xFFFF
   \                     ??CrossCallReturnLabel_183:
   \   0000AD   E8           MOV       A,R0
   \   0000AE   12....       LCALL     ??Subroutine277_0 & 0xFFFF
   2150                ZMacSetReq( ZMacCoordShortAddress, (byte*)&(_NIB.nwkCoordAddress) );
   \                     ??CrossCallReturnLabel_583:
   \   0000B1                ; Setup parameters for call to function ZMacSetReq
   \   0000B1   7A..         MOV       R2,#(_NIB + 23) & 0xff
   \   0000B3   7B..         MOV       R3,#((_NIB + 23) >> 8) & 0xff
   \   0000B5   794B         MOV       R1,#0x4b
   \   0000B7   12....       LCALL     `??ZMacSetReq::?relay`; Banked call to: ZMacSetReq
   2151              }
   2152            }
   2153          
   2154            if ( ZSTACK_ROUTER_BUILD )
   \                     ??ZDO_ProcessDeviceAnnce_4:
   \   0000BA   90....       MOV       DPTR,#zgDeviceLogicalType
   \   0000BD   E0           MOVX      A,@DPTR
   \   0000BE   6004         JZ        ??ZDO_ProcessDeviceAnnce_6
   \   0000C0   6401         XRL       A,#0x1
   \   0000C2   7067         JNZ       ??ZDO_ProcessDeviceAnnce_7
   2155            {
   2156              // If the device annce comes from a end device child that has moved
   2157              // to another parent, remove it from associated device list
   2158          
   2159              // If the dev annce is coming from other device's children,
   2160              // (The dev annce from its own children shall be unicast to itself,
   2161              // So check the mac destination address)
   2162              // Remove it from the associated device list. If it is not
   2163              // a child, no action will be taken in AssocRemove() anyway.
   2164              if ( inMsg->macDestAddr != NLME_GetShortAddr() )
   \                     ??ZDO_ProcessDeviceAnnce_6:
   \   0000C4                ; Setup parameters for call to function NLME_GetShortAddr
   \   0000C4   12....       LCALL     ?Subroutine123 & 0xFFFF
   \                     ??CrossCallReturnLabel_193:
   \   0000C7   EE           MOV       A,R6
   \   0000C8   2411         ADD       A,#0x11
   \   0000CA   12....       LCALL     ??Subroutine251_0 & 0xFFFF
   \                     ??CrossCallReturnLabel_486:
   \   0000CD   68           XRL       A,R0
   \   0000CE   7003         JNZ       ??ZDO_ProcessDeviceAnnce_8
   \   0000D0   A3           INC       DPTR
   \   0000D1   E0           MOVX      A,@DPTR
   \   0000D2   69           XRL       A,R1
   \                     ??ZDO_ProcessDeviceAnnce_8:
   \   0000D3   6056         JZ        ??ZDO_ProcessDeviceAnnce_7
   2165              {
   2166                associated_devices_t *dev_ptr;
   2167          
   2168                // If it's an end device child
   2169                dev_ptr = AssocGetWithExt( Annce.extAddr );
   \   0000D5                ; Setup parameters for call to function AssocGetWithExt
   \   0000D5   7402         MOV       A,#0x2
   \   0000D7   12....       LCALL     ?XSTACK_DISP0_8
   \   0000DA   AA82         MOV       R2,DPL
   \   0000DC   AB83         MOV       R3,DPH
   \   0000DE   12....       LCALL     `??AssocGetWithExt::?relay`; Banked call to: AssocGetWithExt
   \   0000E1   8B..         MOV       ?V1,R3
   \   0000E3   A9..         MOV       R1,?V1
   2170                if ( dev_ptr )
   \   0000E5   EA           MOV       A,R2
   \   0000E6   49           ORL       A,R1
   \   0000E7   6026         JZ        ??ZDO_ProcessDeviceAnnce_9
   2171                {
   2172                  if ( dev_ptr->nodeRelation == CHILD_RFD ||
   2173                       dev_ptr->nodeRelation == CHILD_RFD_RX_IDLE )
   \   0000E9   8A82         MOV       DPL,R2
   \   0000EB   8B83         MOV       DPH,R3
   \   0000ED   A3           INC       DPTR
   \   0000EE   A3           INC       DPTR
   \   0000EF   A3           INC       DPTR
   \   0000F0   A3           INC       DPTR
   \   0000F1   E0           MOVX      A,@DPTR
   \   0000F2   6401         XRL       A,#0x1
   \   0000F4   600D         JZ        ??ZDO_ProcessDeviceAnnce_10
   \   0000F6   8A82         MOV       DPL,R2
   \   0000F8   8B83         MOV       DPH,R3
   \   0000FA   A3           INC       DPTR
   \   0000FB   A3           INC       DPTR
   \   0000FC   A3           INC       DPTR
   \   0000FD   A3           INC       DPTR
   \   0000FE   E0           MOVX      A,@DPTR
   \   0000FF   6402         XRL       A,#0x2
   \   000101   700C         JNZ       ??ZDO_ProcessDeviceAnnce_9
   2174                  {
   2175                    AssocRemove( Annce.extAddr );
   \                     ??ZDO_ProcessDeviceAnnce_10:
   \   000103                ; Setup parameters for call to function AssocRemove
   \   000103   7402         MOV       A,#0x2
   \   000105   12....       LCALL     ?XSTACK_DISP0_8
   \   000108   AA82         MOV       R2,DPL
   \   00010A   AB83         MOV       R3,DPH
   \   00010C   12....       LCALL     `??AssocRemove::?relay`; Banked call to: AssocRemove
   2176                  }
   2177                }
   2178          
   2179                // Remove the address from the SrcMatch table,
   2180                // just in case the device was aged out by Child Management Table process
   2181                if ( ( pNwkNotMyChildListDelete != NULL ) &&
   2182                     ( zgChildAgingEnable == TRUE ) )
   \                     ??ZDO_ProcessDeviceAnnce_9:
   \   00010F   90....       MOV       DPTR,#pNwkNotMyChildListDelete
   \   000112   12....       LCALL     ??Subroutine250_0 & 0xFFFF
   \                     ??CrossCallReturnLabel_465:
   \   000115   6014         JZ        ??ZDO_ProcessDeviceAnnce_7
   \   000117   90....       MOV       DPTR,#zgChildAgingEnable
   \   00011A   E0           MOVX      A,@DPTR
   \   00011B   6401         XRL       A,#0x1
   \   00011D   700C         JNZ       ??ZDO_ProcessDeviceAnnce_7
   2183                {
   2184                  pNwkNotMyChildListDelete( Annce.nwkAddr );
   \   00011F                ; Setup parameters for indirect call
   \   00011F   12....       LCALL     ?Subroutine104 & 0xFFFF
   2185                }
   2186              }
   2187            }
   \                     ??CrossCallReturnLabel_439:
   \   000122   90....       MOV       DPTR,#pNwkNotMyChildListDelete + 1
   \   000125   12....       LCALL     ??Subroutine228_0 & 0xFFFF
   \                     ??CrossCallReturnLabel_421:
   \   000128   12....       LCALL     ?CALL_IND
   2188          
   2189            // Assume that the device has moved, remove existing routing entries
   2190            RTG_RemoveRtgEntry( Annce.nwkAddr, 0 );
   \                     ??ZDO_ProcessDeviceAnnce_7:
   \   00012B                ; Setup parameters for call to function RTG_RemoveRtgEntry
   \   00012B   7900         MOV       R1,#0x0
   \   00012D   12....       LCALL     ?Subroutine104 & 0xFFFF
   \                     ??CrossCallReturnLabel_440:
   \   000130   12....       LCALL     `??RTG_RemoveRtgEntry::?relay`; Banked call to: RTG_RemoveRtgEntry
   2191          
   2192            // Remove entry from neighborTable
   2193            nwkNeighborRemove( Annce.nwkAddr, _NIB.nwkPanId );
   \   000133                ; Setup parameters for call to function nwkNeighborRemove
   \   000133   90....       MOV       DPTR,#_NIB + 33
   \   000136   12....       LCALL     ??Subroutine226_0 & 0xFFFF
   \                     ??CrossCallReturnLabel_353:
   \   000139   12....       LCALL     ?Subroutine104 & 0xFFFF
   \                     ??CrossCallReturnLabel_441:
   \   00013C   12....       LCALL     `??nwkNeighborRemove::?relay`; Banked call to: nwkNeighborRemove
   2194          
   2195          #endif // ZIGBEEPRO
   2196          
   2197            // Fill in the extended address in address manager if we don't have it already.
   2198            addrEntry.user = ADDRMGR_USER_DEFAULT;
   \   00013F   740B         MOV       A,#0xb
   \   000141   12....       LCALL     ?XSTACK_DISP0_8
   \   000144   E4           CLR       A
   \   000145   12....       LCALL     ?Subroutine25 & 0xFFFF
   2199            addrEntry.nwkAddr = Annce.nwkAddr;
   \                     ??CrossCallReturnLabel_28:
   \   000148   740C         MOV       A,#0xc
   \   00014A   12....       LCALL     ?XSTACK_DISP0_8
   \   00014D   E8           MOV       A,R0
   \   00014E   12....       LCALL     ??Subroutine277_0 & 0xFFFF
   2200            if ( AddrMgrEntryLookupNwk( &addrEntry ) )
   \                     ??CrossCallReturnLabel_584:
   \   000151                ; Setup parameters for call to function AddrMgrEntryLookupNwk
   \   000151   740B         MOV       A,#0xb
   \   000153   12....       LCALL     ?XSTACK_DISP101_8
   \   000156   12....       LCALL     `??AddrMgrEntryLookupNwk::?relay`; Banked call to: AddrMgrEntryLookupNwk
   \   000159   E9           MOV       A,R1
   \   00015A   603F         JZ        ??ZDO_ProcessDeviceAnnce_11
   2201            {
   2202              osal_memset( parentExt, 0, Z_EXTADDR_LEN );
   \   00015C                ; Setup parameters for call to function osal_memset
   \   00015C   7C08         MOV       R4,#0x8
   \   00015E   7D00         MOV       R5,#0x0
   \   000160   7900         MOV       R1,#0x0
   \   000162   7418         MOV       A,#0x18
   \   000164   12....       LCALL     ?XSTACK_DISP101_8
   \   000167   12....       LCALL     `??osal_memset::?relay`; Banked call to: osal_memset
   2203              if ( osal_ExtAddrEqual( parentExt, addrEntry.extAddr ) )
   \   00016A                ; Setup parameters for call to function sAddrExtCmp
   \   00016A   740E         MOV       A,#0xe
   \   00016C   12....       LCALL     ?XSTACK_DISP0_8
   \   00016F   AC82         MOV       R4,DPL
   \   000171   AD83         MOV       R5,DPH
   \   000173   7418         MOV       A,#0x18
   \   000175   12....       LCALL     ?XSTACK_DISP101_8
   \   000178   12....       LCALL     `??sAddrExtCmp::?relay`; Banked call to: sAddrExtCmp
   \   00017B   E9           MOV       A,R1
   \   00017C   601D         JZ        ??ZDO_ProcessDeviceAnnce_11
   2204              {
   2205                AddrMgrExtAddrSet( addrEntry.extAddr, Annce.extAddr );
   \   00017E                ; Setup parameters for call to function AddrMgrExtAddrSet
   \   00017E   7402         MOV       A,#0x2
   \   000180   12....       LCALL     ?XSTACK_DISP0_8
   \   000183   AC82         MOV       R4,DPL
   \   000185   AD83         MOV       R5,DPH
   \   000187   740E         MOV       A,#0xe
   \   000189   12....       LCALL     ?XSTACK_DISP0_8
   \   00018C   AA82         MOV       R2,DPL
   \   00018E   AB83         MOV       R3,DPH
   \   000190   12....       LCALL     `??AddrMgrExtAddrSet::?relay`; Banked call to: AddrMgrExtAddrSet
   2206                AddrMgrEntryUpdate( &addrEntry );
   \   000193                ; Setup parameters for call to function AddrMgrEntryUpdate
   \   000193   740B         MOV       A,#0xb
   \   000195   12....       LCALL     ?XSTACK_DISP101_8
   \   000198   12....       LCALL     `??AddrMgrEntryUpdate::?relay`; Banked call to: AddrMgrEntryUpdate
   2207              }
   2208            }
   2209          
   2210            // Update the short address in address manager if it's been changed
   2211            AddrMgrExtAddrSet( addrEntry.extAddr, Annce.extAddr );
   \                     ??ZDO_ProcessDeviceAnnce_11:
   \   00019B                ; Setup parameters for call to function AddrMgrExtAddrSet
   \   00019B   7402         MOV       A,#0x2
   \   00019D   12....       LCALL     ?XSTACK_DISP0_8
   \   0001A0   AC82         MOV       R4,DPL
   \   0001A2   AD83         MOV       R5,DPH
   \   0001A4   740E         MOV       A,#0xe
   \   0001A6   12....       LCALL     ?XSTACK_DISP0_8
   \   0001A9   AA82         MOV       R2,DPL
   \   0001AB   AB83         MOV       R3,DPH
   \   0001AD   12....       LCALL     `??AddrMgrExtAddrSet::?relay`; Banked call to: AddrMgrExtAddrSet
   2212            if ( AddrMgrEntryLookupExt( &addrEntry ) )
   \   0001B0                ; Setup parameters for call to function AddrMgrEntryLookupExt
   \   0001B0   740B         MOV       A,#0xb
   \   0001B2   12....       LCALL     ?XSTACK_DISP101_8
   \   0001B5   12....       LCALL     `??AddrMgrEntryLookupExt::?relay`; Banked call to: AddrMgrEntryLookupExt
   \   0001B8   E9           MOV       A,R1
   \   0001B9   6031         JZ        ??ZDO_ProcessDeviceAnnce_1
   2213            {
   2214              if ( addrEntry.nwkAddr != Annce.nwkAddr )
   \   0001BB   740C         MOV       A,#0xc
   \   0001BD   12....       LCALL     ?XSTACK_DISP0_8
   \   0001C0   12....       LCALL     ??Subroutine238_0 & 0xFFFF
   \                     ??CrossCallReturnLabel_392:
   \   0001C3   85..82       MOV       DPL,?XSP + 0
   \   0001C6   85..83       MOV       DPH,?XSP + 1
   \   0001C9   E0           MOVX      A,@DPTR
   \   0001CA   68           XRL       A,R0
   \   0001CB   7003         JNZ       ??ZDO_ProcessDeviceAnnce_12
   \   0001CD   A3           INC       DPTR
   \   0001CE   E0           MOVX      A,@DPTR
   \   0001CF   69           XRL       A,R1
   \                     ??ZDO_ProcessDeviceAnnce_12:
   \   0001D0   601A         JZ        ??ZDO_ProcessDeviceAnnce_1
   2215              {
   2216                addrEntry.nwkAddr = Annce.nwkAddr;
   \   0001D2   85..82       MOV       DPL,?XSP + 0
   \   0001D5   85..83       MOV       DPH,?XSP + 1
   \   0001D8   12....       LCALL     ??Subroutine238_0 & 0xFFFF
   \                     ??CrossCallReturnLabel_393:
   \   0001DB   740C         MOV       A,#0xc
   \   0001DD   12....       LCALL     ?XSTACK_DISP0_8
   \   0001E0   E8           MOV       A,R0
   \   0001E1   12....       LCALL     ??Subroutine277_0 & 0xFFFF
   2217                AddrMgrEntryUpdate( &addrEntry );
   \                     ??CrossCallReturnLabel_585:
   \   0001E4                ; Setup parameters for call to function AddrMgrEntryUpdate
   \   0001E4   740B         MOV       A,#0xb
   \   0001E6   12....       LCALL     ?XSTACK_DISP101_8
   \   0001E9   12....       LCALL     `??AddrMgrEntryUpdate::?relay`; Banked call to: AddrMgrEntryUpdate
   2218              }
   2219            }
   2220          
   2221          #if !defined (DISABLE_GREENPOWER_BASIC_PROXY) && (ZG_BUILD_RTR_TYPE)
   2222            if(ZG_DEVICE_RTR_TYPE)
   2223            {
   2224              uint32 timeout;
   2225              uint8 invalidAddr;
   2226              uint8 sameAnnce;
   2227              
   2228              timeout = osal_get_timeoutEx( gp_TaskID, GP_PROXY_ALIAS_CONFLICT_TIMEOUT );
   2229              invalidAddr = osal_memcmp( Annce.extAddr, invalidIEEE, Z_EXTADDR_LEN );
   2230              sameAnnce = osal_memcmp( &Annce, &GP_aliasConflictAnnce, sizeof( ZDO_DeviceAnnce_t ) );
   2231                  
   2232              // Check GP proxy table to update the entry if necesary
   2233              if( timeout && ( invalidAddr && sameAnnce ) )
   2234              {
   2235                osal_stop_timerEx( gp_TaskID, GP_PROXY_ALIAS_CONFLICT_TIMEOUT );
   2236              }
   2237              else if(GP_CheckAnnouncedDeviceGCB != NULL)
   2238              {
   2239                GP_CheckAnnouncedDeviceGCB( Annce.extAddr, Annce.nwkAddr );       
   2240              }
   2241            }
   2242          #endif
   2243          }
   \                     ??ZDO_ProcessDeviceAnnce_1:
   \   0001EC   7420         MOV       A,#0x20
   \   0001EE   02....       LJMP      ??Subroutine224_0 & 0xFFFF

   \                                 In  segment BANKED_CODE, align 1, keep-with-next
   \                     ?Subroutine123:
   \   000000   12....       LCALL     `??NLME_GetShortAddr::?relay`; Banked call to: NLME_GetShortAddr
   \   000003   8A..         MOV       ?V0,R2
   \   000005   8B..         MOV       ?V1,R3
   \   000007   A8..         MOV       R0,?V0
   \   000009   A9..         MOV       R1,?V1
   \   00000B   22           RET
   2244          
   2245          /*********************************************************************
   2246           * @fn          ZDO_ProcessParentAnnce
   2247           *
   2248           * @brief       This function processes a Parent annouce message.
   2249           *
   2250           * @param       inMsg - incoming message
   2251           *
   2252           * @return      none
   2253           */

   \                                 In  segment BANKED_CODE, align 1, keep-with-next
   2254          void ZDO_ProcessParentAnnce( zdoIncomingMsg_t *inMsg )
   \                     ZDO_ProcessParentAnnce:
   2255          {
   \   000000                REQUIRE ?V0
   \   000000                REQUIRE ?V1
   \   000000                REQUIRE ?V2
   \   000000                REQUIRE ?V3
   \   000000                REQUIRE ?V4
   \   000000                REQUIRE ?V5
   \   000000                REQUIRE ?V6
   \   000000                REQUIRE ?V7
   \   000000                REQUIRE ?V8
   \   000000                REQUIRE ?V9
   \   000000                REQUIRE ?V10
   \   000000                REQUIRE ?V11
   \   000000   74EC         MOV       A,#-0x14
   \   000002   12....       LCALL     ?BANKED_ENTER_XDATA
   \   000005                ; Saved register size: 20
   \   000005                ; Auto size: 9
   \   000005   74F7         MOV       A,#-0x9
   \   000007   12....       LCALL     ?ALLOC_XSTACK8
   \   00000A   8A..         MOV       ?V8,R2
   \   00000C   8B..         MOV       ?V9,R3
   2256            ZDO_ParentAnnce_t *parentAnnce;
   2257            uint8 x;
   2258            uint8 childCount = 0;
   \   00000E   75..00       MOV       ?V7,#0x0
   2259          
   2260            ZDO_ChildInfoList_t *listHead = NULL;
   \   000011   75..00       MOV       ?V0,#0x0
   \   000014   75..00       MOV       ?V1,#0x0
   2261            ZDO_ChildInfoList_t *listTail;
   2262            ZDO_ChildInfoList_t *newNode;
   2263          
   2264            // Parse incoming message, memory is allocated by the parse function,
   2265            // it should be free after processing the message
   2266            parentAnnce = ZDO_ParseParentAnnce( inMsg );
   \   000017                ; Setup parameters for call to function ZDO_ParseParentAnnce
   \   000017   12....       LCALL     `??ZDO_ParseParentAnnce::?relay`; Banked call to: ZDO_ParseParentAnnce
   \   00001A   8A..         MOV       ?V2,R2
   \   00001C   8B..         MOV       ?V3,R3
   2267          
   2268            if ( parentAnnce != NULL )
   \   00001E   EA           MOV       A,R2
   \   00001F   4B           ORL       A,R3
   \   000020   7003         JNZ       $+5
   \   000022   02....       LJMP      ??ZDO_ProcessParentAnnce_0 & 0xFFFF
   2269            {
   2270              for ( x = 0; x < parentAnnce->numOfChildren; x++ )
   \   000025   75..00       MOV       ?V6,#0x0
   \   000028   801B         SJMP      ??ZDO_ProcessParentAnnce_1
   2271              {
   2272                associated_devices_t *dev_ptr;
   2273          
   2274                // If it's an End Device child
   2275                dev_ptr = AssocGetWithExt( parentAnnce->childInfo[x].extAddr );
   2276          
   2277                if ( dev_ptr )
   2278                {
   2279                  if ( dev_ptr->nodeRelation == CHILD_RFD ||
   2280                       dev_ptr->nodeRelation == CHILD_RFD_RX_IDLE )
   2281                  {
   2282                    if ( dev_ptr->keepaliveRcv == TRUE )
   2283                    {
   2284                      // Add one element to the list
   2285                      newNode = (ZDO_ChildInfoList_t *)osal_mem_alloc( sizeof(ZDO_ChildInfoList_t) );
   2286          
   2287                      osal_cpyExtAddr( newNode->child.extAddr, parentAnnce->childInfo[x].extAddr );
   2288          
   2289                      newNode->next = NULL;
   2290          
   2291                      if ( listHead == NULL )
   2292                      {
   2293                        // Initialize the head of the list
   2294                        listHead = listTail = newNode;
   2295                      }
   2296                      else
   2297                      {
   2298                        // Add new element to the end
   2299                        listTail->next = newNode;
   \                     ??ZDO_ProcessParentAnnce_2:
   \   00002A   EE           MOV       A,R6
   \   00002B   2408         ADD       A,#0x8
   \   00002D   F8           MOV       R0,A
   \   00002E   E4           CLR       A
   \   00002F   3F           ADDC      A,R7
   \   000030   F9           MOV       R1,A
   \   000031   8882         MOV       DPL,R0
   \   000033   F583         MOV       DPH,A
   \   000035   E5..         MOV       A,?V4
   \   000037   F0           MOVX      @DPTR,A
   \   000038   A3           INC       DPTR
   \   000039   E5..         MOV       A,?V5
   \   00003B   12....       LCALL     ?Subroutine180 & 0xFFFF
   2300          
   2301                        listTail = listTail->next;
   2302                      }
   \                     ??CrossCallReturnLabel_294:
   \   00003E   12....       LCALL     ??Subroutine247_0 & 0xFFFF
   2303          
   2304                      childCount++;
   \                     ??CrossCallReturnLabel_447:
   \   000041   05..         INC       ?V7
   \                     ??ZDO_ProcessParentAnnce_3:
   \   000043   05..         INC       ?V6
   \                     ??ZDO_ProcessParentAnnce_1:
   \   000045   85..82       MOV       DPL,?V2
   \   000048   85..83       MOV       DPH,?V3
   \   00004B   E0           MOVX      A,@DPTR
   \   00004C   F8           MOV       R0,A
   \   00004D   E5..         MOV       A,?V6
   \   00004F   C3           CLR       C
   \   000050   98           SUBB      A,R0
   \   000051   4003         JC        $+5
   \   000053   02....       LJMP      ??ZDO_ProcessParentAnnce_4 & 0xFFFF
   \   000056                ; Setup parameters for call to function AssocGetWithExt
   \   000056   E5..         MOV       A,?V6
   \   000058   F5..         MOV       ?V4,A
   \   00005A   75..00       MOV       ?V5,#0x0
   \   00005D   7403         MOV       A,#0x3
   \   00005F   78..         MOV       R0,#?V4
   \   000061   12....       LCALL     ?S_SHL
   \   000064   E5..         MOV       A,?V2
   \   000066   25..         ADD       A,?V4
   \   000068   F582         MOV       DPL,A
   \   00006A   E5..         MOV       A,?V3
   \   00006C   35..         ADDC      A,?V5
   \   00006E   F583         MOV       DPH,A
   \   000070   A3           INC       DPTR
   \   000071   AA82         MOV       R2,DPL
   \   000073   AB83         MOV       R3,DPH
   \   000075   12....       LCALL     `??AssocGetWithExt::?relay`; Banked call to: AssocGetWithExt
   \   000078   8B..         MOV       ?V5,R3
   \   00007A   A9..         MOV       R1,?V5
   \   00007C   EA           MOV       A,R2
   \   00007D   49           ORL       A,R1
   \   00007E   60C3         JZ        ??ZDO_ProcessParentAnnce_3
   \   000080   8A82         MOV       DPL,R2
   \   000082   8B83         MOV       DPH,R3
   \   000084   A3           INC       DPTR
   \   000085   A3           INC       DPTR
   \   000086   A3           INC       DPTR
   \   000087   A3           INC       DPTR
   \   000088   E0           MOVX      A,@DPTR
   \   000089   6401         XRL       A,#0x1
   \   00008B   600D         JZ        ??ZDO_ProcessParentAnnce_5
   \   00008D   8A82         MOV       DPL,R2
   \   00008F   8B83         MOV       DPH,R3
   \   000091   A3           INC       DPTR
   \   000092   A3           INC       DPTR
   \   000093   A3           INC       DPTR
   \   000094   A3           INC       DPTR
   \   000095   E0           MOVX      A,@DPTR
   \   000096   6402         XRL       A,#0x2
   \   000098   70A9         JNZ       ??ZDO_ProcessParentAnnce_3
   \                     ??ZDO_ProcessParentAnnce_5:
   \   00009A   EA           MOV       A,R2
   \   00009B   241B         ADD       A,#0x1b
   \   00009D   F582         MOV       DPL,A
   \   00009F   E4           CLR       A
   \   0000A0   39           ADDC      A,R1
   \   0000A1   F583         MOV       DPH,A
   \   0000A3   E0           MOVX      A,@DPTR
   \   0000A4   6401         XRL       A,#0x1
   \   0000A6   709B         JNZ       ??ZDO_ProcessParentAnnce_3
   \   0000A8                ; Setup parameters for call to function osal_mem_alloc
   \   0000A8   7A0A         MOV       R2,#0xa
   \   0000AA   7B00         MOV       R3,#0x0
   \   0000AC   12....       LCALL     ?Subroutine207 & 0xFFFF
   \                     ??CrossCallReturnLabel_689:
   \   0000AF                ; Setup parameters for call to function sAddrExtCpy
   \   0000AF   E5..         MOV       A,?V6
   \   0000B1   F5..         MOV       ?V10,A
   \   0000B3   75..00       MOV       ?V11,#0x0
   \   0000B6   7403         MOV       A,#0x3
   \   0000B8   78..         MOV       R0,#?V10
   \   0000BA   12....       LCALL     ?S_SHL
   \   0000BD   E5..         MOV       A,?V2
   \   0000BF   25..         ADD       A,?V10
   \   0000C1   F582         MOV       DPL,A
   \   0000C3   E5..         MOV       A,?V3
   \   0000C5   35..         ADDC      A,?V11
   \   0000C7   F583         MOV       DPH,A
   \   0000C9   A3           INC       DPTR
   \   0000CA   AC82         MOV       R4,DPL
   \   0000CC   AD83         MOV       R5,DPH
   \   0000CE   12....       LCALL     `??sAddrExtCpy::?relay`; Banked call to: sAddrExtCpy
   \   0000D1   85..82       MOV       DPL,?V4
   \   0000D4   85..83       MOV       DPH,?V5
   \   0000D7   A3           INC       DPTR
   \   0000D8   A3           INC       DPTR
   \   0000D9   A3           INC       DPTR
   \   0000DA   A3           INC       DPTR
   \   0000DB   A3           INC       DPTR
   \   0000DC   A3           INC       DPTR
   \   0000DD   A3           INC       DPTR
   \   0000DE   A3           INC       DPTR
   \   0000DF   E4           CLR       A
   \   0000E0   F0           MOVX      @DPTR,A
   \   0000E1   A3           INC       DPTR
   \   0000E2   F0           MOVX      @DPTR,A
   \   0000E3   E5..         MOV       A,?V0
   \   0000E5   45..         ORL       A,?V1
   \   0000E7   6003         JZ        $+5
   \   0000E9   02....       LJMP      ??ZDO_ProcessParentAnnce_2 & 0xFFFF
   \   0000EC   AE..         MOV       R6,?V4
   \   0000EE   AF..         MOV       R7,?V5
   \   0000F0   8E..         MOV       ?V0,R6
   \   0000F2   8F..         MOV       ?V1,R7
   \   0000F4   02....       LJMP      ??CrossCallReturnLabel_447 & 0xFFFF
   2305                    }
   2306                  }
   2307                }
   2308              }
   2309          
   2310              // If the device has children that match some in the received list,
   2311              // it should send a unicast Parent_Annce_rsp message.
   2312              if ( childCount > 0 )
   \                     ??ZDO_ProcessParentAnnce_4:
   \   0000F7   E5..         MOV       A,?V7
   \   0000F9   7003         JNZ       $+5
   \   0000FB   02....       LJMP      ??ZDO_ProcessParentAnnce_6 & 0xFFFF
   2313              {
   2314                ZDO_ChildInfo_t *childInfo;
   2315                zAddrType_t dstAddr;
   2316          
   2317                dstAddr.addrMode = (afAddrMode_t)Addr16Bit;
   \   0000FE   7408         MOV       A,#0x8
   \   000100   12....       LCALL     ?XSTACK_DISP0_8
   \   000103   7402         MOV       A,#0x2
   \   000105   12....       LCALL     ?Subroutine21 & 0xFFFF
   2318                dstAddr.addr.shortAddr = inMsg->srcAddr.addr.shortAddr;
   \                     ??CrossCallReturnLabel_21:
   \   000108   85..82       MOV       DPL,?XSP + 0
   \   00010B   85..83       MOV       DPH,?XSP + 1
   \   00010E   E8           MOV       A,R0
   \   00010F   12....       LCALL     ??Subroutine277_0 & 0xFFFF
   2319          
   2320                x = 0;
   \                     ??CrossCallReturnLabel_586:
   \   000112   75..00       MOV       ?V6,#0x0
   2321          
   2322                childInfo = (ZDO_ChildInfo_t *)osal_mem_alloc( childCount * sizeof(ZDO_ChildInfo_t) );
   \   000115                ; Setup parameters for call to function osal_mem_alloc
   \   000115   E5..         MOV       A,?V7
   \   000117   F5..         MOV       ?V4,A
   \   000119   75..00       MOV       ?V5,#0x0
   \   00011C   7403         MOV       A,#0x3
   \   00011E   78..         MOV       R0,#?V4
   \   000120   12....       LCALL     ?S_SHL
   \   000123   AA..         MOV       R2,?V4
   \   000125   AB..         MOV       R3,?V5
   \   000127   12....       LCALL     ?Subroutine207 & 0xFFFF
   2323          
   2324                if ( childInfo != NULL )
   \                     ??CrossCallReturnLabel_690:
   \   00012A   EA           MOV       A,R2
   \   00012B   4B           ORL       A,R3
   \   00012C   6070         JZ        ??CrossCallReturnLabel_136
   \   00012E   8028         SJMP      ??CrossCallReturnLabel_135
   2325                {
   2326                  // Copy the content of the link list into this buffer
   2327                  while ( listHead != NULL )
   2328                  {
   2329                    listTail = listHead;
   \                     ??ZDO_ProcessParentAnnce_7:
   \   000130   AE..         MOV       R6,?V0
   \   000132   AF..         MOV       R7,?V1
   2330          
   2331                    osal_cpyExtAddr( childInfo[x].extAddr,  listHead->child.extAddr );
   \   000134                ; Setup parameters for call to function sAddrExtCpy
   \   000134   AC..         MOV       R4,?V0
   \   000136   AD..         MOV       R5,?V1
   \   000138   E5..         MOV       A,?V6
   \   00013A   F5..         MOV       ?V0,A
   \   00013C   75..00       MOV       ?V1,#0x0
   \   00013F   7403         MOV       A,#0x3
   \   000141   78..         MOV       R0,#?V0
   \   000143   12....       LCALL     ?S_SHL
   \   000146   E5..         MOV       A,?V4
   \   000148   25..         ADD       A,?V0
   \   00014A   FA           MOV       R2,A
   \   00014B   E5..         MOV       A,?V5
   \   00014D   35..         ADDC      A,?V1
   \   00014F   FB           MOV       R3,A
   \   000150   12....       LCALL     `??sAddrExtCpy::?relay`; Banked call to: sAddrExtCpy
   2332          
   2333                    x++;
   \   000153   05..         INC       ?V6
   2334          
   2335                    listHead = listTail->next;
   \   000155   12....       LCALL     ?Subroutine85 & 0xFFFF
   2336          
   2337                    // Free this element of the link list
   2338                    osal_mem_free( listTail );
   2339                  }
   \                     ??CrossCallReturnLabel_135:
   \   000158   E5..         MOV       A,?V0
   \   00015A   45..         ORL       A,?V1
   \   00015C   70D2         JNZ       ??ZDO_ProcessParentAnnce_7
   2340          
   2341                  ZDP_ParentAnnceRsp( (inMsg->TransSeq), dstAddr, childCount,
   2342                                      ((uint8 *)childInfo), 0 );
   \   00015E                ; Setup parameters for call to function ZDP_ParentAnnce
   \   00015E   75..00       MOV       ?V0,#0x0
   \   000161   78..         MOV       R0,#?V0
   \   000163   12....       LCALL     ?PUSH_XSTACK_I_ONE
   \   000166   75..1F       MOV       ?V0,#0x1f
   \   000169   75..80       MOV       ?V1,#-0x80
   \   00016C   78..         MOV       R0,#?V0
   \   00016E   12....       LCALL     ?PUSH_XSTACK_I_TWO
   \   000171   78..         MOV       R0,#?V4
   \   000173   12....       LCALL     ?PUSH_XSTACK_I_TWO
   \   000176   A9..         MOV       R1,?V7
   \   000178   7405         MOV       A,#0x5
   \   00017A   12....       LCALL     ?XSTACK_DISP102_8
   \   00017D   E5..         MOV       A,?V8
   \   00017F   240F         ADD       A,#0xf
   \   000181   FA           MOV       R2,A
   \   000182   E4           CLR       A
   \   000183   35..         ADDC      A,?V9
   \   000185   FB           MOV       R3,A
   \   000186   12....       LCALL     `??ZDP_ParentAnnce::?relay`; Banked call to: ZDP_ParentAnnce
   \   000189   7405         MOV       A,#0x5
   \   00018B   12....       LCALL     ?DEALLOC_XSTACK8
   2343                  
   2344                  
   2345                  osal_mem_free(childInfo);
   \   00018E                ; Setup parameters for call to function osal_mem_free
   \   00018E   AA..         MOV       R2,?V4
   \   000190   AB..         MOV       R3,?V5
   \   000192   12....       LCALL     `??osal_mem_free::?relay`; Banked call to: osal_mem_free
   \   000195   800D         SJMP      ??ZDO_ProcessParentAnnce_6
   2346                }
   2347                else
   2348                {
   2349                  while(listHead != NULL)
   2350                  {
   2351                    listTail = listHead;
   \                     ??ZDO_ProcessParentAnnce_8:
   \   000197   AE..         MOV       R6,?V0
   \   000199   AF..         MOV       R7,?V1
   2352                    listHead = listTail->next;
   \   00019B   12....       LCALL     ?Subroutine85 & 0xFFFF
   2353          
   2354                    // Free this element of the link list
   2355                    osal_mem_free( listTail );
   2356                  }  
   \                     ??CrossCallReturnLabel_136:
   \   00019E   E5..         MOV       A,?V0
   \   0001A0   45..         ORL       A,?V1
   \   0001A2   70F3         JNZ       ??ZDO_ProcessParentAnnce_8
   2357                }
   2358              }
   2359              
   2360              // Free memory allocated by parsing function
   2361              osal_mem_free( parentAnnce );
   \                     ??ZDO_ProcessParentAnnce_6:
   \   0001A4                ; Setup parameters for call to function osal_mem_free
   \   0001A4   AA..         MOV       R2,?V2
   \   0001A6   AB..         MOV       R3,?V3
   \   0001A8   12....       LCALL     `??osal_mem_free::?relay`; Banked call to: osal_mem_free
   2362            }
   2363          }
   \                     ??ZDO_ProcessParentAnnce_0:
   \   0001AB   7409         MOV       A,#0x9
   \   0001AD   12....       LCALL     ?DEALLOC_XSTACK8
   \   0001B0   7F0C         MOV       R7,#0xc
   \   0001B2   02....       LJMP      ?BANKED_LEAVE_XDATA

   \                                 In  segment BANKED_CODE, align 1, keep-with-next
   \                     ?Subroutine85:
   \   000000   8E82         MOV       DPL,R6
   \   000002   8F83         MOV       DPH,R7
   \   000004   A3           INC       DPTR
   \   000005   A3           INC       DPTR
   \   000006   A3           INC       DPTR
   \   000007   A3           INC       DPTR
   \   000008   A3           INC       DPTR
   \   000009   A3           INC       DPTR
   \   00000A   A3           INC       DPTR
   \   00000B   A3           INC       DPTR
   \   00000C   12....       LCALL     ?Subroutine193 & 0xFFFF
   \                     ??CrossCallReturnLabel_572:
   \   00000F   F5..         MOV       ?V1,A
   \   000011                ; Setup parameters for call to function osal_mem_free
   \   000011                ; Setup parameters for call to function osal_mem_free
   \   000011   EE           MOV       A,R6
   \   000012   FA           MOV       R2,A
   \   000013   EF           MOV       A,R7
   \   000014   FB           MOV       R3,A
   \   000015   12....       LCALL     `??osal_mem_free::?relay`; Banked call to: osal_mem_free
   \   000018   22           RET

   \                                 In  segment BANKED_CODE, align 1, keep-with-next
   \                     ?Subroutine180:
   \   000000   F0           MOVX      @DPTR,A
   \   000001   8882         MOV       DPL,R0
   \   000003   8983         MOV       DPH,R1
   \   000005   22           RET
   2364          
   2365          /*********************************************************************
   2366           * @fn          ZDO_ProcessParentAnnceRsp
   2367           *
   2368           * @brief       This function processes a Parent annouce response message.
   2369           *
   2370           * @param       inMsg - incoming message
   2371           *
   2372           * @return      none
   2373           */

   \                                 In  segment BANKED_CODE, align 1, keep-with-next
   2374          void ZDO_ProcessParentAnnceRsp( zdoIncomingMsg_t *inMsg )
   \                     ZDO_ProcessParentAnnceRsp:
   2375          {
   \   000000                REQUIRE ?V0
   \   000000                REQUIRE ?V1
   \   000000                REQUIRE ?V2
   \   000000                REQUIRE ?V3
   \   000000   74F4         MOV       A,#-0xc
   \   000002   12....       LCALL     ?BANKED_ENTER_XDATA
   \   000005                ; Saved register size: 12
   \   000005                ; Auto size: 0
   2376            ZDO_ParentAnnce_t *parentAnnce;
   2377            uint8 x;
   2378          
   2379            // Parse incoming message, memory is allocated by the parse function,
   2380            // it should be free after processing the message
   2381            parentAnnce = ZDO_ParseParentAnnce( inMsg );
   \   000005                ; Setup parameters for call to function ZDO_ParseParentAnnce
   \   000005   12....       LCALL     `??ZDO_ParseParentAnnce::?relay`; Banked call to: ZDO_ParseParentAnnce
   \   000008   8A..         MOV       ?V0,R2
   \   00000A   8B..         MOV       ?V1,R3
   \   00000C   AE..         MOV       R6,?V0
   \   00000E   AF..         MOV       R7,?V1
   2382          
   2383            if ( parentAnnce != NULL )
   \   000010   EA           MOV       A,R2
   \   000011   4F           ORL       A,R7
   \   000012   6064         JZ        ??ZDO_ProcessParentAnnceRsp_0
   2384            {
   2385              for ( x = 0; x < parentAnnce->numOfChildren; x++ )
   \   000014   75..00       MOV       ?V0,#0x0
   \   000017   804C         SJMP      ??ZDO_ProcessParentAnnceRsp_1
   2386              {
   2387                associated_devices_t *dev_ptr;
   2388          
   2389                // If it's an End Device child
   2390                dev_ptr = AssocGetWithExt( parentAnnce->childInfo[x].extAddr );
   \                     ??ZDO_ProcessParentAnnceRsp_2:
   \   000019                ; Setup parameters for call to function AssocGetWithExt
   \   000019   E5..         MOV       A,?V0
   \   00001B   F5..         MOV       ?V2,A
   \   00001D   75..00       MOV       ?V3,#0x0
   \   000020   7403         MOV       A,#0x3
   \   000022   78..         MOV       R0,#?V2
   \   000024   12....       LCALL     ?S_SHL
   \   000027   12....       LCALL     ?Subroutine165 & 0xFFFF
   \                     ??CrossCallReturnLabel_266:
   \   00002A   12....       LCALL     `??AssocGetWithExt::?relay`; Banked call to: AssocGetWithExt
   \   00002D   8B..         MOV       ?V3,R3
   \   00002F   A9..         MOV       R1,?V3
   2391          
   2392                if ( dev_ptr )
   \   000031   EA           MOV       A,R2
   \   000032   49           ORL       A,R1
   \   000033   602E         JZ        ??ZDO_ProcessParentAnnceRsp_3
   2393                {
   2394                  if ( dev_ptr->nodeRelation == CHILD_RFD ||
   2395                       dev_ptr->nodeRelation == CHILD_RFD_RX_IDLE )
   \   000035   8A82         MOV       DPL,R2
   \   000037   8B83         MOV       DPH,R3
   \   000039   A3           INC       DPTR
   \   00003A   A3           INC       DPTR
   \   00003B   A3           INC       DPTR
   \   00003C   A3           INC       DPTR
   \   00003D   E0           MOVX      A,@DPTR
   \   00003E   6401         XRL       A,#0x1
   \   000040   600D         JZ        ??ZDO_ProcessParentAnnceRsp_4
   \   000042   8A82         MOV       DPL,R2
   \   000044   8B83         MOV       DPH,R3
   \   000046   A3           INC       DPTR
   \   000047   A3           INC       DPTR
   \   000048   A3           INC       DPTR
   \   000049   A3           INC       DPTR
   \   00004A   E0           MOVX      A,@DPTR
   \   00004B   6402         XRL       A,#0x2
   \   00004D   7014         JNZ       ??ZDO_ProcessParentAnnceRsp_3
   2396                  {
   2397                    AssocRemove( parentAnnce->childInfo[x].extAddr );
   \                     ??ZDO_ProcessParentAnnceRsp_4:
   \   00004F                ; Setup parameters for call to function AssocRemove
   \   00004F   E5..         MOV       A,?V0
   \   000051   F5..         MOV       ?V2,A
   \   000053   75..00       MOV       ?V3,#0x0
   \   000056   7403         MOV       A,#0x3
   \   000058   78..         MOV       R0,#?V2
   \   00005A   12....       LCALL     ?S_SHL
   \   00005D   12....       LCALL     ?Subroutine165 & 0xFFFF
   2398                  }
   2399                }
   2400              }
   \                     ??CrossCallReturnLabel_267:
   \   000060   12....       LCALL     `??AssocRemove::?relay`; Banked call to: AssocRemove
   \                     ??ZDO_ProcessParentAnnceRsp_3:
   \   000063   05..         INC       ?V0
   \                     ??ZDO_ProcessParentAnnceRsp_1:
   \   000065   8E82         MOV       DPL,R6
   \   000067   8F83         MOV       DPH,R7
   \   000069   E0           MOVX      A,@DPTR
   \   00006A   F8           MOV       R0,A
   \   00006B   E5..         MOV       A,?V0
   \   00006D   C3           CLR       C
   \   00006E   98           SUBB      A,R0
   \   00006F   40A8         JC        ??ZDO_ProcessParentAnnceRsp_2
   2401          
   2402              // Free memory allocated by parsing function
   2403              osal_mem_free( parentAnnce );
   \   000071                ; Setup parameters for call to function osal_mem_free
   \   000071   EE           MOV       A,R6
   \   000072   FA           MOV       R2,A
   \   000073   EF           MOV       A,R7
   \   000074   FB           MOV       R3,A
   \   000075   12....       LCALL     `??osal_mem_free::?relay`; Banked call to: osal_mem_free
   2404            }
   2405          }
   \                     ??ZDO_ProcessParentAnnceRsp_0:
   \   000078   02....       LJMP      ??Subroutine223_0 & 0xFFFF

   \                                 In  segment BANKED_CODE, align 1, keep-with-next
   \                     ?Subroutine165:
   \   000000   EE           MOV       A,R6
   \   000001   25..         ADD       A,?V2
   \   000003   F582         MOV       DPL,A
   \   000005   EF           MOV       A,R7
   \   000006   35..         ADDC      A,?V3
   \   000008   F583         MOV       DPH,A
   \   00000A   A3           INC       DPTR
   \   00000B   AA82         MOV       R2,DPL
   \   00000D   AB83         MOV       R3,DPH
   \   00000F   22           RET
   2406          
   2407          /*********************************************************************
   2408           * @fn          ZDO_BuildSimpleDescBuf
   2409           *
   2410           * @brief       Build a byte sequence representation of a Simple Descriptor.
   2411           *
   2412           * @param       buf  - pointer to a byte array big enough for data.
   2413           * @param       desc - SimpleDescriptionFormat_t *
   2414           *
   2415           * @return      none
   2416           */

   \                                 In  segment BANKED_CODE, align 1, keep-with-next
   2417          void ZDO_BuildSimpleDescBuf( uint8 *buf, SimpleDescriptionFormat_t *desc )
   \                     ZDO_BuildSimpleDescBuf:
   2418          {
   \   000000                REQUIRE ?V0
   \   000000                REQUIRE ?V1
   \   000000   74F6         MOV       A,#-0xa
   \   000002   12....       LCALL     ?BANKED_ENTER_XDATA
   \   000005                ; Saved register size: 10
   \   000005                ; Auto size: 0
   2419            byte cnt;
   2420            uint16 *ptr;
   2421          
   2422            *buf++ = desc->EndPoint;
   \   000005   8C82         MOV       DPL,R4
   \   000007   8D83         MOV       DPH,R5
   \   000009   12....       LCALL     ??Subroutine294_0 & 0xFFFF
   \                     ??CrossCallReturnLabel_711:
   \   00000C   F0           MOVX      @DPTR,A
   2423            *buf++ = HI_UINT16( desc->AppProfId );
   \   00000D   8C82         MOV       DPL,R4
   \   00000F   8D83         MOV       DPH,R5
   \   000011   A3           INC       DPTR
   \   000012   A882         MOV       R0,DPL
   \   000014   A983         MOV       R1,DPH
   \   000016   12....       LCALL     ?Subroutine112 & 0xFFFF
   \                     ??CrossCallReturnLabel_713:
   \   000019   12....       LCALL     ?Subroutine27 & 0xFFFF
   2424            *buf++ = LO_UINT16( desc->AppProfId );
   \                     ??CrossCallReturnLabel_32:
   \   00001C   F0           MOVX      @DPTR,A
   2425            *buf++ = HI_UINT16( desc->AppDeviceId );
   \   00001D   EC           MOV       A,R4
   \   00001E   2403         ADD       A,#0x3
   \   000020   F8           MOV       R0,A
   \   000021   E4           CLR       A
   \   000022   3D           ADDC      A,R5
   \   000023   F9           MOV       R1,A
   \   000024   8882         MOV       DPL,R0
   \   000026   F583         MOV       DPH,A
   \   000028   12....       LCALL     ?Subroutine100 & 0xFFFF
   \                     ??CrossCallReturnLabel_500:
   \   00002B   12....       LCALL     ?Subroutine27 & 0xFFFF
   2426            *buf++ = LO_UINT16( desc->AppDeviceId );
   \                     ??CrossCallReturnLabel_33:
   \   00002E   12....       LCALL     ?Subroutine40 & 0xFFFF
   2427          
   2428            *buf++ = (byte)(desc->AppDevVer << 4);
   \                     ??CrossCallReturnLabel_60:
   \   000031   E0           MOVX      A,@DPTR
   \   000032   C4           SWAP      A
   \   000033   54F0         ANL       A,#0xf0
   \   000035   8A82         MOV       DPL,R2
   \   000037   8B83         MOV       DPH,R3
   \   000039   A3           INC       DPTR
   \   00003A   A3           INC       DPTR
   \   00003B   A3           INC       DPTR
   \   00003C   12....       LCALL     ?Subroutine40 & 0xFFFF
   2429          
   2430            *buf++ = desc->AppNumInClusters;
   \                     ??CrossCallReturnLabel_61:
   \   00003F   12....       LCALL     ?Subroutine100 & 0xFFFF
   \                     ??CrossCallReturnLabel_501:
   \   000042   A3           INC       DPTR
   \   000043   A3           INC       DPTR
   \   000044   A3           INC       DPTR
   \   000045   A3           INC       DPTR
   \   000046   F0           MOVX      @DPTR,A
   \   000047   EA           MOV       A,R2
   \   000048   2407         ADD       A,#0x7
   \   00004A   FA           MOV       R2,A
   \   00004B   5001         JNC       ??ZDO_BuildSimpleDescBuf_0
   \   00004D   0B           INC       R3
   2431            ptr = desc->pAppInClusterList;
   \                     ??ZDO_BuildSimpleDescBuf_0:
   \   00004E   8C82         MOV       DPL,R4
   \   000050   8D83         MOV       DPH,R5
   \   000052   A3           INC       DPTR
   \   000053   A3           INC       DPTR
   \   000054   A3           INC       DPTR
   \   000055   A3           INC       DPTR
   \   000056   A3           INC       DPTR
   \   000057   A3           INC       DPTR
   \   000058   A3           INC       DPTR
   \   000059   12....       LCALL     ??Subroutine238_0 & 0xFFFF
   2432            for ( cnt = 0; cnt < desc->AppNumInClusters; ptr++, cnt++ )
   \                     ??CrossCallReturnLabel_394:
   \   00005C   7E00         MOV       R6,#0x0
   \   00005E   800E         SJMP      ??ZDO_BuildSimpleDescBuf_1
   2433            {
   2434              *buf++ = HI_UINT16( *ptr );
   \                     ??ZDO_BuildSimpleDescBuf_2:
   \   000060   12....       LCALL     ?Subroutine16 & 0xFFFF
   2435              *buf++ = LO_UINT16( *ptr );
   2436            }
   \                     ??CrossCallReturnLabel_13:
   \   000063   5001         JNC       ??ZDO_BuildSimpleDescBuf_3
   \   000065   0B           INC       R3
   \                     ??ZDO_BuildSimpleDescBuf_3:
   \   000066   E8           MOV       A,R0
   \   000067   2402         ADD       A,#0x2
   \   000069   F8           MOV       R0,A
   \   00006A   5001         JNC       ??ZDO_BuildSimpleDescBuf_4
   \   00006C   09           INC       R1
   \                     ??ZDO_BuildSimpleDescBuf_4:
   \   00006D   0E           INC       R6
   \                     ??ZDO_BuildSimpleDescBuf_1:
   \   00006E   8C82         MOV       DPL,R4
   \   000070   8D83         MOV       DPH,R5
   \   000072   A3           INC       DPTR
   \   000073   A3           INC       DPTR
   \   000074   A3           INC       DPTR
   \   000075   A3           INC       DPTR
   \   000076   A3           INC       DPTR
   \   000077   A3           INC       DPTR
   \   000078   E0           MOVX      A,@DPTR
   \   000079   FF           MOV       R7,A
   \   00007A   EE           MOV       A,R6
   \   00007B   C3           CLR       C
   \   00007C   9F           SUBB      A,R7
   \   00007D   40E1         JC        ??ZDO_BuildSimpleDescBuf_2
   2437          
   2438            *buf++ = desc->AppNumOutClusters;
   \   00007F   8C82         MOV       DPL,R4
   \   000081   8D83         MOV       DPH,R5
   \   000083   A3           INC       DPTR
   \   000084   A3           INC       DPTR
   \   000085   A3           INC       DPTR
   \   000086   A3           INC       DPTR
   \   000087   A3           INC       DPTR
   \   000088   A3           INC       DPTR
   \   000089   A3           INC       DPTR
   \   00008A   A3           INC       DPTR
   \   00008B   12....       LCALL     ?Subroutine112 & 0xFFFF
   \                     ??CrossCallReturnLabel_714:
   \   00008E   F0           MOVX      @DPTR,A
   \   00008F   A3           INC       DPTR
   \   000090   AA82         MOV       R2,DPL
   \   000092   AB83         MOV       R3,DPH
   2439            ptr = desc->pAppOutClusterList;
   \   000094   8C82         MOV       DPL,R4
   \   000096   8D83         MOV       DPH,R5
   \   000098   A3           INC       DPTR
   \   000099   A3           INC       DPTR
   \   00009A   A3           INC       DPTR
   \   00009B   A3           INC       DPTR
   \   00009C   A3           INC       DPTR
   \   00009D   A3           INC       DPTR
   \   00009E   A3           INC       DPTR
   \   00009F   A3           INC       DPTR
   \   0000A0   A3           INC       DPTR
   \   0000A1   A3           INC       DPTR
   \   0000A2   12....       LCALL     ??Subroutine238_0 & 0xFFFF
   2440            for ( cnt = 0; cnt < desc->AppNumOutClusters; ptr++, cnt++ )
   \                     ??CrossCallReturnLabel_395:
   \   0000A5   7E00         MOV       R6,#0x0
   \   0000A7   800E         SJMP      ??ZDO_BuildSimpleDescBuf_5
   2441            {
   2442              *buf++ = HI_UINT16( *ptr );
   \                     ??ZDO_BuildSimpleDescBuf_6:
   \   0000A9   12....       LCALL     ?Subroutine16 & 0xFFFF
   2443              *buf++ = LO_UINT16( *ptr );
   2444            }
   \                     ??CrossCallReturnLabel_14:
   \   0000AC   5001         JNC       ??ZDO_BuildSimpleDescBuf_7
   \   0000AE   0B           INC       R3
   \                     ??ZDO_BuildSimpleDescBuf_7:
   \   0000AF   E8           MOV       A,R0
   \   0000B0   2402         ADD       A,#0x2
   \   0000B2   F8           MOV       R0,A
   \   0000B3   5001         JNC       ??ZDO_BuildSimpleDescBuf_8
   \   0000B5   09           INC       R1
   \                     ??ZDO_BuildSimpleDescBuf_8:
   \   0000B6   0E           INC       R6
   \                     ??ZDO_BuildSimpleDescBuf_5:
   \   0000B7   8C82         MOV       DPL,R4
   \   0000B9   8D83         MOV       DPH,R5
   \   0000BB   A3           INC       DPTR
   \   0000BC   A3           INC       DPTR
   \   0000BD   A3           INC       DPTR
   \   0000BE   A3           INC       DPTR
   \   0000BF   A3           INC       DPTR
   \   0000C0   A3           INC       DPTR
   \   0000C1   A3           INC       DPTR
   \   0000C2   A3           INC       DPTR
   \   0000C3   A3           INC       DPTR
   \   0000C4   E0           MOVX      A,@DPTR
   \   0000C5   FF           MOV       R7,A
   \   0000C6   EE           MOV       A,R6
   \   0000C7   C3           CLR       C
   \   0000C8   9F           SUBB      A,R7
   \   0000C9   40DE         JC        ??ZDO_BuildSimpleDescBuf_6
   2445          }
   \   0000CB   02....       LJMP      ??Subroutine225_0 & 0xFFFF

   \                                 In  segment BANKED_CODE, align 1, keep-with-next
   \                     ?Subroutine100:
   \   000000   A3           INC       DPTR
   \   000001                REQUIRE ??Subroutine253_0
   \   000001                ; // Fall through to label ??Subroutine253_0

   \                                 In  segment BANKED_CODE, align 1, keep-with-next
   \                     ?Subroutine40:
   \   000000   A3           INC       DPTR
   \   000001   A3           INC       DPTR
   \   000002   F0           MOVX      @DPTR,A
   \   000003   8C82         MOV       DPL,R4
   \   000005   8D83         MOV       DPH,R5
   \   000007   A3           INC       DPTR
   \   000008   A3           INC       DPTR
   \   000009   A3           INC       DPTR
   \   00000A   A3           INC       DPTR
   \   00000B   A3           INC       DPTR
   \   00000C   22           RET

   \                                 In  segment BANKED_CODE, align 1, keep-with-next
   \                     ?Subroutine27:
   \   000000   A3           INC       DPTR
   \   000001   12....       LCALL     ?Subroutine173 & 0xFFFF
   \                     ??CrossCallReturnLabel_279:
   \   000004   A3           INC       DPTR
   \   000005   22           RET

   \                                 In  segment BANKED_CODE, align 1, keep-with-next
   \                     ?Subroutine16:
   \   000000   8882         MOV       DPL,R0
   \   000002   8983         MOV       DPH,R1
   \   000004   A3           INC       DPTR
   \   000005   12....       LCALL     ?Subroutine216 & 0xFFFF
   \                     ??CrossCallReturnLabel_715:
   \   000008   12....       LCALL     ?Subroutine173 & 0xFFFF
   \                     ??CrossCallReturnLabel_280:
   \   00000B   F0           MOVX      @DPTR,A
   \   00000C   EA           MOV       A,R2
   \   00000D   2402         ADD       A,#0x2
   \   00000F   FA           MOV       R2,A
   \   000010   22           RET

   \                                 In  segment BANKED_CODE, align 1, keep-with-next
   \                     ?Subroutine173:
   \   000000   F0           MOVX      @DPTR,A
   \   000001   8882         MOV       DPL,R0
   \   000003   8983         MOV       DPH,R1
   \   000005   12....       LCALL     ?Subroutine216 & 0xFFFF
   \                     ??CrossCallReturnLabel_716:
   \   000008   A3           INC       DPTR
   \   000009   22           RET

   \                                 In  segment BANKED_CODE, align 1, keep-with-next
   \                     ?Subroutine112:
   \   000000   A3           INC       DPTR
   \   000001                REQUIRE ??Subroutine294_0
   \   000001                ; // Fall through to label ??Subroutine294_0

   \                                 In  segment BANKED_CODE, align 1, keep-with-next
   \                     ??Subroutine294_0:
   \   000000   12....       LCALL     ?Subroutine216 & 0xFFFF
   \                     ??CrossCallReturnLabel_718:
   \   000003   22           RET
   2446          
   2447          #if ( ZG_BUILD_COORDINATOR_TYPE )
   2448          #ifdef ZDO_ENDDEVICEBIND_RESPONSE
   2449          /*********************************************************************
   2450           * @fn      ZDO_MatchEndDeviceBind()
   2451           *
   2452           * @brief
   2453           *
   2454           *   Called to match end device binding requests
   2455           *
   2456           * @param  bindReq  - binding request information
   2457           * @param  SecurityUse - Security enable/disable
   2458           *
   2459           * @return  none
   2460           */

   \                                 In  segment BANKED_CODE, align 1, keep-with-next
   2461          void ZDO_MatchEndDeviceBind( ZDEndDeviceBind_t *bindReq )
   \                     ZDO_MatchEndDeviceBind:
   2462          {
   \   000000                REQUIRE ?V0
   \   000000                REQUIRE ?V1
   \   000000                REQUIRE ?V2
   \   000000                REQUIRE ?V3
   \   000000                REQUIRE ?V4
   \   000000                REQUIRE ?V5
   \   000000                REQUIRE ?V6
   \   000000   74F1         MOV       A,#-0xf
   \   000002   12....       LCALL     ?BANKED_ENTER_XDATA
   \   000005                ; Saved register size: 15
   \   000005                ; Auto size: 10
   \   000005   74F6         MOV       A,#-0xa
   \   000007   12....       LCALL     ?ALLOC_XSTACK8
   \   00000A   EA           MOV       A,R2
   \   00000B   FE           MOV       R6,A
   \   00000C   EB           MOV       A,R3
   \   00000D   FF           MOV       R7,A
   2463            zAddrType_t dstAddr;
   2464            uint8 sendRsp = FALSE;
   \   00000E   75..00       MOV       ?V0,#0x0
   2465            uint8 status;
   2466          
   2467            // Is this the first request?
   2468            if ( matchED == NULL )
   \   000011   90....       MOV       DPTR,#matchED
   \   000014   12....       LCALL     ??Subroutine250_0 & 0xFFFF
   \                     ??CrossCallReturnLabel_466:
   \   000017   6003         JZ        $+5
   \   000019   02....       LJMP      ??ZDO_MatchEndDeviceBind_0 & 0xFFFF
   2469            {
   2470              // Create match info structure
   2471              matchED = (ZDMatchEndDeviceBind_t *)osal_mem_alloc( sizeof ( ZDMatchEndDeviceBind_t ) );
   \   00001C                ; Setup parameters for call to function osal_mem_alloc
   \   00001C   7A37         MOV       R2,#0x37
   \   00001E   7B00         MOV       R3,#0x0
   \   000020   12....       LCALL     `??osal_mem_alloc::?relay`; Banked call to: osal_mem_alloc
   \   000023   90....       MOV       DPTR,#matchED
   \   000026   12....       LCALL     ??Subroutine230_0 & 0xFFFF
   2472              if ( matchED )
   \                     ??CrossCallReturnLabel_361:
   \   000029   F9           MOV       R1,A
   \   00002A   EA           MOV       A,R2
   \   00002B   49           ORL       A,R1
   \   00002C   601C         JZ        ??ZDO_MatchEndDeviceBind_1
   2473              {
   2474                // Clear the structure
   2475                osal_memset( (uint8 *)matchED, 0, sizeof ( ZDMatchEndDeviceBind_t ) );
   \   00002E                ; Setup parameters for call to function osal_memset
   \   00002E   7C37         MOV       R4,#0x37
   \   000030   7D00         MOV       R5,#0x0
   \   000032   7900         MOV       R1,#0x0
   \   000034   12....       LCALL     `??osal_memset::?relay`; Banked call to: osal_memset
   2476          
   2477                // Copy the first request's information
   2478                if ( !ZDO_CopyMatchInfo( &(matchED->ed1), bindReq ) )
   \   000037                ; Setup parameters for call to function ZDO_CopyMatchInfo
   \   000037   EE           MOV       A,R6
   \   000038   FC           MOV       R4,A
   \   000039   EF           MOV       A,R7
   \   00003A   FD           MOV       R5,A
   \   00003B   90....       MOV       DPTR,#matchED
   \   00003E   12....       LCALL     ??Subroutine245_0 & 0xFFFF
   2479                {
   2480                  status = ZDP_NO_ENTRY;
   2481                  sendRsp = TRUE;
   2482                }
   2483              }
   \                     ??CrossCallReturnLabel_436:
   \   000041   12....       LCALL     `??ZDO_CopyMatchInfo::?relay`; Banked call to: ZDO_CopyMatchInfo
   \   000044   E9           MOV       A,R1
   \   000045   6003         JZ        $+5
   \   000047   02....       LJMP      ??ZDO_MatchEndDeviceBind_2 & 0xFFFF
   2484              else
   2485              {
   2486                status = ZDP_NO_ENTRY;
   \                     ??ZDO_MatchEndDeviceBind_1:
   \   00004A   85..82       MOV       DPL,?XSP + 0
   \   00004D   85..83       MOV       DPH,?XSP + 1
   \   000050   7488         MOV       A,#-0x78
   \                     ??ZDO_MatchEndDeviceBind_3:
   \   000052   F0           MOVX      @DPTR,A
   2487                sendRsp = TRUE;
   2488              }
   2489          
   2490              if ( !sendRsp )
   2491              {
   2492                // Set into the correct state
   2493                matchED->state = ZDMATCH_WAIT_REQ;
   2494          
   2495                // Setup the timeout
   2496                APS_SetEndDeviceBindTimeout( AIB_MaxBindingTime, ZDO_EndDeviceBindMatchTimeoutCB );
   2497              }
   2498            }
   2499            else
   2500            {
   2501              if(matchED->state == ZDMATCH_WAIT_REQ)//when bind is running,refuse new end-device-bind-req
   2502              {
   2503                matchED->state = ZDMATCH_SENDING_BINDS;
   2504          
   2505                // Copy the 2nd request's information
   2506                if ( !ZDO_CopyMatchInfo( &(matchED->ed2), bindReq ) )
   2507                {
   2508                  status = ZDP_NO_ENTRY;
   2509                  sendRsp = TRUE;
   2510                }
   2511          
   2512                // Make a source match for ed1
   2513                matchED->ed1numMatched = ZDO_CompareClusterLists(
   2514                matchED->ed1.numOutClusters, matchED->ed1.outClusters,
   2515                matchED->ed2.numInClusters, matchED->ed2.inClusters, ZDOBuildBuf );
   2516                if ( matchED->ed1numMatched )
   2517                {
   2518                  // Save the match list
   2519                  matchED->ed1Matched = osal_mem_alloc( (short)(matchED->ed1numMatched * sizeof ( uint16 )) );
   2520                  if ( matchED->ed1Matched )
   2521                  {
   2522                    osal_memcpy( matchED->ed1Matched, ZDOBuildBuf, (matchED->ed1numMatched * sizeof ( uint16 )) );
   2523                  }
   2524                  else
   2525                  {
   2526                    // Allocation error, stop
   2527                    status = ZDP_NO_ENTRY;
   2528                    sendRsp = TRUE;
   2529                  }
   2530                }
   2531          
   2532                // Make a source match for ed2
   2533                matchED->ed2numMatched = ZDO_CompareClusterLists(
   2534                matchED->ed2.numOutClusters, matchED->ed2.outClusters,
   2535                matchED->ed1.numInClusters, matchED->ed1.inClusters, ZDOBuildBuf );
   2536                if ( matchED->ed2numMatched )
   2537                {
   2538                  // Save the match list
   2539                  matchED->ed2Matched = osal_mem_alloc( (short)(matchED->ed2numMatched * sizeof ( uint16 )) );
   2540                  if ( matchED->ed2Matched )
   2541                  {
   2542                    osal_memcpy( matchED->ed2Matched, ZDOBuildBuf, (matchED->ed2numMatched * sizeof ( uint16 )) );
   2543                  }
   2544                  else
   2545                  {
   2546                    // Allocation error, stop
   2547                    status = ZDP_NO_ENTRY;
   2548                    sendRsp = TRUE;
   2549                  }
   2550                }
   2551          
   2552                if ( (sendRsp == FALSE) && (matchED->ed1numMatched || matchED->ed2numMatched) )
   2553                {
   2554                  // Do the first unbind/bind state
   2555                  ZDMatchSendState( ZDMATCH_REASON_START, ZDP_SUCCESS, 0 );
   2556                }
   2557                else
   2558                {
   2559                  status = ZDP_NO_MATCH;
   2560                  sendRsp = TRUE;
   2561                }
   2562              }
   2563              else
   2564              {
   2565                status = ZDP_NO_ENTRY;
   2566                dstAddr.addrMode = Addr16Bit;
   2567                dstAddr.addr.shortAddr = bindReq->srcAddr;
   2568                ZDP_EndDeviceBindRsp( bindReq->TransSeq, &dstAddr, status, bindReq->SecurityUse );
   2569                return;
   2570              }
   2571            }
   2572          
   2573            if ( sendRsp )
   2574            {
   2575              // send response to this requester
   2576              dstAddr.addrMode = Addr16Bit;
   \   000053   7409         MOV       A,#0x9
   \   000055   12....       LCALL     ?XSTACK_DISP0_8
   \   000058   7402         MOV       A,#0x2
   \   00005A   12....       LCALL     ?Subroutine52 & 0xFFFF
   2577              dstAddr.addr.shortAddr = bindReq->srcAddr;
   \                     ??CrossCallReturnLabel_79:
   \   00005D   F8           MOV       R0,A
   \   00005E   A3           INC       DPTR
   \   00005F   E0           MOVX      A,@DPTR
   \   000060   F9           MOV       R1,A
   \   000061   7401         MOV       A,#0x1
   \   000063   12....       LCALL     ?XSTACK_DISP0_8
   \   000066   E8           MOV       A,R0
   \   000067   12....       LCALL     ?Subroutine44 & 0xFFFF
   2578              ZDP_EndDeviceBindRsp( bindReq->TransSeq, &dstAddr, status, bindReq->SecurityUse );
   \                     ??CrossCallReturnLabel_67:
   \   00006A   12....       LCALL     ??Subroutine270_0 & 0xFFFF
   \                     ??CrossCallReturnLabel_552:
   \   00006D   12....       LCALL     ?PUSH_XSTACK_I_ONE
   \   000070   7401         MOV       A,#0x1
   \   000072   12....       LCALL     ?XSTACK_DISP100_8
   \   000075   88..         MOV       ?V0,R0
   \   000077   89..         MOV       ?V1,R1
   \   000079   78..         MOV       R0,#?V0
   \   00007B   12....       LCALL     ?PUSH_XSTACK_I_TWO
   \   00007E   75..20       MOV       ?V0,#0x20
   \   000081   75..80       MOV       ?V1,#-0x80
   \   000084   78..         MOV       R0,#?V0
   \   000086   12....       LCALL     ?PUSH_XSTACK_I_TWO
   \   000089   7901         MOV       R1,#0x1
   \   00008B   7406         MOV       A,#0x6
   \   00008D   12....       LCALL     ?XSTACK_DISP102_8
   \   000090   EE           MOV       A,R6
   \   000091   FA           MOV       R2,A
   \   000092   EF           MOV       A,R7
   \   000093   FB           MOV       R3,A
   \   000094   12....       LCALL     ?Subroutine157 & 0xFFFF
   \                     ??CrossCallReturnLabel_245:
   \   000097   12....       LCALL     ?DEALLOC_XSTACK8
   2579          
   2580              if ( matchED->state == ZDMATCH_SENDING_BINDS )
   \   00009A   12....       LCALL     ?Subroutine79 & 0xFFFF
   \                     ??CrossCallReturnLabel_125:
   \   00009D   703C         JNZ       ??ZDO_MatchEndDeviceBind_4
   2581              {
   2582                // send response to first requester
   2583                dstAddr.addrMode = Addr16Bit;
   \   00009F   7409         MOV       A,#0x9
   \   0000A1   12....       LCALL     ?XSTACK_DISP0_8
   \   0000A4   7402         MOV       A,#0x2
   \   0000A6   12....       LCALL     ?Subroutine53 & 0xFFFF
   2584                dstAddr.addr.shortAddr = matchED->ed1.srcAddr;
   2585                ZDP_EndDeviceBindRsp( matchED->ed1.TransSeq, &dstAddr, status, matchED->ed1.SecurityUse );
   2586              }
   \                     ??CrossCallReturnLabel_81:
   \   0000A9   12....       LCALL     ?Subroutine83 & 0xFFFF
   \                     ??CrossCallReturnLabel_507:
   \   0000AC   12....       LCALL     ?XSTACK_DISP0_8
   \   0000AF   12....       LCALL     ?Subroutine12 & 0xFFFF
   \                     ??CrossCallReturnLabel_4:
   \   0000B2   12....       LCALL     ?PUSH_XSTACK_I_ONE
   \   0000B5   7401         MOV       A,#0x1
   \   0000B7   12....       LCALL     ?XSTACK_DISP100_8
   \   0000BA   88..         MOV       ?V0,R0
   \   0000BC   89..         MOV       ?V1,R1
   \   0000BE   78..         MOV       R0,#?V0
   \   0000C0   12....       LCALL     ?PUSH_XSTACK_I_TWO
   \   0000C3   75..20       MOV       ?V0,#0x20
   \   0000C6   75..80       MOV       ?V1,#-0x80
   \   0000C9   78..         MOV       R0,#?V0
   \   0000CB   12....       LCALL     ?PUSH_XSTACK_I_TWO
   \   0000CE   7901         MOV       R1,#0x1
   \   0000D0   7406         MOV       A,#0x6
   \   0000D2   12....       LCALL     ?XSTACK_DISP102_8
   \   0000D5   12....       LCALL     ?Subroutine101 & 0xFFFF
   \                     ??CrossCallReturnLabel_166:
   \   0000D8   12....       LCALL     ?DEALLOC_XSTACK8
   2587          
   2588              // Process ended - release memory used
   2589              ZDO_RemoveMatchMemory();
   \                     ??ZDO_MatchEndDeviceBind_4:
   \   0000DB                ; Setup parameters for call to function ZDO_RemoveMatchMemory
   \   0000DB   12....       LCALL     `??ZDO_RemoveMatchMemory::?relay`; Banked call to: ZDO_RemoveMatchMemory
   2590            }
   2591          }
   \                     ??ZDO_MatchEndDeviceBind_5:
   \   0000DE   740A         MOV       A,#0xa
   \   0000E0   02....       LJMP      ?Subroutine8 & 0xFFFF
   \                     ??ZDO_MatchEndDeviceBind_2:
   \   0000E3   12....       LCALL     ?Subroutine99 & 0xFFFF
   \                     ??CrossCallReturnLabel_645:
   \   0000E6   12....       LCALL     ?Subroutine211 & 0xFFFF
   \                     ??CrossCallReturnLabel_337:
   \   0000E9   7401         MOV       A,#0x1
   \   0000EB   F0           MOVX      @DPTR,A
   \   0000EC                ; Setup parameters for call to function APS_SetEndDeviceBindTimeout
   \   0000EC   12....       LCALL     ?Subroutine103 & 0xFFFF
   \                     ??CrossCallReturnLabel_170:
   \   0000EF   80ED         SJMP      ??ZDO_MatchEndDeviceBind_5
   \                     ??ZDO_MatchEndDeviceBind_0:
   \   0000F1   E8           MOV       A,R0
   \   0000F2   12....       LCALL     ?Subroutine167 & 0xFFFF
   \                     ??CrossCallReturnLabel_270:
   \   0000F5   E0           MOVX      A,@DPTR
   \   0000F6   6401         XRL       A,#0x1
   \   0000F8   6003         JZ        $+5
   \   0000FA   02....       LJMP      ??ZDO_MatchEndDeviceBind_6 & 0xFFFF
   \   0000FD   90....       MOV       DPTR,#matchED
   \   000100   E0           MOVX      A,@DPTR
   \   000101   12....       LCALL     ?Subroutine167 & 0xFFFF
   \                     ??CrossCallReturnLabel_271:
   \   000104   7402         MOV       A,#0x2
   \   000106   F0           MOVX      @DPTR,A
   \   000107                ; Setup parameters for call to function ZDO_CopyMatchInfo
   \   000107   EA           MOV       A,R2
   \   000108   FC           MOV       R4,A
   \   000109   EB           MOV       A,R3
   \   00010A   FD           MOV       R5,A
   \   00010B   12....       LCALL     ?Subroutine113 & 0xFFFF
   \                     ??CrossCallReturnLabel_178:
   \   00010E   12....       LCALL     `??ZDO_CopyMatchInfo::?relay`; Banked call to: ZDO_CopyMatchInfo
   \   000111   E9           MOV       A,R1
   \   000112   700C         JNZ       ??ZDO_MatchEndDeviceBind_7
   \   000114   85..82       MOV       DPL,?XSP + 0
   \   000117   85..83       MOV       DPH,?XSP + 1
   \   00011A   7488         MOV       A,#-0x78
   \   00011C   F0           MOVX      @DPTR,A
   \   00011D   75..01       MOV       ?V0,#0x1
   \                     ??ZDO_MatchEndDeviceBind_7:
   \   000120                ; Setup parameters for call to function ZDO_CompareClusterLists
   \   000120   75....       MOV       ?V2,#ZDOBuildBuf & 0xff
   \   000123   75....       MOV       ?V3,#(ZDOBuildBuf >> 8) & 0xff
   \   000126   78..         MOV       R0,#?V2
   \   000128   12....       LCALL     ?PUSH_XSTACK_I_TWO
   \   00012B   12....       LCALL     ?Subroutine93 & 0xFFFF
   \                     ??CrossCallReturnLabel_151:
   \   00012E   F582         MOV       DPL,A
   \   000130   E4           CLR       A
   \   000131   38           ADDC      A,R0
   \   000132   F583         MOV       DPH,A
   \   000134   12....       LCALL     ?PUSH_XSTACK8_X_TWO
   \   000137   12....       LCALL     ?Subroutine99 & 0xFFFF
   \                     ??CrossCallReturnLabel_646:
   \   00013A   2428         ADD       A,#0x28
   \   00013C   12....       LCALL     ?Subroutine160 & 0xFFFF
   \                     ??CrossCallReturnLabel_252:
   \   00013F   FC           MOV       R4,A
   \   000140   12....       LCALL     ?Subroutine94 & 0xFFFF
   \                     ??CrossCallReturnLabel_154:
   \   000143   12....       LCALL     ?Subroutine87 & 0xFFFF
   \                     ??CrossCallReturnLabel_137:
   \   000146   2414         ADD       A,#0x14
   \   000148   12....       LCALL     ?Subroutine159 & 0xFFFF
   \                     ??CrossCallReturnLabel_250:
   \   00014B   12....       LCALL     ?DEALLOC_XSTACK8
   \   00014E   12....       LCALL     ?Subroutine95 & 0xFFFF
   \                     ??CrossCallReturnLabel_503:
   \   000151   12....       LCALL     ?Subroutine20 & 0xFFFF
   \                     ??CrossCallReturnLabel_516:
   \   000154   2431         ADD       A,#0x31
   \   000156   12....       LCALL     ?Subroutine160 & 0xFFFF
   \                     ??CrossCallReturnLabel_253:
   \   000159   6039         JZ        ??ZDO_MatchEndDeviceBind_8
   \   00015B                ; Setup parameters for call to function osal_mem_alloc
   \   00015B   12....       LCALL     ?Subroutine59 & 0xFFFF
   \                     ??CrossCallReturnLabel_85:
   \   00015E   12....       LCALL     ?Subroutine155 & 0xFFFF
   \                     ??CrossCallReturnLabel_242:
   \   000161   2432         ADD       A,#0x32
   \   000163   12....       LCALL     ?Subroutine46 & 0xFFFF
   \                     ??CrossCallReturnLabel_513:
   \   000166   6020         JZ        ??ZDO_MatchEndDeviceBind_9
   \   000168                ; Setup parameters for call to function osal_memcpy
   \   000168   75....       MOV       ?V4,#ZDOBuildBuf & 0xff
   \   00016B   75....       MOV       ?V5,#(ZDOBuildBuf >> 8) & 0xff
   \   00016E   75..00       MOV       ?V6,#0x0
   \   000171   78..         MOV       R0,#?V4
   \   000173   12....       LCALL     ?PUSH_XSTACK_I_THREE
   \   000176   12....       LCALL     ?Subroutine59 & 0xFFFF
   \                     ??CrossCallReturnLabel_86:
   \   000179   FC           MOV       R4,A
   \   00017A   E4           CLR       A
   \   00017B   33           RLC       A
   \   00017C   FD           MOV       R5,A
   \   00017D   12....       LCALL     ?Subroutine96 & 0xFFFF
   \                     ??CrossCallReturnLabel_157:
   \   000180   12....       LCALL     ?Subroutine67 & 0xFFFF
   \                     ??CrossCallReturnLabel_509:
   \   000183   12....       LCALL     ?DEALLOC_XSTACK8
   \   000186   800C         SJMP      ??ZDO_MatchEndDeviceBind_8
   \                     ??ZDO_MatchEndDeviceBind_9:
   \   000188   85..82       MOV       DPL,?XSP + 0
   \   00018B   85..83       MOV       DPH,?XSP + 1
   \   00018E   7488         MOV       A,#-0x78
   \   000190   F0           MOVX      @DPTR,A
   \   000191   75..01       MOV       ?V0,#0x1
   \                     ??ZDO_MatchEndDeviceBind_8:
   \   000194                ; Setup parameters for call to function ZDO_CompareClusterLists
   \   000194   78..         MOV       R0,#?V2
   \   000196   12....       LCALL     ?PUSH_XSTACK_I_TWO
   \   000199   12....       LCALL     ?Subroutine97 & 0xFFFF
   \                     ??CrossCallReturnLabel_160:
   \   00019C   F582         MOV       DPL,A
   \   00019E   E4           CLR       A
   \   00019F   38           ADDC      A,R0
   \   0001A0   F583         MOV       DPH,A
   \   0001A2   12....       LCALL     ?PUSH_XSTACK8_X_TWO
   \   0001A5   12....       LCALL     ?Subroutine99 & 0xFFFF
   \                     ??CrossCallReturnLabel_647:
   \   0001A8   2411         ADD       A,#0x11
   \   0001AA   12....       LCALL     ?Subroutine160 & 0xFFFF
   \                     ??CrossCallReturnLabel_254:
   \   0001AD   FC           MOV       R4,A
   \   0001AE   12....       LCALL     ?Subroutine98 & 0xFFFF
   \                     ??CrossCallReturnLabel_163:
   \   0001B1   12....       LCALL     ?Subroutine87 & 0xFFFF
   \                     ??CrossCallReturnLabel_138:
   \   0001B4   242B         ADD       A,#0x2b
   \   0001B6   12....       LCALL     ?Subroutine159 & 0xFFFF
   \                     ??CrossCallReturnLabel_251:
   \   0001B9   12....       LCALL     ?DEALLOC_XSTACK8
   \   0001BC   E9           MOV       A,R1
   \   0001BD   F8           MOV       R0,A
   \   0001BE   12....       LCALL     ?Subroutine99 & 0xFFFF
   \                     ??CrossCallReturnLabel_648:
   \   0001C1   2434         ADD       A,#0x34
   \   0001C3   12....       LCALL     ?Subroutine20 & 0xFFFF
   \                     ??CrossCallReturnLabel_517:
   \   0001C6   2434         ADD       A,#0x34
   \   0001C8   12....       LCALL     ?Subroutine160 & 0xFFFF
   \                     ??CrossCallReturnLabel_255:
   \   0001CB   602D         JZ        ??ZDO_MatchEndDeviceBind_10
   \   0001CD                ; Setup parameters for call to function osal_mem_alloc
   \   0001CD   12....       LCALL     ?Subroutine60 & 0xFFFF
   \                     ??CrossCallReturnLabel_88:
   \   0001D0   12....       LCALL     ?Subroutine155 & 0xFFFF
   \                     ??CrossCallReturnLabel_243:
   \   0001D3   2435         ADD       A,#0x35
   \   0001D5   12....       LCALL     ?Subroutine46 & 0xFFFF
   \                     ??CrossCallReturnLabel_514:
   \   0001D8   6042         JZ        ??ZDO_MatchEndDeviceBind_11
   \   0001DA                ; Setup parameters for call to function osal_memcpy
   \   0001DA   75....       MOV       ?V4,#ZDOBuildBuf & 0xff
   \   0001DD   75....       MOV       ?V5,#(ZDOBuildBuf >> 8) & 0xff
   \   0001E0   75..00       MOV       ?V6,#0x0
   \   0001E3   78..         MOV       R0,#?V4
   \   0001E5   12....       LCALL     ?PUSH_XSTACK_I_THREE
   \   0001E8   12....       LCALL     ?Subroutine60 & 0xFFFF
   \                     ??CrossCallReturnLabel_89:
   \   0001EB   FC           MOV       R4,A
   \   0001EC   E4           CLR       A
   \   0001ED   33           RLC       A
   \   0001EE   FD           MOV       R5,A
   \   0001EF   12....       LCALL     ?Subroutine99 & 0xFFFF
   \                     ??CrossCallReturnLabel_649:
   \   0001F2   2435         ADD       A,#0x35
   \   0001F4   12....       LCALL     ?Subroutine67 & 0xFFFF
   \                     ??CrossCallReturnLabel_510:
   \   0001F7   12....       LCALL     ?DEALLOC_XSTACK8
   \                     ??ZDO_MatchEndDeviceBind_10:
   \   0001FA   E5..         MOV       A,?V0
   \   0001FC   A2E0         MOV       C,0xE0 /* A   */.0
   \   0001FE   4025         JC        ??ZDO_MatchEndDeviceBind_12
   \   000200   12....       LCALL     ?Subroutine95 & 0xFFFF
   \                     ??CrossCallReturnLabel_504:
   \   000203   12....       LCALL     ?Subroutine160 & 0xFFFF
   \                     ??CrossCallReturnLabel_256:
   \   000206   7008         JNZ       ??ZDO_MatchEndDeviceBind_13
   \   000208   90....       MOV       DPTR,#matchED
   \   00020B   12....       LCALL     ?Subroutine66 & 0xFFFF
   \                     ??CrossCallReturnLabel_99:
   \   00020E   6015         JZ        ??ZDO_MatchEndDeviceBind_12
   \                     ??ZDO_MatchEndDeviceBind_13:
   \   000210                ; Setup parameters for call to function ZDMatchSendState
   \   000210   7B00         MOV       R3,#0x0
   \   000212   7A00         MOV       R2,#0x0
   \   000214   7900         MOV       R1,#0x0
   \   000216   12....       LCALL     `??ZDMatchSendState::?relay`; Banked call to: ZDMatchSendState
   \   000219   02....       LJMP      ??ZDO_MatchEndDeviceBind_5 & 0xFFFF
   \                     ??ZDO_MatchEndDeviceBind_11:
   \   00021C   85..82       MOV       DPL,?XSP + 0
   \   00021F   85..83       MOV       DPH,?XSP + 1
   \   000222   7488         MOV       A,#-0x78
   \   000224   F0           MOVX      @DPTR,A
   \                     ??ZDO_MatchEndDeviceBind_12:
   \   000225   85..82       MOV       DPL,?XSP + 0
   \   000228   85..83       MOV       DPH,?XSP + 1
   \   00022B   7486         MOV       A,#-0x7a
   \   00022D   02....       LJMP      ??ZDO_MatchEndDeviceBind_3 & 0xFFFF
   \                     ??ZDO_MatchEndDeviceBind_6:
   \   000230   85..82       MOV       DPL,?XSP + 0
   \   000233   85..83       MOV       DPH,?XSP + 1
   \   000236   7488         MOV       A,#-0x78
   \   000238   F0           MOVX      @DPTR,A
   \   000239   7409         MOV       A,#0x9
   \   00023B   12....       LCALL     ?XSTACK_DISP0_8
   \   00023E   7402         MOV       A,#0x2
   \   000240   12....       LCALL     ?Subroutine26 & 0xFFFF
   \                     ??CrossCallReturnLabel_30:
   \   000243   7401         MOV       A,#0x1
   \   000245   12....       LCALL     ?XSTACK_DISP0_8
   \   000248   12....       LCALL     ?Subroutine41 & 0xFFFF
   \                     ??CrossCallReturnLabel_63:
   \   00024B   12....       LCALL     ??Subroutine270_0 & 0xFFFF
   \                     ??CrossCallReturnLabel_553:
   \   00024E   12....       LCALL     ?PUSH_XSTACK_I_ONE
   \   000251   7401         MOV       A,#0x1
   \   000253   12....       LCALL     ?XSTACK_DISP100_8
   \   000256   88..         MOV       ?V0,R0
   \   000258   89..         MOV       ?V1,R1
   \   00025A   78..         MOV       R0,#?V0
   \   00025C   12....       LCALL     ?PUSH_XSTACK_I_TWO
   \   00025F   75..20       MOV       ?V0,#0x20
   \   000262   75..80       MOV       ?V1,#-0x80
   \   000265   78..         MOV       R0,#?V0
   \   000267   12....       LCALL     ?PUSH_XSTACK_I_TWO
   \   00026A   7901         MOV       R1,#0x1
   \   00026C   7406         MOV       A,#0x6
   \   00026E   12....       LCALL     ?XSTACK_DISP102_8
   \   000271   12....       LCALL     ?Subroutine157 & 0xFFFF
   \                     ??CrossCallReturnLabel_246:
   \   000274   12....       LCALL     ?DEALLOC_XSTACK8
   \   000277   02....       LJMP      ??ZDO_MatchEndDeviceBind_5 & 0xFFFF

   \                                 In  segment BANKED_CODE, align 1, keep-with-next
   \                     ?Subroutine167:
   \   000000   242E         ADD       A,#0x2e
   \   000002   F582         MOV       DPL,A
   \   000004   E4           CLR       A
   \   000005   39           ADDC      A,R1
   \   000006   F583         MOV       DPH,A
   \   000008   22           RET

   \                                 In  segment BANKED_CODE, align 1, keep-with-next
   \                     ?Subroutine159:
   \   000000   F582         MOV       DPL,A
   \   000002   E4           CLR       A
   \   000003   38           ADDC      A,R0
   \   000004   F583         MOV       DPH,A
   \   000006   E0           MOVX      A,@DPTR
   \   000007   F9           MOV       R1,A
   \   000008   12....       LCALL     `??ZDO_CompareClusterLists::?relay`; Banked call to: ZDO_CompareClusterLists
   \   00000B   7404         MOV       A,#0x4
   \   00000D   22           RET

   \                                 In  segment BANKED_CODE, align 1, keep-with-next
   \                     ?Subroutine157:
   \   000000   12....       LCALL     ??Subroutine246_0 & 0xFFFF
   \                     ??CrossCallReturnLabel_444:
   \   000003   22           RET

   \                                 In  segment BANKED_CODE, align 1, keep-with-next
   \                     ?Subroutine155:
   \   000000   FA           MOV       R2,A
   \   000001   E4           CLR       A
   \   000002   33           RLC       A
   \   000003   FB           MOV       R3,A
   \   000004   12....       LCALL     `??osal_mem_alloc::?relay`; Banked call to: osal_mem_alloc
   \   000007   90....       MOV       DPTR,#matchED
   \   00000A   E0           MOVX      A,@DPTR
   \   00000B   FC           MOV       R4,A
   \   00000C   A3           INC       DPTR
   \   00000D   E0           MOVX      A,@DPTR
   \   00000E   CC           XCH       A,R4
   \   00000F   22           RET

   \                                 In  segment BANKED_CODE, align 1, keep-with-next
   \                     ?Subroutine95:
   \   000000   90....       MOV       DPTR,#matchED
   \   000003                REQUIRE ??Subroutine254_0
   \   000003                ; // Fall through to label ??Subroutine254_0

   \                                 In  segment BANKED_CODE, align 1, keep-with-next
   \                     ??Subroutine254_0:
   \   000000   12....       LCALL     ??Subroutine255_0 & 0xFFFF
   \                     ??CrossCallReturnLabel_661:
   \   000003   2431         ADD       A,#0x31
   \   000005   22           RET

   \                                 In  segment BANKED_CODE, align 1, keep-with-next
   \                     ?Subroutine87:
   \   000000   F582         MOV       DPL,A
   \   000002   E4           CLR       A
   \   000003   38           ADDC      A,R0
   \   000004   12....       LCALL     ?Subroutine184 & 0xFFFF
   \                     ??CrossCallReturnLabel_549:
   \   000007   12....       LCALL     ?Subroutine188 & 0xFFFF
   \                     ??CrossCallReturnLabel_655:
   \   00000A   22           RET

   \                                 In  segment BANKED_CODE, align 1, keep-with-next
   \                     ?Subroutine188:
   \   000000   90....       MOV       DPTR,#matchED
   \   000003                REQUIRE ??Subroutine255_0
   \   000003                ; // Fall through to label ??Subroutine255_0

   \                                 In  segment BANKED_CODE, align 1, keep-with-next
   \                     ?Subroutine83:
   \   000000   F583         MOV       DPH,A
   \   000002   8882         MOV       DPL,R0
   \   000004                REQUIRE ??Subroutine256_0
   \   000004                ; // Fall through to label ??Subroutine256_0

   \                                 In  segment BANKED_CODE, align 1, keep-with-next
   \                     ??Subroutine256_0:
   \   000000   A3           INC       DPTR
   \   000001   A3           INC       DPTR
   \   000002                REQUIRE ??Subroutine257_0
   \   000002                ; // Fall through to label ??Subroutine257_0

   \                                 In  segment BANKED_CODE, align 1, keep-with-next
   \                     ??Subroutine257_0:
   \   000000   12....       LCALL     ??Subroutine278_0 & 0xFFFF
   \                     ??CrossCallReturnLabel_610:
   \   000003   7401         MOV       A,#0x1
   \   000005   22           RET

   \                                 In  segment BANKED_CODE, align 1, keep-with-next
   \                     ?Subroutine67:
   \   000000   F582         MOV       DPL,A
   \   000002   E4           CLR       A
   \   000003   38           ADDC      A,R0
   \   000004                REQUIRE ??Subroutine258_0
   \   000004                ; // Fall through to label ??Subroutine258_0

   \                                 In  segment BANKED_CODE, align 1, keep-with-next
   \                     ??Subroutine258_0:
   \   000000   12....       LCALL     ?Subroutine184 & 0xFFFF
   \                     ??CrossCallReturnLabel_550:
   \   000003   12....       LCALL     `??osal_memcpy::?relay`; Banked call to: osal_memcpy
   \   000006   7403         MOV       A,#0x3
   \   000008   22           RET

   \                                 In  segment BANKED_CODE, align 1, keep-with-next
   \                     ?Subroutine46:
   \   000000   F582         MOV       DPL,A
   \   000002   E4           CLR       A
   \   000003   3C           ADDC      A,R4
   \   000004                REQUIRE ??Subroutine259_0
   \   000004                ; // Fall through to label ??Subroutine259_0

   \                                 In  segment BANKED_CODE, align 1, keep-with-next
   \                     ??Subroutine259_0:
   \   000000   F583         MOV       DPH,A
   \   000002   EA           MOV       A,R2
   \   000003   F0           MOVX      @DPTR,A
   \   000004   A3           INC       DPTR
   \   000005   EB           MOV       A,R3
   \   000006   F0           MOVX      @DPTR,A
   \   000007   EA           MOV       A,R2
   \   000008   4B           ORL       A,R3
   \   000009   22           RET

   \                                 In  segment BANKED_CODE, align 1, keep-with-next
   \                     ?Subroutine20:
   \   000000   F582         MOV       DPL,A
   \   000002   E4           CLR       A
   \   000003   38           ADDC      A,R0
   \   000004   F583         MOV       DPH,A
   \   000006                REQUIRE ??Subroutine260_0
   \   000006                ; // Fall through to label ??Subroutine260_0

   \                                 In  segment BANKED_CODE, align 1, keep-with-next
   \                     ??Subroutine260_0:
   \   000000   12....       LCALL     ?Subroutine170 & 0xFFFF
   \                     ??CrossCallReturnLabel_519:
   \   000003   C8           XCH       A,R0
   \   000004   22           RET

   \                                 In  segment BANKED_CODE, align 1, keep-with-next
   \                     ?Subroutine170:
   \   000000   E9           MOV       A,R1
   \   000001                REQUIRE ??Subroutine261_0
   \   000001                ; // Fall through to label ??Subroutine261_0

   \                                 In  segment BANKED_CODE, align 1, keep-with-next
   \                     ??Subroutine261_0:
   \   000000   F0           MOVX      @DPTR,A
   \   000001                ; Setup parameters for call to function ZDP_SendData
   \   000001                ; Setup parameters for call to function ZDP_SendData
   \   000001                ; Setup parameters for call to function ZDP_SendData
   \   000001   12....       LCALL     ?Subroutine217 & 0xFFFF
   \                     ??CrossCallReturnLabel_615:
   \   000004   22           RET

   \                                 In  segment BANKED_CODE, align 1, keep-with-next
   \                     ?Subroutine217:
   \   000000   90....       MOV       DPTR,#matchED
   \   000003                REQUIRE ??Subroutine262_0
   \   000003                ; // Fall through to label ??Subroutine262_0

   \                                 In  segment BANKED_CODE, align 1, keep-with-next
   \                     ?Subroutine98:
   \   000000   12....       LCALL     ?Subroutine188 & 0xFFFF
   \                     ??CrossCallReturnLabel_660:
   \   000003   242C         ADD       A,#0x2c
   \   000005   22           RET

   \                                 In  segment BANKED_CODE, align 1, keep-with-next
   \                     ?Subroutine97:
   \   000000   12....       LCALL     ?Subroutine188 & 0xFFFF
   \                     ??CrossCallReturnLabel_659:
   \   000003   2412         ADD       A,#0x12
   \   000005   22           RET

   \                                 In  segment BANKED_CODE, align 1, keep-with-next
   \                     ?Subroutine96:
   \   000000   12....       LCALL     ?Subroutine188 & 0xFFFF
   \                     ??CrossCallReturnLabel_658:
   \   000003   2432         ADD       A,#0x32
   \   000005   22           RET

   \                                 In  segment BANKED_CODE, align 1, keep-with-next
   \                     ?Subroutine94:
   \   000000   12....       LCALL     ?Subroutine188 & 0xFFFF
   \                     ??CrossCallReturnLabel_657:
   \   000003   2415         ADD       A,#0x15
   \   000005   22           RET

   \                                 In  segment BANKED_CODE, align 1, keep-with-next
   \                     ?Subroutine93:
   \   000000   12....       LCALL     ?Subroutine188 & 0xFFFF
   \                     ??CrossCallReturnLabel_656:
   \   000003   2429         ADD       A,#0x29
   \   000005   22           RET

   \                                 In  segment BANKED_CODE, align 1, keep-with-next
   \                     ?Subroutine160:
   \   000000   F582         MOV       DPL,A
   \   000002   E4           CLR       A
   \   000003   38           ADDC      A,R0
   \   000004   F583         MOV       DPH,A
   \   000006   E0           MOVX      A,@DPTR
   \   000007   22           RET

   \                                 In  segment BANKED_CODE, align 1, keep-with-next
   \                     ?Subroutine113:
   \   000000   90....       MOV       DPTR,#matchED
   \   000003   E0           MOVX      A,@DPTR
   \   000004   2417         ADD       A,#0x17
   \   000006   FA           MOV       R2,A
   \   000007   A3           INC       DPTR
   \   000008   E0           MOVX      A,@DPTR
   \   000009   3400         ADDC      A,#0x0
   \   00000B   FB           MOV       R3,A
   \   00000C   22           RET

   \                                 In  segment BANKED_CODE, align 1, keep-with-next
   \                     ?Subroutine103:
   \   000000   7C..         MOV       R4,#`??ZDO_EndDeviceBindMatchTimeoutCB::?relay` & 0xff
   \   000002   7D..         MOV       R5,#(`??ZDO_EndDeviceBindMatchTimeoutCB::?relay` >> 8) & 0xff
   \   000004   90....       MOV       DPTR,#AIB_MaxBindingTime
   \   000007   12....       LCALL     ??Subroutine268_0 & 0xFFFF
   \                     ??CrossCallReturnLabel_547:
   \   00000A   12....       LCALL     `??APS_SetEndDeviceBindTimeout::?relay`; Banked call to: APS_SetEndDeviceBindTimeout
   \   00000D   22           RET

   \                                 In  segment BANKED_CODE, align 1, keep-with-next
   \                     ?Subroutine184:
   \   000000   F583         MOV       DPH,A
   \   000002                REQUIRE ??Subroutine268_0
   \   000002                ; // Fall through to label ??Subroutine268_0

   \                                 In  segment BANKED_CODE, align 1, keep-with-next
   \                     ?Subroutine101:
   \   000000   90....       MOV       DPTR,#matchED
   \   000003   12....       LCALL     ??Subroutine268_0 & 0xFFFF
   \                     ??CrossCallReturnLabel_546:
   \   000006   12....       LCALL     ??Subroutine246_0 & 0xFFFF
   \                     ??CrossCallReturnLabel_445:
   \   000009   22           RET

   \                                 In  segment BANKED_CODE, align 1, keep-with-next
   \                     ?Subroutine79:
   \   000000   12....       LCALL     ?Subroutine188 & 0xFFFF
   \                     ??CrossCallReturnLabel_654:
   \   000003   12....       LCALL     ?Subroutine211 & 0xFFFF
   \                     ??CrossCallReturnLabel_338:
   \   000006   E0           MOVX      A,@DPTR
   \   000007   6402         XRL       A,#0x2
   \   000009   22           RET

   \                                 In  segment BANKED_CODE, align 1, keep-with-next
   \                     ?Subroutine211:
   \   000000   242E         ADD       A,#0x2e
   \   000002   F582         MOV       DPL,A
   \   000004   E4           CLR       A
   \   000005   38           ADDC      A,R0
   \   000006   F583         MOV       DPH,A
   \   000008   22           RET

   \                                 In  segment BANKED_CODE, align 1, keep-with-next
   \                     ?Subroutine66:
   \   000000   12....       LCALL     ?Subroutine186 & 0xFFFF
   \                     ??CrossCallReturnLabel_305:
   \   000003   22           RET

   \                                 In  segment BANKED_CODE, align 1, keep-with-next
   \                     ?Subroutine186:
   \   000000   12....       LCALL     ?Subroutine215 & 0xFFFF
   \                     ??CrossCallReturnLabel_664:
   \   000003   2434         ADD       A,#0x34
   \   000005   F582         MOV       DPL,A
   \   000007   E4           CLR       A
   \   000008   38           ADDC      A,R0
   \   000009   F583         MOV       DPH,A
   \   00000B   E0           MOVX      A,@DPTR
   \   00000C   22           RET

   \                                 In  segment BANKED_CODE, align 1, keep-with-next
   \                     ?Subroutine60:
   \   000000   90....       MOV       DPTR,#matchED
   \   000003   12....       LCALL     ?Subroutine186 & 0xFFFF
   \                     ??CrossCallReturnLabel_304:
   \   000006   25E0         ADD       A,0xE0 /* A   */
   \   000008   22           RET

   \                                 In  segment BANKED_CODE, align 1, keep-with-next
   \                     ?Subroutine59:
   \   000000   12....       LCALL     ?Subroutine185 & 0xFFFF
   \                     ??CrossCallReturnLabel_302:
   \   000003   25E0         ADD       A,0xE0 /* A   */
   \   000005   22           RET

   \                                 In  segment BANKED_CODE, align 1, keep-with-next
   \                     ?Subroutine185:
   \   000000   90....       MOV       DPTR,#matchED
   \   000003   12....       LCALL     ?Subroutine215 & 0xFFFF
   \                     ??CrossCallReturnLabel_663:
   \   000006   2431         ADD       A,#0x31
   \   000008   F582         MOV       DPL,A
   \   00000A   E4           CLR       A
   \   00000B   38           ADDC      A,R0
   \   00000C   F583         MOV       DPH,A
   \   00000E   E0           MOVX      A,@DPTR
   \   00000F   22           RET

   \                                 In  segment BANKED_CODE, align 1, keep-with-next
   \                     ?Subroutine53:
   \   000000   12....       LCALL     ??Subroutine261_0 & 0xFFFF
   \                     ??CrossCallReturnLabel_521:
   \   000003   22           RET

   \                                 In  segment BANKED_CODE, align 1, keep-with-next
   \                     ?Subroutine12:
   \   000000   E8           MOV       A,R0
   \   000001   F0           MOVX      @DPTR,A
   \   000002   A3           INC       DPTR
   \   000003   12....       LCALL     ?Subroutine170 & 0xFFFF
   \                     ??CrossCallReturnLabel_520:
   \   000006   F583         MOV       DPH,A
   \   000008   8882         MOV       DPL,R0
   \   00000A   A3           INC       DPTR
   \   00000B   E0           MOVX      A,@DPTR
   \   00000C   F5..         MOV       ?V0,A
   \   00000E   78..         MOV       R0,#?V0
   \   000010   22           RET

   \                                 In  segment BANKED_CODE, align 1, keep-with-next
   \                     ?Subroutine26:
   \   000000   12....       LCALL     ?Subroutine171 & 0xFFFF
   \                     ??CrossCallReturnLabel_676:
   \   000003   12....       LCALL     ?Subroutine192 & 0xFFFF
   \                     ??CrossCallReturnLabel_607:
   \   000006   22           RET

   \                                 In  segment BANKED_CODE, align 1, keep-with-next
   \                     ?Subroutine99:
   \   000000   90....       MOV       DPTR,#matchED
   \   000003                REQUIRE ??Subroutine282_0
   \   000003                ; // Fall through to label ??Subroutine282_0

   \                                 In  segment BANKED_CODE, align 1, keep-with-next
   \                     ?Subroutine178:
   \   000000   12....       LCALL     ?Subroutine212 & 0xFFFF
   \                     ??CrossCallReturnLabel_340:
   \   000003   22           RET

   \                                 In  segment BANKED_CODE, align 1, keep-with-next
   \                     ?Subroutine44:
   \   000000   12....       LCALL     ?Subroutine176 & 0xFFFF
   \                     ??CrossCallReturnLabel_285:
   \   000003   22           RET

   \                                 In  segment BANKED_CODE, align 1, keep-with-next
   \                     ?Subroutine176:
   \   000000   F0           MOVX      @DPTR,A
   \   000001   A3           INC       DPTR
   \   000002   E9           MOV       A,R1
   \   000003   12....       LCALL     ?Subroutine212 & 0xFFFF
   \                     ??CrossCallReturnLabel_341:
   \   000006   22           RET

   \                                 In  segment BANKED_CODE, align 1, keep-with-next
   \                     ?Subroutine52:
   \   000000   12....       LCALL     ?Subroutine178 & 0xFFFF
   \                     ??CrossCallReturnLabel_290:
   \   000003   A3           INC       DPTR
   \   000004   E0           MOVX      A,@DPTR
   \   000005   22           RET
   2592          #endif
   2593          
   2594          /*********************************************************************
   2595           * @fn      ZDO_RemoveMatchMemory()
   2596           *
   2597           * @brief   Called to clear the memory used for the end device bind.
   2598           *
   2599           * @param  none
   2600           *
   2601           * @return  none
   2602           */

   \                                 In  segment BANKED_CODE, align 1, keep-with-next
   2603          static void ZDO_RemoveMatchMemory( void )
   \                     ZDO_RemoveMatchMemory:
   2604          {
   \   000000   C082         PUSH      DPL
   \   000002   C083         PUSH      DPH
   \   000004                ; Saved register size: 2
   \   000004                ; Auto size: 0
   2605            if ( matchED != NULL )
   \   000004   90....       MOV       DPTR,#matchED
   \   000007   12....       LCALL     ??Subroutine250_0 & 0xFFFF
   \                     ??CrossCallReturnLabel_467:
   \   00000A   6067         JZ        ??ZDO_RemoveMatchMemory_0
   2606            {
   2607              if ( matchED->ed2Matched != NULL )
   \   00000C   E8           MOV       A,R0
   \   00000D   2435         ADD       A,#0x35
   \   00000F   F582         MOV       DPL,A
   \   000011   E4           CLR       A
   \   000012   39           ADDC      A,R1
   \   000013   12....       LCALL     ??Subroutine249_0 & 0xFFFF
   \                     ??CrossCallReturnLabel_471:
   \   000016   6008         JZ        ??CrossCallReturnLabel_522
   2608              {
   2609                osal_mem_free( matchED->ed2Matched );
   \   000018                ; Setup parameters for call to function osal_mem_free
   \   000018   12....       LCALL     ?Subroutine99 & 0xFFFF
   2610              }
   \                     ??CrossCallReturnLabel_650:
   \   00001B   2435         ADD       A,#0x35
   \   00001D   12....       LCALL     ?Subroutine58 & 0xFFFF
   2611              if ( matchED->ed1Matched != NULL )
   \                     ??CrossCallReturnLabel_522:
   \   000020   12....       LCALL     ?Subroutine96 & 0xFFFF
   \                     ??CrossCallReturnLabel_158:
   \   000023   12....       LCALL     ?Subroutine57 & 0xFFFF
   \                     ??CrossCallReturnLabel_475:
   \   000026   6006         JZ        ??CrossCallReturnLabel_523
   2612              {
   2613                osal_mem_free( matchED->ed1Matched );
   \   000028                ; Setup parameters for call to function osal_mem_free
   \   000028   12....       LCALL     ?Subroutine96 & 0xFFFF
   2614              }
   \                     ??CrossCallReturnLabel_159:
   \   00002B   12....       LCALL     ?Subroutine58 & 0xFFFF
   2615              if ( matchED->ed1.inClusters != NULL )
   \                     ??CrossCallReturnLabel_523:
   \   00002E   12....       LCALL     ?Subroutine97 & 0xFFFF
   \                     ??CrossCallReturnLabel_161:
   \   000031   12....       LCALL     ?Subroutine57 & 0xFFFF
   \                     ??CrossCallReturnLabel_476:
   \   000034   6006         JZ        ??CrossCallReturnLabel_524
   2616              {
   2617                osal_mem_free( matchED->ed1.inClusters );
   \   000036                ; Setup parameters for call to function osal_mem_free
   \   000036   12....       LCALL     ?Subroutine97 & 0xFFFF
   2618              }
   \                     ??CrossCallReturnLabel_162:
   \   000039   12....       LCALL     ?Subroutine58 & 0xFFFF
   2619              if ( matchED->ed1.outClusters != NULL )
   \                     ??CrossCallReturnLabel_524:
   \   00003C   12....       LCALL     ?Subroutine94 & 0xFFFF
   \                     ??CrossCallReturnLabel_155:
   \   00003F   12....       LCALL     ?Subroutine57 & 0xFFFF
   \                     ??CrossCallReturnLabel_477:
   \   000042   6006         JZ        ??CrossCallReturnLabel_525
   2620              {
   2621                osal_mem_free( matchED->ed1.outClusters );
   \   000044                ; Setup parameters for call to function osal_mem_free
   \   000044   12....       LCALL     ?Subroutine94 & 0xFFFF
   2622              }
   \                     ??CrossCallReturnLabel_156:
   \   000047   12....       LCALL     ?Subroutine58 & 0xFFFF
   2623              if ( matchED->ed2.inClusters != NULL )
   \                     ??CrossCallReturnLabel_525:
   \   00004A   12....       LCALL     ?Subroutine93 & 0xFFFF
   \                     ??CrossCallReturnLabel_152:
   \   00004D   12....       LCALL     ?Subroutine57 & 0xFFFF
   \                     ??CrossCallReturnLabel_478:
   \   000050   6006         JZ        ??CrossCallReturnLabel_526
   2624              {
   2625                osal_mem_free( matchED->ed2.inClusters );
   \   000052                ; Setup parameters for call to function osal_mem_free
   \   000052   12....       LCALL     ?Subroutine93 & 0xFFFF
   2626              }
   \                     ??CrossCallReturnLabel_153:
   \   000055   12....       LCALL     ?Subroutine58 & 0xFFFF
   2627              if ( matchED->ed2.outClusters != NULL )
   \                     ??CrossCallReturnLabel_526:
   \   000058   12....       LCALL     ?Subroutine98 & 0xFFFF
   \                     ??CrossCallReturnLabel_164:
   \   00005B   12....       LCALL     ?Subroutine57 & 0xFFFF
   \                     ??CrossCallReturnLabel_479:
   \   00005E   6006         JZ        ??CrossCallReturnLabel_527
   2628              {
   2629                osal_mem_free( matchED->ed2.outClusters );
   \   000060                ; Setup parameters for call to function osal_mem_free
   \   000060   12....       LCALL     ?Subroutine98 & 0xFFFF
   2630              }
   \                     ??CrossCallReturnLabel_165:
   \   000063   12....       LCALL     ?Subroutine58 & 0xFFFF
   2631          
   2632              osal_mem_free( matchED );
   \                     ??CrossCallReturnLabel_527:
   \   000066                ; Setup parameters for call to function osal_mem_free
   \   000066   90....       MOV       DPTR,#matchED
   \   000069   12....       LCALL     ??Subroutine264_0 & 0xFFFF
   2633              matchED = (ZDMatchEndDeviceBind_t *)NULL;
   \                     ??CrossCallReturnLabel_533:
   \   00006C   90....       MOV       DPTR,#matchED
   \   00006F   E4           CLR       A
   \   000070   F0           MOVX      @DPTR,A
   \   000071   A3           INC       DPTR
   \   000072   F0           MOVX      @DPTR,A
   2634            }
   2635          }
   \                     ??ZDO_RemoveMatchMemory_0:
   \   000073   02....       LJMP      ?Subroutine0 & 0xFFFF
   2636          
   2637          /*********************************************************************
   2638           * @fn      ZDO_CopyMatchInfo()
   2639           *
   2640           * @brief   Called to copy memory used for the end device bind.
   2641           *
   2642           * @param  srcReq - source information
   2643           * @param  dstReq - destination location
   2644           *
   2645           * @return  TRUE if copy was successful.
   2646           */

   \                                 In  segment BANKED_CODE, align 1, keep-with-next
   2647          static uint8 ZDO_CopyMatchInfo( ZDEndDeviceBind_t *destReq, ZDEndDeviceBind_t *srcReq )
   \                     ZDO_CopyMatchInfo:
   2648          {
   \   000000                REQUIRE ?V0
   \   000000                REQUIRE ?V1
   \   000000                REQUIRE ?V2
   \   000000                REQUIRE ?V4
   \   000000                REQUIRE ?V5
   \   000000                REQUIRE ?V6
   \   000000   74F1         MOV       A,#-0xf
   \   000002   12....       LCALL     ?BANKED_ENTER_XDATA
   \   000005                ; Saved register size: 15
   \   000005                ; Auto size: 0
   \   000005   EA           MOV       A,R2
   \   000006   FE           MOV       R6,A
   \   000007   EB           MOV       A,R3
   \   000008   FF           MOV       R7,A
   \   000009   8C..         MOV       ?V0,R4
   \   00000B   8D..         MOV       ?V1,R5
   2649            uint8 allOK = TRUE;
   \   00000D   75..01       MOV       ?V2,#0x1
   2650          
   2651            // Copy bind information into the match info structure
   2652            osal_memcpy( (uint8 *)destReq, srcReq, sizeof ( ZDEndDeviceBind_t ) );
   \   000010                ; Setup parameters for call to function osal_memcpy
   \   000010   8C..         MOV       ?V4,R4
   \   000012   8D..         MOV       ?V5,R5
   \   000014   75..00       MOV       ?V6,#0x0
   \   000017   78..         MOV       R0,#?V4
   \   000019   12....       LCALL     ?PUSH_XSTACK_I_THREE
   \   00001C   7C17         MOV       R4,#0x17
   \   00001E   7D00         MOV       R5,#0x0
   \   000020   12....       LCALL     ??Subroutine296_0 & 0xFFFF
   \                     ??CrossCallReturnLabel_725:
   \   000023   12....       LCALL     ?DEALLOC_XSTACK8
   2653          
   2654            // Initialize the destination cluster pointers
   2655            destReq->inClusters = NULL;
   \   000026   12....       LCALL     ?Subroutine15 & 0xFFFF
   2656            destReq->outClusters = NULL;
   2657          
   2658            // Copy input cluster IDs
   2659            if ( srcReq->numInClusters )
   \                     ??CrossCallReturnLabel_11:
   \   000029   E5..         MOV       A,?V0
   \   00002B   2411         ADD       A,#0x11
   \   00002D   12....       LCALL     ??Subroutine280_0 & 0xFFFF
   \                     ??CrossCallReturnLabel_624:
   \   000030   E0           MOVX      A,@DPTR
   \   000031   6027         JZ        ??ZDO_CopyMatchInfo_0
   \   000033                ; Setup parameters for call to function osal_mem_alloc
   \   000033   12....       LCALL     ?Subroutine136 & 0xFFFF
   \                     ??CrossCallReturnLabel_210:
   \   000036   12....       LCALL     ?Subroutine17 & 0xFFFF
   2660            {
   2661              destReq->inClusters = osal_mem_alloc( (short)(srcReq->numInClusters * sizeof ( uint16 )) );
   2662              if ( destReq->inClusters )
   \                     ??CrossCallReturnLabel_540:
   \   000039   601C         JZ        ??ZDO_CopyMatchInfo_1
   2663              {
   2664                // Copy the clusters
   2665                osal_memcpy( (uint8*)(destReq->inClusters), (uint8 *)(srcReq->inClusters),
   2666                                (srcReq->numInClusters * sizeof ( uint16 )) );
   \   00003B                ; Setup parameters for call to function osal_memcpy
   \   00003B   E5..         MOV       A,?V0
   \   00003D   2412         ADD       A,#0x12
   \   00003F   12....       LCALL     ?Subroutine109 & 0xFFFF
   2667              }
   \                     ??CrossCallReturnLabel_174:
   \   000042   12....       LCALL     ?PUSH_XSTACK_I_THREE
   \   000045   E5..         MOV       A,?V0
   \   000047   2411         ADD       A,#0x11
   \   000049   12....       LCALL     ?Subroutine121 & 0xFFFF
   \                     ??CrossCallReturnLabel_188:
   \   00004C   12....       LCALL     ??Subroutine233_0 & 0xFFFF
   \                     ??CrossCallReturnLabel_371:
   \   00004F   12....       LCALL     ??Subroutine258_0 & 0xFFFF
   \                     ??CrossCallReturnLabel_511:
   \   000052   12....       LCALL     ?DEALLOC_XSTACK8
   \   000055   8003         SJMP      ??ZDO_CopyMatchInfo_0
   2668              else
   2669              {
   2670                allOK = FALSE;
   \                     ??ZDO_CopyMatchInfo_1:
   \   000057   75..00       MOV       ?V2,#0x0
   2671              }
   2672            }
   2673          
   2674            // Copy output cluster IDs
   2675            if ( srcReq->numOutClusters )
   \                     ??ZDO_CopyMatchInfo_0:
   \   00005A   E5..         MOV       A,?V0
   \   00005C   2414         ADD       A,#0x14
   \   00005E   12....       LCALL     ??Subroutine280_0 & 0xFFFF
   \                     ??CrossCallReturnLabel_625:
   \   000061   E0           MOVX      A,@DPTR
   \   000062   6025         JZ        ??ZDO_CopyMatchInfo_2
   \   000064                ; Setup parameters for call to function osal_mem_alloc
   \   000064   12....       LCALL     ?Subroutine136 & 0xFFFF
   \                     ??CrossCallReturnLabel_211:
   \   000067   EE           MOV       A,R6
   \   000068   2415         ADD       A,#0x15
   \   00006A   12....       LCALL     ??Subroutine266_0 & 0xFFFF
   2676            {
   2677              destReq->outClusters = osal_mem_alloc( (short)(srcReq->numOutClusters * sizeof ( uint16 )) );
   2678              if ( destReq->outClusters )
   \                     ??CrossCallReturnLabel_541:
   \   00006D   6041         JZ        ??ZDO_CopyMatchInfo_3
   2679              {
   2680                // Copy the clusters
   2681                osal_memcpy( (uint8 *)(destReq->outClusters), (uint8 *)(srcReq->outClusters),
   2682                                (srcReq->numOutClusters * sizeof ( uint16 )) );
   \   00006F                ; Setup parameters for call to function osal_memcpy
   \   00006F   E5..         MOV       A,?V0
   \   000071   2415         ADD       A,#0x15
   \   000073   12....       LCALL     ?Subroutine109 & 0xFFFF
   2683              }
   \                     ??CrossCallReturnLabel_175:
   \   000076   12....       LCALL     ?PUSH_XSTACK_I_THREE
   \   000079   E5..         MOV       A,?V0
   \   00007B   2414         ADD       A,#0x14
   \   00007D   12....       LCALL     ?Subroutine121 & 0xFFFF
   \                     ??CrossCallReturnLabel_189:
   \   000080   12....       LCALL     ??Subroutine265_0 & 0xFFFF
   \                     ??CrossCallReturnLabel_537:
   \   000083   12....       LCALL     ??Subroutine258_0 & 0xFFFF
   \                     ??CrossCallReturnLabel_512:
   \   000086   12....       LCALL     ?DEALLOC_XSTACK8
   2684              else
   2685              {
   2686                allOK = FALSE;
   2687              }
   2688            }
   2689          
   2690            if ( allOK == FALSE )
   \                     ??ZDO_CopyMatchInfo_2:
   \   000089   E5..         MOV       A,?V2
   \   00008B   A2E0         MOV       C,0xE0 /* A   */.0
   \   00008D   401C         JC        ??CrossCallReturnLabel_529
   2691            {
   2692              if ( destReq->inClusters != NULL )
   \                     ??ZDO_CopyMatchInfo_4:
   \   00008F   12....       LCALL     ?Subroutine163 & 0xFFFF
   \                     ??CrossCallReturnLabel_373:
   \   000092   12....       LCALL     ??Subroutine249_0 & 0xFFFF
   \                     ??CrossCallReturnLabel_472:
   \   000095   6006         JZ        ??CrossCallReturnLabel_528
   2693              {
   2694                osal_mem_free( destReq->inClusters );
   \   000097                ; Setup parameters for call to function osal_mem_free
   \   000097   12....       LCALL     ?Subroutine163 & 0xFFFF
   2695              }
   \                     ??CrossCallReturnLabel_374:
   \   00009A   12....       LCALL     ??Subroutine263_0 & 0xFFFF
   2696              if ( destReq->outClusters != NULL )
   \                     ??CrossCallReturnLabel_528:
   \   00009D   12....       LCALL     ?Subroutine161 & 0xFFFF
   \                     ??CrossCallReturnLabel_538:
   \   0000A0   12....       LCALL     ??Subroutine249_0 & 0xFFFF
   \                     ??CrossCallReturnLabel_473:
   \   0000A3   6006         JZ        ??CrossCallReturnLabel_529
   2697              {
   2698                osal_mem_free( destReq->outClusters );
   \   0000A5                ; Setup parameters for call to function osal_mem_free
   \   0000A5   12....       LCALL     ?Subroutine161 & 0xFFFF
   2699              }
   2700            }
   \                     ??CrossCallReturnLabel_539:
   \   0000A8   12....       LCALL     ??Subroutine263_0 & 0xFFFF
   2701          
   2702            return ( allOK );
   \                     ??CrossCallReturnLabel_529:
   \   0000AB   A9..         MOV       R1,?V2
   \   0000AD   02....       LJMP      ??Subroutine288_0 & 0xFFFF
   \                     ??ZDO_CopyMatchInfo_3:
   \   0000B0   75..00       MOV       ?V2,#0x0
   \   0000B3   80DA         SJMP      ??ZDO_CopyMatchInfo_4
   2703          }

   \                                 In  segment BANKED_CODE, align 1, keep-with-next
   \                     ?Subroutine161:
   \   000000   EE           MOV       A,R6
   \   000001                REQUIRE ??Subroutine265_0
   \   000001                ; // Fall through to label ??Subroutine265_0

   \                                 In  segment BANKED_CODE, align 1, keep-with-next
   \                     ??Subroutine265_0:
   \   000000   2415         ADD       A,#0x15
   \   000002   F582         MOV       DPL,A
   \   000004   E4           CLR       A
   \   000005   3F           ADDC      A,R7
   \   000006   22           RET

   \                                 In  segment BANKED_CODE, align 1, keep-with-next
   \                     ?Subroutine121:
   \   000000   F582         MOV       DPL,A
   \   000002   E4           CLR       A
   \   000003   35..         ADDC      A,?V1
   \   000005   F583         MOV       DPH,A
   \   000007   E0           MOVX      A,@DPTR
   \   000008   25E0         ADD       A,0xE0 /* A   */
   \   00000A   FC           MOV       R4,A
   \   00000B   E4           CLR       A
   \   00000C   33           RLC       A
   \   00000D   FD           MOV       R5,A
   \   00000E   EE           MOV       A,R6
   \   00000F   22           RET

   \                                 In  segment BANKED_CODE, align 1, keep-with-next
   \                     ?Subroutine109:
   \   000000   F582         MOV       DPL,A
   \   000002   E4           CLR       A
   \   000003   35..         ADDC      A,?V1
   \   000005   F583         MOV       DPH,A
   \   000007   E0           MOVX      A,@DPTR
   \   000008   F5..         MOV       ?V4,A
   \   00000A   A3           INC       DPTR
   \   00000B   E0           MOVX      A,@DPTR
   \   00000C   F5..         MOV       ?V5,A
   \   00000E   78..         MOV       R0,#?V4
   \   000010   22           RET

   \                                 In  segment BANKED_CODE, align 1, keep-with-next
   \                     ?Subroutine17:
   \   000000   EE           MOV       A,R6
   \   000001   2412         ADD       A,#0x12
   \   000003                REQUIRE ??Subroutine266_0
   \   000003                ; // Fall through to label ??Subroutine266_0

   \                                 In  segment BANKED_CODE, align 1, keep-with-next
   \                     ??Subroutine266_0:
   \   000000   F582         MOV       DPL,A
   \   000002   E4           CLR       A
   \   000003   3F           ADDC      A,R7
   \   000004   F583         MOV       DPH,A
   \   000006                REQUIRE ??Subroutine267_0
   \   000006                ; // Fall through to label ??Subroutine267_0

   \                                 In  segment BANKED_CODE, align 1, keep-with-next
   \                     ??Subroutine267_0:
   \   000000   EA           MOV       A,R2
   \   000001   F0           MOVX      @DPTR,A
   \   000002   A3           INC       DPTR
   \   000003   EB           MOV       A,R3
   \   000004   F0           MOVX      @DPTR,A
   \   000005   EA           MOV       A,R2
   \   000006   49           ORL       A,R1
   \   000007   22           RET

   \                                 In  segment BANKED_CODE, align 1, keep-with-next
   \                     ?Subroutine15:
   \   000000   12....       LCALL     ?Subroutine209 & 0xFFFF
   \                     ??CrossCallReturnLabel_333:
   \   000003   E4           CLR       A
   \   000004   F0           MOVX      @DPTR,A
   \   000005   A3           INC       DPTR
   \   000006   F0           MOVX      @DPTR,A
   \   000007   12....       LCALL     ?Subroutine205 & 0xFFFF
   \                     ??CrossCallReturnLabel_331:
   \   00000A   E4           CLR       A
   \   00000B   F0           MOVX      @DPTR,A
   \   00000C   A3           INC       DPTR
   \   00000D   F0           MOVX      @DPTR,A
   \   00000E   22           RET

   \                                 In  segment BANKED_CODE, align 1, keep-with-next
   \                     ?Subroutine136:
   \   000000   12....       LCALL     ?Subroutine198 & 0xFFFF
   \                     ??CrossCallReturnLabel_316:
   \   000003   8B..         MOV       ?V5,R3
   \   000005   A9..         MOV       R1,?V5
   \   000007   22           RET
   2704          
   2705          /*********************************************************************
   2706           * @fn      ZDMatchSendState()
   2707           *
   2708           * @brief   State machine for the End device match message algorithm.
   2709           *
   2710           * @param  reason - state of algoritm
   2711           * @param  status - initial message status
   2712           * @param  TransSeq - next transaction sequence number
   2713           *
   2714           * @return  FALSE if error and we are not currently matching, TRUE
   2715           *          if success.
   2716           */

   \                                 In  segment BANKED_CODE, align 1, keep-with-next
   2717          uint8 ZDMatchSendState( uint8 reason, uint8 status, uint8 TransSeq )
   \                     ZDMatchSendState:
   2718          {
   \   000000                REQUIRE ?V0
   \   000000                REQUIRE ?V1
   \   000000                REQUIRE ?V2
   \   000000                REQUIRE ?V3
   \   000000                REQUIRE ?V4
   \   000000                REQUIRE ?V5
   \   000000                REQUIRE ?V6
   \   000000                REQUIRE ?V7
   \   000000                REQUIRE ?V8
   \   000000                REQUIRE ?V9
   \   000000   74EE         MOV       A,#-0x12
   \   000002   12....       LCALL     ?BANKED_ENTER_XDATA
   \   000005                ; Saved register size: 18
   \   000005                ; Auto size: 19
   \   000005   74ED         MOV       A,#-0x13
   \   000007   12....       LCALL     ?ALLOC_XSTACK8
   \   00000A   89..         MOV       ?V3,R1
   \   00000C   8A..         MOV       ?V6,R2
   2719            uint8 *dstIEEEAddr = NULL;
   \   00000E   75..00       MOV       ?V4,#0x0
   \   000011   75..00       MOV       ?V5,#0x0
   2720            uint8 dstEP = 0xFF;
   \   000014   75..FF       MOV       ?V2,#-0x1
   2721            zAddrType_t dstAddr;
   2722            zAddrType_t destinationAddr;
   2723            uint16 msgType;
   2724            uint16 clusterID = 0xFFFF;
   \   000017   75..FF       MOV       ?V8,#-0x1
   \   00001A   75..FF       MOV       ?V9,#-0x1
   2725            ZDEndDeviceBind_t *ed = NULL;
   \   00001D   75..00       MOV       ?V0,#0x0
   \   000020   75..00       MOV       ?V1,#0x0
   2726            uint8 rspStatus = ZDP_SUCCESS;
   \   000023   85..82       MOV       DPL,?XSP + 0
   \   000026   85..83       MOV       DPH,?XSP + 1
   \   000029   E4           CLR       A
   \   00002A   12....       LCALL     ?Subroutine53 & 0xFFFF
   2727          
   2728            if ( matchED == NULL )
   \                     ??CrossCallReturnLabel_82:
   \   00002D   F9           MOV       R1,A
   \   00002E   E8           MOV       A,R0
   \   00002F   49           ORL       A,R1
   \   000030   6016         JZ        ??ZDMatchSendState_0
   2729            {
   2730              return ( FALSE );
   2731            }
   2732          
   2733            // Check sequence number
   2734            if ( reason == ZDMATCH_REASON_BIND_RSP || reason == ZDMATCH_REASON_UNBIND_RSP )
   \   000032   7403         MOV       A,#0x3
   \   000034   65..         XRL       A,?V3
   \   000036   6006         JZ        ??ZDMatchSendState_1
   \   000038   7402         MOV       A,#0x2
   \   00003A   65..         XRL       A,?V3
   \   00003C   700F         JNZ       ??ZDMatchSendState_2
   2735            {
   2736              if ( TransSeq != matchED->transSeq )
   \                     ??ZDMatchSendState_1:
   \   00003E   E0           MOVX      A,@DPTR
   \   00003F   C8           XCH       A,R0
   \   000040   2430         ADD       A,#0x30
   \   000042   12....       LCALL     ?Subroutine160 & 0xFFFF
   \                     ??CrossCallReturnLabel_257:
   \   000045   6B           XRL       A,R3
   \   000046   6005         JZ        ??ZDMatchSendState_2
   2737              {
   2738                return( FALSE ); // ignore the message
   \                     ??ZDMatchSendState_0:
   \   000048   7900         MOV       R1,#0x0
   \   00004A   02....       LJMP      ??ZDMatchSendState_3 & 0xFFFF
   2739              }
   2740            }
   2741          
   2742            // turn off timer
   2743            APS_SetEndDeviceBindTimeout( 0, ZDO_EndDeviceBindMatchTimeoutCB );
   \                     ??ZDMatchSendState_2:
   \   00004D                ; Setup parameters for call to function APS_SetEndDeviceBindTimeout
   \   00004D   7C..         MOV       R4,#`??ZDO_EndDeviceBindMatchTimeoutCB::?relay` & 0xff
   \   00004F   7D..         MOV       R5,#(`??ZDO_EndDeviceBindMatchTimeoutCB::?relay` >> 8) & 0xff
   \   000051   7A00         MOV       R2,#0x0
   \   000053   7B00         MOV       R3,#0x0
   \   000055   12....       LCALL     `??APS_SetEndDeviceBindTimeout::?relay`; Banked call to: APS_SetEndDeviceBindTimeout
   2744          
   2745            if ( reason == ZDMATCH_REASON_TIMEOUT )
   \   000058   7401         MOV       A,#0x1
   \   00005A   65..         XRL       A,?V3
   \   00005C   700A         JNZ       ??ZDMatchSendState_4
   2746            {
   2747              rspStatus = ZDP_TIMEOUT;    // The process will stop
   \   00005E   85..82       MOV       DPL,?XSP + 0
   \   000061   85..83       MOV       DPH,?XSP + 1
   \   000064   7485         MOV       A,#-0x7b
   \   000066   803D         SJMP      ??ZDMatchSendState_5
   2748            }
   2749          
   2750            if ( reason == ZDMATCH_REASON_START || reason == ZDMATCH_REASON_BIND_RSP )
   \                     ??ZDMatchSendState_4:
   \   000068   E5..         MOV       A,?V3
   \   00006A   6006         JZ        ??ZDMatchSendState_6
   \   00006C   7403         MOV       A,#0x3
   \   00006E   65..         XRL       A,?V3
   \   000070   7019         JNZ       ??ZDMatchSendState_7
   2751            {
   2752              matchED->sending = ZDMATCH_SENDING_UNBIND;
   \                     ??ZDMatchSendState_6:
   \   000072   90....       MOV       DPTR,#matchED
   \   000075   12....       LCALL     ?Subroutine84 & 0xFFFF
   \                     ??CrossCallReturnLabel_133:
   \   000078   F0           MOVX      @DPTR,A
   2753          
   2754              if ( reason == ZDMATCH_REASON_BIND_RSP && status != ZDP_SUCCESS )
   \   000079   7403         MOV       A,#0x3
   \   00007B   65..         XRL       A,?V3
   \   00007D   7029         JNZ       ??ZDMatchSendState_8
   \   00007F   E5..         MOV       A,?V6
   \   000081   6029         JZ        ??ZDMatchSendState_9
   2755              {
   2756                rspStatus = status;
   \   000083   85..82       MOV       DPL,?XSP + 0
   \   000086   85..83       MOV       DPH,?XSP + 1
   \   000089   801A         SJMP      ??ZDMatchSendState_5
   2757              }
   2758            }
   2759            else if ( reason == ZDMATCH_REASON_UNBIND_RSP )
   \                     ??ZDMatchSendState_7:
   \   00008B   7402         MOV       A,#0x2
   \   00008D   65..         XRL       A,?V3
   \   00008F   701B         JNZ       ??ZDMatchSendState_9
   2760            {
   2761              if ( status == ZDP_SUCCESS )
   \   000091   E5..         MOV       A,?V6
   \   000093   90....       MOV       DPTR,#matchED
   \   000096   7005         JNZ       ??ZDMatchSendState_10
   2762              {
   2763                matchED->sending = ZDMATCH_SENDING_UNBIND;
   \   000098   12....       LCALL     ?Subroutine84 & 0xFFFF
   2764              }
   \                     ??CrossCallReturnLabel_134:
   \   00009B   8008         SJMP      ??ZDMatchSendState_5
   2765              else
   2766              {
   2767                matchED->sending = ZDMATCH_SENDING_BIND;
   \                     ??ZDMatchSendState_10:
   \   00009D   12....       LCALL     ??Subroutine282_0 & 0xFFFF
   2768              }
   2769            }
   \                     ??CrossCallReturnLabel_643:
   \   0000A0   12....       LCALL     ?Subroutine221 & 0xFFFF
   \                     ??CrossCallReturnLabel_350:
   \   0000A3   7402         MOV       A,#0x2
   \                     ??ZDMatchSendState_5:
   \   0000A5   F0           MOVX      @DPTR,A
   \   0000A6   8004         SJMP      ??ZDMatchSendState_9
   2770          
   2771            if ( reason != ZDMATCH_REASON_START && matchED->sending == ZDMATCH_SENDING_UNBIND )
   \                     ??ZDMatchSendState_8:
   \   0000A8   E5..         MOV       A,?V3
   \   0000AA   601E         JZ        ??ZDMatchSendState_11
   \                     ??ZDMatchSendState_9:
   \   0000AC   12....       LCALL     ?Subroutine80 & 0xFFFF
   \                     ??CrossCallReturnLabel_127:
   \   0000AF   7019         JNZ       ??ZDMatchSendState_11
   2772            {
   2773              // Move to the next cluster ID
   2774              if ( matchED->ed1numMatched )
   \   0000B1   12....       LCALL     ?Subroutine77 & 0xFFFF
   \                     ??CrossCallReturnLabel_123:
   \   0000B4   6005         JZ        ??ZDMatchSendState_12
   2775              {
   2776                matchED->ed1numMatched--;
   \   0000B6   12....       LCALL     ??Subroutine254_0 & 0xFFFF
   2777              }
   \                     ??CrossCallReturnLabel_502:
   \   0000B9   800A         SJMP      ??ZDMatchSendState_13
   2778              else if ( matchED->ed2numMatched )
   \                     ??ZDMatchSendState_12:
   \   0000BB   12....       LCALL     ?Subroutine66 & 0xFFFF
   \                     ??CrossCallReturnLabel_100:
   \   0000BE   600A         JZ        ??ZDMatchSendState_11
   2779              {
   2780                matchED->ed2numMatched--;
   \   0000C0   12....       LCALL     ?Subroutine99 & 0xFFFF
   2781              }
   2782            }
   \                     ??CrossCallReturnLabel_651:
   \   0000C3   2434         ADD       A,#0x34
   \                     ??ZDMatchSendState_13:
   \   0000C5   12....       LCALL     ?Subroutine160 & 0xFFFF
   \                     ??CrossCallReturnLabel_258:
   \   0000C8   14           DEC       A
   \   0000C9   F0           MOVX      @DPTR,A
   2783          
   2784            // What message do we send now
   2785            if ( matchED->ed1numMatched )
   \                     ??ZDMatchSendState_11:
   \   0000CA   12....       LCALL     ?Subroutine77 & 0xFFFF
   \                     ??CrossCallReturnLabel_124:
   \   0000CD   6018         JZ        ??ZDMatchSendState_14
   2786            {
   2787              ed = &(matchED->ed1);
   \   0000CF   12....       LCALL     ??Subroutine273_0 & 0xFFFF
   2788              clusterID = matchED->ed1Matched[matchED->ed1numMatched-1];
   \                     ??CrossCallReturnLabel_566:
   \   0000D2   12....       LCALL     ?Subroutine59 & 0xFFFF
   2789              dstIEEEAddr = matchED->ed2.ieeeAddr;
   2790              dstEP = matchED->ed2.endpoint;
   2791            }
   \                     ??CrossCallReturnLabel_87:
   \   0000D5   12....       LCALL     ?Subroutine118 & 0xFFFF
   \                     ??CrossCallReturnLabel_704:
   \   0000D8   CA           XCH       A,R2
   \   0000D9   2432         ADD       A,#0x32
   \   0000DB   12....       LCALL     ?Subroutine61 & 0xFFFF
   \                     ??CrossCallReturnLabel_91:
   \   0000DE   241D         ADD       A,#0x1d
   \   0000E0   12....       LCALL     ?Subroutine111 & 0xFFFF
   \                     ??CrossCallReturnLabel_176:
   \   0000E3   2425         ADD       A,#0x25
   \   0000E5   8026         SJMP      ??ZDMatchSendState_15
   2792            else if ( matchED->ed2numMatched )
   \                     ??ZDMatchSendState_14:
   \   0000E7   12....       LCALL     ?Subroutine66 & 0xFFFF
   \                     ??CrossCallReturnLabel_101:
   \   0000EA   602A         JZ        ??ZDMatchSendState_16
   2793            {
   2794              ed = &(matchED->ed2);
   \   0000EC   90....       MOV       DPTR,#matchED
   \   0000EF   E0           MOVX      A,@DPTR
   \   0000F0   2417         ADD       A,#0x17
   \   0000F2   F5..         MOV       ?V0,A
   \   0000F4   A3           INC       DPTR
   \   0000F5   E0           MOVX      A,@DPTR
   \   0000F6   3400         ADDC      A,#0x0
   \   0000F8   F5..         MOV       ?V1,A
   2795              clusterID = matchED->ed2Matched[matchED->ed2numMatched-1];
   \   0000FA   12....       LCALL     ?Subroutine60 & 0xFFFF
   2796              dstIEEEAddr = matchED->ed1.ieeeAddr;
   2797              dstEP = matchED->ed1.endpoint;
   2798            }
   \                     ??CrossCallReturnLabel_90:
   \   0000FD   12....       LCALL     ?Subroutine118 & 0xFFFF
   \                     ??CrossCallReturnLabel_705:
   \   000100   CA           XCH       A,R2
   \   000101   2435         ADD       A,#0x35
   \   000103   12....       LCALL     ?Subroutine61 & 0xFFFF
   \                     ??CrossCallReturnLabel_92:
   \   000106   2406         ADD       A,#0x6
   \   000108   12....       LCALL     ?Subroutine111 & 0xFFFF
   \                     ??CrossCallReturnLabel_177:
   \   00010B   240E         ADD       A,#0xe
   \                     ??ZDMatchSendState_15:
   \   00010D   F582         MOV       DPL,A
   \   00010F   E4           CLR       A
   \   000110   3A           ADDC      A,R2
   \   000111   F583         MOV       DPH,A
   \   000113   E0           MOVX      A,@DPTR
   \   000114   F5..         MOV       ?V2,A
   2799          
   2800            dstAddr.addrMode = Addr16Bit;
   \                     ??ZDMatchSendState_16:
   \   000116   7409         MOV       A,#0x9
   \   000118   12....       LCALL     ?XSTACK_DISP0_8
   \   00011B   7402         MOV       A,#0x2
   \   00011D   12....       LCALL     ?Subroutine48 & 0xFFFF
   2801          
   2802            // Send the next message
   2803            if ( (rspStatus == ZDP_SUCCESS) && ed )
   \                     ??CrossCallReturnLabel_71:
   \   000120   E0           MOVX      A,@DPTR
   \   000121   6003         JZ        $+5
   \   000123   02....       LJMP      ??ZDMatchSendState_17 & 0xFFFF
   \   000126   E5..         MOV       A,?V0
   \   000128   45..         ORL       A,?V1
   \   00012A   7003         JNZ       $+5
   \   00012C   02....       LJMP      ??ZDMatchSendState_17 & 0xFFFF
   2804            {
   2805              // Send unbind/bind message to source
   2806              if ( matchED->sending == ZDMATCH_SENDING_UNBIND )
   \   00012F   12....       LCALL     ?Subroutine80 & 0xFFFF
   \                     ??CrossCallReturnLabel_128:
   \   000132   7004         JNZ       ??ZDMatchSendState_18
   2807              {
   2808                msgType = Unbind_req;
   \   000134   7E22         MOV       R6,#0x22
   \   000136   8002         SJMP      ??ZDMatchSendState_19
   2809              }
   2810              else
   2811              {
   2812                msgType = Bind_req;
   \                     ??ZDMatchSendState_18:
   \   000138   7E21         MOV       R6,#0x21
   2813              }
   2814          
   2815              dstAddr.addr.shortAddr = ed->srcAddr;
   \                     ??ZDMatchSendState_19:
   \   00013A   85..82       MOV       DPL,?V0
   \   00013D   85..83       MOV       DPH,?V1
   \   000140   12....       LCALL     ??Subroutine256_0 & 0xFFFF
   \                     ??CrossCallReturnLabel_506:
   \   000143   12....       LCALL     ?XSTACK_DISP0_8
   \   000146   E8           MOV       A,R0
   \   000147   12....       LCALL     ??Subroutine277_0 & 0xFFFF
   2816          
   2817              // Save off the transaction sequence number
   2818              matchED->transSeq = ZDP_TransID;
   \                     ??CrossCallReturnLabel_587:
   \   00014A   90....       MOV       DPTR,#ZDP_TransID
   \   00014D   E0           MOVX      A,@DPTR
   \   00014E   C0E0         PUSH      A
   \   000150   12....       LCALL     ?Subroutine99 & 0xFFFF
   \                     ??CrossCallReturnLabel_652:
   \   000153   2430         ADD       A,#0x30
   \   000155   F582         MOV       DPL,A
   \   000157   E4           CLR       A
   \   000158   38           ADDC      A,R0
   \   000159   F583         MOV       DPH,A
   \   00015B   D0E0         POP       A
   \   00015D   F0           MOVX      @DPTR,A
   2819          
   2820              destinationAddr.addrMode = Addr64Bit;
   \   00015E   7412         MOV       A,#0x12
   \   000160   12....       LCALL     ?XSTACK_DISP0_8
   \   000163   7403         MOV       A,#0x3
   \   000165   F0           MOVX      @DPTR,A
   2821              osal_cpyExtAddr( destinationAddr.addr.extAddr, dstIEEEAddr );
   \   000166                ; Setup parameters for call to function sAddrExtCpy
   \   000166   AC..         MOV       R4,?V4
   \   000168   AD..         MOV       R5,?V5
   \   00016A   740A         MOV       A,#0xa
   \   00016C   12....       LCALL     ?XSTACK_DISP101_8
   \   00016F   12....       LCALL     ?Subroutine182 & 0xFFFF
   2822          
   2823              ZDP_BindUnbindReq( msgType, &dstAddr, ed->ieeeAddr, ed->endpoint, clusterID,
   2824                  &destinationAddr, dstEP, ed->SecurityUse );
   \                     ??CrossCallReturnLabel_577:
   \   000172   E0           MOVX      A,@DPTR
   \   000173   F5..         MOV       ?V4,A
   \   000175   78..         MOV       R0,#?V4
   \   000177   12....       LCALL     ?PUSH_XSTACK_I_ONE
   \   00017A   78..         MOV       R0,#?V2
   \   00017C   12....       LCALL     ?PUSH_XSTACK_I_ONE
   \   00017F   740C         MOV       A,#0xc
   \   000181   12....       LCALL     ?XSTACK_DISP100_8
   \   000184   88..         MOV       ?V4,R0
   \   000186   89..         MOV       ?V5,R1
   \   000188   78..         MOV       R0,#?V4
   \   00018A   12....       LCALL     ?PUSH_XSTACK_I_TWO
   \   00018D   78..         MOV       R0,#?V8
   \   00018F   12....       LCALL     ?PUSH_XSTACK_I_TWO
   \   000192   E5..         MOV       A,?V0
   \   000194   2406         ADD       A,#0x6
   \   000196   F5..         MOV       ?V4,A
   \   000198   E4           CLR       A
   \   000199   35..         ADDC      A,?V1
   \   00019B   F5..         MOV       ?V5,A
   \   00019D   78..         MOV       R0,#?V4
   \   00019F   12....       LCALL     ?PUSH_XSTACK_I_TWO
   \   0001A2   12....       LCALL     ?Subroutine147 & 0xFFFF
   \                     ??CrossCallReturnLabel_230:
   \   0001A5   F9           MOV       R1,A
   \   0001A6   7409         MOV       A,#0x9
   \   0001A8   12....       LCALL     ?XSTACK_DISP102_8
   \   0001AB   EE           MOV       A,R6
   \   0001AC   FA           MOV       R2,A
   \   0001AD   7B00         MOV       R3,#0x0
   \   0001AF   12....       LCALL     `??ZDP_BindUnbindReq::?relay`; Banked call to: ZDP_BindUnbindReq
   \   0001B2   7408         MOV       A,#0x8
   \   0001B4   12....       LCALL     ?DEALLOC_XSTACK8
   2825          
   2826              // Set timeout for response
   2827              APS_SetEndDeviceBindTimeout( AIB_MaxBindingTime, ZDO_EndDeviceBindMatchTimeoutCB );
   \   0001B7                ; Setup parameters for call to function APS_SetEndDeviceBindTimeout
   \   0001B7   12....       LCALL     ?Subroutine103 & 0xFFFF
   2828            }
   \                     ??CrossCallReturnLabel_171:
   \   0001BA   02....       LJMP      ??ZDMatchSendState_20 & 0xFFFF
   2829            else
   2830            {
   2831              // Send the response messages to requesting devices
   2832              // send response to first requester
   2833              dstAddr.addr.shortAddr = matchED->ed1.srcAddr;
   \                     ??ZDMatchSendState_17:
   \   0001BD   12....       LCALL     ?Subroutine217 & 0xFFFF
   \                     ??CrossCallReturnLabel_614:
   \   0001C0   12....       LCALL     ?Subroutine83 & 0xFFFF
   \                     ??CrossCallReturnLabel_508:
   \   0001C3   12....       LCALL     ?XSTACK_DISP0_8
   \   0001C6   12....       LCALL     ?Subroutine12 & 0xFFFF
   2834              ZDP_EndDeviceBindRsp( matchED->ed1.TransSeq, &dstAddr, rspStatus, matchED->ed1.SecurityUse );
   \                     ??CrossCallReturnLabel_5:
   \   0001C9   12....       LCALL     ?PUSH_XSTACK_I_ONE
   \   0001CC   7401         MOV       A,#0x1
   \   0001CE   12....       LCALL     ?XSTACK_DISP100_8
   \   0001D1   88..         MOV       ?V0,R0
   \   0001D3   89..         MOV       ?V1,R1
   \   0001D5   78..         MOV       R0,#?V0
   \   0001D7   12....       LCALL     ?PUSH_XSTACK_I_TWO
   \   0001DA   75..20       MOV       ?V0,#0x20
   \   0001DD   75..80       MOV       ?V1,#-0x80
   \   0001E0   78..         MOV       R0,#?V0
   \   0001E2   12....       LCALL     ?PUSH_XSTACK_I_TWO
   \   0001E5   7901         MOV       R1,#0x1
   \   0001E7   7406         MOV       A,#0x6
   \   0001E9   12....       LCALL     ?XSTACK_DISP102_8
   \   0001EC   12....       LCALL     ?Subroutine101 & 0xFFFF
   \                     ??CrossCallReturnLabel_167:
   \   0001EF   12....       LCALL     ?DEALLOC_XSTACK8
   2835          
   2836              // send response to second requester
   2837              if ( matchED->state == ZDMATCH_SENDING_BINDS )
   \   0001F2   12....       LCALL     ?Subroutine79 & 0xFFFF
   \                     ??CrossCallReturnLabel_126:
   \   0001F5   704C         JNZ       ??ZDMatchSendState_21
   2838              {
   2839                dstAddr.addr.shortAddr = matchED->ed2.srcAddr;
   \   0001F7   12....       LCALL     ?Subroutine99 & 0xFFFF
   2840                ZDP_EndDeviceBindRsp( matchED->ed2.TransSeq, &dstAddr, rspStatus, matchED->ed2.SecurityUse );
   2841              }
   \                     ??CrossCallReturnLabel_653:
   \   0001FA   2419         ADD       A,#0x19
   \   0001FC   F582         MOV       DPL,A
   \   0001FE   E4           CLR       A
   \   0001FF   38           ADDC      A,R0
   \   000200   F583         MOV       DPH,A
   \   000202   12....       LCALL     ??Subroutine257_0 & 0xFFFF
   \                     ??CrossCallReturnLabel_505:
   \   000205   12....       LCALL     ?XSTACK_DISP0_8
   \   000208   E8           MOV       A,R0
   \   000209   F0           MOVX      @DPTR,A
   \   00020A   A3           INC       DPTR
   \   00020B   12....       LCALL     ??Subroutine260_0 & 0xFFFF
   \                     ??CrossCallReturnLabel_518:
   \   00020E   2418         ADD       A,#0x18
   \   000210   F582         MOV       DPL,A
   \   000212   E4           CLR       A
   \   000213   38           ADDC      A,R0
   \   000214   12....       LCALL     ??Subroutine269_0 & 0xFFFF
   \                     ??CrossCallReturnLabel_555:
   \   000217   12....       LCALL     ?PUSH_XSTACK_I_ONE
   \   00021A   7401         MOV       A,#0x1
   \   00021C   12....       LCALL     ?XSTACK_DISP100_8
   \   00021F   88..         MOV       ?V0,R0
   \   000221   89..         MOV       ?V1,R1
   \   000223   78..         MOV       R0,#?V0
   \   000225   12....       LCALL     ?PUSH_XSTACK_I_TWO
   \   000228   75..20       MOV       ?V0,#0x20
   \   00022B   75..80       MOV       ?V1,#-0x80
   \   00022E   78..         MOV       R0,#?V0
   \   000230   12....       LCALL     ?PUSH_XSTACK_I_TWO
   \   000233   7901         MOV       R1,#0x1
   \   000235   7406         MOV       A,#0x6
   \   000237   12....       LCALL     ?XSTACK_DISP102_8
   \   00023A   12....       LCALL     ?Subroutine113 & 0xFFFF
   \                     ??CrossCallReturnLabel_179:
   \   00023D   12....       LCALL     ?Subroutine157 & 0xFFFF
   \                     ??CrossCallReturnLabel_247:
   \   000240   12....       LCALL     ?DEALLOC_XSTACK8
   2842          
   2843              // Process ended - release memory used
   2844              ZDO_RemoveMatchMemory();
   \                     ??ZDMatchSendState_21:
   \   000243                ; Setup parameters for call to function ZDO_RemoveMatchMemory
   \   000243   12....       LCALL     `??ZDO_RemoveMatchMemory::?relay`; Banked call to: ZDO_RemoveMatchMemory
   2845            }
   2846          
   2847            return ( TRUE );
   \                     ??ZDMatchSendState_20:
   \   000246   7901         MOV       R1,#0x1
   \                     ??ZDMatchSendState_3:
   \   000248   7413         MOV       A,#0x13
   \   00024A   02....       LJMP      ?Subroutine7 & 0xFFFF
   2848          }

   \                                 In  segment BANKED_CODE, align 1, keep-with-next
   \                     ?Subroutine111:
   \   000000   F5..         MOV       ?V4,A
   \   000002   A3           INC       DPTR
   \   000003   E0           MOVX      A,@DPTR
   \   000004   3400         ADDC      A,#0x0
   \   000006   F5..         MOV       ?V5,A
   \   000008   90....       MOV       DPTR,#matchED
   \   00000B   E0           MOVX      A,@DPTR
   \   00000C   22           RET

   \                                 In  segment BANKED_CODE, align 1, keep-with-next
   \                     ?Subroutine84:
   \   000000   12....       LCALL     ?Subroutine187 & 0xFFFF
   \                     ??CrossCallReturnLabel_307:
   \   000003   7401         MOV       A,#0x1
   \   000005   22           RET

   \                                 In  segment BANKED_CODE, align 1, keep-with-next
   \                     ?Subroutine80:
   \   000000   90....       MOV       DPTR,#matchED
   \   000003   12....       LCALL     ?Subroutine187 & 0xFFFF
   \                     ??CrossCallReturnLabel_306:
   \   000006   E0           MOVX      A,@DPTR
   \   000007   6401         XRL       A,#0x1
   \   000009   22           RET

   \                                 In  segment BANKED_CODE, align 1, keep-with-next
   \                     ?Subroutine187:
   \   000000   12....       LCALL     ?Subroutine215 & 0xFFFF
   \                     ??CrossCallReturnLabel_665:
   \   000003   12....       LCALL     ?Subroutine221 & 0xFFFF
   \                     ??CrossCallReturnLabel_351:
   \   000006   22           RET

   \                                 In  segment BANKED_CODE, align 1, keep-with-next
   \                     ?Subroutine221:
   \   000000   242F         ADD       A,#0x2f
   \   000002   F582         MOV       DPL,A
   \   000004   E4           CLR       A
   \   000005   38           ADDC      A,R0
   \   000006   F583         MOV       DPH,A
   \   000008   22           RET

   \                                 In  segment BANKED_CODE, align 1, keep-with-next
   \                     ?Subroutine77:
   \   000000   12....       LCALL     ?Subroutine185 & 0xFFFF
   \                     ??CrossCallReturnLabel_303:
   \   000003   90....       MOV       DPTR,#matchED
   \   000006   22           RET

   \                                 In  segment BANKED_CODE, align 1, keep-with-next
   \                     ?Subroutine61:
   \   000000   F582         MOV       DPL,A
   \   000002   E4           CLR       A
   \   000003   3A           ADDC      A,R2
   \   000004   F583         MOV       DPH,A
   \   000006   E0           MOVX      A,@DPTR
   \   000007   28           ADD       A,R0
   \   000008   F8           MOV       R0,A
   \   000009   A3           INC       DPTR
   \   00000A   E0           MOVX      A,@DPTR
   \   00000B   39           ADDC      A,R1
   \   00000C   F9           MOV       R1,A
   \   00000D   E8           MOV       A,R0
   \   00000E   24FE         ADD       A,#-0x2
   \   000010   F582         MOV       DPL,A
   \   000012   E9           MOV       A,R1
   \   000013   34FF         ADDC      A,#-0x1
   \   000015   F583         MOV       DPH,A
   \   000017   E0           MOVX      A,@DPTR
   \   000018   F5..         MOV       ?V8,A
   \   00001A   A3           INC       DPTR
   \   00001B   E0           MOVX      A,@DPTR
   \   00001C   F5..         MOV       ?V9,A
   \   00001E   90....       MOV       DPTR,#matchED
   \   000021   E0           MOVX      A,@DPTR
   \   000022   22           RET

   \                                 In  segment BANKED_CODE, align 1, keep-with-next
   \                     ?Subroutine182:
   \   000000   12....       LCALL     `??sAddrExtCpy::?relay`; Banked call to: sAddrExtCpy
   \   000003                ; Setup parameters for call to function ZDP_BindUnbindReq
   \   000003   85..82       MOV       DPL,?V0
   \   000006   85..83       MOV       DPH,?V1
   \   000009   A3           INC       DPTR
   \   00000A   22           RET

   \                                 In  segment BANKED_CODE, align 1, keep-with-next
   \                     ?Subroutine118:
   \   000000   F8           MOV       R0,A
   \   000001   E4           CLR       A
   \   000002   33           RLC       A
   \   000003   F9           MOV       R1,A
   \   000004   90....       MOV       DPTR,#matchED
   \   000007                REQUIRE ??Subroutine290_0
   \   000007                ; // Fall through to label ??Subroutine290_0

   \                                 In  segment BANKED_CODE, align 1, keep-with-next
   \                     ??Subroutine290_0:
   \   000000   E0           MOVX      A,@DPTR
   \   000001   FA           MOV       R2,A
   \   000002   A3           INC       DPTR
   \   000003   E0           MOVX      A,@DPTR
   \   000004   22           RET
   2849          
   2850          /*********************************************************************
   2851           * @fn      ZDO_EndDeviceBindMatchTimeoutCB()
   2852           *
   2853           * @brief   End device bind timeout.
   2854           *
   2855           * @param  none
   2856           *
   2857           * @return  none
   2858           */

   \                                 In  segment BANKED_CODE, align 1, keep-with-next
   2859          static void ZDO_EndDeviceBindMatchTimeoutCB( void )
   \                     ZDO_EndDeviceBindMatchTimeoutCB:
   2860          {
   \   000000   C082         PUSH      DPL
   \   000002   C083         PUSH      DPH
   \   000004                ; Saved register size: 2
   \   000004                ; Auto size: 0
   2861            ZDMatchSendState( ZDMATCH_REASON_TIMEOUT, ZDP_TIMEOUT, 0 );
   \   000004                ; Setup parameters for call to function ZDMatchSendState
   \   000004   7B00         MOV       R3,#0x0
   \   000006   7A85         MOV       R2,#-0x7b
   \   000008   7901         MOV       R1,#0x1
   \   00000A   12....       LCALL     `??ZDMatchSendState::?relay`; Banked call to: ZDMatchSendState
   2862          }
   \   00000D   02....       LJMP      ?Subroutine0 & 0xFFFF
   2863          #endif // ZG_BUILD_COORDINATOR_TYPE
   2864          
   2865          /*********************************************************************
   2866           * ZDO MESSAGE PARSING API FUNCTIONS
   2867           */
   2868          
   2869          #ifdef ZDO_ENDDEVICEBIND_RESPONSE
   2870          /*********************************************************************
   2871           * @fn          ZDO_ParseEndDeviceBindReq
   2872           *
   2873           * @brief       This function parses the End_Device_Bind_req message.
   2874           *
   2875           *     NOTE:  The clusters lists in bindReq are allocated in this
   2876           *            function and must be freed by that calling function.
   2877           *
   2878           * @param       inMsg  - incoming message (request)
   2879           * @param       bindReq - pointer to place to parse message to
   2880           *
   2881           * @return      none
   2882           */

   \                                 In  segment BANKED_CODE, align 1, keep-with-next
   2883          void ZDO_ParseEndDeviceBindReq( zdoIncomingMsg_t *inMsg, ZDEndDeviceBind_t *bindReq )
   \                     ZDO_ParseEndDeviceBindReq:
   2884          {
   \   000000                REQUIRE ?V0
   \   000000                REQUIRE ?V1
   \   000000                REQUIRE ?V2
   \   000000                REQUIRE ?V3
   \   000000   74F4         MOV       A,#-0xc
   \   000002   12....       LCALL     ?BANKED_ENTER_XDATA
   \   000005                ; Saved register size: 12
   \   000005                ; Auto size: 0
   \   000005   EC           MOV       A,R4
   \   000006   FE           MOV       R6,A
   \   000007   ED           MOV       A,R5
   \   000008   FF           MOV       R7,A
   2885            uint8 *msg;
   2886          
   2887            // Parse the message
   2888            bindReq->TransSeq = inMsg->TransSeq;
   \   000009   EA           MOV       A,R2
   \   00000A   12....       LCALL     ?Subroutine151 & 0xFFFF
   \                     ??CrossCallReturnLabel_236:
   \   00000D   3B           ADDC      A,R3
   \   00000E   F583         MOV       DPH,A
   \   000010   12....       LCALL     ??Subroutine289_0 & 0xFFFF
   \                     ??CrossCallReturnLabel_696:
   \   000013   12....       LCALL     ?Subroutine26 & 0xFFFF
   2889            bindReq->srcAddr = inMsg->srcAddr.addr.shortAddr;
   \                     ??CrossCallReturnLabel_31:
   \   000016   8C82         MOV       DPL,R4
   \   000018   8D83         MOV       DPH,R5
   \   00001A   A3           INC       DPTR
   \   00001B   A3           INC       DPTR
   \   00001C   E8           MOV       A,R0
   \   00001D   12....       LCALL     ??Subroutine277_0 & 0xFFFF
   2890            bindReq->SecurityUse = inMsg->SecurityUse;
   \                     ??CrossCallReturnLabel_588:
   \   000020   EA           MOV       A,R2
   \   000021   12....       LCALL     ??Subroutine291_0 & 0xFFFF
   \                     ??CrossCallReturnLabel_706:
   \   000024   3B           ADDC      A,R3
   \   000025   F583         MOV       DPH,A
   \   000027   12....       LCALL     ?Subroutine91 & 0xFFFF
   \                     ??CrossCallReturnLabel_145:
   \   00002A   F0           MOVX      @DPTR,A
   2891            msg = inMsg->asdu;
   \   00002B   12....       LCALL     ?Subroutine86 & 0xFFFF
   2892          
   2893            bindReq->localCoordinator = BUILD_UINT16( msg[0], msg[1] );
   \                     ??CrossCallReturnLabel_568:
   \   00002E   85..82       MOV       DPL,?V0
   \   000031   F583         MOV       DPH,A
   \   000033   12....       LCALL     ?Subroutine88 & 0xFFFF
   \                     ??CrossCallReturnLabel_139:
   \   000036   12....       LCALL     ??Subroutine276_0 & 0xFFFF
   2894            msg += 2;
   \                     ??CrossCallReturnLabel_595:
   \   000039   E5..         MOV       A,?V0
   \   00003B   2402         ADD       A,#0x2
   \   00003D   F5..         MOV       ?V0,A
   \   00003F   5002         JNC       ??ZDO_ParseEndDeviceBindReq_0
   \   000041   05..         INC       ?V1
   2895          
   2896            osal_cpyExtAddr( bindReq->ieeeAddr, msg );
   \                     ??ZDO_ParseEndDeviceBindReq_0:
   \   000043                ; Setup parameters for call to function sAddrExtCpy
   \   000043   FC           MOV       R4,A
   \   000044   AD..         MOV       R5,?V1
   \   000046   EE           MOV       A,R6
   \   000047   2406         ADD       A,#0x6
   \   000049   12....       LCALL     ?Subroutine54 & 0xFFFF
   2897            msg += Z_EXTADDR_LEN;
   2898          
   2899            bindReq->endpoint = *msg++;
   \                     ??CrossCallReturnLabel_574:
   \   00004C   C0E0         PUSH      A
   \   00004E   12....       LCALL     ?Subroutine148 & 0xFFFF
   \                     ??CrossCallReturnLabel_710:
   \   000051   3F           ADDC      A,R7
   \   000052   F583         MOV       DPH,A
   \   000054   D0E0         POP       A
   \   000056   F0           MOVX      @DPTR,A
   \   000057   E5..         MOV       A,?V0
   \   000059   2409         ADD       A,#0x9
   \   00005B   F5..         MOV       ?V0,A
   \   00005D   5002         JNC       ??ZDO_ParseEndDeviceBindReq_1
   \   00005F   05..         INC       ?V1
   2900            bindReq->profileID = BUILD_UINT16( msg[0], msg[1] );
   \                     ??ZDO_ParseEndDeviceBindReq_1:
   \   000061   F582         MOV       DPL,A
   \   000063   85..83       MOV       DPH,?V1
   \   000066   12....       LCALL     ??Subroutine290_0 & 0xFFFF
   \                     ??CrossCallReturnLabel_700:
   \   000069   F9           MOV       R1,A
   \   00006A   EE           MOV       A,R6
   \   00006B   12....       LCALL     ?Subroutine151 & 0xFFFF
   \                     ??CrossCallReturnLabel_237:
   \   00006E   3F           ADDC      A,R7
   \   00006F   F583         MOV       DPH,A
   \   000071   EA           MOV       A,R2
   \   000072   12....       LCALL     ??Subroutine277_0 & 0xFFFF
   2901            msg += 2;
   2902          
   2903            bindReq->inClusters = NULL;
   \                     ??CrossCallReturnLabel_589:
   \   000075   12....       LCALL     ?Subroutine15 & 0xFFFF
   2904            bindReq->outClusters = NULL;
   2905          
   2906            if ((bindReq->numInClusters = *msg++) &&
   2907                (bindReq->inClusters = (uint16*)osal_mem_alloc( (bindReq->numInClusters * sizeof( uint16 )))))
   \                     ??CrossCallReturnLabel_12:
   \   000078   85..82       MOV       DPL,?V0
   \   00007B   85..83       MOV       DPH,?V1
   \   00007E   A3           INC       DPTR
   \   00007F   A3           INC       DPTR
   \   000080   E0           MOVX      A,@DPTR
   \   000081   F8           MOV       R0,A
   \   000082   EE           MOV       A,R6
   \   000083   2411         ADD       A,#0x11
   \   000085   12....       LCALL     ?Subroutine128 & 0xFFFF
   \                     ??CrossCallReturnLabel_201:
   \   000088   5002         JNC       ??ZDO_ParseEndDeviceBindReq_2
   \   00008A   05..         INC       ?V1
   \                     ??ZDO_ParseEndDeviceBindReq_2:
   \   00008C   E8           MOV       A,R0
   \   00008D   6019         JZ        ??ZDO_ParseEndDeviceBindReq_3
   \   00008F   12....       LCALL     ?Subroutine138 & 0xFFFF
   \                     ??CrossCallReturnLabel_213:
   \   000092   12....       LCALL     ?Subroutine17 & 0xFFFF
   \                     ??CrossCallReturnLabel_544:
   \   000095   6011         JZ        ??ZDO_ParseEndDeviceBindReq_3
   2908            {
   2909              msg = ZDO_ConvertOTAClusters( bindReq->numInClusters, msg, bindReq->inClusters );
   \   000097                ; Setup parameters for call to function ZDO_ConvertOTAClusters
   \   000097   EE           MOV       A,R6
   \   000098   2412         ADD       A,#0x12
   \   00009A   12....       LCALL     ?Subroutine102 & 0xFFFF
   2910            }
   \                     ??CrossCallReturnLabel_168:
   \   00009D   2411         ADD       A,#0x11
   \   00009F   12....       LCALL     ?Subroutine129 & 0xFFFF
   \                     ??CrossCallReturnLabel_203:
   \   0000A2   8A..         MOV       ?V0,R2
   \   0000A4   8B..         MOV       ?V1,R3
   \   0000A6   8007         SJMP      ??ZDO_ParseEndDeviceBindReq_4
   2911            else
   2912            {
   2913              bindReq->numInClusters = 0;
   \                     ??ZDO_ParseEndDeviceBindReq_3:
   \   0000A8   EE           MOV       A,R6
   \   0000A9   2411         ADD       A,#0x11
   \   0000AB   12....       LCALL     ??Subroutine271_0 & 0xFFFF
   2914            }
   \                     ??CrossCallReturnLabel_562:
   \   0000AE   F0           MOVX      @DPTR,A
   2915          
   2916            if ((bindReq->numOutClusters = *msg++) &&
   2917                (bindReq->outClusters = (uint16*)osal_mem_alloc((bindReq->numOutClusters * sizeof(uint16)))))
   \                     ??ZDO_ParseEndDeviceBindReq_4:
   \   0000AF   85..82       MOV       DPL,?V0
   \   0000B2   85..83       MOV       DPH,?V1
   \   0000B5   E0           MOVX      A,@DPTR
   \   0000B6   F8           MOV       R0,A
   \   0000B7   12....       LCALL     ?Subroutine156 & 0xFFFF
   \                     ??CrossCallReturnLabel_618:
   \   0000BA   E8           MOV       A,R0
   \   0000BB   12....       LCALL     ?Subroutine37 & 0xFFFF
   \                     ??CrossCallReturnLabel_54:
   \   0000BE   8582..       MOV       ?V0,DPL
   \   0000C1   8583..       MOV       ?V1,DPH
   \   0000C4   601E         JZ        ??ZDO_ParseEndDeviceBindReq_5
   \   0000C6   EE           MOV       A,R6
   \   0000C7   2414         ADD       A,#0x14
   \   0000C9   12....       LCALL     ??Subroutine251_0 & 0xFFFF
   \                     ??CrossCallReturnLabel_487:
   \   0000CC   12....       LCALL     ?Subroutine138 & 0xFFFF
   \                     ??CrossCallReturnLabel_214:
   \   0000CF   EE           MOV       A,R6
   \   0000D0   2415         ADD       A,#0x15
   \   0000D2   12....       LCALL     ??Subroutine266_0 & 0xFFFF
   \                     ??CrossCallReturnLabel_543:
   \   0000D5   600D         JZ        ??ZDO_ParseEndDeviceBindReq_5
   2918            {
   2919              msg = ZDO_ConvertOTAClusters( bindReq->numOutClusters, msg, bindReq->outClusters );
   \   0000D7                ; Setup parameters for call to function ZDO_ConvertOTAClusters
   \   0000D7   EE           MOV       A,R6
   \   0000D8   2415         ADD       A,#0x15
   \   0000DA   12....       LCALL     ?Subroutine102 & 0xFFFF
   2920            }
   \                     ??CrossCallReturnLabel_169:
   \   0000DD   2414         ADD       A,#0x14
   \   0000DF   12....       LCALL     ?Subroutine129 & 0xFFFF
   \                     ??CrossCallReturnLabel_204:
   \   0000E2   8004         SJMP      ??ZDO_ParseEndDeviceBindReq_6
   2921            else
   2922            {
   2923              bindReq->numOutClusters = 0;
   \                     ??ZDO_ParseEndDeviceBindReq_5:
   \   0000E4   12....       LCALL     ?Subroutine134 & 0xFFFF
   2924            }
   \                     ??CrossCallReturnLabel_565:
   \   0000E7   F0           MOVX      @DPTR,A
   2925          }
   \                     ??ZDO_ParseEndDeviceBindReq_6:
   \   0000E8   02....       LJMP      ??Subroutine223_0 & 0xFFFF

   \                                 In  segment BANKED_CODE, align 1, keep-with-next
   \                     ?Subroutine138:
   \   000000   F8           MOV       R0,A
   \   000001                ; Setup parameters for call to function osal_mem_alloc
   \   000001                ; Setup parameters for call to function osal_mem_alloc
   \   000001   12....       LCALL     ?Subroutine198 & 0xFFFF
   \                     ??CrossCallReturnLabel_314:
   \   000004   8B..         MOV       ?V3,R3
   \   000006   A9..         MOV       R1,?V3
   \   000008   22           RET

   \                                 In  segment BANKED_CODE, align 1, keep-with-next
   \                     ?Subroutine129:
   \   000000   12....       LCALL     ?Subroutine197 & 0xFFFF
   \                     ??CrossCallReturnLabel_496:
   \   000003   F9           MOV       R1,A
   \   000004   12....       LCALL     `??ZDO_ConvertOTAClusters::?relay`; Banked call to: ZDO_ConvertOTAClusters
   \   000007   22           RET

   \                                 In  segment BANKED_CODE, align 1, keep-with-next
   \                     ?Subroutine102:
   \   000000   12....       LCALL     ?Subroutine197 & 0xFFFF
   \                     ??CrossCallReturnLabel_495:
   \   000003   FC           MOV       R4,A
   \   000004   A3           INC       DPTR
   \   000005   E0           MOVX      A,@DPTR
   \   000006   FD           MOV       R5,A
   \   000007   AA..         MOV       R2,?V0
   \   000009   AB..         MOV       R3,?V1
   \   00000B   EE           MOV       A,R6
   \   00000C   22           RET

   \                                 In  segment BANKED_CODE, align 1, keep-with-next
   \                     ?Subroutine86:
   \   000000   12....       LCALL     ?Subroutine202 & 0xFFFF
   \                     ??CrossCallReturnLabel_327:
   \   000003                REQUIRE ??Subroutine272_0
   \   000003                ; // Fall through to label ??Subroutine272_0

   \                                 In  segment BANKED_CODE, align 1, keep-with-next
   \                     ?Subroutine54:
   \   000000   FA           MOV       R2,A
   \   000001   E4           CLR       A
   \   000002   3F           ADDC      A,R7
   \   000003                REQUIRE ??Subroutine274_0
   \   000003                ; // Fall through to label ??Subroutine274_0

   \                                 In  segment BANKED_CODE, align 1, keep-with-next
   \                     ??Subroutine274_0:
   \   000000   FB           MOV       R3,A
   \   000001   12....       LCALL     ?Subroutine182 & 0xFFFF
   \                     ??CrossCallReturnLabel_578:
   \   000004   A3           INC       DPTR
   \   000005   A3           INC       DPTR
   \   000006   A3           INC       DPTR
   \   000007   A3           INC       DPTR
   \   000008   A3           INC       DPTR
   \   000009   A3           INC       DPTR
   \   00000A   A3           INC       DPTR
   \   00000B   E0           MOVX      A,@DPTR
   \   00000C   22           RET

   \                                 In  segment BANKED_CODE, align 1, keep-with-next
   \                     ??Subroutine276_0:
   \   000000   A3           INC       DPTR
   \   000001                REQUIRE ??Subroutine277_0
   \   000001                ; // Fall through to label ??Subroutine277_0

   \                                 In  segment BANKED_CODE, align 1, keep-with-next
   \                     ?Subroutine156:
   \   000000   EE           MOV       A,R6
   \   000001                REQUIRE ??Subroutine279_0
   \   000001                ; // Fall through to label ??Subroutine279_0

   \                                 In  segment BANKED_CODE, align 1, keep-with-next
   \                     ?Subroutine128:
   \   000000   F582         MOV       DPL,A
   \   000002   E4           CLR       A
   \   000003   3F           ADDC      A,R7
   \   000004   F583         MOV       DPH,A
   \   000006   E8           MOV       A,R0
   \   000007   F0           MOVX      @DPTR,A
   \   000008   E5..         MOV       A,?V0
   \   00000A   2403         ADD       A,#0x3
   \   00000C   F5..         MOV       ?V0,A
   \   00000E   22           RET

   \                                 In  segment BANKED_CODE, align 1, keep-with-next
   \                     ?Subroutine91:
   \   000000   E0           MOVX      A,@DPTR
   \   000001   8C82         MOV       DPL,R4
   \   000003   8D83         MOV       DPH,R5
   \   000005   A3           INC       DPTR
   \   000006   22           RET

   \                                 In  segment BANKED_CODE, align 1, keep-with-next
   \                     ?Subroutine37:
   \   000000   12....       LCALL     ?Subroutine181 & 0xFFFF
   \                     ??CrossCallReturnLabel_299:
   \   000003   22           RET

   \                                 In  segment BANKED_CODE, align 1, keep-with-next
   \                     ??Subroutine289_0:
   \   000000   E0           MOVX      A,@DPTR
   \   000001   8C82         MOV       DPL,R4
   \   000003   8D83         MOV       DPH,R5
   \   000005   22           RET

   \                                 In  segment BANKED_CODE, align 1, keep-with-next
   \                     ?Subroutine88:
   \   000000   12....       LCALL     ?Subroutine189 & 0xFFFF
   \                     ??CrossCallReturnLabel_369:
   \   000003   8C82         MOV       DPL,R4
   \   000005   8D83         MOV       DPH,R5
   \   000007   A3           INC       DPTR
   \   000008   A3           INC       DPTR
   \   000009   A3           INC       DPTR
   \   00000A   22           RET

   \                                 In  segment BANKED_CODE, align 1, keep-with-next
   \                     ?Subroutine202:
   \   000000   12....       LCALL     ?Subroutine220 & 0xFFFF
   \                     ??CrossCallReturnLabel_693:
   \   000003   3B           ADDC      A,R3
   \   000004   22           RET
   2926          #endif
   2927          
   2928          /*********************************************************************
   2929           * @fn          ZDO_ParseBindUnbindReq
   2930           *
   2931           * @brief       This function parses the Bind_req or Unbind_req message.
   2932           *
   2933           * @param       inMsg  - incoming message (request)
   2934           * @param       pReq - place to put parsed information
   2935           *
   2936           * @return      none
   2937           */

   \                                 In  segment BANKED_CODE, align 1, keep-with-next
   2938          void ZDO_ParseBindUnbindReq( zdoIncomingMsg_t *inMsg, ZDO_BindUnbindReq_t *pReq )
   \                     ZDO_ParseBindUnbindReq:
   2939          {
   \   000000                REQUIRE ?V0
   \   000000                REQUIRE ?V1
   \   000000   74F6         MOV       A,#-0xa
   \   000002   12....       LCALL     ?BANKED_ENTER_XDATA
   \   000005                ; Saved register size: 10
   \   000005                ; Auto size: 0
   \   000005   EC           MOV       A,R4
   \   000006   FE           MOV       R6,A
   \   000007   ED           MOV       A,R5
   \   000008   FF           MOV       R7,A
   2940            uint8 *msg;
   2941          
   2942            msg = inMsg->asdu;
   \   000009   12....       LCALL     ?Subroutine86 & 0xFFFF
   2943            osal_cpyExtAddr( pReq->srcAddress, msg );
   \                     ??CrossCallReturnLabel_569:
   \   00000C                ; Setup parameters for call to function sAddrExtCpy
   \   00000C   AC..         MOV       R4,?V0
   \   00000E   FD           MOV       R5,A
   \   00000F   EE           MOV       A,R6
   \   000010   FA           MOV       R2,A
   \   000011   EF           MOV       A,R7
   \   000012   12....       LCALL     ??Subroutine274_0 & 0xFFFF
   2944            msg += Z_EXTADDR_LEN;
   2945            pReq->srcEndpoint = *msg++;
   \                     ??CrossCallReturnLabel_576:
   \   000015   8E82         MOV       DPL,R6
   \   000017   8F83         MOV       DPH,R7
   \   000019   A3           INC       DPTR
   \   00001A   A3           INC       DPTR
   \   00001B   A3           INC       DPTR
   \   00001C   A3           INC       DPTR
   \   00001D   A3           INC       DPTR
   \   00001E   A3           INC       DPTR
   \   00001F   A3           INC       DPTR
   \   000020   A3           INC       DPTR
   \   000021   F0           MOVX      @DPTR,A
   \   000022   E5..         MOV       A,?V0
   \   000024   2409         ADD       A,#0x9
   \   000026   F5..         MOV       ?V0,A
   \   000028   5002         JNC       ??ZDO_ParseBindUnbindReq_0
   \   00002A   05..         INC       ?V1
   2946            pReq->clusterID = BUILD_UINT16( msg[0], msg[1] );
   \                     ??ZDO_ParseBindUnbindReq_0:
   \   00002C   F582         MOV       DPL,A
   \   00002E   85..83       MOV       DPH,?V1
   \   000031   12....       LCALL     ?Subroutine74 & 0xFFFF
   \                     ??CrossCallReturnLabel_117:
   \   000034   A3           INC       DPTR
   \   000035   F0           MOVX      @DPTR,A
   \   000036   A3           INC       DPTR
   \   000037   E9           MOV       A,R1
   \   000038   12....       LCALL     ?Subroutine36 & 0xFFFF
   2947            msg += 2;
   2948            pReq->dstAddress.addrMode = *msg++;
   \                     ??CrossCallReturnLabel_51:
   \   00003B   F8           MOV       R0,A
   \   00003C   EE           MOV       A,R6
   \   00003D   2413         ADD       A,#0x13
   \   00003F   12....       LCALL     ?Subroutine128 & 0xFFFF
   \                     ??CrossCallReturnLabel_202:
   \   000042   5002         JNC       ??ZDO_ParseBindUnbindReq_1
   \   000044   05..         INC       ?V1
   2949            if ( pReq->dstAddress.addrMode == Addr64Bit )
   \                     ??ZDO_ParseBindUnbindReq_1:
   \   000046   7403         MOV       A,#0x3
   \   000048   68           XRL       A,R0
   \   000049   7013         JNZ       ??ZDO_ParseBindUnbindReq_2
   2950            {
   2951              osal_cpyExtAddr( pReq->dstAddress.addr.extAddr, msg );
   \   00004B                ; Setup parameters for call to function sAddrExtCpy
   \   00004B   AC..         MOV       R4,?V0
   \   00004D   AD..         MOV       R5,?V1
   \   00004F   EE           MOV       A,R6
   \   000050   240B         ADD       A,#0xb
   \   000052   12....       LCALL     ?Subroutine54 & 0xFFFF
   2952              msg += Z_EXTADDR_LEN;
   2953              pReq->dstEndpoint = *msg;
   2954            }
   \                     ??CrossCallReturnLabel_575:
   \   000055   C0E0         PUSH      A
   \   000057   12....       LCALL     ?Subroutine156 & 0xFFFF
   \                     ??CrossCallReturnLabel_619:
   \   00005A   D0E0         POP       A
   \   00005C   800C         SJMP      ??ZDO_ParseBindUnbindReq_3
   2955            else
   2956            {
   2957              // copy group address
   2958              pReq->dstAddress.addr.shortAddr = BUILD_UINT16( msg[0], msg[1] );
   \                     ??ZDO_ParseBindUnbindReq_2:
   \   00005E   85..82       MOV       DPL,?V0
   \   000061   85..83       MOV       DPH,?V1
   \   000064   12....       LCALL     ?Subroutine81 & 0xFFFF
   2959            }
   \                     ??CrossCallReturnLabel_129:
   \   000067   F0           MOVX      @DPTR,A
   \   000068   A3           INC       DPTR
   \   000069   E9           MOV       A,R1
   \                     ??ZDO_ParseBindUnbindReq_3:
   \   00006A   F0           MOVX      @DPTR,A
   2960          }
   \   00006B   02....       LJMP      ??Subroutine225_0 & 0xFFFF

   \                                 In  segment BANKED_CODE, align 1, keep-with-next
   \                     ?Subroutine81:
   \   000000   E0           MOVX      A,@DPTR
   \   000001   FA           MOV       R2,A
   \   000002   A3           INC       DPTR
   \   000003   E0           MOVX      A,@DPTR
   \   000004   F9           MOV       R1,A
   \   000005   EE           MOV       A,R6
   \   000006   240B         ADD       A,#0xb
   \   000008   F582         MOV       DPL,A
   \   00000A   E4           CLR       A
   \   00000B   3F           ADDC      A,R7
   \   00000C   F583         MOV       DPH,A
   \   00000E   EA           MOV       A,R2
   \   00000F   22           RET

   \                                 In  segment BANKED_CODE, align 1, keep-with-next
   \                     ?Subroutine74:
   \   000000   12....       LCALL     ?Subroutine189 & 0xFFFF
   \                     ??CrossCallReturnLabel_368:
   \   000003   8E82         MOV       DPL,R6
   \   000005   8F83         MOV       DPH,R7
   \   000007   A3           INC       DPTR
   \   000008   A3           INC       DPTR
   \   000009   A3           INC       DPTR
   \   00000A   A3           INC       DPTR
   \   00000B   A3           INC       DPTR
   \   00000C   A3           INC       DPTR
   \   00000D   A3           INC       DPTR
   \   00000E   A3           INC       DPTR
   \   00000F   22           RET
   2961          
   2962          /*********************************************************************
   2963           * @fn      ZDO_ParseAddrRsp
   2964           *
   2965           * @brief   Turns the inMsg (incoming message) into the out parsed
   2966           *          structure.
   2967           *
   2968           * @param   inMsg - incoming message
   2969           *
   2970           * @return  pointer to parsed structures.  This structure was
   2971           *          allocated using osal_mem_alloc, so it must be freed
   2972           *          by the calling function [osal_mem_free()].
   2973           */

   \                                 In  segment BANKED_CODE, align 1, keep-with-next
   2974          ZDO_NwkIEEEAddrResp_t *ZDO_ParseAddrRsp( zdoIncomingMsg_t *inMsg )
   \                     ZDO_ParseAddrRsp:
   2975          {
   \   000000                REQUIRE ?V0
   \   000000                REQUIRE ?V1
   \   000000                REQUIRE ?V2
   \   000000                REQUIRE ?V3
   \   000000                REQUIRE ?V4
   \   000000                REQUIRE ?V5
   \   000000   74F2         MOV       A,#-0xe
   \   000002   12....       LCALL     ?BANKED_ENTER_XDATA
   \   000005                ; Saved register size: 14
   \   000005                ; Auto size: 0
   \   000005   EA           MOV       A,R2
   \   000006   FE           MOV       R6,A
   \   000007   EB           MOV       A,R3
   \   000008   FF           MOV       R7,A
   2976            ZDO_NwkIEEEAddrResp_t *rsp;
   2977            uint8 *msg;
   2978            byte cnt = 0;
   \   000009   75..00       MOV       ?V2,#0x0
   2979          
   2980            // Calculate the number of items in the list
   2981            if ( inMsg->asduLen > (1 + Z_EXTADDR_LEN + 2) )
   \   00000C   EA           MOV       A,R2
   \   00000D   2410         ADD       A,#0x10
   \   00000F   12....       LCALL     ??Subroutine251_0 & 0xFFFF
   \                     ??CrossCallReturnLabel_488:
   \   000012   C3           CLR       C
   \   000013   940C         SUBB      A,#0xc
   \   000015   400D         JC        ??ZDO_ParseAddrRsp_0
   2982            {
   2983              cnt = inMsg->asdu[1 + Z_EXTADDR_LEN + 2];
   \   000017   12....       LCALL     ?Subroutine137 & 0xFFFF
   2984            }
   \                     ??CrossCallReturnLabel_453:
   \   00001A   12....       LCALL     ??Subroutine282_0 & 0xFFFF
   \                     ??CrossCallReturnLabel_644:
   \   00001D   240B         ADD       A,#0xb
   \   00001F   12....       LCALL     ?Subroutine160 & 0xFFFF
   \                     ??CrossCallReturnLabel_259:
   \   000022   F5..         MOV       ?V2,A
   2985            else
   2986            {
   2987              cnt = 0;
   2988            }
   2989          
   2990            // Make buffer
   2991            rsp = (ZDO_NwkIEEEAddrResp_t *)osal_mem_alloc( sizeof(ZDO_NwkIEEEAddrResp_t) + (cnt * sizeof ( uint16 )) );
   \                     ??ZDO_ParseAddrRsp_0:
   \   000024                ; Setup parameters for call to function osal_mem_alloc
   \   000024   A8..         MOV       R0,?V2
   \   000026   E8           MOV       A,R0
   \   000027   28           ADD       A,R0
   \   000028   F8           MOV       R0,A
   \   000029   E4           CLR       A
   \   00002A   33           RLC       A
   \   00002B   F9           MOV       R1,A
   \   00002C   E8           MOV       A,R0
   \   00002D   240D         ADD       A,#0xd
   \   00002F   12....       LCALL     ?Subroutine146 & 0xFFFF
   2992          
   2993            if ( rsp )
   \                     ??CrossCallReturnLabel_227:
   \   000032   7003         JNZ       $+5
   \   000034   02....       LJMP      ??ZDO_ParseAddrRsp_1 & 0xFFFF
   2994            {
   2995              msg = inMsg->asdu;
   \   000037   EE           MOV       A,R6
   \   000038   12....       LCALL     ??Subroutine240_0 & 0xFFFF
   \                     ??CrossCallReturnLabel_403:
   \   00003B   3F           ADDC      A,R7
   \   00003C   12....       LCALL     ?Subroutine105 & 0xFFFF
   2996          
   2997              rsp->status = *msg++;
   \                     ??CrossCallReturnLabel_173:
   \   00003F   E0           MOVX      A,@DPTR
   \   000040   F8           MOV       R0,A
   \   000041   8A82         MOV       DPL,R2
   \   000043   8B83         MOV       DPH,R3
   \   000045   12....       LCALL     ?Subroutine178 & 0xFFFF
   \                     ??CrossCallReturnLabel_291:
   \   000048   AE82         MOV       R6,DPL
   \   00004A   AF83         MOV       R7,DPH
   2998              if ( rsp->status == ZDO_SUCCESS )
   \   00004C   707F         JNZ       ??ZDO_ParseAddrRsp_1
   2999              {
   3000                osal_cpyExtAddr( rsp->extAddr, msg );
   \   00004E                ; Setup parameters for call to function sAddrExtCpy
   \   00004E   EE           MOV       A,R6
   \   00004F   FC           MOV       R4,A
   \   000050   EF           MOV       A,R7
   \   000051   FD           MOV       R5,A
   \   000052   EA           MOV       A,R2
   \   000053   2403         ADD       A,#0x3
   \   000055   12....       LCALL     ?Subroutine56 & 0xFFFF
   3001                msg += Z_EXTADDR_LEN;
   \                     ??CrossCallReturnLabel_667:
   \   000058   5001         JNC       ??ZDO_ParseAddrRsp_2
   \   00005A   0F           INC       R7
   3002                rsp->nwkAddr = BUILD_UINT16( msg[0], msg[1] );
   \                     ??ZDO_ParseAddrRsp_2:
   \   00005B   F582         MOV       DPL,A
   \   00005D   8F83         MOV       DPH,R7
   \   00005F   12....       LCALL     ??Subroutine232_0 & 0xFFFF
   \                     ??CrossCallReturnLabel_364:
   \   000062   85..82       MOV       DPL,?V0
   \   000065   85..83       MOV       DPH,?V1
   \   000068   12....       LCALL     ??Subroutine276_0 & 0xFFFF
   3003          
   3004                msg += 2;
   3005                rsp->numAssocDevs = 0;
   \                     ??CrossCallReturnLabel_596:
   \   00006B   E5..         MOV       A,?V0
   \   00006D   240B         ADD       A,#0xb
   \   00006F   12....       LCALL     ??Subroutine280_0 & 0xFFFF
   \                     ??CrossCallReturnLabel_626:
   \   000072   E4           CLR       A
   \   000073   F0           MOVX      @DPTR,A
   3006          
   3007                // StartIndex field is only present if NumAssocDev field is non-zero.
   3008                if ( cnt > 0 )
   \   000074   E5..         MOV       A,?V2
   \   000076   6055         JZ        ??ZDO_ParseAddrRsp_1
   3009                {
   3010                  uint16 *pList = &(rsp->devList[0]);
   \   000078   E5..         MOV       A,?V0
   \   00007A   240D         ADD       A,#0xd
   \   00007C   F8           MOV       R0,A
   \   00007D   E4           CLR       A
   \   00007E   35..         ADDC      A,?V1
   \   000080   F9           MOV       R1,A
   3011                  byte n = cnt;
   3012          
   3013                  rsp->numAssocDevs = *msg++;
   \   000081   8E82         MOV       DPL,R6
   \   000083   8F83         MOV       DPH,R7
   \   000085   A3           INC       DPTR
   \   000086   A3           INC       DPTR
   \   000087   E0           MOVX      A,@DPTR
   \   000088   C0E0         PUSH      A
   \   00008A   E5..         MOV       A,?V0
   \   00008C   240B         ADD       A,#0xb
   \   00008E   12....       LCALL     ??Subroutine280_0 & 0xFFFF
   \                     ??CrossCallReturnLabel_627:
   \   000091   D0E0         POP       A
   \   000093   12....       LCALL     ?Subroutine19 & 0xFFFF
   3014                  rsp->startIndex = *msg++;
   \                     ??CrossCallReturnLabel_17:
   \   000096   C0E0         PUSH      A
   \   000098   12....       LCALL     ?Subroutine150 & 0xFFFF
   \                     ??CrossCallReturnLabel_638:
   \   00009B   D0E0         POP       A
   \   00009D   F0           MOVX      @DPTR,A
   \   00009E   EE           MOV       A,R6
   \   00009F   2404         ADD       A,#0x4
   \   0000A1   FE           MOV       R6,A
   \   0000A2   5001         JNC       ??ZDO_ParseAddrRsp_3
   \   0000A4   0F           INC       R7
   \                     ??ZDO_ParseAddrRsp_3:
   \   0000A5   85....       MOV       ?V3,?V2
   3015          
   3016                  while ( n != 0 )
   3017                  {
   3018                    *pList++ = BUILD_UINT16( msg[0], msg[1] );
   \                     ??ZDO_ParseAddrRsp_4:
   \   0000A8   8E82         MOV       DPL,R6
   \   0000AA   8F83         MOV       DPH,R7
   \   0000AC   E0           MOVX      A,@DPTR
   \   0000AD   FC           MOV       R4,A
   \   0000AE   A3           INC       DPTR
   \   0000AF   E0           MOVX      A,@DPTR
   \   0000B0   FB           MOV       R3,A
   \   0000B1   EC           MOV       A,R4
   \   0000B2   8882         MOV       DPL,R0
   \   0000B4   8983         MOV       DPH,R1
   \   0000B6   12....       LCALL     ??Subroutine231_0 & 0xFFFF
   \                     ??CrossCallReturnLabel_356:
   \   0000B9   E8           MOV       A,R0
   \   0000BA   2402         ADD       A,#0x2
   \   0000BC   F8           MOV       R0,A
   \   0000BD   5001         JNC       ??ZDO_ParseAddrRsp_5
   \   0000BF   09           INC       R1
   3019                    msg += sizeof( uint16 );
   \                     ??ZDO_ParseAddrRsp_5:
   \   0000C0   EE           MOV       A,R6
   \   0000C1   2402         ADD       A,#0x2
   \   0000C3   FE           MOV       R6,A
   \   0000C4   5001         JNC       ??ZDO_ParseAddrRsp_6
   \   0000C6   0F           INC       R7
   3020                    n--;
   3021                  }
   \                     ??ZDO_ParseAddrRsp_6:
   \   0000C7   15..         DEC       ?V3
   \   0000C9   E5..         MOV       A,?V3
   \   0000CB   70DB         JNZ       ??ZDO_ParseAddrRsp_4
   3022                }
   3023              }
   3024            }
   3025          
   3026            return ( rsp );
   \                     ??ZDO_ParseAddrRsp_1:
   \   0000CD   AA..         MOV       R2,?V0
   \   0000CF   AB..         MOV       R3,?V1
   \   0000D1   02....       LJMP      ??Subroutine292_0 & 0xFFFF
   3027          }

   \                                 In  segment BANKED_CODE, align 1, keep-with-next
   \                     ?Subroutine56:
   \   000000   FA           MOV       R2,A
   \   000001   E4           CLR       A
   \   000002   35..         ADDC      A,?V1
   \   000004   FB           MOV       R3,A
   \   000005                REQUIRE ??Subroutine283_0
   \   000005                ; // Fall through to label ??Subroutine283_0

   \                                 In  segment BANKED_CODE, align 1, keep-with-next
   \                     ??Subroutine283_0:
   \   000000   12....       LCALL     `??sAddrExtCpy::?relay`; Banked call to: sAddrExtCpy
   \   000003   EE           MOV       A,R6
   \   000004   2408         ADD       A,#0x8
   \   000006   FE           MOV       R6,A
   \   000007   22           RET

   \                                 In  segment BANKED_CODE, align 1, keep-with-next
   \                     ?Subroutine19:
   \   000000   12....       LCALL     ?Subroutine178 & 0xFFFF
   \                     ??CrossCallReturnLabel_289:
   \   000003   A3           INC       DPTR
   \   000004   A3           INC       DPTR
   \   000005   E0           MOVX      A,@DPTR
   \   000006   22           RET

   \                                 In  segment BANKED_CODE, align 1, keep-with-next
   \                     ?Subroutine146:
   \   000000   FA           MOV       R2,A
   \   000001   E4           CLR       A
   \   000002   39           ADDC      A,R1
   \   000003   12....       LCALL     ?Subroutine206 & 0xFFFF
   \                     ??CrossCallReturnLabel_410:
   \   000006   EA           MOV       A,R2
   \   000007   4B           ORL       A,R3
   \   000008   22           RET
   3028          
   3029          /*********************************************************************
   3030           * @fn          ZDO_ParseNodeDescRsp
   3031           *
   3032           * @brief       This function parses the Node_Desc_rsp message.
   3033           *
   3034           * @param       inMsg - incoming message
   3035           * @param       pNDRsp - place to parse the message into
   3036           *
   3037           * @return      none
   3038           */

   \                                 In  segment BANKED_CODE, align 1, keep-with-next
   3039          void ZDO_ParseNodeDescRsp( zdoIncomingMsg_t *inMsg, ZDO_NodeDescRsp_t *pNDRsp )
   \                     ZDO_ParseNodeDescRsp:
   3040          {
   \   000000                REQUIRE ?V0
   \   000000                REQUIRE ?V1
   \   000000   74F6         MOV       A,#-0xa
   \   000002   12....       LCALL     ?BANKED_ENTER_XDATA
   \   000005                ; Saved register size: 10
   \   000005                ; Auto size: 0
   3041            uint8 *msg;
   3042          
   3043            msg = inMsg->asdu;
   \   000005   12....       LCALL     ?Subroutine10 & 0xFFFF
   3044          
   3045            pNDRsp->status = *msg++;
   3046            pNDRsp->nwkAddr = BUILD_UINT16( msg[0], msg[1] );
   3047          
   3048            if ( pNDRsp->status == ZDP_SUCCESS )
   \                     ??CrossCallReturnLabel_0:
   \   000008   6003         JZ        $+5
   \   00000A   02....       LJMP      ??ZDO_ParseNodeDescRsp_0 & 0xFFFF
   3049            {
   3050              msg += 2;
   3051              pNDRsp->nodeDesc.LogicalType = *msg & 0x07;
   \   00000D   E8           MOV       A,R0
   \   00000E   12....       LCALL     ?Subroutine200 & 0xFFFF
   \                     ??CrossCallReturnLabel_320:
   \   000011   39           ADDC      A,R1
   \   000012   FB           MOV       R3,A
   \   000013   EC           MOV       A,R4
   \   000014   2403         ADD       A,#0x3
   \   000016   FE           MOV       R6,A
   \   000017   E4           CLR       A
   \   000018   3D           ADDC      A,R5
   \   000019   FF           MOV       R7,A
   \   00001A   8A82         MOV       DPL,R2
   \   00001C   8B83         MOV       DPH,R3
   \   00001E   E0           MOVX      A,@DPTR
   \   00001F   5407         ANL       A,#0x7
   \   000021   F5..         MOV       ?V0,A
   \   000023   8E82         MOV       DPL,R6
   \   000025   8F83         MOV       DPH,R7
   \   000027   E0           MOVX      A,@DPTR
   \   000028   54F8         ANL       A,#0xf8
   \   00002A   45..         ORL       A,?V0
   \   00002C   F5..         MOV       ?V1,A
   \   00002E   12....       LCALL     ?Subroutine50 & 0xFFFF
   3052          
   3053              pNDRsp->nodeDesc.ComplexDescAvail = ( *msg & 0x08 ) >> 3;
   \                     ??CrossCallReturnLabel_74:
   \   000031   A2E3         MOV       C,0xE0 /* A   */.3
   \   000033   E4           CLR       A
   \   000034   33           RLC       A
   \   000035   F5..         MOV       ?V0,A
   \   000037   A2E0         MOV       C,0xE0 /* A   */.0
   \   000039   E4           CLR       A
   \   00003A   33           RLC       A
   \   00003B   33           RLC       A
   \   00003C   33           RLC       A
   \   00003D   33           RLC       A
   \   00003E   F5..         MOV       ?V0,A
   \   000040   74F7         MOV       A,#-0x9
   \   000042   55..         ANL       A,?V1
   \   000044   45..         ORL       A,?V0
   \   000046   8E82         MOV       DPL,R6
   \   000048   8F83         MOV       DPH,R7
   \   00004A   12....       LCALL     ?Subroutine50 & 0xFFFF
   3054              pNDRsp->nodeDesc.UserDescAvail = ( *msg & 0x10 ) >> 4;
   \                     ??CrossCallReturnLabel_75:
   \   00004D   A2E4         MOV       C,0xE0 /* A   */.4
   \   00004F   E4           CLR       A
   \   000050   33           RLC       A
   \   000051   FA           MOV       R2,A
   \   000052   A2E0         MOV       C,0xE0 /* A   */.0
   \   000054   E4           CLR       A
   \   000055   33           RLC       A
   \   000056   C4           SWAP      A
   \   000057   FA           MOV       R2,A
   \   000058   8E82         MOV       DPL,R6
   \   00005A   8F83         MOV       DPH,R7
   \   00005C   E0           MOVX      A,@DPTR
   \   00005D   54EF         ANL       A,#0xef
   \   00005F   4A           ORL       A,R2
   \   000060   F0           MOVX      @DPTR,A
   3055          
   3056              msg++;  // Reserved bits.
   3057              pNDRsp->nodeDesc.FrequencyBand = (*msg >> 3) & 0x1f;
   \   000061   E8           MOV       A,R0
   \   000062   2403         ADD       A,#0x3
   \   000064   FA           MOV       R2,A
   \   000065   E4           CLR       A
   \   000066   39           ADDC      A,R1
   \   000067   FB           MOV       R3,A
   \   000068   EC           MOV       A,R4
   \   000069   2404         ADD       A,#0x4
   \   00006B   0E           INC       R6
   \   00006C   E4           CLR       A
   \   00006D   3D           ADDC      A,R5
   \   00006E   FF           MOV       R7,A
   \   00006F   8A82         MOV       DPL,R2
   \   000071   8B83         MOV       DPH,R3
   \   000073   E0           MOVX      A,@DPTR
   \   000074   54F8         ANL       A,#0xf8
   \   000076   F5..         MOV       ?V0,A
   \   000078   8E82         MOV       DPL,R6
   \   00007A   8F83         MOV       DPH,R7
   \   00007C   E0           MOVX      A,@DPTR
   \   00007D   5407         ANL       A,#0x7
   \   00007F   45..         ORL       A,?V0
   \   000081   F5..         MOV       ?V0,A
   \   000083   12....       LCALL     ?Subroutine50 & 0xFFFF
   3058              pNDRsp->nodeDesc.APSFlags = *msg++ & 0x07;
   \                     ??CrossCallReturnLabel_76:
   \   000086   5407         ANL       A,#0x7
   \   000088   FA           MOV       R2,A
   \   000089   74F8         MOV       A,#-0x8
   \   00008B   55..         ANL       A,?V0
   \   00008D   4A           ORL       A,R2
   \   00008E   8E82         MOV       DPL,R6
   \   000090   8F83         MOV       DPH,R7
   \   000092   12....       LCALL     ?Subroutine38 & 0xFFFF
   3059              pNDRsp->nodeDesc.CapabilityFlags = *msg++;
   \                     ??CrossCallReturnLabel_55:
   \   000095   8C82         MOV       DPL,R4
   \   000097   8D83         MOV       DPH,R5
   \   000099   A3           INC       DPTR
   \   00009A   A3           INC       DPTR
   \   00009B   A3           INC       DPTR
   \   00009C   A3           INC       DPTR
   \   00009D   A3           INC       DPTR
   \   00009E   12....       LCALL     ?Subroutine39 & 0xFFFF
   3060              pNDRsp->nodeDesc.ManufacturerCode[0] = *msg++;
   \                     ??CrossCallReturnLabel_58:
   \   0000A1   A3           INC       DPTR
   \   0000A2   12....       LCALL     ?Subroutine114 & 0xFFFF
   \                     ??CrossCallReturnLabel_698:
   \   0000A5   12....       LCALL     ?Subroutine32 & 0xFFFF
   3061              pNDRsp->nodeDesc.ManufacturerCode[1] = *msg++;
   \                     ??CrossCallReturnLabel_42:
   \   0000A8   12....       LCALL     ?Subroutine91 & 0xFFFF
   \                     ??CrossCallReturnLabel_146:
   \   0000AB   12....       LCALL     ?Subroutine32 & 0xFFFF
   3062              pNDRsp->nodeDesc.MaxBufferSize = *msg++;
   \                     ??CrossCallReturnLabel_43:
   \   0000AE   12....       LCALL     ?Subroutine114 & 0xFFFF
   \                     ??CrossCallReturnLabel_699:
   \   0000B1   12....       LCALL     ?Subroutine24 & 0xFFFF
   3063              pNDRsp->nodeDesc.MaxInTransferSize[0] = *msg++;
   \                     ??CrossCallReturnLabel_26:
   \   0000B4   12....       LCALL     ?Subroutine91 & 0xFFFF
   \                     ??CrossCallReturnLabel_147:
   \   0000B7   12....       LCALL     ?Subroutine24 & 0xFFFF
   3064              pNDRsp->nodeDesc.MaxInTransferSize[1] = *msg++;
   \                     ??CrossCallReturnLabel_27:
   \   0000BA   A3           INC       DPTR
   \   0000BB   12....       LCALL     ?Subroutine91 & 0xFFFF
   \                     ??CrossCallReturnLabel_148:
   \   0000BE   A3           INC       DPTR
   \   0000BF   A3           INC       DPTR
   \   0000C0   A3           INC       DPTR
   \   0000C1   A3           INC       DPTR
   \   0000C2   A3           INC       DPTR
   \   0000C3   A3           INC       DPTR
   \   0000C4   A3           INC       DPTR
   \   0000C5   A3           INC       DPTR
   \   0000C6   A3           INC       DPTR
   \   0000C7   F0           MOVX      @DPTR,A
   \   0000C8   E8           MOV       A,R0
   \   0000C9   240A         ADD       A,#0xa
   \   0000CB   F8           MOV       R0,A
   \   0000CC   5001         JNC       ??ZDO_ParseNodeDescRsp_1
   \   0000CE   09           INC       R1
   3065              pNDRsp->nodeDesc.ServerMask = BUILD_UINT16( msg[0], msg[1] );
   \                     ??ZDO_ParseNodeDescRsp_1:
   \   0000CF   F582         MOV       DPL,A
   \   0000D1   8983         MOV       DPH,R1
   \   0000D3   12....       LCALL     ??Subroutine285_0 & 0xFFFF
   \                     ??CrossCallReturnLabel_679:
   \   0000D6   FB           MOV       R3,A
   \   0000D7   EC           MOV       A,R4
   \   0000D8   240B         ADD       A,#0xb
   \   0000DA   F582         MOV       DPL,A
   \   0000DC   E4           CLR       A
   \   0000DD   3D           ADDC      A,R5
   \   0000DE   F583         MOV       DPH,A
   \   0000E0   EE           MOV       A,R6
   \   0000E1   12....       LCALL     ??Subroutine231_0 & 0xFFFF
   3066              msg += 2;
   3067              pNDRsp->nodeDesc.MaxOutTransferSize[0] = *msg++;
   \                     ??CrossCallReturnLabel_357:
   \   0000E4   8882         MOV       DPL,R0
   \   0000E6   8983         MOV       DPH,R1
   \   0000E8   A3           INC       DPTR
   \   0000E9   A3           INC       DPTR
   \   0000EA   E0           MOVX      A,@DPTR
   \   0000EB   C0E0         PUSH      A
   \   0000ED   EC           MOV       A,R4
   \   0000EE   240D         ADD       A,#0xd
   \   0000F0   F582         MOV       DPL,A
   \   0000F2   E4           CLR       A
   \   0000F3   3D           ADDC      A,R5
   \   0000F4   F583         MOV       DPH,A
   \   0000F6   D0E0         POP       A
   \   0000F8   12....       LCALL     ?Subroutine39 & 0xFFFF
   3068              pNDRsp->nodeDesc.MaxOutTransferSize[1] = *msg++;
   3069              pNDRsp->nodeDesc.DescriptorCapability = *msg;
   3070            }
   \                     ??CrossCallReturnLabel_59:
   \   0000FB   E0           MOVX      A,@DPTR
   \   0000FC   C0E0         PUSH      A
   \   0000FE   EC           MOV       A,R4
   \   0000FF   12....       LCALL     ??Subroutine291_0 & 0xFFFF
   \                     ??CrossCallReturnLabel_707:
   \   000102   3D           ADDC      A,R5
   \   000103   F583         MOV       DPH,A
   \   000105   D0E0         POP       A
   \   000107   12....       LCALL     ?Subroutine38 & 0xFFFF
   \                     ??CrossCallReturnLabel_56:
   \   00010A   C0E0         PUSH      A
   \   00010C   EC           MOV       A,R4
   \   00010D   12....       LCALL     ?Subroutine151 & 0xFFFF
   \                     ??CrossCallReturnLabel_238:
   \   000110   3D           ADDC      A,R5
   \   000111   F583         MOV       DPH,A
   \   000113   D0E0         POP       A
   \   000115   F0           MOVX      @DPTR,A
   3071          }
   \                     ??ZDO_ParseNodeDescRsp_0:
   \   000116   02....       LJMP      ??Subroutine225_0 & 0xFFFF

   \                                 In  segment BANKED_CODE, align 1, keep-with-next
   \                     ?Subroutine50:
   \   000000   F0           MOVX      @DPTR,A
   \   000001   8A82         MOV       DPL,R2
   \   000003   8B83         MOV       DPH,R3
   \   000005   E0           MOVX      A,@DPTR
   \   000006   22           RET

   \                                 In  segment BANKED_CODE, align 1, keep-with-next
   \                     ?Subroutine38:
   \   000000   12....       LCALL     ?Subroutine179 & 0xFFFF
   \                     ??CrossCallReturnLabel_293:
   \   000003   A3           INC       DPTR
   \   000004   E0           MOVX      A,@DPTR
   \   000005   22           RET

   \                                 In  segment BANKED_CODE, align 1, keep-with-next
   \                     ?Subroutine32:
   \   000000   12....       LCALL     ?Subroutine174 & 0xFFFF
   \                     ??CrossCallReturnLabel_281:
   \   000003   22           RET

   \                                 In  segment BANKED_CODE, align 1, keep-with-next
   \                     ?Subroutine174:
   \   000000   A3           INC       DPTR
   \   000001   A3           INC       DPTR
   \   000002   A3           INC       DPTR
   \   000003   A3           INC       DPTR
   \   000004   A3           INC       DPTR
   \   000005   A3           INC       DPTR
   \   000006   12....       LCALL     ?Subroutine213 & 0xFFFF
   \                     ??CrossCallReturnLabel_343:
   \   000009   A3           INC       DPTR
   \   00000A   A3           INC       DPTR
   \   00000B   A3           INC       DPTR
   \   00000C   22           RET

   \                                 In  segment BANKED_CODE, align 1, keep-with-next
   \                     ?Subroutine24:
   \   000000   A3           INC       DPTR
   \   000001   A3           INC       DPTR
   \   000002   12....       LCALL     ?Subroutine174 & 0xFFFF
   \                     ??CrossCallReturnLabel_282:
   \   000005   A3           INC       DPTR
   \   000006   A3           INC       DPTR
   \   000007   22           RET

   \                                 In  segment BANKED_CODE, align 1, keep-with-next
   \                     ?Subroutine10:
   \   000000   12....       LCALL     ?Subroutine202 & 0xFFFF
   \                     ??CrossCallReturnLabel_325:
   \   000003   12....       LCALL     ?Subroutine191 & 0xFFFF
   \                     ??CrossCallReturnLabel_311:
   \   000006   8C82         MOV       DPL,R4
   \   000008   8D83         MOV       DPH,R5
   \   00000A   12....       LCALL     ?Subroutine180 & 0xFFFF
   \                     ??CrossCallReturnLabel_297:
   \   00000D   A3           INC       DPTR
   \   00000E   A882         MOV       R0,DPL
   \   000010   A983         MOV       R1,DPH
   \   000012   12....       LCALL     ??Subroutine285_0 & 0xFFFF
   \                     ??CrossCallReturnLabel_681:
   \   000015   FB           MOV       R3,A
   \   000016   EE           MOV       A,R6
   \   000017   8C82         MOV       DPL,R4
   \   000019   8D83         MOV       DPH,R5
   \   00001B   A3           INC       DPTR
   \   00001C   F0           MOVX      @DPTR,A
   \   00001D   A3           INC       DPTR
   \   00001E   EB           MOV       A,R3
   \   00001F   F0           MOVX      @DPTR,A
   \   000020   8C82         MOV       DPL,R4
   \   000022   8D83         MOV       DPH,R5
   \   000024   E0           MOVX      A,@DPTR
   \   000025   22           RET

   \                                 In  segment BANKED_CODE, align 1, keep-with-next
   \                     ?Subroutine114:
   \   000000   A3           INC       DPTR
   \   000001                REQUIRE ??Subroutine289_0
   \   000001                ; // Fall through to label ??Subroutine289_0
   3072          
   3073          /*********************************************************************
   3074           * @fn          ZDO_ParsePowerDescRsp
   3075           *
   3076           * @brief       This function parses the Power_Desc_rsp message.
   3077           *
   3078           * @param       inMsg  - incoming message
   3079           * @param       pNPRsp - place to parse the message into
   3080           *
   3081           * @return      none
   3082           */

   \                                 In  segment BANKED_CODE, align 1, keep-with-next
   \                     ??Subroutine275_0:
   \   000000   8C82         MOV       DPL,R4
   \   000002   8D83         MOV       DPH,R5
   \   000004                REQUIRE ??Subroutine276_0
   \   000004                ; // Fall through to label ??Subroutine276_0

   \                                 In  segment BANKED_CODE, align 1, keep-with-next
   3083          void ZDO_ParsePowerDescRsp( zdoIncomingMsg_t *inMsg, ZDO_PowerRsp_t *pNPRsp )
   \                     ZDO_ParsePowerDescRsp:
   3084          {
   \   000000                REQUIRE ?V0
   \   000000                REQUIRE ?V1
   \   000000                REQUIRE ?V2
   \   000000                REQUIRE ?V3
   \   000000   74F4         MOV       A,#-0xc
   \   000002   12....       LCALL     ?BANKED_ENTER_XDATA
   \   000005                ; Saved register size: 12
   \   000005                ; Auto size: 0
   3085            uint8 *msg;
   3086          
   3087            msg = inMsg->asdu;
   \   000005   12....       LCALL     ?Subroutine142 & 0xFFFF
   \                     ??CrossCallReturnLabel_220:
   \   000008   12....       LCALL     ??Subroutine245_0 & 0xFFFF
   3088            pNPRsp->status = *msg++;
   \                     ??CrossCallReturnLabel_437:
   \   00000B   12....       LCALL     ?Subroutine43 & 0xFFFF
   \                     ??CrossCallReturnLabel_673:
   \   00000E   AA82         MOV       R2,DPL
   \   000010   AB83         MOV       R3,DPH
   3089            pNPRsp->nwkAddr = BUILD_UINT16( msg[0], msg[1] );
   \   000012   12....       LCALL     ??Subroutine285_0 & 0xFFFF
   \                     ??CrossCallReturnLabel_680:
   \   000015   F9           MOV       R1,A
   \   000016   EE           MOV       A,R6
   \   000017   12....       LCALL     ??Subroutine275_0 & 0xFFFF
   3090          
   3091            if ( pNPRsp->status == ZDP_SUCCESS )
   \                     ??CrossCallReturnLabel_598:
   \   00001A   8C82         MOV       DPL,R4
   \   00001C   8D83         MOV       DPH,R5
   \   00001E   E0           MOVX      A,@DPTR
   \   00001F   6003         JZ        $+5
   \   000021   02....       LJMP      ??ZDO_ParsePowerDescRsp_0 & 0xFFFF
   3092            {
   3093              msg += 2;
   3094              pNPRsp->pwrDesc.AvailablePowerSources = *msg >> 4;
   \   000024   EA           MOV       A,R2
   \   000025   2402         ADD       A,#0x2
   \   000027   F8           MOV       R0,A
   \   000028   E4           CLR       A
   \   000029   3B           ADDC      A,R3
   \   00002A   F9           MOV       R1,A
   \   00002B   E8           MOV       A,R0
   \   00002C   FE           MOV       R6,A
   \   00002D   E9           MOV       A,R1
   \   00002E   FF           MOV       R7,A
   \   00002F   EC           MOV       A,R4
   \   000030   2403         ADD       A,#0x3
   \   000032   E4           CLR       A
   \   000033   3D           ADDC      A,R5
   \   000034   0C           INC       R4
   \   000035   0C           INC       R4
   \   000036   0C           INC       R4
   \   000037   FD           MOV       R5,A
   \   000038   8C82         MOV       DPL,R4
   \   00003A   F583         MOV       DPH,A
   \   00003C   E0           MOVX      A,@DPTR
   \   00003D   540F         ANL       A,#0xf
   \   00003F   F5..         MOV       ?V0,A
   \   000041   A3           INC       DPTR
   \   000042   E0           MOVX      A,@DPTR
   \   000043   F5..         MOV       ?V1,A
   \   000045   8882         MOV       DPL,R0
   \   000047   8983         MOV       DPH,R1
   \   000049   E0           MOVX      A,@DPTR
   \   00004A   C4           SWAP      A
   \   00004B   540F         ANL       A,#0xf
   \   00004D   F5..         MOV       ?V2,A
   \   00004F   75..00       MOV       ?V3,#0x0
   \   000052   7404         MOV       A,#0x4
   \   000054   78..         MOV       R0,#?V2
   \   000056   12....       LCALL     ?S_SHL
   \   000059   E5..         MOV       A,?V0
   \   00005B   45..         ORL       A,?V2
   \   00005D   F8           MOV       R0,A
   \   00005E   A9..         MOV       R1,?V1
   \   000060   8C82         MOV       DPL,R4
   \   000062   8D83         MOV       DPH,R5
   \   000064   12....       LCALL     ??Subroutine277_0 & 0xFFFF
   3095              pNPRsp->pwrDesc.PowerMode = *msg++ & 0x0F;
   \                     ??CrossCallReturnLabel_590:
   \   000067   E8           MOV       A,R0
   \   000068   54F0         ANL       A,#0xf0
   \   00006A   F8           MOV       R0,A
   \   00006B   8E82         MOV       DPL,R6
   \   00006D   8F83         MOV       DPH,R7
   \   00006F   E0           MOVX      A,@DPTR
   \   000070   540F         ANL       A,#0xf
   \   000072   FE           MOV       R6,A
   \   000073   E8           MOV       A,R0
   \   000074   4E           ORL       A,R6
   \   000075   F5..         MOV       ?V0,A
   \   000077   8C82         MOV       DPL,R4
   \   000079   8D83         MOV       DPH,R5
   \   00007B   12....       LCALL     ??Subroutine277_0 & 0xFFFF
   3096              pNPRsp->pwrDesc.CurrentPowerSourceLevel = *msg >> 4;
   \                     ??CrossCallReturnLabel_591:
   \   00007E   EA           MOV       A,R2
   \   00007F   2403         ADD       A,#0x3
   \   000081   F8           MOV       R0,A
   \   000082   E4           CLR       A
   \   000083   3B           ADDC      A,R3
   \   000084   F9           MOV       R1,A
   \   000085   E8           MOV       A,R0
   \   000086   FE           MOV       R6,A
   \   000087   E9           MOV       A,R1
   \   000088   FF           MOV       R7,A
   \   000089   E5..         MOV       A,?V1
   \   00008B   540F         ANL       A,#0xf
   \   00008D   F5..         MOV       ?V1,A
   \   00008F   8882         MOV       DPL,R0
   \   000091   8983         MOV       DPH,R1
   \   000093   E0           MOVX      A,@DPTR
   \   000094   C4           SWAP      A
   \   000095   540F         ANL       A,#0xf
   \   000097   F5..         MOV       ?V2,A
   \   000099   740C         MOV       A,#0xc
   \   00009B   78..         MOV       R0,#?V2
   \   00009D   12....       LCALL     ?S_SHL
   \   0000A0   E5..         MOV       A,?V1
   \   0000A2   45..         ORL       A,?V3
   \   0000A4   F9           MOV       R1,A
   \   0000A5   8C82         MOV       DPL,R4
   \   0000A7   8D83         MOV       DPH,R5
   \   0000A9   E5..         MOV       A,?V0
   \   0000AB   12....       LCALL     ??Subroutine277_0 & 0xFFFF
   3097              pNPRsp->pwrDesc.CurrentPowerSource = *msg++ & 0x0F;
   \                     ??CrossCallReturnLabel_592:
   \   0000AE   8E82         MOV       DPL,R6
   \   0000B0   8F83         MOV       DPH,R7
   \   0000B2   E0           MOVX      A,@DPTR
   \   0000B3   540F         ANL       A,#0xf
   \   0000B5   F8           MOV       R0,A
   \   0000B6   EA           MOV       A,R2
   \   0000B7   2404         ADD       A,#0x4
   \   0000B9   8C82         MOV       DPL,R4
   \   0000BB   8D83         MOV       DPH,R5
   \   0000BD   A3           INC       DPTR
   \   0000BE   E0           MOVX      A,@DPTR
   \   0000BF   54F0         ANL       A,#0xf0
   \   0000C1   F0           MOVX      @DPTR,A
   \   0000C2   E8           MOV       A,R0
   \   0000C3   F9           MOV       R1,A
   \   0000C4   8C82         MOV       DPL,R4
   \   0000C6   8D83         MOV       DPH,R5
   \   0000C8   A3           INC       DPTR
   \   0000C9   E0           MOVX      A,@DPTR
   \   0000CA   49           ORL       A,R1
   \   0000CB   F0           MOVX      @DPTR,A
   3098            }
   3099          }
   \                     ??ZDO_ParsePowerDescRsp_0:
   \   0000CC   02....       LJMP      ??Subroutine223_0 & 0xFFFF

   \                                 In  segment BANKED_CODE, align 1, keep-with-next
   \                     ?Subroutine43:
   \   000000   8A82         MOV       DPL,R2
   \   000002   F583         MOV       DPH,A
   \   000004   E0           MOVX      A,@DPTR
   \   000005   8C82         MOV       DPL,R4
   \   000007   8D83         MOV       DPH,R5
   \   000009                REQUIRE ??Subroutine284_0
   \   000009                ; // Fall through to label ??Subroutine284_0

   \                                 In  segment BANKED_CODE, align 1, keep-with-next
   \                     ??Subroutine284_0:
   \   000000   12....       LCALL     ?Subroutine171 & 0xFFFF
   \                     ??CrossCallReturnLabel_677:
   \   000003   22           RET

   \                                 In  segment BANKED_CODE, align 1, keep-with-next
   \                     ?Subroutine142:
   \   000000   12....       LCALL     ?Subroutine201 & 0xFFFF
   \                     ??CrossCallReturnLabel_324:
   \   000003   22           RET

   \                                 In  segment BANKED_CODE, align 1, keep-with-next
   \                     ?Subroutine201:
   \   000000   12....       LCALL     ?Subroutine220 & 0xFFFF
   \                     ??CrossCallReturnLabel_692:
   \   000003   3B           ADDC      A,R3
   \   000004   F583         MOV       DPH,A
   \   000006   22           RET
   3100          
   3101          /*********************************************************************
   3102           * @fn          ZDO_ParseSimpleDescRsp
   3103           *
   3104           * @brief       This function parse the Simple_Desc_rsp message.
   3105           *
   3106           *   NOTE: The pAppInClusterList and pAppOutClusterList fields
   3107           *         in the SimpleDescriptionFormat_t structure are allocated
   3108           *         and the calling function needs to free [osal_msg_free()]
   3109           *         these buffers.
   3110           *
   3111           * @param       inMsg  - incoming message
   3112           * @param       pSimpleDescRsp - place to parse the message into
   3113           *
   3114           * @return      none
   3115           */

   \                                 In  segment BANKED_CODE, align 1, keep-with-next
   3116          void ZDO_ParseSimpleDescRsp( zdoIncomingMsg_t *inMsg, ZDO_SimpleDescRsp_t *pSimpleDescRsp )
   \                     ZDO_ParseSimpleDescRsp:
   3117          {
   \   000000   74F7         MOV       A,#-0x9
   \   000002   12....       LCALL     ?BANKED_ENTER_XDATA
   \   000005                ; Saved register size: 9
   \   000005                ; Auto size: 0
   3118            uint8 *msg;
   3119          
   3120            msg = inMsg->asdu;
   \   000005   12....       LCALL     ?Subroutine10 & 0xFFFF
   3121            pSimpleDescRsp->status = *msg++;
   3122            pSimpleDescRsp->nwkAddr = BUILD_UINT16( msg[0], msg[1] );
   3123            msg += sizeof ( uint16 );
   3124            msg++; // Skip past the length field.
   3125          
   3126            if ( pSimpleDescRsp->status == ZDP_SUCCESS )
   \                     ??CrossCallReturnLabel_1:
   \   000008   7011         JNZ       ??ZDO_ParseSimpleDescRsp_0
   3127            {
   3128              ZDO_ParseSimpleDescBuf( msg, &(pSimpleDescRsp->simpleDesc) );
   \   00000A                ; Setup parameters for call to function ZDO_ParseSimpleDescBuf
   \   00000A   EC           MOV       A,R4
   \   00000B   2403         ADD       A,#0x3
   \   00000D   FC           MOV       R4,A
   \   00000E   5001         JNC       ??ZDO_ParseSimpleDescRsp_1
   \   000010   0D           INC       R5
   \                     ??ZDO_ParseSimpleDescRsp_1:
   \   000011   E8           MOV       A,R0
   \   000012   2403         ADD       A,#0x3
   \   000014   FA           MOV       R2,A
   \   000015   E4           CLR       A
   \   000016   39           ADDC      A,R1
   \   000017   FB           MOV       R3,A
   \   000018   12....       LCALL     `??ZDO_ParseSimpleDescBuf::?relay`; Banked call to: ZDO_ParseSimpleDescBuf
   3129            }
   3130          }
   \                     ??ZDO_ParseSimpleDescRsp_0:
   \   00001B   02....       LJMP      ?Subroutine3 & 0xFFFF
   3131          
   3132          /*********************************************************************
   3133           * @fn          ZDO_ParseEPListRsp
   3134           *
   3135           * @brief       This parse the Active_EP_rsp or Match_Desc_rsp message.
   3136           *
   3137           * @param       inMsg  - incoming message
   3138           *
   3139           * @return      none
   3140           */

   \                                 In  segment BANKED_CODE, align 1, keep-with-next
   3141          ZDO_ActiveEndpointRsp_t *ZDO_ParseEPListRsp( zdoIncomingMsg_t *inMsg )
   \                     ZDO_ParseEPListRsp:
   3142          {
   \   000000                REQUIRE ?V0
   \   000000                REQUIRE ?V1
   \   000000                REQUIRE ?V2
   \   000000                REQUIRE ?V3
   \   000000                REQUIRE ?V4
   \   000000                REQUIRE ?V5
   \   000000                REQUIRE ?V6
   \   000000   74F1         MOV       A,#-0xf
   \   000002   12....       LCALL     ?BANKED_ENTER_XDATA
   \   000005                ; Saved register size: 15
   \   000005                ; Auto size: 0
   3143            ZDO_ActiveEndpointRsp_t *pRsp;
   3144            uint8 *msg;
   3145            uint8 Status;
   3146            uint8 cnt;
   3147          
   3148            msg = inMsg->asdu;
   \   000005   12....       LCALL     ?Subroutine142 & 0xFFFF
   \                     ??CrossCallReturnLabel_221:
   \   000008   12....       LCALL     ?Subroutine193 & 0xFFFF
   3149            Status = *msg++;
   \                     ??CrossCallReturnLabel_571:
   \   00000B   85..82       MOV       DPL,?V0
   \   00000E   F583         MOV       DPH,A
   \   000010   E0           MOVX      A,@DPTR
   \   000011   F5..         MOV       ?V3,A
   \   000013   A3           INC       DPTR
   \   000014   8582..       MOV       ?V0,DPL
   \   000017   8583..       MOV       ?V1,DPH
   3150            cnt = msg[2];
   \   00001A   A3           INC       DPTR
   \   00001B   A3           INC       DPTR
   \   00001C   E0           MOVX      A,@DPTR
   \   00001D   F5..         MOV       ?V2,A
   3151          
   3152            pRsp = (ZDO_ActiveEndpointRsp_t *)osal_mem_alloc( sizeof(  ZDO_ActiveEndpointRsp_t ) + cnt );
   \   00001F                ; Setup parameters for call to function osal_mem_alloc
   \   00001F   12....       LCALL     ?Subroutine152 & 0xFFFF
   3153            if ( pRsp )
   \                     ??CrossCallReturnLabel_686:
   \   000022   6030         JZ        ??ZDO_ParseEPListRsp_0
   3154            {
   3155              pRsp->status = Status;
   \   000024   8A82         MOV       DPL,R2
   \   000026   8B83         MOV       DPH,R3
   \   000028   E5..         MOV       A,?V3
   \   00002A   F0           MOVX      @DPTR,A
   3156              pRsp->nwkAddr = BUILD_UINT16( msg[0], msg[1] );
   \   00002B   85..82       MOV       DPL,?V0
   \   00002E   85..83       MOV       DPH,?V1
   \   000031   E0           MOVX      A,@DPTR
   \   000032   FA           MOV       R2,A
   \   000033   12....       LCALL     ?Subroutine29 & 0xFFFF
   3157              msg += sizeof( uint16 );
   3158              pRsp->cnt = cnt;
   3159              msg++; // pass cnt
   3160              osal_memcpy( pRsp->epList, msg, cnt );
   3161            }
   \                     ??CrossCallReturnLabel_36:
   \   000036   E5..         MOV       A,?V2
   \   000038   12....       LCALL     ?Subroutine37 & 0xFFFF
   \                     ??CrossCallReturnLabel_52:
   \   00003B   A3           INC       DPTR
   \   00003C   A3           INC       DPTR
   \   00003D   A982         MOV       R1,DPL
   \   00003F   AA83         MOV       R2,DPH
   \   000041   89..         MOV       ?V4,R1
   \   000043   8A..         MOV       ?V5,R2
   \   000045   88..         MOV       ?V6,R0
   \   000047   78..         MOV       R0,#?V4
   \   000049   12....       LCALL     ?PUSH_XSTACK_I_THREE
   \   00004C   AC..         MOV       R4,?V2
   \   00004E   12....       LCALL     ?Subroutine154 & 0xFFFF
   \                     ??CrossCallReturnLabel_719:
   \   000051   12....       LCALL     ?DEALLOC_XSTACK8
   3162          
   3163            return ( pRsp );
   \                     ??ZDO_ParseEPListRsp_0:
   \   000054   EE           MOV       A,R6
   \   000055   FA           MOV       R2,A
   \   000056   EF           MOV       A,R7
   \   000057   FB           MOV       R3,A
   \   000058   80..         SJMP      ??Subroutine288_0
   3164          }

   \                                 In  segment BANKED_CODE, align 1, keep-with-next
   \                     ?Subroutine152:
   \   000000   2404         ADD       A,#0x4
   \   000002   FA           MOV       R2,A
   \   000003   E4           CLR       A
   \   000004   3400         ADDC      A,#0x0
   \   000006   FB           MOV       R3,A
   \   000007                REQUIRE ??Subroutine286_0
   \   000007                ; // Fall through to label ??Subroutine286_0

   \                                 In  segment BANKED_CODE, align 1, keep-with-next
   \                     ?Subroutine29:
   \   000000   A3           INC       DPTR
   \   000001   E0           MOVX      A,@DPTR
   \   000002   F8           MOV       R0,A
   \   000003   E4           CLR       A
   \   000004   C8           XCH       A,R0
   \   000005   F9           MOV       R1,A
   \   000006   EA           MOV       A,R2
   \   000007   8E82         MOV       DPL,R6
   \   000009   8B83         MOV       DPH,R3
   \   00000B   A3           INC       DPTR
   \   00000C   F0           MOVX      @DPTR,A
   \   00000D   A3           INC       DPTR
   \   00000E   E9           MOV       A,R1
   \   00000F   F0           MOVX      @DPTR,A
   \   000010   8E82         MOV       DPL,R6
   \   000012   8B83         MOV       DPH,R3
   \   000014   A3           INC       DPTR
   \   000015   A3           INC       DPTR
   \   000016   A3           INC       DPTR
   \   000017   22           RET

   \                                 In  segment BANKED_CODE, align 1, keep-with-next
   \                     ?Subroutine154:
   \   000000   7D00         MOV       R5,#0x0
   \   000002   EE           MOV       A,R6
   \   000003   2404         ADD       A,#0x4
   \   000005   FA           MOV       R2,A
   \   000006   E4           CLR       A
   \   000007   3F           ADDC      A,R7
   \   000008                REQUIRE ??Subroutine295_0
   \   000008                ; // Fall through to label ??Subroutine295_0

   \                                 In  segment BANKED_CODE, align 1, keep-with-next
   \                     ??Subroutine295_0:
   \   000000   FB           MOV       R3,A
   \   000001                REQUIRE ??Subroutine296_0
   \   000001                ; // Fall through to label ??Subroutine296_0
   3165          
   3166          /*********************************************************************
   3167           * @fn          ZDO_ParseServerDiscRsp
   3168           *
   3169           * @brief       Parse the Server_Discovery_rsp message.
   3170           *
   3171           * @param       inMsg - incoming message.
   3172           * @param       pRsp - place to put the parsed information.
   3173           *
   3174           * @return      none
   3175           */

   \                                 In  segment BANKED_CODE, align 1, keep-with-next
   \                     ?Subroutine45:
   \   000000   A3           INC       DPTR
   \   000001   E0           MOVX      A,@DPTR
   \   000002   F9           MOV       R1,A
   \   000003   EA           MOV       A,R2
   \   000004                REQUIRE ??Subroutine275_0
   \   000004                ; // Fall through to label ??Subroutine275_0

   \                                 In  segment BANKED_CODE, align 1, keep-with-next
   3176          void ZDO_ParseServerDiscRsp( zdoIncomingMsg_t *inMsg, ZDO_ServerDiscRsp_t *pRsp )
   \                     ZDO_ParseServerDiscRsp:
   3177          {
   \   000000   74F7         MOV       A,#-0x9
   \   000002   12....       LCALL     ?BANKED_ENTER_XDATA
   \   000005                ; Saved register size: 9
   \   000005                ; Auto size: 0
   3178            pRsp->status = inMsg->asdu[0];
   \   000005   EA           MOV       A,R2
   \   000006   2413         ADD       A,#0x13
   \   000008   F8           MOV       R0,A
   \   000009   E4           CLR       A
   \   00000A   3B           ADDC      A,R3
   \   00000B   F9           MOV       R1,A
   \   00000C   8882         MOV       DPL,R0
   \   00000E   F583         MOV       DPH,A
   \   000010   12....       LCALL     ??Subroutine290_0 & 0xFFFF
   \                     ??CrossCallReturnLabel_701:
   \   000013   F583         MOV       DPH,A
   \   000015   8A82         MOV       DPL,R2
   \   000017   12....       LCALL     ??Subroutine289_0 & 0xFFFF
   \                     ??CrossCallReturnLabel_697:
   \   00001A   12....       LCALL     ?Subroutine180 & 0xFFFF
   3179            pRsp->serverMask = BUILD_UINT16( inMsg->asdu[1], inMsg->asdu[2] );
   \                     ??CrossCallReturnLabel_295:
   \   00001D   12....       LCALL     ??Subroutine238_0 & 0xFFFF
   \                     ??CrossCallReturnLabel_396:
   \   000020   8882         MOV       DPL,R0
   \   000022   F583         MOV       DPH,A
   \   000024   A3           INC       DPTR
   \   000025   E0           MOVX      A,@DPTR
   \   000026   FA           MOV       R2,A
   \   000027   8882         MOV       DPL,R0
   \   000029   8983         MOV       DPH,R1
   \   00002B   A3           INC       DPTR
   \   00002C   12....       LCALL     ?Subroutine45 & 0xFFFF
   3180          }
   \                     ??CrossCallReturnLabel_599:
   \   00002F   02....       LJMP      ?Subroutine3 & 0xFFFF
   3181          
   3182          /*********************************************************************
   3183           * @fn          ZDO_ParseMgmtLqiRsp
   3184           *
   3185           * @brief       This function parses the incoming Management
   3186           *              LQI response
   3187           *
   3188           * @param       inMsg - incoming message
   3189           *
   3190           * @return      a pointer to parsed response structure (NULL if not allocated).
   3191           *          This structure was allocated using osal_mem_alloc, so it must be freed
   3192           *          by the calling function [osal_mem_free()].
   3193           */

   \                                 In  segment BANKED_CODE, align 1, keep-with-next
   \                     ?Subroutine4:
   \   000000   AA..         MOV       R2,?V2
   \   000002   AB..         MOV       R3,?V3
   \   000004                REQUIRE ??Subroutine222_0
   \   000004                ; // Fall through to label ??Subroutine222_0

   \                                 In  segment BANKED_CODE, align 1, keep-with-next
   3194          ZDO_MgmtLqiRsp_t *ZDO_ParseMgmtLqiRsp( zdoIncomingMsg_t *inMsg )
   \                     ZDO_ParseMgmtLqiRsp:
   3195          {
   \   000000                REQUIRE ?V0
   \   000000                REQUIRE ?V1
   \   000000                REQUIRE ?V2
   \   000000                REQUIRE ?V3
   \   000000                REQUIRE ?V4
   \   000000                REQUIRE ?V5
   \   000000                REQUIRE ?V6
   \   000000                REQUIRE ?V7
   \   000000   74F0         MOV       A,#-0x10
   \   000002   12....       LCALL     ?BANKED_ENTER_XDATA
   \   000005                ; Saved register size: 16
   \   000005                ; Auto size: 0
   3196            ZDO_MgmtLqiRsp_t *pRsp;
   3197            uint8 status;
   3198            uint8 startIndex = 0;
   \   000005   75..00       MOV       ?V5,#0x0
   3199            uint8 neighborLqiCount = 0;
   \   000008   75..00       MOV       ?V4,#0x0
   3200            uint8 neighborLqiEntries = 0;
   \   00000B   75..00       MOV       ?V6,#0x0
   3201            uint8 *msg;
   3202          
   3203            msg = inMsg->asdu;
   \   00000E   12....       LCALL     ?Subroutine70 & 0xFFFF
   3204          
   3205            status = *msg++;
   \                     ??CrossCallReturnLabel_106:
   \   000011   F5..         MOV       ?V7,A
   \   000013   A3           INC       DPTR
   \   000014   AE82         MOV       R6,DPL
   \   000016   AF83         MOV       R7,DPH
   3206            if ( status == ZSuccess )
   \   000018   7017         JNZ       ??ZDO_ParseMgmtLqiRsp_0
   3207            {
   3208              neighborLqiEntries = *msg++;
   \   00001A   E0           MOVX      A,@DPTR
   \   00001B   F5..         MOV       ?V6,A
   3209              startIndex = *msg++;
   \   00001D   A3           INC       DPTR
   \   00001E   E0           MOVX      A,@DPTR
   \   00001F   F5..         MOV       ?V5,A
   3210              neighborLqiCount = *msg++;
   \   000021   8E82         MOV       DPL,R6
   \   000023   8F83         MOV       DPH,R7
   \   000025   A3           INC       DPTR
   \   000026   A3           INC       DPTR
   \   000027   E0           MOVX      A,@DPTR
   \   000028   F5..         MOV       ?V4,A
   \   00002A   EE           MOV       A,R6
   \   00002B   2403         ADD       A,#0x3
   \   00002D   FE           MOV       R6,A
   \   00002E   5001         JNC       ??ZDO_ParseMgmtLqiRsp_0
   \   000030   0F           INC       R7
   3211            }
   3212          
   3213            // Allocate a buffer big enough to handle the list.
   3214            pRsp = (ZDO_MgmtLqiRsp_t *)osal_mem_alloc(
   3215                      sizeof( ZDO_MgmtLqiRsp_t ) + (neighborLqiCount * sizeof( ZDP_MgmtLqiItem_t )) );
   \                     ??ZDO_ParseMgmtLqiRsp_0:
   \   000031                ; Setup parameters for call to function osal_mem_alloc
   \   000031   E5..         MOV       A,?V4
   \   000033   75..1A       MOV       ?B,#0x1a
   \   000036   A4           MUL       AB
   \   000037   A9..         MOV       R1,?B
   \   000039   2404         ADD       A,#0x4
   \   00003B   FA           MOV       R2,A
   \   00003C   E4           CLR       A
   \   00003D   39           ADDC      A,R1
   \   00003E   12....       LCALL     ?Subroutine153 & 0xFFFF
   3216            if ( pRsp )
   \                     ??CrossCallReturnLabel_239:
   \   000041   7003         JNZ       $+5
   \   000043   02....       LJMP      ??ZDO_ParseMgmtLqiRsp_1 & 0xFFFF
   3217            {
   3218              uint8 x;
   3219              ZDP_MgmtLqiItem_t *pList = pRsp->list;
   \   000046   12....       LCALL     ?Subroutine168 & 0xFFFF
   3220              pRsp->status = status;
   \                     ??CrossCallReturnLabel_272:
   \   000049   12....       LCALL     ?Subroutine11 & 0xFFFF
   3221              pRsp->neighborLqiEntries = neighborLqiEntries;
   3222              pRsp->startIndex = startIndex;
   3223              pRsp->neighborLqiCount = neighborLqiCount;
   3224          
   3225              for ( x = 0; x < neighborLqiCount; x++ )
   \                     ??CrossCallReturnLabel_2:
   \   00004C   02....       LJMP      ??ZDO_ParseMgmtLqiRsp_2 & 0xFFFF
   3226              {
   3227                uint8 tmp;
   3228          
   3229                pList->panID = 0; // This isn't in the record, why is it in the structure?
   \                     ??ZDO_ParseMgmtLqiRsp_3:
   \   00004F   85..82       MOV       DPL,?V0
   \   000052   85..83       MOV       DPH,?V1
   \   000055   E4           CLR       A
   \   000056   F0           MOVX      @DPTR,A
   \   000057   A3           INC       DPTR
   \   000058   F0           MOVX      @DPTR,A
   3230                osal_cpyExtAddr(pList->extPanID, msg);   //Copy extended PAN ID
   \   000059                ; Setup parameters for call to function sAddrExtCpy
   \   000059   EE           MOV       A,R6
   \   00005A   FC           MOV       R4,A
   \   00005B   EF           MOV       A,R7
   \   00005C   FD           MOV       R5,A
   \   00005D   E5..         MOV       A,?V0
   \   00005F   2402         ADD       A,#0x2
   \   000061   12....       LCALL     ?Subroutine56 & 0xFFFF
   3231                msg += Z_EXTADDR_LEN;
   \                     ??CrossCallReturnLabel_668:
   \   000064   5001         JNC       ??ZDO_ParseMgmtLqiRsp_4
   \   000066   0F           INC       R7
   3232          
   3233                osal_cpyExtAddr(pList->extAddr, msg);   //Copy extended address
   \                     ??ZDO_ParseMgmtLqiRsp_4:
   \   000067                ; Setup parameters for call to function sAddrExtCpy
   \   000067   FC           MOV       R4,A
   \   000068   EF           MOV       A,R7
   \   000069   FD           MOV       R5,A
   \   00006A   E5..         MOV       A,?V0
   \   00006C   240A         ADD       A,#0xa
   \   00006E   12....       LCALL     ?Subroutine56 & 0xFFFF
   3234                msg += Z_EXTADDR_LEN;
   \                     ??CrossCallReturnLabel_669:
   \   000071   5001         JNC       ??ZDO_ParseMgmtLqiRsp_5
   \   000073   0F           INC       R7
   3235          
   3236                pList->nwkAddr = BUILD_UINT16( msg[0], msg[1] );
   \                     ??ZDO_ParseMgmtLqiRsp_5:
   \   000074   F582         MOV       DPL,A
   \   000076   8F83         MOV       DPH,R7
   \   000078   12....       LCALL     ??Subroutine290_0 & 0xFFFF
   \                     ??CrossCallReturnLabel_702:
   \   00007B   F9           MOV       R1,A
   \   00007C   E5..         MOV       A,?V0
   \   00007E   2412         ADD       A,#0x12
   \   000080   12....       LCALL     ??Subroutine280_0 & 0xFFFF
   \                     ??CrossCallReturnLabel_628:
   \   000083   EA           MOV       A,R2
   \   000084   12....       LCALL     ?Subroutine28 & 0xFFFF
   3237                msg += 2;
   3238          
   3239                tmp = *msg++;
   \                     ??CrossCallReturnLabel_34:
   \   000087   F8           MOV       R0,A
   3240                pList->devType = tmp & 0x03;
   \   000088   7403         MOV       A,#0x3
   \   00008A   58           ANL       A,R0
   \   00008B   C0E0         PUSH      A
   \   00008D   E5..         MOV       A,?V0
   \   00008F   2414         ADD       A,#0x14
   \   000091   12....       LCALL     ??Subroutine280_0 & 0xFFFF
   \                     ??CrossCallReturnLabel_629:
   \   000094   D0E0         POP       A
   \   000096   F0           MOVX      @DPTR,A
   3241                pList->rxOnIdle = (tmp >> 2) & 0x03;
   \   000097   E8           MOV       A,R0
   \   000098   13           RRC       A
   \   000099   13           RRC       A
   \   00009A   543F         ANL       A,#0x3f
   \   00009C   5403         ANL       A,#0x3
   \   00009E   C0E0         PUSH      A
   \   0000A0   E5..         MOV       A,?V0
   \   0000A2   2415         ADD       A,#0x15
   \   0000A4   12....       LCALL     ??Subroutine280_0 & 0xFFFF
   \                     ??CrossCallReturnLabel_630:
   \   0000A7   D0E0         POP       A
   \   0000A9   F0           MOVX      @DPTR,A
   3242                pList->relation = (tmp >> 4) & 0x07;
   \   0000AA   E8           MOV       A,R0
   \   0000AB   C4           SWAP      A
   \   0000AC   540F         ANL       A,#0xf
   \   0000AE   5407         ANL       A,#0x7
   \   0000B0   C0E0         PUSH      A
   \   0000B2   E5..         MOV       A,?V0
   \   0000B4   2416         ADD       A,#0x16
   \   0000B6   12....       LCALL     ??Subroutine280_0 & 0xFFFF
   \                     ??CrossCallReturnLabel_631:
   \   0000B9   D0E0         POP       A
   \   0000BB   12....       LCALL     ?Subroutine19 & 0xFFFF
   3243          
   3244                pList->permit = (*msg++) & 0x03;
   \                     ??CrossCallReturnLabel_18:
   \   0000BE   5403         ANL       A,#0x3
   \   0000C0   C0E0         PUSH      A
   \   0000C2   E5..         MOV       A,?V0
   \   0000C4   2417         ADD       A,#0x17
   \   0000C6   12....       LCALL     ??Subroutine280_0 & 0xFFFF
   \                     ??CrossCallReturnLabel_632:
   \   0000C9   D0E0         POP       A
   \   0000CB   12....       LCALL     ?Subroutine177 & 0xFFFF
   3245          
   3246                pList->depth = *msg++;
   \                     ??CrossCallReturnLabel_287:
   \   0000CE   E0           MOVX      A,@DPTR
   \   0000CF   C0E0         PUSH      A
   \   0000D1   E5..         MOV       A,?V0
   \   0000D3   2418         ADD       A,#0x18
   \   0000D5   12....       LCALL     ??Subroutine280_0 & 0xFFFF
   \                     ??CrossCallReturnLabel_633:
   \   0000D8   D0E0         POP       A
   \   0000DA   12....       LCALL     ?Subroutine31 & 0xFFFF
   3247          
   3248                pList->lqi = *msg++;
   \                     ??CrossCallReturnLabel_41:
   \   0000DD   C0E0         PUSH      A
   \   0000DF   E5..         MOV       A,?V0
   \   0000E1   2419         ADD       A,#0x19
   \   0000E3   12....       LCALL     ??Subroutine280_0 & 0xFFFF
   \                     ??CrossCallReturnLabel_634:
   \   0000E6   D0E0         POP       A
   \   0000E8   F0           MOVX      @DPTR,A
   \   0000E9   EE           MOV       A,R6
   \   0000EA   2406         ADD       A,#0x6
   \   0000EC   FE           MOV       R6,A
   \   0000ED   5001         JNC       ??ZDO_ParseMgmtLqiRsp_6
   \   0000EF   0F           INC       R7
   3249                pList++;
   \                     ??ZDO_ParseMgmtLqiRsp_6:
   \   0000F0   E5..         MOV       A,?V0
   \   0000F2   241A         ADD       A,#0x1a
   \   0000F4   F5..         MOV       ?V0,A
   \   0000F6   5002         JNC       ??ZDO_ParseMgmtLqiRsp_7
   \   0000F8   05..         INC       ?V1
   3250              }
   \                     ??ZDO_ParseMgmtLqiRsp_7:
   \   0000FA   05..         INC       ?V5
   \                     ??ZDO_ParseMgmtLqiRsp_2:
   \   0000FC   E5..         MOV       A,?V5
   \   0000FE   C3           CLR       C
   \   0000FF   95..         SUBB      A,?V4
   \   000101   5003         JNC       $+5
   \   000103   02....       LJMP      ??ZDO_ParseMgmtLqiRsp_3 & 0xFFFF
   3251            }
   3252          
   3253            return ( pRsp );
   \                     ??ZDO_ParseMgmtLqiRsp_1:
   \   000106   02....       LJMP      ?Subroutine4 & 0xFFFF
   3254          }

   \                                 In  segment BANKED_CODE, align 1, keep-with-next
   \                     ?Subroutine168:
   \   000000   EA           MOV       A,R2
   \   000001   2404         ADD       A,#0x4
   \   000003   F5..         MOV       ?V0,A
   \   000005   E4           CLR       A
   \   000006   35..         ADDC      A,?V3
   \   000008   F5..         MOV       ?V1,A
   \   00000A   22           RET

   \                                 In  segment BANKED_CODE, align 1, keep-with-next
   \                     ?Subroutine153:
   \   000000   FB           MOV       R3,A
   \   000001   12....       LCALL     `??osal_mem_alloc::?relay`; Banked call to: osal_mem_alloc
   \   000004   8A..         MOV       ?V2,R2
   \   000006   8B..         MOV       ?V3,R3
   \   000008   EA           MOV       A,R2
   \   000009   4B           ORL       A,R3
   \   00000A   22           RET

   \                                 In  segment BANKED_CODE, align 1, keep-with-next
   \                     ?Subroutine70:
   \   000000   12....       LCALL     ?Subroutine202 & 0xFFFF
   \                     ??CrossCallReturnLabel_326:
   \   000003   12....       LCALL     ?Subroutine195 & 0xFFFF
   \                     ??CrossCallReturnLabel_683:
   \   000006   8E82         MOV       DPL,R6
   \   000008   F583         MOV       DPH,A
   \   00000A   E0           MOVX      A,@DPTR
   \   00000B   22           RET

   \                                 In  segment BANKED_CODE, align 1, keep-with-next
   \                     ?Subroutine11:
   \   000000   8A82         MOV       DPL,R2
   \   000002   8B83         MOV       DPH,R3
   \   000004   E5..         MOV       A,?V7
   \   000006   F0           MOVX      @DPTR,A
   \   000007   A3           INC       DPTR
   \   000008   E5..         MOV       A,?V6
   \   00000A   12....       LCALL     ?Subroutine171 & 0xFFFF
   \                     ??CrossCallReturnLabel_678:
   \   00000D   A3           INC       DPTR
   \   00000E   E5..         MOV       A,?V5
   \   000010   12....       LCALL     ?Subroutine169 & 0xFFFF
   \                     ??CrossCallReturnLabel_275:
   \   000013   E5..         MOV       A,?V4
   \   000015   F0           MOVX      @DPTR,A
   \   000016   75..00       MOV       ?V5,#0x0
   \   000019   22           RET

   \                                 In  segment BANKED_CODE, align 1, keep-with-next
   \                     ?Subroutine28:
   \   000000   12....       LCALL     ?Subroutine176 & 0xFFFF
   \                     ??CrossCallReturnLabel_286:
   \   000003   A3           INC       DPTR
   \   000004   E0           MOVX      A,@DPTR
   \   000005   22           RET
   3255          
   3256          /*********************************************************************
   3257           * @fn          ZDO_ParseMgmNwkDiscRsp
   3258           *
   3259           * @brief       This function parses the incoming Management
   3260           *              Network Discover response.
   3261           *
   3262           * @param       inMsg - incoming message
   3263           *
   3264           * @return      pointer to parsed response.  This structure was
   3265           *          allocated using osal_mem_alloc, so it must be freed
   3266           *          by the calling function [osal_mem_free()].
   3267           */

   \                                 In  segment BANKED_CODE, align 1, keep-with-next
   3268          ZDO_MgmNwkDiscRsp_t *ZDO_ParseMgmNwkDiscRsp( zdoIncomingMsg_t *inMsg )
   \                     ZDO_ParseMgmNwkDiscRsp:
   3269          {
   \   000000                REQUIRE ?V0
   \   000000                REQUIRE ?V1
   \   000000                REQUIRE ?V2
   \   000000                REQUIRE ?V3
   \   000000                REQUIRE ?V4
   \   000000                REQUIRE ?V5
   \   000000                REQUIRE ?V6
   \   000000                REQUIRE ?V7
   \   000000   74F0         MOV       A,#-0x10
   \   000002   12....       LCALL     ?BANKED_ENTER_XDATA
   \   000005                ; Saved register size: 16
   \   000005                ; Auto size: 0
   3270            ZDO_MgmNwkDiscRsp_t *pRsp;
   3271            uint8 status;
   3272            uint8 networkCount = 0;
   \   000005   75..00       MOV       ?V1,#0x0
   3273            uint8 startIndex = 0;
   \   000008   75..00       MOV       ?V0,#0x0
   3274            uint8 networkListCount = 0;
   \   00000B   75..00       MOV       ?V4,#0x0
   3275            uint8 *msg;
   3276          
   3277            msg = inMsg->asdu;
   \   00000E   12....       LCALL     ?Subroutine70 & 0xFFFF
   3278            status = *msg++;
   \                     ??CrossCallReturnLabel_107:
   \   000011   F5..         MOV       ?V5,A
   \   000013   A3           INC       DPTR
   \   000014   AE82         MOV       R6,DPL
   \   000016   AF83         MOV       R7,DPH
   3279          
   3280            if ( status == ZSuccess )
   \   000018   7017         JNZ       ??ZDO_ParseMgmNwkDiscRsp_0
   3281            {
   3282              networkCount = *msg++;
   \   00001A   E0           MOVX      A,@DPTR
   \   00001B   F5..         MOV       ?V1,A
   3283              startIndex = *msg++;
   \   00001D   A3           INC       DPTR
   \   00001E   E0           MOVX      A,@DPTR
   \   00001F   F5..         MOV       ?V0,A
   3284              networkListCount = *msg++;
   \   000021   8E82         MOV       DPL,R6
   \   000023   8F83         MOV       DPH,R7
   \   000025   A3           INC       DPTR
   \   000026   A3           INC       DPTR
   \   000027   E0           MOVX      A,@DPTR
   \   000028   F5..         MOV       ?V4,A
   \   00002A   EE           MOV       A,R6
   \   00002B   2403         ADD       A,#0x3
   \   00002D   FE           MOV       R6,A
   \   00002E   5001         JNC       ??ZDO_ParseMgmNwkDiscRsp_0
   \   000030   0F           INC       R7
   3285            }
   3286          
   3287            // Allocate a buffer big enough to handle the list.
   3288            pRsp = (ZDO_MgmNwkDiscRsp_t *)osal_mem_alloc( sizeof( ZDO_MgmNwkDiscRsp_t )
   3289                                            + (networkListCount * sizeof( mgmtNwkDiscItem_t )) );
   \                     ??ZDO_ParseMgmNwkDiscRsp_0:
   \   000031                ; Setup parameters for call to function osal_mem_alloc
   \   000031   E5..         MOV       A,?V4
   \   000033   F5..         MOV       ?V2,A
   \   000035   75..00       MOV       ?V3,#0x0
   \   000038   7404         MOV       A,#0x4
   \   00003A   78..         MOV       R0,#?V2
   \   00003C   12....       LCALL     ?S_SHL
   \   00003F   E5..         MOV       A,?V2
   \   000041   2404         ADD       A,#0x4
   \   000043   FA           MOV       R2,A
   \   000044   E4           CLR       A
   \   000045   35..         ADDC      A,?V3
   \   000047   12....       LCALL     ?Subroutine153 & 0xFFFF
   3290            if ( pRsp )
   \                     ??CrossCallReturnLabel_240:
   \   00004A   7003         JNZ       $+5
   \   00004C   02....       LJMP      ??ZDO_ParseMgmNwkDiscRsp_1 & 0xFFFF
   3291            {
   3292              uint8 x;
   3293              mgmtNwkDiscItem_t *pList;
   3294          
   3295              pRsp->status = status;
   \   00004F   8A82         MOV       DPL,R2
   \   000051   8B83         MOV       DPH,R3
   \   000053   E5..         MOV       A,?V5
   \   000055   F0           MOVX      @DPTR,A
   3296              pRsp->networkCount = networkCount;
   \   000056   A3           INC       DPTR
   \   000057   E5..         MOV       A,?V1
   \   000059   12....       LCALL     ??Subroutine284_0 & 0xFFFF
   3297              pRsp->startIndex = startIndex;
   \                     ??CrossCallReturnLabel_671:
   \   00005C   A3           INC       DPTR
   \   00005D   E5..         MOV       A,?V0
   \   00005F   12....       LCALL     ?Subroutine42 & 0xFFFF
   3298              pRsp->networkListCount = networkListCount;
   \                     ??CrossCallReturnLabel_64:
   \   000062   E5..         MOV       A,?V4
   \   000064   F0           MOVX      @DPTR,A
   3299              pList = pRsp->list;
   \   000065   12....       LCALL     ?Subroutine168 & 0xFFFF
   3300          
   3301              for ( x = 0; x < networkListCount; x++ )
   \                     ??CrossCallReturnLabel_273:
   \   000068   75..00       MOV       ?V5,#0x0
   \   00006B   8075         SJMP      ??ZDO_ParseMgmNwkDiscRsp_2
   3302              {
   3303                osal_cpyExtAddr(pList->extendedPANID, msg);   //Copy extended PAN ID
   \                     ??ZDO_ParseMgmNwkDiscRsp_3:
   \   00006D                ; Setup parameters for call to function sAddrExtCpy
   \   00006D   EE           MOV       A,R6
   \   00006E   FC           MOV       R4,A
   \   00006F   EF           MOV       A,R7
   \   000070   FD           MOV       R5,A
   \   000071   AA..         MOV       R2,?V0
   \   000073   AB..         MOV       R3,?V1
   \   000075   12....       LCALL     `??sAddrExtCpy::?relay`; Banked call to: sAddrExtCpy
   3304                pList->PANId = BUILD_UINT16( msg[0], msg[1] );
   \   000078   12....       LCALL     ?Subroutine73 & 0xFFFF
   \                     ??CrossCallReturnLabel_115:
   \   00007B   A3           INC       DPTR
   \   00007C   12....       LCALL     ?Subroutine44 & 0xFFFF
   3305                msg += Z_EXTADDR_LEN;
   3306          
   3307                pList->logicalChannel = *msg++;
   \                     ??CrossCallReturnLabel_68:
   \   00007F   12....       LCALL     ?Subroutine76 & 0xFFFF
   3308                pList->stackProfile = (*msg) & 0x0F;
   \                     ??CrossCallReturnLabel_121:
   \   000082   EE           MOV       A,R6
   \   000083   2409         ADD       A,#0x9
   \   000085   F8           MOV       R0,A
   \   000086   12....       LCALL     ?Subroutine133 & 0xFFFF
   \                     ??CrossCallReturnLabel_208:
   \   000089   C0E0         PUSH      A
   \   00008B   E5..         MOV       A,?V0
   \   00008D   240B         ADD       A,#0xb
   \   00008F   12....       LCALL     ??Subroutine280_0 & 0xFFFF
   \                     ??CrossCallReturnLabel_635:
   \   000092   D0E0         POP       A
   \   000094   12....       LCALL     ?Subroutine49 & 0xFFFF
   3309                pList->version = (*msg++ >> 4) & 0x0F;
   \                     ??CrossCallReturnLabel_72:
   \   000097   C0E0         PUSH      A
   \   000099   12....       LCALL     ?Subroutine150 & 0xFFFF
   \                     ??CrossCallReturnLabel_639:
   \   00009C   D0E0         POP       A
   \   00009E   F0           MOVX      @DPTR,A
   3310                pList->beaconOrder = (*msg) & 0x0F;
   \   00009F   EE           MOV       A,R6
   \   0000A0   240A         ADD       A,#0xa
   \   0000A2   08           INC       R0
   \   0000A3   12....       LCALL     ?Subroutine133 & 0xFFFF
   \                     ??CrossCallReturnLabel_209:
   \   0000A6   C0E0         PUSH      A
   \   0000A8   E5..         MOV       A,?V0
   \   0000AA   240D         ADD       A,#0xd
   \   0000AC   12....       LCALL     ??Subroutine280_0 & 0xFFFF
   \                     ??CrossCallReturnLabel_636:
   \   0000AF   D0E0         POP       A
   \   0000B1   12....       LCALL     ?Subroutine49 & 0xFFFF
   3311                pList->superFrameOrder = (*msg++ >> 4) & 0x0F;
   \                     ??CrossCallReturnLabel_73:
   \   0000B4   C0E0         PUSH      A
   \   0000B6   E5..         MOV       A,?V0
   \   0000B8   12....       LCALL     ??Subroutine291_0 & 0xFFFF
   \                     ??CrossCallReturnLabel_708:
   \   0000BB   12....       LCALL     ??Subroutine281_0 & 0xFFFF
   \                     ??CrossCallReturnLabel_623:
   \   0000BE   D0E0         POP       A
   \   0000C0   F0           MOVX      @DPTR,A
   3312                pList->permitJoining = *msg++;
   \   0000C1   EE           MOV       A,R6
   \   0000C2   240B         ADD       A,#0xb
   \   0000C4   12....       LCALL     ??Subroutine251_0 & 0xFFFF
   \                     ??CrossCallReturnLabel_489:
   \   0000C7   C0E0         PUSH      A
   \   0000C9   12....       LCALL     ?Subroutine149 & 0xFFFF
   \                     ??CrossCallReturnLabel_232:
   \   0000CC   D0E0         POP       A
   \   0000CE   F0           MOVX      @DPTR,A
   \   0000CF   EE           MOV       A,R6
   \   0000D0   240C         ADD       A,#0xc
   \   0000D2   FE           MOV       R6,A
   \   0000D3   5001         JNC       ??ZDO_ParseMgmNwkDiscRsp_4
   \   0000D5   0F           INC       R7
   3313                pList++;
   \                     ??ZDO_ParseMgmNwkDiscRsp_4:
   \   0000D6   E5..         MOV       A,?V0
   \   0000D8   2410         ADD       A,#0x10
   \   0000DA   F5..         MOV       ?V0,A
   \   0000DC   5002         JNC       ??ZDO_ParseMgmNwkDiscRsp_5
   \   0000DE   05..         INC       ?V1
   3314              }
   \                     ??ZDO_ParseMgmNwkDiscRsp_5:
   \   0000E0   05..         INC       ?V5
   \                     ??ZDO_ParseMgmNwkDiscRsp_2:
   \   0000E2   E5..         MOV       A,?V5
   \   0000E4   C3           CLR       C
   \   0000E5   95..         SUBB      A,?V4
   \   0000E7   4084         JC        ??ZDO_ParseMgmNwkDiscRsp_3
   3315            }
   3316          
   3317            return ( pRsp );
   \                     ??ZDO_ParseMgmNwkDiscRsp_1:
   \   0000E9   02....       LJMP      ?Subroutine4 & 0xFFFF
   3318          }

   \                                 In  segment BANKED_CODE, align 1, keep-with-next
   \                     ?Subroutine133:
   \   000000   E4           CLR       A
   \   000001   3F           ADDC      A,R7
   \   000002   F9           MOV       R1,A
   \   000003   8882         MOV       DPL,R0
   \   000005   F583         MOV       DPH,A
   \   000007   E0           MOVX      A,@DPTR
   \   000008   540F         ANL       A,#0xf
   \   00000A   22           RET

   \                                 In  segment BANKED_CODE, align 1, keep-with-next
   \                     ?Subroutine49:
   \   000000   12....       LCALL     ?Subroutine180 & 0xFFFF
   \                     ??CrossCallReturnLabel_296:
   \   000003   E0           MOVX      A,@DPTR
   \   000004   C4           SWAP      A
   \   000005   540F         ANL       A,#0xf
   \   000007   22           RET

   \                                 In  segment BANKED_CODE, align 1, keep-with-next
   \                     ?Subroutine42:
   \   000000   12....       LCALL     ?Subroutine169 & 0xFFFF
   \                     ??CrossCallReturnLabel_274:
   \   000003   22           RET

   \                                 In  segment BANKED_CODE, align 1, keep-with-next
   \                     ?Subroutine76:
   \   000000   A3           INC       DPTR
   \   000001   A3           INC       DPTR
   \   000002   12....       LCALL     ?Subroutine190 & 0xFFFF
   \                     ??CrossCallReturnLabel_308:
   \   000005   A3           INC       DPTR
   \   000006   A3           INC       DPTR
   \   000007   A3           INC       DPTR
   \   000008   A3           INC       DPTR
   \   000009   A3           INC       DPTR
   \   00000A   F0           MOVX      @DPTR,A
   \   00000B   22           RET

   \                                 In  segment BANKED_CODE, align 1, keep-with-next
   \                     ?Subroutine190:
   \   000000   A3           INC       DPTR
   \   000001   A3           INC       DPTR
   \   000002   A3           INC       DPTR
   \   000003   A3           INC       DPTR
   \   000004   A3           INC       DPTR
   \   000005   E0           MOVX      A,@DPTR
   \   000006   85..82       MOV       DPL,?V0
   \   000009   85..83       MOV       DPH,?V1
   \   00000C   A3           INC       DPTR
   \   00000D   A3           INC       DPTR
   \   00000E   A3           INC       DPTR
   \   00000F   A3           INC       DPTR
   \   000010   A3           INC       DPTR
   \   000011   22           RET

   \                                 In  segment BANKED_CODE, align 1, keep-with-next
   \                     ?Subroutine73:
   \   000000   8E82         MOV       DPL,R6
   \   000002   8F83         MOV       DPH,R7
   \   000004   12....       LCALL     ?Subroutine189 & 0xFFFF
   \                     ??CrossCallReturnLabel_367:
   \   000007   85..82       MOV       DPL,?V0
   \   00000A   85..83       MOV       DPH,?V1
   \   00000D   A3           INC       DPTR
   \   00000E   A3           INC       DPTR
   \   00000F   A3           INC       DPTR
   \   000010   A3           INC       DPTR
   \   000011   A3           INC       DPTR
   \   000012   A3           INC       DPTR
   \   000013   A3           INC       DPTR
   \   000014   22           RET
   3319          
   3320          /*********************************************************************
   3321           * @fn          ZDO_ParseMgmtRtgRsp
   3322           *
   3323           * @brief       This function parses the incoming Management
   3324           *              Routing response.
   3325           *
   3326           * @param       inMsg - incoming message
   3327           *
   3328           * @return      a pointer to parsed response structure (NULL if not allocated).
   3329           *          This structure was allocated using osal_mem_alloc, so it must be freed
   3330           *          by the calling function [osal_mem_free()].
   3331           */

   \                                 In  segment BANKED_CODE, align 1, keep-with-next
   3332          ZDO_MgmtRtgRsp_t *ZDO_ParseMgmtRtgRsp( zdoIncomingMsg_t *inMsg )
   \                     ZDO_ParseMgmtRtgRsp:
   3333          {
   \   000000                REQUIRE ?V0
   \   000000                REQUIRE ?V1
   \   000000                REQUIRE ?V2
   \   000000                REQUIRE ?V3
   \   000000                REQUIRE ?V4
   \   000000                REQUIRE ?V5
   \   000000   74F2         MOV       A,#-0xe
   \   000002   12....       LCALL     ?BANKED_ENTER_XDATA
   \   000005                ; Saved register size: 14
   \   000005                ; Auto size: 0
   3334            ZDO_MgmtRtgRsp_t *pRsp;
   3335            uint8 status;
   3336            uint8 rtgCount = 0;
   \   000005   75..00       MOV       ?V2,#0x0
   3337            uint8 startIndex = 0;
   \   000008   75..00       MOV       ?V1,#0x0
   3338            uint8 rtgListCount = 0;
   \   00000B   75..00       MOV       ?V0,#0x0
   3339            uint8 *msg;
   3340          
   3341            msg = inMsg->asdu;
   \   00000E   12....       LCALL     ?Subroutine70 & 0xFFFF
   3342          
   3343            status = *msg++;
   \                     ??CrossCallReturnLabel_108:
   \   000011   F5..         MOV       ?V3,A
   \   000013   A3           INC       DPTR
   \   000014   AE82         MOV       R6,DPL
   \   000016   AF83         MOV       R7,DPH
   3344            if ( status == ZSuccess )
   \   000018   7015         JNZ       ??ZDO_ParseMgmtRtgRsp_0
   3345            {
   3346              rtgCount = *msg++;
   \   00001A   12....       LCALL     ??Subroutine239_0 & 0xFFFF
   3347              startIndex = *msg++;
   \                     ??CrossCallReturnLabel_399:
   \   00001D   F5..         MOV       ?V1,A
   3348              rtgListCount = *msg++;
   \   00001F   8E82         MOV       DPL,R6
   \   000021   8F83         MOV       DPH,R7
   \   000023   A3           INC       DPTR
   \   000024   A3           INC       DPTR
   \   000025   E0           MOVX      A,@DPTR
   \   000026   F5..         MOV       ?V0,A
   \   000028   EE           MOV       A,R6
   \   000029   2403         ADD       A,#0x3
   \   00002B   FE           MOV       R6,A
   \   00002C   5001         JNC       ??ZDO_ParseMgmtRtgRsp_0
   \   00002E   0F           INC       R7
   3349            }
   3350          
   3351            // Allocate a buffer big enough to handle the list
   3352            pRsp = (ZDO_MgmtRtgRsp_t *)osal_mem_alloc(
   3353                    sizeof( ZDO_MgmtRtgRsp_t ) + (rtgListCount * sizeof( rtgItem_t )) );
   \                     ??ZDO_ParseMgmtRtgRsp_0:
   \   00002F                ; Setup parameters for call to function osal_mem_alloc
   \   00002F   E5..         MOV       A,?V0
   \   000031   75..07       MOV       ?B,#0x7
   \   000034   A4           MUL       AB
   \   000035   A9..         MOV       R1,?B
   \   000037   2404         ADD       A,#0x4
   \   000039   FA           MOV       R2,A
   \   00003A   E4           CLR       A
   \   00003B   39           ADDC      A,R1
   \   00003C   FB           MOV       R3,A
   \   00003D   12....       LCALL     `??osal_mem_alloc::?relay`; Banked call to: osal_mem_alloc
   3354            if ( pRsp )
   \   000040   EA           MOV       A,R2
   \   000041   4B           ORL       A,R3
   \   000042   6072         JZ        ??ZDO_ParseMgmtRtgRsp_1
   3355            {
   3356              uint8 x;
   3357              rtgItem_t *pList = pRsp->list;
   \   000044   EA           MOV       A,R2
   \   000045   2404         ADD       A,#0x4
   \   000047   F8           MOV       R0,A
   \   000048   E4           CLR       A
   \   000049   3B           ADDC      A,R3
   \   00004A   F9           MOV       R1,A
   3358              pRsp->status = status;
   \   00004B   8A82         MOV       DPL,R2
   \   00004D   8B83         MOV       DPH,R3
   \   00004F   E5..         MOV       A,?V3
   \   000051   F0           MOVX      @DPTR,A
   3359              pRsp->rtgCount = rtgCount;
   \   000052   A3           INC       DPTR
   \   000053   E5..         MOV       A,?V2
   \   000055   12....       LCALL     ??Subroutine284_0 & 0xFFFF
   3360              pRsp->startIndex = startIndex;
   \                     ??CrossCallReturnLabel_672:
   \   000058   A3           INC       DPTR
   \   000059   E5..         MOV       A,?V1
   \   00005B   12....       LCALL     ?Subroutine42 & 0xFFFF
   3361              pRsp->rtgListCount = rtgListCount;
   \                     ??CrossCallReturnLabel_65:
   \   00005E   E5..         MOV       A,?V0
   \   000060   F0           MOVX      @DPTR,A
   3362          
   3363              for ( x = 0; x < rtgListCount; x++ )
   \   000061   7C00         MOV       R4,#0x0
   \   000063   804B         SJMP      ??ZDO_ParseMgmtRtgRsp_2
   3364              {
   3365                uint8 statOpt;
   3366          
   3367                pList->dstAddress = BUILD_UINT16( msg[0], msg[1] );
   \                     ??ZDO_ParseMgmtRtgRsp_3:
   \   000065   12....       LCALL     ?Subroutine90 & 0xFFFF
   \                     ??CrossCallReturnLabel_143:
   \   000068   F0           MOVX      @DPTR,A
   \   000069   A3           INC       DPTR
   \   00006A   E5..         MOV       A,?V3
   \   00006C   12....       LCALL     ?Subroutine52 & 0xFFFF
   3368                msg += 2;
   3369                statOpt = *msg++;
   \                     ??CrossCallReturnLabel_80:
   \   00006F   FD           MOV       R5,A
   \   000070   EE           MOV       A,R6
   \   000071   2403         ADD       A,#0x3
   \   000073   FE           MOV       R6,A
   \   000074   5001         JNC       ??ZDO_ParseMgmtRtgRsp_4
   \   000076   0F           INC       R7
   3370                pList->status = (statOpt & 0x07);
   \                     ??ZDO_ParseMgmtRtgRsp_4:
   \   000077   7407         MOV       A,#0x7
   \   000079   5D           ANL       A,R5
   \   00007A   8882         MOV       DPL,R0
   \   00007C   8983         MOV       DPH,R1
   \   00007E   A3           INC       DPTR
   \   00007F   A3           INC       DPTR
   \   000080   A3           INC       DPTR
   \   000081   A3           INC       DPTR
   \   000082   A3           INC       DPTR
   \   000083   F0           MOVX      @DPTR,A
   3371                pList->options = ((statOpt >> 3) & 0x07);
   \   000084   ED           MOV       A,R5
   \   000085   13           RRC       A
   \   000086   13           RRC       A
   \   000087   13           RRC       A
   \   000088   541F         ANL       A,#0x1f
   \   00008A   5407         ANL       A,#0x7
   \   00008C   8882         MOV       DPL,R0
   \   00008E   8983         MOV       DPH,R1
   \   000090   A3           INC       DPTR
   \   000091   A3           INC       DPTR
   \   000092   A3           INC       DPTR
   \   000093   A3           INC       DPTR
   \   000094   A3           INC       DPTR
   \   000095   A3           INC       DPTR
   \   000096   F0           MOVX      @DPTR,A
   3372                pList->nextHopAddress = BUILD_UINT16( msg[0], msg[1] );
   \   000097   12....       LCALL     ?Subroutine90 & 0xFFFF
   \                     ??CrossCallReturnLabel_144:
   \   00009A   A3           INC       DPTR
   \   00009B   A3           INC       DPTR
   \   00009C   F0           MOVX      @DPTR,A
   \   00009D   A3           INC       DPTR
   \   00009E   E5..         MOV       A,?V3
   \   0000A0   F0           MOVX      @DPTR,A
   3373                msg += 2;
   \   0000A1   EE           MOV       A,R6
   \   0000A2   2402         ADD       A,#0x2
   \   0000A4   FE           MOV       R6,A
   \   0000A5   5001         JNC       ??ZDO_ParseMgmtRtgRsp_5
   \   0000A7   0F           INC       R7
   3374                pList++;
   \                     ??ZDO_ParseMgmtRtgRsp_5:
   \   0000A8   E8           MOV       A,R0
   \   0000A9   2407         ADD       A,#0x7
   \   0000AB   F8           MOV       R0,A
   \   0000AC   5001         JNC       ??ZDO_ParseMgmtRtgRsp_6
   \   0000AE   09           INC       R1
   3375              }
   \                     ??ZDO_ParseMgmtRtgRsp_6:
   \   0000AF   0C           INC       R4
   \                     ??ZDO_ParseMgmtRtgRsp_2:
   \   0000B0   EC           MOV       A,R4
   \   0000B1   C3           CLR       C
   \   0000B2   95..         SUBB      A,?V0
   \   0000B4   40AF         JC        ??ZDO_ParseMgmtRtgRsp_3
   3376            }
   3377          
   3378            return ( pRsp );
   \                     ??ZDO_ParseMgmtRtgRsp_1:
   \   0000B6   80..         SJMP      ??Subroutine292_0
   3379          }

   \                                 In  segment BANKED_CODE, align 1, keep-with-next
   \                     ?Subroutine90:
   \   000000   8E82         MOV       DPL,R6
   \   000002   8F83         MOV       DPH,R7
   \   000004   E0           MOVX      A,@DPTR
   \   000005   F5..         MOV       ?V4,A
   \   000007   A3           INC       DPTR
   \   000008   E0           MOVX      A,@DPTR
   \   000009   F5..         MOV       ?V3,A
   \   00000B   E5..         MOV       A,?V4
   \   00000D   8882         MOV       DPL,R0
   \   00000F   8983         MOV       DPH,R1
   \   000011   22           RET
   3380          
   3381          /*********************************************************************
   3382           * @fn          ZDO_ParseMgmtBindRsp
   3383           *
   3384           * @brief       This function parses the incoming Management
   3385           *              Binding response.
   3386           *
   3387           * @param       inMsg - pointer to message to parse
   3388           *
   3389           * @return      a pointer to parsed response structure (NULL if not allocated).
   3390           *          This structure was allocated using osal_mem_alloc, so it must be freed
   3391           *          by the calling function [osal_mem_free()].
   3392           */

   \                                 In  segment BANKED_CODE, align 1, keep-with-next
   3393          ZDO_MgmtBindRsp_t *ZDO_ParseMgmtBindRsp( zdoIncomingMsg_t *inMsg )
   \                     ZDO_ParseMgmtBindRsp:
   3394          {
   \   000000                REQUIRE ?V0
   \   000000                REQUIRE ?V1
   \   000000                REQUIRE ?V2
   \   000000                REQUIRE ?V3
   \   000000                REQUIRE ?V4
   \   000000                REQUIRE ?V5
   \   000000                REQUIRE ?V6
   \   000000                REQUIRE ?V7
   \   000000                REQUIRE ?V8
   \   000000                REQUIRE ?V9
   \   000000   74EE         MOV       A,#-0x12
   \   000002   12....       LCALL     ?BANKED_ENTER_XDATA
   \   000005                ; Saved register size: 18
   \   000005                ; Auto size: 0
   3395            ZDO_MgmtBindRsp_t *pRsp;
   3396            uint8 status;
   3397            uint8 bindingCount = 0;
   \   000005   75..00       MOV       ?V6,#0x0
   3398            uint8 startIndex = 0;
   \   000008   75..00       MOV       ?V5,#0x0
   3399            uint8 bindingListCount = 0;
   \   00000B   75..00       MOV       ?V4,#0x0
   3400            uint8 *msg;
   3401          
   3402            msg = inMsg->asdu;
   \   00000E   12....       LCALL     ?Subroutine143 & 0xFFFF
   \                     ??CrossCallReturnLabel_222:
   \   000011   12....       LCALL     ?Subroutine110 & 0xFFFF
   3403          
   3404            status = *msg++;
   \                     ??CrossCallReturnLabel_402:
   \   000014   85..82       MOV       DPL,?V2
   \   000017   F583         MOV       DPH,A
   \   000019   E0           MOVX      A,@DPTR
   \   00001A   F5..         MOV       ?V7,A
   \   00001C   A3           INC       DPTR
   \   00001D   8582..       MOV       ?V2,DPL
   \   000020   8583..       MOV       ?V3,DPH
   3405            if ( status == ZSuccess )
   \   000023   701C         JNZ       ??ZDO_ParseMgmtBindRsp_0
   3406            {
   3407              bindingCount = *msg++;
   \   000025   E0           MOVX      A,@DPTR
   \   000026   F5..         MOV       ?V6,A
   3408              startIndex = *msg++;
   \   000028   A3           INC       DPTR
   \   000029   E0           MOVX      A,@DPTR
   \   00002A   F5..         MOV       ?V5,A
   3409              bindingListCount = *msg++;
   \   00002C   85..82       MOV       DPL,?V2
   \   00002F   85..83       MOV       DPH,?V3
   \   000032   A3           INC       DPTR
   \   000033   A3           INC       DPTR
   \   000034   E0           MOVX      A,@DPTR
   \   000035   F5..         MOV       ?V4,A
   \   000037   E5..         MOV       A,?V2
   \   000039   2403         ADD       A,#0x3
   \   00003B   F5..         MOV       ?V2,A
   \   00003D   5002         JNC       ??ZDO_ParseMgmtBindRsp_0
   \   00003F   05..         INC       ?V3
   3410            }
   3411          
   3412            // Allocate a buffer big enough to handle the list
   3413            pRsp = (ZDO_MgmtBindRsp_t *)osal_mem_alloc(
   3414                    (sizeof ( ZDO_MgmtBindRsp_t ) + (bindingListCount * sizeof( apsBindingItem_t ))) );
   \                     ??ZDO_ParseMgmtBindRsp_0:
   \   000041                ; Setup parameters for call to function osal_mem_alloc
   \   000041   E5..         MOV       A,?V4
   \   000043   75..15       MOV       ?B,#0x15
   \   000046   A4           MUL       AB
   \   000047   A9..         MOV       R1,?B
   \   000049   2404         ADD       A,#0x4
   \   00004B   12....       LCALL     ?Subroutine146 & 0xFFFF
   3415            if ( pRsp )
   \                     ??CrossCallReturnLabel_228:
   \   00004E   7003         JNZ       $+5
   \   000050   02....       LJMP      ??ZDO_ParseMgmtBindRsp_1 & 0xFFFF
   3416            {
   3417              uint8 x;
   3418              apsBindingItem_t *pList = pRsp->list;
   \   000053   EA           MOV       A,R2
   \   000054   2404         ADD       A,#0x4
   \   000056   FE           MOV       R6,A
   \   000057   E4           CLR       A
   \   000058   35..         ADDC      A,?V1
   \   00005A   FF           MOV       R7,A
   3419              pRsp->status = status;
   \   00005B   12....       LCALL     ?Subroutine11 & 0xFFFF
   3420              pRsp->bindingCount = bindingCount;
   3421              pRsp->startIndex = startIndex;
   3422              pRsp->bindingListCount = bindingListCount;
   3423          
   3424              for ( x = 0; x < bindingListCount; x++ )
   \                     ??CrossCallReturnLabel_3:
   \   00005E   801F         SJMP      ??ZDO_ParseMgmtBindRsp_2
   3425              {
   3426                osal_cpyExtAddr( pList->srcAddr, msg );
   3427                msg += Z_EXTADDR_LEN;
   3428                pList->srcEP = *msg++;
   3429          
   3430                // Get the Cluster ID
   3431          
   3432                pList->clusterID = BUILD_UINT16( msg[0], msg[1] );
   3433                msg += 2;
   3434                pList->dstAddr.addrMode = *msg++;
   3435                if ( pList->dstAddr.addrMode == Addr64Bit )
   3436                {
   3437                  osal_cpyExtAddr( pList->dstAddr.addr.extAddr, msg );
   3438                  msg += Z_EXTADDR_LEN;
   3439                  pList->dstEP = *msg++;
   3440                }
   3441                else
   3442                {
   3443                  pList->dstAddr.addr.shortAddr = BUILD_UINT16( msg[0], msg[1] );
   \                     ??ZDO_ParseMgmtBindRsp_3:
   \   000060   85..82       MOV       DPL,?V2
   \   000063   85..83       MOV       DPH,?V3
   \   000066   12....       LCALL     ?Subroutine81 & 0xFFFF
   \                     ??CrossCallReturnLabel_130:
   \   000069   12....       LCALL     ??Subroutine277_0 & 0xFFFF
   3444                  msg += 2;
   \                     ??CrossCallReturnLabel_593:
   \   00006C   E5..         MOV       A,?V2
   \   00006E   2402         ADD       A,#0x2
   \   000070   F5..         MOV       ?V2,A
   \   000072   5002         JNC       ??ZDO_ParseMgmtBindRsp_4
   \   000074   05..         INC       ?V3
   3445                }
   3446          
   3447                pList++;
   \                     ??ZDO_ParseMgmtBindRsp_4:
   \   000076   EE           MOV       A,R6
   \   000077   2415         ADD       A,#0x15
   \   000079   FE           MOV       R6,A
   \   00007A   5001         JNC       ??ZDO_ParseMgmtBindRsp_5
   \   00007C   0F           INC       R7
   \                     ??ZDO_ParseMgmtBindRsp_5:
   \   00007D   05..         INC       ?V5
   \                     ??ZDO_ParseMgmtBindRsp_2:
   \   00007F   E5..         MOV       A,?V5
   \   000081   C3           CLR       C
   \   000082   95..         SUBB      A,?V4
   \   000084   506C         JNC       ??ZDO_ParseMgmtBindRsp_1
   \   000086                ; Setup parameters for call to function sAddrExtCpy
   \   000086   AC..         MOV       R4,?V2
   \   000088   AD..         MOV       R5,?V3
   \   00008A   EE           MOV       A,R6
   \   00008B   FA           MOV       R2,A
   \   00008C   EF           MOV       A,R7
   \   00008D   12....       LCALL     ?Subroutine55 & 0xFFFF
   \                     ??CrossCallReturnLabel_83:
   \   000090   8E82         MOV       DPL,R6
   \   000092   8F83         MOV       DPH,R7
   \   000094   A3           INC       DPTR
   \   000095   A3           INC       DPTR
   \   000096   A3           INC       DPTR
   \   000097   A3           INC       DPTR
   \   000098   A3           INC       DPTR
   \   000099   A3           INC       DPTR
   \   00009A   A3           INC       DPTR
   \   00009B   A3           INC       DPTR
   \   00009C   F0           MOVX      @DPTR,A
   \   00009D   E5..         MOV       A,?V2
   \   00009F   2409         ADD       A,#0x9
   \   0000A1   F5..         MOV       ?V2,A
   \   0000A3   5002         JNC       ??ZDO_ParseMgmtBindRsp_6
   \   0000A5   05..         INC       ?V3
   \                     ??ZDO_ParseMgmtBindRsp_6:
   \   0000A7   F582         MOV       DPL,A
   \   0000A9   85..83       MOV       DPH,?V3
   \   0000AC   12....       LCALL     ?Subroutine74 & 0xFFFF
   \                     ??CrossCallReturnLabel_118:
   \   0000AF   12....       LCALL     ??Subroutine276_0 & 0xFFFF
   \                     ??CrossCallReturnLabel_597:
   \   0000B2   85..82       MOV       DPL,?V2
   \   0000B5   85..83       MOV       DPH,?V3
   \   0000B8   A3           INC       DPTR
   \   0000B9   A3           INC       DPTR
   \   0000BA   E0           MOVX      A,@DPTR
   \   0000BB   F8           MOV       R0,A
   \   0000BC   EE           MOV       A,R6
   \   0000BD   12....       LCALL     ??Subroutine248_0 & 0xFFFF
   \                     ??CrossCallReturnLabel_450:
   \   0000C0   E8           MOV       A,R0
   \   0000C1   F0           MOVX      @DPTR,A
   \   0000C2   E5..         MOV       A,?V2
   \   0000C4   2403         ADD       A,#0x3
   \   0000C6   F5..         MOV       ?V2,A
   \   0000C8   5002         JNC       ??ZDO_ParseMgmtBindRsp_7
   \   0000CA   05..         INC       ?V3
   \                     ??ZDO_ParseMgmtBindRsp_7:
   \   0000CC   7403         MOV       A,#0x3
   \   0000CE   68           XRL       A,R0
   \   0000CF   708F         JNZ       ??ZDO_ParseMgmtBindRsp_3
   \   0000D1                ; Setup parameters for call to function sAddrExtCpy
   \   0000D1   AC..         MOV       R4,?V2
   \   0000D3   AD..         MOV       R5,?V3
   \   0000D5   EE           MOV       A,R6
   \   0000D6   240B         ADD       A,#0xb
   \   0000D8   FA           MOV       R2,A
   \   0000D9   E4           CLR       A
   \   0000DA   3F           ADDC      A,R7
   \   0000DB   12....       LCALL     ?Subroutine55 & 0xFFFF
   3448              }
   3449            }
   \                     ??CrossCallReturnLabel_84:
   \   0000DE   C0E0         PUSH      A
   \   0000E0   12....       LCALL     ?Subroutine156 & 0xFFFF
   \                     ??CrossCallReturnLabel_620:
   \   0000E3   D0E0         POP       A
   \   0000E5   F0           MOVX      @DPTR,A
   \   0000E6   E5..         MOV       A,?V2
   \   0000E8   2409         ADD       A,#0x9
   \   0000EA   F5..         MOV       ?V2,A
   \   0000EC   5088         JNC       ??ZDO_ParseMgmtBindRsp_4
   \   0000EE   05..         INC       ?V3
   \                     ??ZDO_ParseMgmtBindRsp_8:
   \   0000F0   8084         SJMP      ??ZDO_ParseMgmtBindRsp_4
   3450          
   3451            return ( pRsp );
   \                     ??ZDO_ParseMgmtBindRsp_1:
   \   0000F2   AA..         MOV       R2,?V0
   \   0000F4   AB..         MOV       R3,?V1
   \   0000F6   80..         SJMP      ??Subroutine293_0
   3452          }

   \                                 In  segment BANKED_CODE, align 1, keep-with-next
   \                     ?Subroutine55:
   \   000000   FB           MOV       R3,A
   \   000001   12....       LCALL     `??sAddrExtCpy::?relay`; Banked call to: sAddrExtCpy
   \   000004   85..82       MOV       DPL,?V2
   \   000007   85..83       MOV       DPH,?V3
   \   00000A   A3           INC       DPTR
   \   00000B   A3           INC       DPTR
   \   00000C   A3           INC       DPTR
   \   00000D   A3           INC       DPTR
   \   00000E   A3           INC       DPTR
   \   00000F   A3           INC       DPTR
   \   000010   A3           INC       DPTR
   \   000011   A3           INC       DPTR
   \   000012   E0           MOVX      A,@DPTR
   \   000013   22           RET

   \                                 In  segment BANKED_CODE, align 1, keep-with-next
   \                     ?Subroutine143:
   \   000000   12....       LCALL     ?Subroutine202 & 0xFFFF
   \                     ??CrossCallReturnLabel_328:
   \   000003   22           RET
   3453          
   3454          /*********************************************************************
   3455           * @fn          ZDO_ParseUserDescRsp
   3456           *
   3457           * @brief       This function parses the incoming User
   3458           *              Descriptor Response.
   3459           *
   3460           * @param       inMsg - incoming response message
   3461           *
   3462           * @return      a pointer to parsed response structure (NULL if not allocated).
   3463           *          This structure was allocated using osal_mem_alloc, so it must be freed
   3464           *          by the calling function [osal_mem_free()].
   3465           */

   \                                 In  segment BANKED_CODE, align 1, keep-with-next
   3466          ZDO_UserDescRsp_t *ZDO_ParseUserDescRsp( zdoIncomingMsg_t *inMsg )
   \                     ZDO_ParseUserDescRsp:
   3467          {
   \   000000                REQUIRE ?V0
   \   000000                REQUIRE ?V1
   \   000000                REQUIRE ?V2
   \   000000                REQUIRE ?V3
   \   000000                REQUIRE ?V4
   \   000000                REQUIRE ?V5
   \   000000   74F2         MOV       A,#-0xe
   \   000002   12....       LCALL     ?BANKED_ENTER_XDATA
   \   000005                ; Saved register size: 14
   \   000005                ; Auto size: 0
   3468            ZDO_UserDescRsp_t *pRsp;
   3469            uint8 *msg;
   3470            uint8 descLen = 0;
   \   000005   75..00       MOV       ?V3,#0x0
   3471          
   3472            msg = inMsg->asdu;
   \   000008   12....       LCALL     ?Subroutine140 & 0xFFFF
   \                     ??CrossCallReturnLabel_218:
   \   00000B   88..         MOV       ?V0,R0
   \   00000D   F5..         MOV       ?V1,A
   3473          
   3474            if ( msg[0] == ZSuccess )
   \   00000F   8882         MOV       DPL,R0
   \   000011   F583         MOV       DPH,A
   \   000013   E0           MOVX      A,@DPTR
   \   000014   7006         JNZ       ??ZDO_ParseUserDescRsp_0
   3475            {
   3476              descLen = msg[3];
   \   000016   A3           INC       DPTR
   \   000017   A3           INC       DPTR
   \   000018   A3           INC       DPTR
   \   000019   E0           MOVX      A,@DPTR
   \   00001A   F5..         MOV       ?V3,A
   3477            }
   3478          
   3479            pRsp = (ZDO_UserDescRsp_t *)osal_mem_alloc( sizeof ( ZDO_UserDescRsp_t ) + descLen );
   \                     ??ZDO_ParseUserDescRsp_0:
   \   00001C                ; Setup parameters for call to function osal_mem_alloc
   \   00001C   E5..         MOV       A,?V3
   \   00001E   12....       LCALL     ?Subroutine152 & 0xFFFF
   3480            if ( pRsp )
   \                     ??CrossCallReturnLabel_687:
   \   000021   6036         JZ        ??ZDO_ParseUserDescRsp_1
   3481            {
   3482              pRsp->status = msg[0];
   \   000023   85..82       MOV       DPL,?V0
   \   000026   85..83       MOV       DPH,?V1
   \   000029   12....       LCALL     ??Subroutine294_0 & 0xFFFF
   \                     ??CrossCallReturnLabel_712:
   \   00002C   12....       LCALL     ?Subroutine37 & 0xFFFF
   3483              pRsp->nwkAddr = BUILD_UINT16( msg[1], msg[2] );
   \                     ??CrossCallReturnLabel_53:
   \   00002F   E0           MOVX      A,@DPTR
   \   000030   FA           MOV       R2,A
   \   000031   85..82       MOV       DPL,?V0
   \   000034   85..83       MOV       DPH,?V1
   \   000037   A3           INC       DPTR
   \   000038   12....       LCALL     ?Subroutine29 & 0xFFFF
   3484              pRsp->length = descLen;
   \                     ??CrossCallReturnLabel_37:
   \   00003B   E5..         MOV       A,?V3
   \   00003D   F0           MOVX      @DPTR,A
   3485              if ( descLen )
   \   00003E   6019         JZ        ??ZDO_ParseUserDescRsp_1
   3486              {
   3487                osal_memcpy( pRsp->desc, &msg[4], descLen );
   \   000040                ; Setup parameters for call to function osal_memcpy
   \   000040   E5..         MOV       A,?V0
   \   000042   2404         ADD       A,#0x4
   \   000044   F5..         MOV       ?V0,A
   \   000046   5002         JNC       ??ZDO_ParseUserDescRsp_2
   \   000048   05..         INC       ?V1
   \                     ??ZDO_ParseUserDescRsp_2:
   \   00004A   88..         MOV       ?V2,R0
   \   00004C   78..         MOV       R0,#?V0
   \   00004E   12....       LCALL     ?PUSH_XSTACK_I_THREE
   \   000051   AC..         MOV       R4,?V3
   \   000053   12....       LCALL     ?Subroutine154 & 0xFFFF
   3488              }
   3489            }
   \                     ??CrossCallReturnLabel_720:
   \   000056   12....       LCALL     ?DEALLOC_XSTACK8
   3490          
   3491            return ( pRsp );
   \                     ??ZDO_ParseUserDescRsp_1:
   \   000059   EE           MOV       A,R6
   \   00005A   FA           MOV       R2,A
   \   00005B   EF           MOV       A,R7
   \   00005C   FB           MOV       R3,A
   \   00005D   02....       LJMP      ??Subroutine292_0 & 0xFFFF
   3492          }

   \                                 In  segment BANKED_CODE, align 1, keep-with-next
   \                     ?Subroutine140:
   \   000000   12....       LCALL     ?Subroutine201 & 0xFFFF
   \                     ??CrossCallReturnLabel_323:
   \   000003   12....       LCALL     ??Subroutine262_0 & 0xFFFF
   \                     ??CrossCallReturnLabel_611:
   \   000006   22           RET
   3493          
   3494          /*********************************************************************
   3495           * @fn          ZDO_ParseSimpleDescBuf
   3496           *
   3497           * @brief       Parse a byte sequence representation of a Simple Descriptor.
   3498           *
   3499           * @param       buf  - pointer to a byte array representing a Simple Desc.
   3500           * @param       desc - SimpleDescriptionFormat_t *
   3501           *
   3502           *              This routine allocates storage for the cluster IDs because
   3503           *              they are 16-bit and need to be aligned to be properly processed.
   3504           *              This routine returns non-zero if an allocation fails.
   3505           *
   3506           *              NOTE: This means that the caller or user of the input structure
   3507           *                    is responsible for freeing the memory
   3508           *
   3509           * @return      0: success
   3510           *              1: failure due to malloc failure.
   3511           */

   \                                 In  segment BANKED_CODE, align 1, keep-with-next
   3512          uint8 ZDO_ParseSimpleDescBuf( uint8 *buf, SimpleDescriptionFormat_t *desc )
   \                     ZDO_ParseSimpleDescBuf:
   3513          {
   \   000000                REQUIRE ?V0
   \   000000                REQUIRE ?V1
   \   000000                REQUIRE ?V2
   \   000000                REQUIRE ?V3
   \   000000                REQUIRE ?V4
   \   000000                REQUIRE ?V5
   \   000000   74F2         MOV       A,#-0xe
   \   000002   12....       LCALL     ?BANKED_ENTER_XDATA
   \   000005                ; Saved register size: 14
   \   000005                ; Auto size: 0
   \   000005   EB           MOV       A,R3
   \   000006   8C..         MOV       ?V0,R4
   \   000008   8D..         MOV       ?V1,R5
   3514            uint8 num, i;
   3515          
   3516            desc->EndPoint = *buf++;
   \   00000A   12....       LCALL     ?Subroutine43 & 0xFFFF
   \                     ??CrossCallReturnLabel_674:
   \   00000D   AE82         MOV       R6,DPL
   \   00000F   AF83         MOV       R7,DPH
   3517            desc->AppProfId = BUILD_UINT16( buf[0], buf[1] );
   \   000011   E0           MOVX      A,@DPTR
   \   000012   FA           MOV       R2,A
   \   000013   12....       LCALL     ?Subroutine45 & 0xFFFF
   3518            buf += 2;
   \                     ??CrossCallReturnLabel_600:
   \   000016   EE           MOV       A,R6
   \   000017   2402         ADD       A,#0x2
   \   000019   FE           MOV       R6,A
   \   00001A   5001         JNC       ??ZDO_ParseSimpleDescBuf_0
   \   00001C   0F           INC       R7
   3519            desc->AppDeviceId = BUILD_UINT16( buf[0], buf[1] );
   \                     ??ZDO_ParseSimpleDescBuf_0:
   \   00001D   F582         MOV       DPL,A
   \   00001F   8F83         MOV       DPH,R7
   \   000021   12....       LCALL     ?Subroutine88 & 0xFFFF
   \                     ??CrossCallReturnLabel_140:
   \   000024   12....       LCALL     ?Subroutine28 & 0xFFFF
   3520            buf += 2;
   3521            desc->AppDevVer = *buf >> 4;
   \                     ??CrossCallReturnLabel_35:
   \   000027   C4           SWAP      A
   \   000028   540F         ANL       A,#0xf
   3522          
   3523            desc->Reserved = 0;
   \   00002A   8C82         MOV       DPL,R4
   \   00002C   8D83         MOV       DPH,R5
   \   00002E   A3           INC       DPTR
   \   00002F   A3           INC       DPTR
   \   000030   A3           INC       DPTR
   \   000031   A3           INC       DPTR
   \   000032   A3           INC       DPTR
   \   000033   12....       LCALL     ?Subroutine19 & 0xFFFF
   3524            buf++;
   3525          
   3526            // move in input cluster list (if any). allocate aligned memory.
   3527            num = desc->AppNumInClusters = *buf++;
   \                     ??CrossCallReturnLabel_19:
   \   000036   F5..         MOV       ?V4,A
   \   000038   EE           MOV       A,R6
   \   000039   2404         ADD       A,#0x4
   \   00003B   FE           MOV       R6,A
   \   00003C   5001         JNC       ??ZDO_ParseSimpleDescBuf_1
   \   00003E   0F           INC       R7
   \                     ??ZDO_ParseSimpleDescBuf_1:
   \   00003F   8C82         MOV       DPL,R4
   \   000041   8D83         MOV       DPH,R5
   \   000043   A3           INC       DPTR
   \   000044   A3           INC       DPTR
   \   000045   A3           INC       DPTR
   \   000046   A3           INC       DPTR
   \   000047   A3           INC       DPTR
   \   000048   A3           INC       DPTR
   \   000049   E5..         MOV       A,?V4
   \   00004B   F0           MOVX      @DPTR,A
   3528            if ( num )
   \   00004C   6026         JZ        ??ZDO_ParseSimpleDescBuf_2
   3529            {
   3530              if (!(desc->pAppInClusterList = (uint16 *)osal_mem_alloc(num*sizeof(uint16))))
   \   00004E                ; Setup parameters for call to function osal_mem_alloc
   \   00004E   12....       LCALL     ?Subroutine139 & 0xFFFF
   \                     ??CrossCallReturnLabel_217:
   \   000051   E5..         MOV       A,?V0
   \   000053   2407         ADD       A,#0x7
   \   000055   F8           MOV       R0,A
   \   000056   E4           CLR       A
   \   000057   35..         ADDC      A,?V1
   \   000059   8882         MOV       DPL,R0
   \   00005B   12....       LCALL     ??Subroutine259_0 & 0xFFFF
   \                     ??CrossCallReturnLabel_515:
   \   00005E   606E         JZ        ??ZDO_ParseSimpleDescBuf_3
   3531              {
   3532                // malloc failed. we're done.
   3533                return 1;
   3534              }
   3535              for (i=0; i<num; ++i)
   \   000060   7800         MOV       R0,#0x0
   \   000062   800A         SJMP      ??ZDO_ParseSimpleDescBuf_4
   3536              {
   3537                desc->pAppInClusterList[i] = BUILD_UINT16( buf[0], buf[1] );
   \                     ??ZDO_ParseSimpleDescBuf_5:
   \   000064   12....       LCALL     ?Subroutine65 & 0xFFFF
   3538                buf += 2;
   3539              }
   \                     ??CrossCallReturnLabel_97:
   \   000067   12....       LCALL     ?Subroutine51 & 0xFFFF
   \                     ??CrossCallReturnLabel_77:
   \   00006A   5001         JNC       ??ZDO_ParseSimpleDescBuf_6
   \   00006C   0F           INC       R7
   \                     ??ZDO_ParseSimpleDescBuf_6:
   \   00006D   08           INC       R0
   \                     ??ZDO_ParseSimpleDescBuf_4:
   \   00006E   E8           MOV       A,R0
   \   00006F   C3           CLR       C
   \   000070   95..         SUBB      A,?V4
   \   000072   40F0         JC        ??ZDO_ParseSimpleDescBuf_5
   3540            }
   3541          
   3542            // move in output cluster list (if any). allocate aligned memory.
   3543            num = desc->AppNumOutClusters = *buf++;
   \                     ??ZDO_ParseSimpleDescBuf_2:
   \   000074   12....       LCALL     ?Subroutine120 & 0xFFFF
   \                     ??CrossCallReturnLabel_187:
   \   000077   85..82       MOV       DPL,?V0
   \   00007A   85..83       MOV       DPH,?V1
   \   00007D   A3           INC       DPTR
   \   00007E   A3           INC       DPTR
   \   00007F   A3           INC       DPTR
   \   000080   A3           INC       DPTR
   \   000081   A3           INC       DPTR
   \   000082   A3           INC       DPTR
   \   000083   A3           INC       DPTR
   \   000084   A3           INC       DPTR
   \   000085   A3           INC       DPTR
   \   000086   F0           MOVX      @DPTR,A
   3544            if (num)
   \   000087   6060         JZ        ??ZDO_ParseSimpleDescBuf_7
   3545            {
   3546              if (!(desc->pAppOutClusterList = (uint16 *)osal_mem_alloc(num*sizeof(uint16))))
   \   000089                ; Setup parameters for call to function osal_mem_alloc
   \   000089   12....       LCALL     ?Subroutine136 & 0xFFFF
   \                     ??CrossCallReturnLabel_212:
   \   00008C   85..82       MOV       DPL,?V0
   \   00008F   85..83       MOV       DPH,?V1
   \   000092   A3           INC       DPTR
   \   000093   A3           INC       DPTR
   \   000094   A3           INC       DPTR
   \   000095   A3           INC       DPTR
   \   000096   A3           INC       DPTR
   \   000097   A3           INC       DPTR
   \   000098   A3           INC       DPTR
   \   000099   A3           INC       DPTR
   \   00009A   A3           INC       DPTR
   \   00009B   A3           INC       DPTR
   \   00009C   12....       LCALL     ??Subroutine267_0 & 0xFFFF
   \                     ??CrossCallReturnLabel_542:
   \   00009F   7031         JNZ       ??ZDO_ParseSimpleDescBuf_8
   3547              {
   3548                // malloc failed. free input cluster list memory if there is any
   3549                if ( desc->pAppInClusterList != NULL )
   \   0000A1   85..82       MOV       DPL,?V0
   \   0000A4   85..83       MOV       DPH,?V1
   \   0000A7   A3           INC       DPTR
   \   0000A8   A3           INC       DPTR
   \   0000A9   A3           INC       DPTR
   \   0000AA   A3           INC       DPTR
   \   0000AB   A3           INC       DPTR
   \   0000AC   A3           INC       DPTR
   \   0000AD   A3           INC       DPTR
   \   0000AE   12....       LCALL     ??Subroutine250_0 & 0xFFFF
   \                     ??CrossCallReturnLabel_468:
   \   0000B1   601B         JZ        ??ZDO_ParseSimpleDescBuf_3
   3550                {
   3551                  osal_mem_free(desc->pAppInClusterList);
   \   0000B3   E5..         MOV       A,?V0
   \   0000B5   2407         ADD       A,#0x7
   \   0000B7   F5..         MOV       ?V2,A
   \   0000B9   E4           CLR       A
   \   0000BA   35..         ADDC      A,?V1
   \   0000BC   F5..         MOV       ?V3,A
   \   0000BE                ; Setup parameters for call to function osal_mem_free
   \   0000BE   85..82       MOV       DPL,?V2
   \   0000C1   12....       LCALL     ??Subroutine263_0 & 0xFFFF
   3552          
   3553                  desc->pAppInClusterList = NULL;
   \                     ??CrossCallReturnLabel_530:
   \   0000C4   85..82       MOV       DPL,?V2
   \   0000C7   85..83       MOV       DPH,?V3
   \   0000CA   E4           CLR       A
   \   0000CB   F0           MOVX      @DPTR,A
   \   0000CC   A3           INC       DPTR
   \   0000CD   F0           MOVX      @DPTR,A
   3554                }
   3555                return 1;
   \                     ??ZDO_ParseSimpleDescBuf_3:
   \   0000CE   7901         MOV       R1,#0x1
   \   0000D0   8019         SJMP      ??ZDO_ParseSimpleDescBuf_9
   3556              }
   3557              for (i=0; i<num; ++i)
   \                     ??ZDO_ParseSimpleDescBuf_8:
   \   0000D2   7800         MOV       R0,#0x0
   \   0000D4   800D         SJMP      ??ZDO_ParseSimpleDescBuf_10
   3558              {
   3559                desc->pAppOutClusterList[i] = BUILD_UINT16( buf[0], buf[1] );
   \                     ??ZDO_ParseSimpleDescBuf_11:
   \   0000D6   12....       LCALL     ?Subroutine65 & 0xFFFF
   3560                buf += 2;
   3561              }
   \                     ??CrossCallReturnLabel_98:
   \   0000D9   A3           INC       DPTR
   \   0000DA   A3           INC       DPTR
   \   0000DB   A3           INC       DPTR
   \   0000DC   12....       LCALL     ?Subroutine51 & 0xFFFF
   \                     ??CrossCallReturnLabel_78:
   \   0000DF   5001         JNC       ??ZDO_ParseSimpleDescBuf_12
   \   0000E1   0F           INC       R7
   \                     ??ZDO_ParseSimpleDescBuf_12:
   \   0000E2   08           INC       R0
   \                     ??ZDO_ParseSimpleDescBuf_10:
   \   0000E3   E8           MOV       A,R0
   \   0000E4   C3           CLR       C
   \   0000E5   95..         SUBB      A,?V2
   \   0000E7   40ED         JC        ??ZDO_ParseSimpleDescBuf_11
   3562            }
   3563            return 0;
   \                     ??ZDO_ParseSimpleDescBuf_7:
   \   0000E9   7900         MOV       R1,#0x0
   \                     ??ZDO_ParseSimpleDescBuf_9:
   \   0000EB   02....       LJMP      ??Subroutine292_0 & 0xFFFF
   3564          }

   \                                 In  segment BANKED_CODE, align 1, keep-with-next
   \                     ?Subroutine65:
   \   000000   8E82         MOV       DPL,R6
   \   000002   8F83         MOV       DPH,R7
   \   000004   E0           MOVX      A,@DPTR
   \   000005   FC           MOV       R4,A
   \   000006   A3           INC       DPTR
   \   000007   E0           MOVX      A,@DPTR
   \   000008   FA           MOV       R2,A
   \   000009   E4           CLR       A
   \   00000A   CA           XCH       A,R2
   \   00000B   FB           MOV       R3,A
   \   00000C   EC           MOV       A,R4
   \   00000D   2A           ADD       A,R2
   \   00000E   E4           CLR       A
   \   00000F   3B           ADDC      A,R3
   \   000010   FD           MOV       R5,A
   \   000011   E8           MOV       A,R0
   \   000012   25E0         ADD       A,0xE0 /* A   */
   \   000014   FA           MOV       R2,A
   \   000015   E4           CLR       A
   \   000016   33           RLC       A
   \   000017   FB           MOV       R3,A
   \   000018   85..82       MOV       DPL,?V0
   \   00001B   85..83       MOV       DPH,?V1
   \   00001E   22           RET

   \                                 In  segment BANKED_CODE, align 1, keep-with-next
   \                     ?Subroutine51:
   \   000000   A3           INC       DPTR
   \   000001   A3           INC       DPTR
   \   000002   A3           INC       DPTR
   \   000003   A3           INC       DPTR
   \   000004   A3           INC       DPTR
   \   000005   A3           INC       DPTR
   \   000006   A3           INC       DPTR
   \   000007   E0           MOVX      A,@DPTR
   \   000008   2A           ADD       A,R2
   \   000009   F9           MOV       R1,A
   \   00000A   A3           INC       DPTR
   \   00000B   E0           MOVX      A,@DPTR
   \   00000C   3B           ADDC      A,R3
   \   00000D   8982         MOV       DPL,R1
   \   00000F   F583         MOV       DPH,A
   \   000011   EC           MOV       A,R4
   \   000012   F0           MOVX      @DPTR,A
   \   000013   A3           INC       DPTR
   \   000014   ED           MOV       A,R5
   \   000015   F0           MOVX      @DPTR,A
   \   000016   EE           MOV       A,R6
   \   000017   2402         ADD       A,#0x2
   \   000019   FE           MOV       R6,A
   \   00001A   22           RET
   3565          
   3566          /*********************************************************************
   3567           * @fn          ZDO_ParseDeviceAnnce
   3568           *
   3569           * @brief       Parse a Device Announce message.
   3570           *
   3571           * @param       inMsg - Incoming message
   3572           * @param       pAnnce - place to put the parsed information
   3573           *
   3574           * @return      none
   3575           */

   \                                 In  segment BANKED_CODE, align 1, keep-with-next
   3576          void ZDO_ParseDeviceAnnce( zdoIncomingMsg_t *inMsg, ZDO_DeviceAnnce_t *pAnnce )
   \                     ZDO_ParseDeviceAnnce:
   3577          {
   \   000000                REQUIRE ?V0
   \   000000                REQUIRE ?V1
   \   000000   74F6         MOV       A,#-0xa
   \   000002   12....       LCALL     ?BANKED_ENTER_XDATA
   \   000005                ; Saved register size: 10
   \   000005                ; Auto size: 0
   \   000005   8C..         MOV       ?V0,R4
   \   000007   8D..         MOV       ?V1,R5
   3578            uint8 *msg;
   3579          
   3580            // Parse incoming message
   3581            msg = inMsg->asdu;
   \   000009   12....       LCALL     ?Subroutine140 & 0xFFFF
   \                     ??CrossCallReturnLabel_219:
   \   00000C   FF           MOV       R7,A
   3582            pAnnce->nwkAddr = BUILD_UINT16( msg[0], msg[1] );
   \   00000D   12....       LCALL     ?Subroutine107 & 0xFFFF
   \                     ??CrossCallReturnLabel_366:
   \   000010   8C82         MOV       DPL,R4
   \   000012   8D83         MOV       DPH,R5
   \   000014   12....       LCALL     ??Subroutine277_0 & 0xFFFF
   3583            msg += 2;
   \                     ??CrossCallReturnLabel_594:
   \   000017   E8           MOV       A,R0
   \   000018   2402         ADD       A,#0x2
   \   00001A   FE           MOV       R6,A
   \   00001B   5001         JNC       ??ZDO_ParseDeviceAnnce_0
   \   00001D   0F           INC       R7
   3584            osal_cpyExtAddr( pAnnce->extAddr, msg );
   \                     ??ZDO_ParseDeviceAnnce_0:
   \   00001E                ; Setup parameters for call to function sAddrExtCpy
   \   00001E   FC           MOV       R4,A
   \   00001F   EF           MOV       A,R7
   \   000020   FD           MOV       R5,A
   \   000021   E5..         MOV       A,?V0
   \   000023   12....       LCALL     ?Subroutine200 & 0xFFFF
   \                     ??CrossCallReturnLabel_321:
   \   000026   35..         ADDC      A,?V1
   \   000028   FB           MOV       R3,A
   \   000029   12....       LCALL     `??sAddrExtCpy::?relay`; Banked call to: sAddrExtCpy
   3585            msg += Z_EXTADDR_LEN;
   3586            pAnnce->capabilities = *msg;
   \   00002C   8E82         MOV       DPL,R6
   \   00002E   8F83         MOV       DPH,R7
   \   000030   A3           INC       DPTR
   \   000031   12....       LCALL     ?Subroutine76 & 0xFFFF
   3587          }
   \                     ??CrossCallReturnLabel_122:
   \   000034   02....       LJMP      ??Subroutine225_0 & 0xFFFF
   3588          
   3589          /*********************************************************************
   3590           * @fn          ZDO_ParseParentAnnce
   3591           *
   3592           * @brief       Parse Parent Announce and Parent Announce Rsp messages,
   3593           *              both messages have the same payload.
   3594           *
   3595           * @param       inMsg - Incoming message
   3596           *
   3597           * @return      a pointer to parsed response structure (NULL if not allocated).
   3598           *          This structure was allocated using osal_mem_alloc, so it must be freed
   3599           *          by the calling function [osal_mem_free()].
   3600           */

   \                                 In  segment BANKED_CODE, align 1, keep-with-next
   3601          ZDO_ParentAnnce_t *ZDO_ParseParentAnnce( zdoIncomingMsg_t *inMsg )
   \                     ZDO_ParseParentAnnce:
   3602          {
   \   000000                REQUIRE ?V0
   \   000000                REQUIRE ?V1
   \   000000                REQUIRE ?V2
   \   000000                REQUIRE ?V3
   \   000000                REQUIRE ?V4
   \   000000                REQUIRE ?V5
   \   000000   74F2         MOV       A,#-0xe
   \   000002   12....       LCALL     ?BANKED_ENTER_XDATA
   \   000005                ; Saved register size: 14
   \   000005                ; Auto size: 0
   3603            ZDO_ParentAnnce_t *pRcvdMsg;
   3604            uint8 *msg;
   3605            uint8 numChildren;
   3606          
   3607            msg = inMsg->asdu;
   \   000005   12....       LCALL     ?Subroutine143 & 0xFFFF
   \                     ??CrossCallReturnLabel_223:
   \   000008   12....       LCALL     ?Subroutine106 & 0xFFFF
   3608            if ( inMsg->clusterID == Parent_annce_rsp)
   \                     ??CrossCallReturnLabel_449:
   \   00000B   EA           MOV       A,R2
   \   00000C   240C         ADD       A,#0xc
   \   00000E   F582         MOV       DPL,A
   \   000010   E4           CLR       A
   \   000011   3B           ADDC      A,R3
   \   000012   F583         MOV       DPH,A
   \   000014   E0           MOVX      A,@DPTR
   \   000015   641F         XRL       A,#0x1f
   \   000017   7004         JNZ       ??ZDO_ParseParentAnnce_0
   \   000019   A3           INC       DPTR
   \   00001A   E0           MOVX      A,@DPTR
   \   00001B   6480         XRL       A,#0x80
   \                     ??ZDO_ParseParentAnnce_0:
   \   00001D   7009         JNZ       ??ZDO_ParseParentAnnce_1
   3609            {
   3610              *msg++;
   \   00001F   8E82         MOV       DPL,R6
   \   000021   8F83         MOV       DPH,R7
   \   000023   A3           INC       DPTR
   \   000024   AE82         MOV       R6,DPL
   \   000026   AF83         MOV       R7,DPH
   3611            }
   3612            numChildren = *msg++;
   \                     ??ZDO_ParseParentAnnce_1:
   \   000028   8E82         MOV       DPL,R6
   \   00002A   8F83         MOV       DPH,R7
   \   00002C   E0           MOVX      A,@DPTR
   \   00002D   F5..         MOV       ?V5,A
   \   00002F   A3           INC       DPTR
   \   000030   AE82         MOV       R6,DPL
   \   000032   AF83         MOV       R7,DPH
   3613          
   3614            // Allocate a buffer big enough to handle the list
   3615            pRcvdMsg = (ZDO_ParentAnnce_t *)osal_mem_alloc(
   3616                       (sizeof(ZDO_ParentAnnce_t) + (numChildren * sizeof(ZDO_ChildInfo_t))));
   \   000034                ; Setup parameters for call to function osal_mem_alloc
   \   000034   F5..         MOV       ?V0,A
   \   000036   75..00       MOV       ?V1,#0x0
   \   000039   7403         MOV       A,#0x3
   \   00003B   78..         MOV       R0,#?V0
   \   00003D   12....       LCALL     ?S_SHL
   \   000040   E5..         MOV       A,?V0
   \   000042   2401         ADD       A,#0x1
   \   000044   FA           MOV       R2,A
   \   000045   E4           CLR       A
   \   000046   35..         ADDC      A,?V1
   \   000048   12....       LCALL     ?Subroutine153 & 0xFFFF
   3617          
   3618            if ( pRcvdMsg )
   \                     ??CrossCallReturnLabel_241:
   \   00004B   6038         JZ        ??ZDO_ParseParentAnnce_2
   3619            {
   3620              uint8 x;
   3621              ZDO_ChildInfo_t *pList = pRcvdMsg->childInfo;
   \   00004D   8A82         MOV       DPL,R2
   \   00004F   8B83         MOV       DPH,R3
   \   000051   A3           INC       DPTR
   \   000052   8582..       MOV       ?V0,DPL
   \   000055   8583..       MOV       ?V1,DPH
   3622          
   3623              pRcvdMsg->numOfChildren = numChildren;
   \   000058   8A82         MOV       DPL,R2
   \   00005A   8B83         MOV       DPH,R3
   \   00005C   E5..         MOV       A,?V5
   \   00005E   F0           MOVX      @DPTR,A
   3624          
   3625              for ( x = 0; x < numChildren; x++ )
   \   00005F   75..00       MOV       ?V4,#0x0
   \   000062   801A         SJMP      ??ZDO_ParseParentAnnce_3
   3626              {
   3627                osal_cpyExtAddr( pList->extAddr, msg );
   \                     ??ZDO_ParseParentAnnce_4:
   \   000064                ; Setup parameters for call to function sAddrExtCpy
   \   000064   EE           MOV       A,R6
   \   000065   FC           MOV       R4,A
   \   000066   EF           MOV       A,R7
   \   000067   FD           MOV       R5,A
   \   000068   AA..         MOV       R2,?V0
   \   00006A   AB..         MOV       R3,?V1
   \   00006C   12....       LCALL     ??Subroutine283_0 & 0xFFFF
   3628                msg += Z_EXTADDR_LEN;
   \                     ??CrossCallReturnLabel_670:
   \   00006F   5001         JNC       ??ZDO_ParseParentAnnce_5
   \   000071   0F           INC       R7
   3629          
   3630                pList++;
   \                     ??ZDO_ParseParentAnnce_5:
   \   000072   E5..         MOV       A,?V0
   \   000074   2408         ADD       A,#0x8
   \   000076   F5..         MOV       ?V0,A
   \   000078   5002         JNC       ??ZDO_ParseParentAnnce_6
   \   00007A   05..         INC       ?V1
   3631              }
   \                     ??ZDO_ParseParentAnnce_6:
   \   00007C   05..         INC       ?V4
   \                     ??ZDO_ParseParentAnnce_3:
   \   00007E   E5..         MOV       A,?V4
   \   000080   C3           CLR       C
   \   000081   95..         SUBB      A,?V5
   \   000083   40DF         JC        ??ZDO_ParseParentAnnce_4
   3632            }
   3633          
   3634            return ( pRcvdMsg );
   \                     ??ZDO_ParseParentAnnce_2:
   \   000085   AA..         MOV       R2,?V2
   \   000087   AB..         MOV       R3,?V3
   \   000089   02....       LJMP      ??Subroutine292_0 & 0xFFFF
   3635          }
   3636          
   3637          /*********************************************************************
   3638           * @fn          ZDO_ParseMgmtNwkUpdateNotify
   3639           *
   3640           * @brief       This function handles parsing of the incoming Management
   3641           *              Network Update notify.
   3642           *
   3643           * @param       inMsg - incoming message (request)
   3644           *
   3645           * @return      a pointer to parsed response structure (NULL if not allocated).
   3646           *          This structure was allocated using osal_mem_alloc, so it must be freed
   3647           *          by the calling function [osal_mem_free()].
   3648           */

   \                                 In  segment BANKED_CODE, align 1, keep-with-next
   3649          ZDO_MgmtNwkUpdateNotify_t *ZDO_ParseMgmtNwkUpdateNotify( zdoIncomingMsg_t *inMsg )
   \                     ZDO_ParseMgmtNwkUpdateNotify:
   3650          {
   \   000000                REQUIRE ?V0
   \   000000                REQUIRE ?V1
   \   000000                REQUIRE ?V2
   \   000000                REQUIRE ?V3
   \   000000                REQUIRE ?V4
   \   000000                REQUIRE ?V5
   \   000000                REQUIRE ?V6
   \   000000                REQUIRE ?V7
   \   000000                REQUIRE ?V8
   \   000000                REQUIRE ?V9
   \   000000                REQUIRE ?V10
   \   000000                REQUIRE ?V11
   \   000000                REQUIRE ?V12
   \   000000                REQUIRE ?V13
   \   000000   74EA         MOV       A,#-0x16
   \   000002   12....       LCALL     ?BANKED_ENTER_XDATA
   \   000005                ; Saved register size: 22
   \   000005                ; Auto size: 0
   3651            uint8 status;
   3652            uint32 scannedChannels = 0;
   \   000005   75..00       MOV       ?V4,#0x0
   \   000008   75..00       MOV       ?V5,#0x0
   \   00000B   75..00       MOV       ?V6,#0x0
   \   00000E   75..00       MOV       ?V7,#0x0
   3653            uint16 totalTransmissions = 0;
   \   000011   75..00       MOV       ?V0,#0x0
   \   000014   75..00       MOV       ?V1,#0x0
   3654            uint16 transmissionFailures = 0;
   \   000017   75..00       MOV       ?V2,#0x0
   \   00001A   75..00       MOV       ?V3,#0x0
   3655            uint8 listCount = 0;
   \   00001D   75..00       MOV       ?V10,#0x0
   3656            uint8 *msg = inMsg->asdu;
   \   000020   12....       LCALL     ?Subroutine70 & 0xFFFF
   3657            ZDO_MgmtNwkUpdateNotify_t *pRsp;
   3658          
   3659            status = *msg++;
   \                     ??CrossCallReturnLabel_109:
   \   000023   F5..         MOV       ?V11,A
   \   000025   A3           INC       DPTR
   \   000026   AE82         MOV       R6,DPL
   \   000028   AF83         MOV       R7,DPH
   3660            if ( status == ZSuccess )
   \   00002A   7042         JNZ       ??ZDO_ParseMgmtNwkUpdateNotify_0
   3661            {
   3662              scannedChannels = osal_build_uint32( msg, 4 );
   \   00002C                ; Setup parameters for call to function osal_build_uint32
   \   00002C   7904         MOV       R1,#0x4
   \   00002E   EE           MOV       A,R6
   \   00002F   FA           MOV       R2,A
   \   000030   EF           MOV       A,R7
   \   000031   FB           MOV       R3,A
   \   000032   12....       LCALL     `??osal_build_uint32::?relay`; Banked call to: osal_build_uint32
   \   000035   8A..         MOV       ?V4,R2
   \   000037   8B..         MOV       ?V5,R3
   \   000039   8C..         MOV       ?V6,R4
   \   00003B   8D..         MOV       ?V7,R5
   3663              msg += 4;
   \   00003D   EE           MOV       A,R6
   \   00003E   2404         ADD       A,#0x4
   \   000040   FE           MOV       R6,A
   \   000041   5001         JNC       ??ZDO_ParseMgmtNwkUpdateNotify_1
   \   000043   0F           INC       R7
   3664              totalTransmissions = BUILD_UINT16( msg[0], msg[1] );
   \                     ??ZDO_ParseMgmtNwkUpdateNotify_1:
   \   000044   F582         MOV       DPL,A
   \   000046   8F83         MOV       DPH,R7
   \   000048   12....       LCALL     ??Subroutine290_0 & 0xFFFF
   \                     ??CrossCallReturnLabel_703:
   \   00004B   F8           MOV       R0,A
   \   00004C   E4           CLR       A
   \   00004D   C8           XCH       A,R0
   \   00004E   F9           MOV       R1,A
   \   00004F   EA           MOV       A,R2
   \   000050   28           ADD       A,R0
   \   000051   F5..         MOV       ?V0,A
   \   000053   E4           CLR       A
   \   000054   39           ADDC      A,R1
   \   000055   F5..         MOV       ?V1,A
   3665              msg += 2;
   \   000057   EE           MOV       A,R6
   \   000058   2402         ADD       A,#0x2
   \   00005A   FE           MOV       R6,A
   \   00005B   5001         JNC       ??ZDO_ParseMgmtNwkUpdateNotify_2
   \   00005D   0F           INC       R7
   3666              transmissionFailures = BUILD_UINT16( msg[0], msg[1] );
   \                     ??ZDO_ParseMgmtNwkUpdateNotify_2:
   \   00005E   F582         MOV       DPL,A
   \   000060   8F83         MOV       DPH,R7
   \   000062   12....       LCALL     ?Subroutine68 & 0xFFFF
   3667              msg += 2;
   3668              listCount = *msg++;
   3669            }
   \                     ??CrossCallReturnLabel_103:
   \   000065   F5..         MOV       ?V10,A
   \   000067   EE           MOV       A,R6
   \   000068   2403         ADD       A,#0x3
   \   00006A   FE           MOV       R6,A
   \   00006B   5001         JNC       ??ZDO_ParseMgmtNwkUpdateNotify_0
   \   00006D   0F           INC       R7
   3670          
   3671            pRsp = (ZDO_MgmtNwkUpdateNotify_t *)osal_mem_alloc( sizeof ( ZDO_MgmtNwkUpdateNotify_t ) + listCount );
   \                     ??ZDO_ParseMgmtNwkUpdateNotify_0:
   \   00006E                ; Setup parameters for call to function osal_mem_alloc
   \   00006E   E5..         MOV       A,?V10
   \   000070   240A         ADD       A,#0xa
   \   000072   FA           MOV       R2,A
   \   000073   E4           CLR       A
   \   000074   3400         ADDC      A,#0x0
   \   000076   FB           MOV       R3,A
   \   000077   12....       LCALL     `??osal_mem_alloc::?relay`; Banked call to: osal_mem_alloc
   \   00007A   8A..         MOV       ?V8,R2
   \   00007C   8B..         MOV       ?V9,R3
   3672          
   3673            if ( pRsp )
   \   00007E   EA           MOV       A,R2
   \   00007F   4B           ORL       A,R3
   \   000080   604D         JZ        ??ZDO_ParseMgmtNwkUpdateNotify_3
   3674            {
   3675              pRsp->status = status;
   \   000082   8A82         MOV       DPL,R2
   \   000084   8B83         MOV       DPH,R3
   \   000086   E5..         MOV       A,?V11
   \   000088   F0           MOVX      @DPTR,A
   3676              pRsp->scannedChannels = scannedChannels;
   \   000089   A3           INC       DPTR
   \   00008A   78..         MOV       R0,#?V4
   \   00008C   12....       LCALL     ?L_MOV_TO_X
   3677              pRsp->totalTransmissions = totalTransmissions;
   \   00008F   8A82         MOV       DPL,R2
   \   000091   8B83         MOV       DPH,R3
   \   000093   A3           INC       DPTR
   \   000094   A3           INC       DPTR
   \   000095   A3           INC       DPTR
   \   000096   A3           INC       DPTR
   \   000097   A3           INC       DPTR
   \   000098   E5..         MOV       A,?V0
   \   00009A   F0           MOVX      @DPTR,A
   \   00009B   A3           INC       DPTR
   \   00009C   E5..         MOV       A,?V1
   \   00009E   12....       LCALL     ?Subroutine18 & 0xFFFF
   3678              pRsp->transmissionFailures = transmissionFailures;
   \                     ??CrossCallReturnLabel_16:
   \   0000A1   A3           INC       DPTR
   \   0000A2   E5..         MOV       A,?V3
   \   0000A4   12....       LCALL     ?Subroutine42 & 0xFFFF
   3679              pRsp->listCount = listCount;
   \                     ??CrossCallReturnLabel_66:
   \   0000A7   A3           INC       DPTR
   \   0000A8   A3           INC       DPTR
   \   0000A9   A3           INC       DPTR
   \   0000AA   A3           INC       DPTR
   \   0000AB   A3           INC       DPTR
   \   0000AC   A3           INC       DPTR
   \   0000AD   E5..         MOV       A,?V10
   \   0000AF   F0           MOVX      @DPTR,A
   3680          
   3681              // Allocate a buffer big enough to handle the list.
   3682              if ( listCount > 0 )
   \   0000B0   601D         JZ        ??ZDO_ParseMgmtNwkUpdateNotify_3
   3683              {
   3684                osal_memcpy( pRsp->energyValues, msg, listCount );
   \   0000B2                ; Setup parameters for call to function osal_memcpy
   \   0000B2   8E..         MOV       ?V0,R6
   \   0000B4   8F..         MOV       ?V1,R7
   \   0000B6   75..00       MOV       ?V2,#0x0
   \   0000B9   78..         MOV       R0,#?V0
   \   0000BB   12....       LCALL     ?PUSH_XSTACK_I_THREE
   \   0000BE   AC..         MOV       R4,?V10
   \   0000C0   7D00         MOV       R5,#0x0
   \   0000C2   EA           MOV       A,R2
   \   0000C3   240A         ADD       A,#0xa
   \   0000C5   FA           MOV       R2,A
   \   0000C6   E4           CLR       A
   \   0000C7   35..         ADDC      A,?V9
   \   0000C9   12....       LCALL     ??Subroutine295_0 & 0xFFFF
   3685              }
   3686            }
   \                     ??CrossCallReturnLabel_721:
   \   0000CC   12....       LCALL     ?DEALLOC_XSTACK8
   3687          
   3688            return ( pRsp );
   \                     ??ZDO_ParseMgmtNwkUpdateNotify_3:
   \   0000CF   AA..         MOV       R2,?V8
   \   0000D1   AB..         MOV       R3,?V9
   \   0000D3   02....       LJMP      ?Subroutine6 & 0xFFFF
   3689          }
   3690          
   3691          /*********************************************************************
   3692           * @fn          ZDO_ParseMgmtNwkUpdateReq
   3693           *
   3694           * @brief       This function handles parsing the incoming Management
   3695           *              Network Update request and starts the request (if needed).
   3696           *
   3697           * @param       inMsg - incoming message (request)
   3698           * @param       pReq - pointer to place to parse message to
   3699           *
   3700           * @return      none
   3701           */

   \                                 In  segment BANKED_CODE, align 1, keep-with-next
   3702          void ZDO_ParseMgmtNwkUpdateReq( zdoIncomingMsg_t *inMsg, ZDO_MgmtNwkUpdateReq_t *pReq )
   \                     ZDO_ParseMgmtNwkUpdateReq:
   3703          {
   \   000000                REQUIRE ?V0
   \   000000                REQUIRE ?V1
   \   000000   74F6         MOV       A,#-0xa
   \   000002   12....       LCALL     ?BANKED_ENTER_XDATA
   \   000005                ; Saved register size: 10
   \   000005                ; Auto size: 0
   \   000005   8C..         MOV       ?V0,R4
   \   000007   8D..         MOV       ?V1,R5
   3704            uint8 *msg = inMsg->asdu;
   \   000009   12....       LCALL     ?Subroutine143 & 0xFFFF
   \                     ??CrossCallReturnLabel_224:
   \   00000C   12....       LCALL     ?Subroutine69 & 0xFFFF
   3705          
   3706            pReq->channelMask = osal_build_uint32( msg, 4 );
   \                     ??CrossCallReturnLabel_105:
   \   00000F   85..82       MOV       DPL,?V0
   \   000012   85..83       MOV       DPH,?V1
   \   000015   12....       LCALL     ?XSTORE_R0123
   3707            msg += 4;
   3708            pReq->scanDuration = *msg++;
   \   000018   8E82         MOV       DPL,R6
   \   00001A   8F83         MOV       DPH,R7
   \   00001C   A3           INC       DPTR
   \   00001D   A3           INC       DPTR
   \   00001E   A3           INC       DPTR
   \   00001F   A3           INC       DPTR
   \   000020   E0           MOVX      A,@DPTR
   \   000021   F8           MOV       R0,A
   \   000022   85..82       MOV       DPL,?V0
   \   000025   85..83       MOV       DPH,?V1
   \   000028   A3           INC       DPTR
   \   000029   A3           INC       DPTR
   \   00002A   A3           INC       DPTR
   \   00002B   A3           INC       DPTR
   \   00002C   F0           MOVX      @DPTR,A
   3709          
   3710            if ( pReq->scanDuration <= 0x05 )
   \   00002D   C3           CLR       C
   \   00002E   9406         SUBB      A,#0x6
   \   000030   5005         JNC       ??ZDO_ParseMgmtNwkUpdateReq_0
   3711            {
   3712              // Request is to scan over channelMask
   3713              pReq->scanCount = *msg;
   \   000032   12....       LCALL     ?Subroutine92 & 0xFFFF
   3714            }
   \                     ??CrossCallReturnLabel_149:
   \   000035   803D         SJMP      ??ZDO_ParseMgmtNwkUpdateReq_1
   3715            else if ( ( pReq->scanDuration == 0xFE ) || ( pReq->scanDuration == 0xFF ) )
   \                     ??ZDO_ParseMgmtNwkUpdateReq_0:
   \   000037   85..82       MOV       DPL,?V0
   \   00003A   85..83       MOV       DPH,?V1
   \   00003D   A3           INC       DPTR
   \   00003E   A3           INC       DPTR
   \   00003F   A3           INC       DPTR
   \   000040   A3           INC       DPTR
   \   000041   E0           MOVX      A,@DPTR
   \   000042   64FE         XRL       A,#0xfe
   \   000044   600E         JZ        ??ZDO_ParseMgmtNwkUpdateReq_2
   \   000046   85..82       MOV       DPL,?V0
   \   000049   85..83       MOV       DPH,?V1
   \   00004C   A3           INC       DPTR
   \   00004D   A3           INC       DPTR
   \   00004E   A3           INC       DPTR
   \   00004F   A3           INC       DPTR
   \   000050   E0           MOVX      A,@DPTR
   \   000051   F4           CPL       A
   \   000052   7021         JNZ       ??ZDO_ParseMgmtNwkUpdateReq_3
   3716            {
   3717              // Request is to change Channel (0xFE) or apsChannelMask and NwkManagerAddr (0xFF)
   3718              pReq->nwkUpdateId = *msg++;
   \                     ??ZDO_ParseMgmtNwkUpdateReq_2:
   \   000054   12....       LCALL     ?Subroutine92 & 0xFFFF
   \                     ??CrossCallReturnLabel_150:
   \   000057   A3           INC       DPTR
   \   000058   F0           MOVX      @DPTR,A
   \   000059   EE           MOV       A,R6
   \   00005A   2406         ADD       A,#0x6
   \   00005C   FE           MOV       R6,A
   \   00005D   5001         JNC       ??ZDO_ParseMgmtNwkUpdateReq_4
   \   00005F   0F           INC       R7
   3719          
   3720              if ( pReq->scanDuration == 0xFF )
   \                     ??ZDO_ParseMgmtNwkUpdateReq_4:
   \   000060   85..82       MOV       DPL,?V0
   \   000063   85..83       MOV       DPH,?V1
   \   000066   A3           INC       DPTR
   \   000067   A3           INC       DPTR
   \   000068   A3           INC       DPTR
   \   000069   A3           INC       DPTR
   \   00006A   E0           MOVX      A,@DPTR
   \   00006B   F4           CPL       A
   \   00006C   7007         JNZ       ??ZDO_ParseMgmtNwkUpdateReq_3
   3721              {
   3722                pReq->nwkManagerAddr = BUILD_UINT16( msg[0], msg[1] );
   \   00006E   12....       LCALL     ?Subroutine73 & 0xFFFF
   3723              }
   3724            }
   \                     ??CrossCallReturnLabel_116:
   \   000071   F0           MOVX      @DPTR,A
   \   000072   A3           INC       DPTR
   \   000073   E9           MOV       A,R1
   \                     ??ZDO_ParseMgmtNwkUpdateReq_1:
   \   000074   F0           MOVX      @DPTR,A
   3725          }
   \                     ??ZDO_ParseMgmtNwkUpdateReq_3:
   \   000075   02....       LJMP      ??Subroutine225_0 & 0xFFFF

   \                                 In  segment BANKED_CODE, align 1, keep-with-next
   \                     ?Subroutine92:
   \   000000   8E82         MOV       DPL,R6
   \   000002   8F83         MOV       DPH,R7
   \   000004   12....       LCALL     ?Subroutine190 & 0xFFFF
   \                     ??CrossCallReturnLabel_309:
   \   000007   22           RET

   \                                 In  segment XDATA_ID, align 1, keep-with-next
   \                     `?<Initializer for zdpExternalStateTaskID>`:
   \   000000   FFFF         DW -1

   \                                 In  segment XDATA_ROM_C, align 1
   \                     __Constant_3e8:
   \   000000   E8030000     DD 1000

   \                                 In  segment XDATA_ROM_C, align 1
   \                     __Constant_0:
   \   000000   00000000     DD 0
   3726          
   3727          /*********************************************************************
   3728          *********************************************************************/

   Maximum stack usage in bytes:

   ISTACK XSTACK Function
   ------ ------ --------
      2      0   NLME_PermitJoiningTimeout
        2      0   -> ZDSecMgrPermitJoiningTimeout
      1     70   ZDMatchSendState
        0     37   -> APS_SetEndDeviceBindTimeout
        0     37   -> ZDO_RemoveMatchMemory
        0     45   -> ZDP_BindUnbindReq
        0     42   -> ZDP_SendData
        0     37   -> sAddrExtCpy
      0     40   ZDO_AnyClusterMatches
      1     10   ZDO_BuildSimpleDescBuf
      0     45   ZDO_CompareClusterLists
      0     36   ZDO_ConvertOTAClusters
      0     43   ZDO_CopyMatchInfo
        0     15   -> osal_mem_alloc
        0     15   -> osal_mem_free
        0     18   -> osal_memcpy
      2      0   ZDO_EndDeviceBindMatchTimeoutCB
        2      0   -> ZDMatchSendState
      1     17   ZDO_EndDeviceTimeoutCB
        0     17   -> ZDP_SendData
        0     12   -> osal_mem_free
      1     20   ZDO_FinishProcessingMgmtNwkDiscReq
        0     15   -> NLME_GetProtocolVersion
        0     15   -> NLME_NwkDiscTerm
        0     20   -> ZDP_MgmtNwkDiscRsp
        0     15   -> ZMacGetReq
        0     15   -> nwk_getNwkDescList
        0     15   -> osal_mem_alloc
        0     15   -> osal_mem_free
        0     15   -> sAddrExtCpy
      2      0   ZDO_Init
        2      0   -> APS_ReflectorInit
        2      0   -> NLME_CoordinatorInit
        2      0   -> NLME_DeviceJoiningInit
        2      0   -> sAddrExtCpy
      1     30   ZDO_MatchEndDeviceBind
        0     25   -> APS_SetEndDeviceBindTimeout
        0     25   -> ZDMatchSendState
        0     29   -> ZDO_CompareClusterLists
        0     25   -> ZDO_CopyMatchInfo
        0     25   -> ZDO_RemoveMatchMemory
        0     30   -> ZDP_SendData
        0     25   -> osal_mem_alloc
        0     28   -> osal_memcpy
        0     25   -> osal_memset
      1     14   ZDO_ParseAddrRsp
        0     14   -> osal_mem_alloc
        0     14   -> sAddrExtCpy
      1     10   ZDO_ParseBindUnbindReq
        0     10   -> sAddrExtCpy
      1     52   ZDO_ParseDeviceAnnce
        0     10   -> sAddrExtCpy
      1     18   ZDO_ParseEPListRsp
        0     15   -> osal_mem_alloc
        0     18   -> osal_memcpy
      1     12   ZDO_ParseEndDeviceBindReq
        0     12   -> ZDO_ConvertOTAClusters
        0     12   -> osal_mem_alloc
        0     12   -> sAddrExtCpy
      1     16   ZDO_ParseMgmNwkDiscRsp
        0     16   -> osal_mem_alloc
        0     16   -> sAddrExtCpy
      1     18   ZDO_ParseMgmtBindRsp
        0     18   -> osal_mem_alloc
        0     18   -> sAddrExtCpy
      1     16   ZDO_ParseMgmtLqiRsp
        0     16   -> osal_mem_alloc
        0     16   -> sAddrExtCpy
      1     25   ZDO_ParseMgmtNwkUpdateNotify
        0     22   -> osal_build_uint32
        0     22   -> osal_mem_alloc
        0     25   -> osal_memcpy
      1     10   ZDO_ParseMgmtNwkUpdateReq
        0     10   -> osal_build_uint32
      1     14   ZDO_ParseMgmtRtgRsp
        0     14   -> osal_mem_alloc
      1     10   ZDO_ParseNodeDescRsp
      1     43   ZDO_ParseParentAnnce
        0     14   -> osal_mem_alloc
        0     14   -> sAddrExtCpy
      1     12   ZDO_ParsePowerDescRsp
      1      9   ZDO_ParseServerDiscRsp
      1     23   ZDO_ParseSimpleDescBuf
        0     14   -> osal_mem_alloc
        0     14   -> osal_mem_free
      1      9   ZDO_ParseSimpleDescRsp
        0      9   -> ZDO_ParseSimpleDescBuf
      1     17   ZDO_ParseUserDescRsp
        0     14   -> osal_mem_alloc
        0     17   -> osal_memcpy
      0     21   ZDO_ProcessActiveEPReq
        0     14   -> NLME_GetShortAddr
        0     21   -> ZDP_EPRsp
        0     14   -> afEndPoints
        0     14   -> afNumEndPoints
      0     29   ZDO_ProcessBindUnbindReq
        0     25   -> APSME_BindRequest
        0     24   -> APSME_LookupNwkAddr
        0     25   -> APSME_UnBindRequest
        0     24   -> NLME_GetExtAddr
        0     24   -> ZDApp_NVUpdate
        0     24   -> ZDP_NwkAddrReq
        0     29   -> ZDP_SendData
        0     24   -> sAddrExtCmp
        0     24   -> sAddrExtCpy
      0     42   ZDO_ProcessDeviceAnnce
        0     42   -> AddrMgrEntryLookupExt
        0     42   -> AddrMgrEntryLookupNwk
        0     42   -> AddrMgrEntryUpdate
        0     42   -> AddrMgrExtAddrSet
        0     42   -> AssocGetWithExt
        0     42   -> AssocRemove
        0     42   -> NLME_CheckNewAddrSet
        0     42   -> NLME_GetCoordExtAddr
        0     42   -> NLME_GetCoordShortAddr
        0     42   -> NLME_GetExtAddr
        0     42   -> NLME_GetShortAddr
        0     42   -> RTG_RemoveRtgEntry
        0     42   -> ZDO_ParseDeviceAnnce
        0     42   -> ZMacSetReq
        0     42   -> nwkNeighborRemove
        0     42   -> nwkNeighborRemoveAllStranded
        0     42   -> osal_memset
        0     42   -> sAddrExtCmp
      1     33   ZDO_ProcessMatchDescReq
        0     26   -> NLME_IsAddressBroadcast
        0     28   -> ZDO_AnyClusterMatches
        0     26   -> ZDO_ConvertOTAClusters
        0     33   -> ZDP_EPRsp
        0     26   -> osal_mem_alloc
        0     26   -> osal_mem_free
        0     29   -> osal_memcpy
        0     26   -> osal_msg_allocate
        0     26   -> osal_msg_send
      0     25   ZDO_ProcessMgmtBindReq
        0     20   -> APSME_GetRequest
        0     25   -> ZDP_MgmtBindRsp
        0     20   -> osal_mem_alloc
        0     20   -> osal_mem_free
      1     16   ZDO_ProcessMgmtDirectJoinReq
        0     11   -> NLME_DirectJoinRequest
        0     16   -> ZDP_SendData
      0     23   ZDO_ProcessMgmtLeaveReq
        0     18   -> AddrMgrExtAddrValid
        0     18   -> NLME_GetExtAddr
        0     18   -> NLME_LeaveReq
        0     18   -> NLME_SetPollRate
        0     18   -> NLME_SetQueuedPollRate
        0     18   -> NLME_SetResponseRate
        0     23   -> ZDP_SendData
        0     18   -> bdb_setFN
        0     18   -> sAddrExtCmp
      1     64   ZDO_ProcessMgmtLqiReq
        0     59   -> AddrMgrEntryLookupNwk
        0     59   -> AssocCount
        0     59   -> AssocFindDevice
        0     59   -> NLME_GetRequest
        0     64   -> ZDP_MgmtLqiRsp
        0     59   -> osal_mem_alloc
        0     59   -> osal_mem_free
        0     59   -> osal_memset
        0     59   -> sAddrExtCpy
      1     17   ZDO_ProcessMgmtNwkDiscReq
        0     17   -> NLME_NwkDiscReq2
        0     17   -> NLME_NwkDiscTerm
        0     17   -> osal_build_uint32
      1     16   ZDO_ProcessMgmtPermitJoinReq
        0     11   -> APSME_IsDistributedSecurity
        0     11   -> NLME_PermitJoiningRequest
        0     16   -> ZDP_SendData
        0     11   -> ZDSecMgrPermitJoining
      0     22   ZDO_ProcessMgmtRtgReq
        0     17   -> NLME_GetRequest
        0     22   -> ZDP_MgmtRtgRsp
        0     17   -> osal_mem_alloc
        0     17   -> osal_mem_free
      0     14   ZDO_ProcessNodeDescReq
        0     14   -> ZDP_GenericRsp
        0     12   -> ZDP_NodeDescMsg
      0      0   ZDO_ProcessNodeDescRsp
      0     34   ZDO_ProcessParentAnnce
        0     29   -> AssocGetWithExt
        0     29   -> ZDO_ParseParentAnnce
        0     34   -> ZDP_ParentAnnce
        0     29   -> osal_mem_alloc
        0     29   -> osal_mem_free
        0     29   -> sAddrExtCpy
      0     12   ZDO_ProcessParentAnnceRsp
        0     12   -> AssocGetWithExt
        0     12   -> AssocRemove
        0     12   -> ZDO_ParseParentAnnce
        0     12   -> osal_mem_free
      0     14   ZDO_ProcessPowerDescReq
        0     14   -> ZDP_GenericRsp
        0     12   -> ZDP_PowerDescMsg
      0     14   ZDO_ProcessServerDiscReq
        0     14   -> ZDP_ServerDiscRsp
      0     12   ZDO_ProcessSimpleDescReq
        0     12   -> AssocIsChild
        0     12   -> ZDP_SimpleDescMsg
        0     12   -> afFindSimpleDesc
        0     12   -> osal_mem_free
      0      0   ZDO_ProcessSimpleDescRsp
      0     33   ZDO_ProcessUserDescReq
        0     33   -> ZDP_GenericRsp
        0     32   -> ZDP_UserDescRsp
        0     33   -> osal_nv_read
      1     41   ZDO_ProcessUserDescSet
        0     41   -> ZDP_SendData
        0     39   -> osal_memcpy
        0     40   -> osal_nv_write
      2     37   ZDO_RemoveMatchMemory
        2      0   -> osal_mem_free
      0     26   ZDO_StartDevice
        0     16   -> APSME_IsDistributedSecurity
        0     16   -> NLME_JoinConfirm
        0     16   -> NLME_NetworkDiscoveryRequest
        0     26   -> NLME_NetworkFormationRequest
        0     16   -> NLME_OrphanJoinRequest
        0     16   -> NLME_StartRouterRequest
        0     16   -> ZDApp_ChangeState
        0     16   -> ZMacGetReq
        0     16   -> osal_rand
        0     20   -> osal_start_timerEx
        0     16   -> osal_stop_timerEx
      2     13   ZDO_UpdateAddrManager
        2     13   -> AddrMgrEntryUpdate
        2     13   -> AddrMgrExtAddrSet
      0      9   ZDO_UpdateNwkStatus
        0      9   -> NLME_GetExtAddr
        0      9   -> NLME_GetShortAddr
        0      9   -> zdoSendStateChangeMsg
      1     19   zdoSendStateChangeMsg
        0     10   -> osal_msg_allocate
        0     10   -> osal_msg_find
        0     10   -> osal_msg_send
        0     10   -> osal_set_event


   Segment part sizes:

   Bytes  Function/Label
   -----  --------------
       2  ?<Initializer for zdpExternalStateTaskID>
       5  ??Subroutine222_0
       5  ??Subroutine223_0
       3  ??Subroutine224_0
       5  ??Subroutine225_0
       6  ??Subroutine226_0
       1  ??Subroutine227_0
       6  ??Subroutine228_0
       5  ??Subroutine229_0
       1  ??Subroutine230_0
       5  ??Subroutine231_0
       4  ??Subroutine232_0
       7  ??Subroutine233_0
       8  ??Subroutine234_0
       2  ??Subroutine235_0
       9  ??Subroutine236_0
       6  ??Subroutine237_0
       4  ??Subroutine238_0
       6  ??Subroutine239_0
       4  ??Subroutine240_0
       8  ??Subroutine241_0
       2  ??Subroutine242_0
       5  ??Subroutine243_0
      10  ??Subroutine244_0
       4  ??Subroutine245_0
       6  ??Subroutine246_0
       5  ??Subroutine247_0
       4  ??Subroutine248_0
       2  ??Subroutine249_0
       6  ??Subroutine250_0
       3  ??Subroutine251_0
       4  ??Subroutine252_0
       6  ??Subroutine253_0
       6  ??Subroutine254_0
       4  ??Subroutine255_0
       2  ??Subroutine256_0
       6  ??Subroutine257_0
       9  ??Subroutine258_0
      10  ??Subroutine259_0
       5  ??Subroutine260_0
       5  ??Subroutine261_0
       5  ??Subroutine262_0
       2  ??Subroutine263_0
       7  ??Subroutine264_0
       7  ??Subroutine265_0
       6  ??Subroutine266_0
       8  ??Subroutine267_0
       6  ??Subroutine268_0
       2  ??Subroutine269_0
       6  ??Subroutine270_0
       8  ??Subroutine271_0
       2  ??Subroutine272_0
       6  ??Subroutine273_0
      13  ??Subroutine274_0
       4  ??Subroutine275_0
       1  ??Subroutine276_0
       5  ??Subroutine277_0
       5  ??Subroutine278_0
       4  ??Subroutine279_0
       3  ??Subroutine280_0
       5  ??Subroutine281_0
       4  ??Subroutine282_0
       8  ??Subroutine283_0
       4  ??Subroutine284_0
       5  ??Subroutine285_0
      10  ??Subroutine286_0
       6  ??Subroutine287_0
       5  ??Subroutine288_0
       6  ??Subroutine289_0
       5  ??Subroutine290_0
       6  ??Subroutine291_0
       5  ??Subroutine292_0
       5  ??Subroutine293_0
       4  ??Subroutine294_0
       1  ??Subroutine295_0
       6  ??Subroutine296_0
       7  ?Subroutine0
       3  ?Subroutine1
      38  ?Subroutine10
       1  ?Subroutine100
      10  ?Subroutine101
      13  ?Subroutine102
      14  ?Subroutine103
       6  ?Subroutine104
       9  ?Subroutine105
       2  ?Subroutine106
       4  ?Subroutine107
       6  ?Subroutine108
      17  ?Subroutine109
      26  ?Subroutine11
       2  ?Subroutine110
      13  ?Subroutine111
       1  ?Subroutine112
      13  ?Subroutine113
       1  ?Subroutine114
       7  ?Subroutine115
       7  ?Subroutine116
       3  ?Subroutine117
       7  ?Subroutine118
       4  ?Subroutine119
      17  ?Subroutine12
      13  ?Subroutine120
      16  ?Subroutine121
      17  ?Subroutine122
      12  ?Subroutine123
      12  ?Subroutine124
      10  ?Subroutine125
       2  ?Subroutine126
       4  ?Subroutine127
      15  ?Subroutine128
       8  ?Subroutine129
       5  ?Subroutine13
       9  ?Subroutine130
       3  ?Subroutine131
       1  ?Subroutine132
      11  ?Subroutine133
       3  ?Subroutine134
       7  ?Subroutine135
       8  ?Subroutine136
       1  ?Subroutine137
       9  ?Subroutine138
       4  ?Subroutine139
      26  ?Subroutine14
       7  ?Subroutine140
       4  ?Subroutine141
       4  ?Subroutine142
       4  ?Subroutine143
       1  ?Subroutine144
      23  ?Subroutine145
       9  ?Subroutine146
      13  ?Subroutine147
       1  ?Subroutine148
      10  ?Subroutine149
      15  ?Subroutine15
       4  ?Subroutine150
       4  ?Subroutine151
       7  ?Subroutine152
      11  ?Subroutine153
       8  ?Subroutine154
      16  ?Subroutine155
       1  ?Subroutine156
       4  ?Subroutine157
       6  ?Subroutine158
      14  ?Subroutine159
      17  ?Subroutine16
       8  ?Subroutine160
       1  ?Subroutine161
       4  ?Subroutine162
       1  ?Subroutine163
      12  ?Subroutine164
      16  ?Subroutine165
      10  ?Subroutine166
       9  ?Subroutine167
      11  ?Subroutine168
       9  ?Subroutine169
       3  ?Subroutine17
       1  ?Subroutine170
       7  ?Subroutine171
      12  ?Subroutine172
      10  ?Subroutine173
      13  ?Subroutine174
      11  ?Subroutine175
       7  ?Subroutine176
       7  ?Subroutine177
       4  ?Subroutine178
       4  ?Subroutine179
      11  ?Subroutine18
       6  ?Subroutine180
       9  ?Subroutine181
      11  ?Subroutine182
      15  ?Subroutine183
       2  ?Subroutine184
      16  ?Subroutine185
      13  ?Subroutine186
       7  ?Subroutine187
       3  ?Subroutine188
       7  ?Subroutine189
       7  ?Subroutine19
      18  ?Subroutine190
      12  ?Subroutine191
       1  ?Subroutine192
       6  ?Subroutine193
       2  ?Subroutine194
       2  ?Subroutine195
      17  ?Subroutine196
       3  ?Subroutine197
      10  ?Subroutine198
      11  ?Subroutine199
       2  ?Subroutine2
       6  ?Subroutine20
       5  ?Subroutine200
       7  ?Subroutine201
       5  ?Subroutine202
      10  ?Subroutine203
       9  ?Subroutine204
      10  ?Subroutine205
       1  ?Subroutine206
       8  ?Subroutine207
       1  ?Subroutine208
      10  ?Subroutine209
      12  ?Subroutine21
      10  ?Subroutine210
       9  ?Subroutine211
       7  ?Subroutine212
       9  ?Subroutine213
      11  ?Subroutine214
       6  ?Subroutine215
       6  ?Subroutine216
       3  ?Subroutine217
       6  ?Subroutine218
       9  ?Subroutine219
      18  ?Subroutine22
       1  ?Subroutine220
       9  ?Subroutine221
      14  ?Subroutine23
       8  ?Subroutine24
      11  ?Subroutine25
       7  ?Subroutine26
       6  ?Subroutine27
       6  ?Subroutine28
      24  ?Subroutine29
       5  ?Subroutine3
       5  ?Subroutine30
       6  ?Subroutine31
       4  ?Subroutine32
       6  ?Subroutine33
       5  ?Subroutine34
       4  ?Subroutine35
       6  ?Subroutine36
       4  ?Subroutine37
       6  ?Subroutine38
       4  ?Subroutine39
       4  ?Subroutine4
      13  ?Subroutine40
       8  ?Subroutine41
       4  ?Subroutine42
       9  ?Subroutine43
       4  ?Subroutine44
       4  ?Subroutine45
       4  ?Subroutine46
       5  ?Subroutine47
       8  ?Subroutine48
       8  ?Subroutine49
       3  ?Subroutine5
       7  ?Subroutine50
      27  ?Subroutine51
       6  ?Subroutine52
       4  ?Subroutine53
       3  ?Subroutine54
      20  ?Subroutine55
       5  ?Subroutine56
       4  ?Subroutine57
       4  ?Subroutine58
       6  ?Subroutine59
       5  ?Subroutine6
       9  ?Subroutine60
      35  ?Subroutine61
      17  ?Subroutine62
       3  ?Subroutine63
      18  ?Subroutine64
      31  ?Subroutine65
       4  ?Subroutine66
       4  ?Subroutine67
      17  ?Subroutine68
      22  ?Subroutine69
       3  ?Subroutine7
      12  ?Subroutine70
      30  ?Subroutine71
      38  ?Subroutine72
      21  ?Subroutine73
      16  ?Subroutine74
       4  ?Subroutine75
      12  ?Subroutine76
       7  ?Subroutine77
       9  ?Subroutine78
      10  ?Subroutine79
       3  ?Subroutine8
      10  ?Subroutine80
      16  ?Subroutine81
       8  ?Subroutine82
       4  ?Subroutine83
       6  ?Subroutine84
      25  ?Subroutine85
       3  ?Subroutine86
      11  ?Subroutine87
      11  ?Subroutine88
       7  ?Subroutine89
       5  ?Subroutine9
      18  ?Subroutine90
       7  ?Subroutine91
       8  ?Subroutine92
       6  ?Subroutine93
       6  ?Subroutine94
       3  ?Subroutine95
       6  ?Subroutine96
       6  ?Subroutine97
       6  ?Subroutine98
       3  ?Subroutine99
      13  NLME_PermitJoiningTimeout
     589  ZDMatchSendState
      52  ZDOBuildBuf
      76  ZDO_AnyClusterMatches
     206  ZDO_BuildSimpleDescBuf
     120  ZDO_CompareClusterLists
      67  ZDO_ConvertOTAClusters
     181  ZDO_CopyMatchInfo
       2  ZDO_EDBind
      16  ZDO_EndDeviceBindMatchTimeoutCB
     206  ZDO_EndDeviceTimeoutCB
     370  ZDO_FinishProcessingMgmtNwkDiscReq
      34  ZDO_Init
     634  ZDO_MatchEndDeviceBind
     212  ZDO_ParseAddrRsp
     110  ZDO_ParseBindUnbindReq
      55  ZDO_ParseDeviceAnnce
      90  ZDO_ParseEPListRsp
     235  ZDO_ParseEndDeviceBindReq
     236  ZDO_ParseMgmNwkDiscRsp
     248  ZDO_ParseMgmtBindRsp
     265  ZDO_ParseMgmtLqiRsp
     214  ZDO_ParseMgmtNwkUpdateNotify
     120  ZDO_ParseMgmtNwkUpdateReq
     184  ZDO_ParseMgmtRtgRsp
     281  ZDO_ParseNodeDescRsp
     140  ZDO_ParseParentAnnce
     207  ZDO_ParsePowerDescRsp
      50  ZDO_ParseServerDiscRsp
     238  ZDO_ParseSimpleDescBuf
      30  ZDO_ParseSimpleDescRsp
      96  ZDO_ParseUserDescRsp
     117  ZDO_ProcessActiveEPReq
     308  ZDO_ProcessBindUnbindReq
     497  ZDO_ProcessDeviceAnnce
     971  ZDO_ProcessMatchDescReq
     276  ZDO_ProcessMgmtBindReq
      84  ZDO_ProcessMgmtDirectJoinReq
     242  ZDO_ProcessMgmtLeaveReq
     678  ZDO_ProcessMgmtLqiReq
     115  ZDO_ProcessMgmtNwkDiscReq
     139  ZDO_ProcessMgmtPermitJoinReq
     299  ZDO_ProcessMgmtRtgReq
      66  ZDO_ProcessNodeDescReq
       3  ZDO_ProcessNodeDescRsp
     437  ZDO_ProcessParentAnnce
     123  ZDO_ProcessParentAnnceRsp
      66  ZDO_ProcessPowerDescReq
      71  ZDO_ProcessServerDiscReq
     163  ZDO_ProcessSimpleDescReq
       3  ZDO_ProcessSimpleDescRsp
     155  ZDO_ProcessUserDescReq
     282  ZDO_ProcessUserDescSet
     118  ZDO_RemoveMatchMemory
     385  ZDO_StartDevice
      51  ZDO_UpdateAddrManager
     111  ZDO_UpdateNwkStatus
       4  __Constant_0
       4  __Constant_3e8
       4  apsChannelMask
       1  discRetries
       2  matchED
       1  scanCnt
      73  zdoSendStateChangeMsg
       2  zdpExternalStateTaskID
     336  -- Other

 
 13 690 bytes in segment BANKED_CODE
    336 bytes in segment BANK_RELAYS
      2 bytes in segment XDATA_I
      2 bytes in segment XDATA_ID
      8 bytes in segment XDATA_ROM_C
     62 bytes in segment XDATA_Z
 
    338 bytes of CODE     memory
      0 bytes of CONST    memory (+ 8 bytes shared)
 13 690 bytes of HUGECODE memory
     64 bytes of XDATA    memory

Errors: none
Warnings: none
